
./kernel:     file format elf32-littlearm


Disassembly of section .text:

00008000 <_start>:
_start():
/home/silhavyj/School/ZeroMate/examples/07-LED_toggle_debug_monitor/kernel/src/start.s:8
;@ tady budou symboly, ktere chceme na zacatek kodove sekce
.section .text.start

;@ vstupni bod do kernelu - nechame ho vlozit na zacatek kodu
_start:
    mov sp,#0x8000			;@ nastavime stack pointer na spodek zasobniku
    8000:	e3a0d902 	mov	sp, #32768	; 0x8000
/home/silhavyj/School/ZeroMate/examples/07-LED_toggle_debug_monitor/kernel/src/start.s:9
	bl _c_startup			;@ C startup kod (inicializace prostredi)
    8004:	eb0003f6 	bl	8fe4 <_c_startup>
/home/silhavyj/School/ZeroMate/examples/07-LED_toggle_debug_monitor/kernel/src/start.s:10
	bl _cpp_startup			;@ C++ startup kod (volani globalnich konstruktoru, ...)
    8008:	eb00040f 	bl	904c <_cpp_startup>
/home/silhavyj/School/ZeroMate/examples/07-LED_toggle_debug_monitor/kernel/src/start.s:11
    bl _kernel_main			;@ skocime do hlavniho kodu jadra (v C)
    800c:	eb000387 	bl	8e30 <_kernel_main>
/home/silhavyj/School/ZeroMate/examples/07-LED_toggle_debug_monitor/kernel/src/start.s:12
	bl _cpp_shutdown		;@ C++ shutdown kod (volani globalnich destruktoru, ...)
    8010:	eb000423 	bl	90a4 <_cpp_shutdown>

00008014 <hang>:
hang():
/home/silhavyj/School/ZeroMate/examples/07-LED_toggle_debug_monitor/kernel/src/start.s:14
hang:
    b hang
    8014:	eafffffe 	b	8014 <hang>

00008018 <__cxa_guard_acquire>:
__cxa_guard_acquire():
/home/silhavyj/School/ZeroMate/examples/07-LED_toggle_debug_monitor/kernel/src/cxx.cpp:11
    extern "C" int __cxa_guard_acquire(__guard*);
    extern "C" void __cxa_guard_release(__guard*);
    extern "C" void __cxa_guard_abort(__guard*);

    extern "C" int __cxa_guard_acquire(__guard* g)
    {
    8018:	e52db004 	push	{fp}		; (str fp, [sp, #-4]!)
    801c:	e28db000 	add	fp, sp, #0
    8020:	e24dd00c 	sub	sp, sp, #12
    8024:	e50b0008 	str	r0, [fp, #-8]
/home/silhavyj/School/ZeroMate/examples/07-LED_toggle_debug_monitor/kernel/src/cxx.cpp:12
        return !*(char*)(g);
    8028:	e51b3008 	ldr	r3, [fp, #-8]
    802c:	e5d33000 	ldrb	r3, [r3]
    8030:	e3530000 	cmp	r3, #0
    8034:	03a03001 	moveq	r3, #1
    8038:	13a03000 	movne	r3, #0
    803c:	e6ef3073 	uxtb	r3, r3
/home/silhavyj/School/ZeroMate/examples/07-LED_toggle_debug_monitor/kernel/src/cxx.cpp:13
    }
    8040:	e1a00003 	mov	r0, r3
    8044:	e28bd000 	add	sp, fp, #0
    8048:	e49db004 	pop	{fp}		; (ldr fp, [sp], #4)
    804c:	e12fff1e 	bx	lr

00008050 <__cxa_guard_release>:
__cxa_guard_release():
/home/silhavyj/School/ZeroMate/examples/07-LED_toggle_debug_monitor/kernel/src/cxx.cpp:16

    extern "C" void __cxa_guard_release(__guard* g)
    {
    8050:	e52db004 	push	{fp}		; (str fp, [sp, #-4]!)
    8054:	e28db000 	add	fp, sp, #0
    8058:	e24dd00c 	sub	sp, sp, #12
    805c:	e50b0008 	str	r0, [fp, #-8]
/home/silhavyj/School/ZeroMate/examples/07-LED_toggle_debug_monitor/kernel/src/cxx.cpp:17
        *(char*)g = 1;
    8060:	e51b3008 	ldr	r3, [fp, #-8]
    8064:	e3a02001 	mov	r2, #1
    8068:	e5c32000 	strb	r2, [r3]
/home/silhavyj/School/ZeroMate/examples/07-LED_toggle_debug_monitor/kernel/src/cxx.cpp:18
    }
    806c:	e320f000 	nop	{0}
    8070:	e28bd000 	add	sp, fp, #0
    8074:	e49db004 	pop	{fp}		; (ldr fp, [sp], #4)
    8078:	e12fff1e 	bx	lr

0000807c <__cxa_guard_abort>:
__cxa_guard_abort():
/home/silhavyj/School/ZeroMate/examples/07-LED_toggle_debug_monitor/kernel/src/cxx.cpp:21

    extern "C" void __cxa_guard_abort(__guard*)
    {
    807c:	e52db004 	push	{fp}		; (str fp, [sp, #-4]!)
    8080:	e28db000 	add	fp, sp, #0
    8084:	e24dd00c 	sub	sp, sp, #12
    8088:	e50b0008 	str	r0, [fp, #-8]
/home/silhavyj/School/ZeroMate/examples/07-LED_toggle_debug_monitor/kernel/src/cxx.cpp:22
    }
    808c:	e320f000 	nop	{0}
    8090:	e28bd000 	add	sp, fp, #0
    8094:	e49db004 	pop	{fp}		; (ldr fp, [sp], #4)
    8098:	e12fff1e 	bx	lr

0000809c <__dso_handle>:
__dso_handle():
/home/silhavyj/School/ZeroMate/examples/07-LED_toggle_debug_monitor/kernel/src/cxx.cpp:26
}

extern "C" void __dso_handle()
{
    809c:	e52db004 	push	{fp}		; (str fp, [sp, #-4]!)
    80a0:	e28db000 	add	fp, sp, #0
/home/silhavyj/School/ZeroMate/examples/07-LED_toggle_debug_monitor/kernel/src/cxx.cpp:28
    // ignore dtors for now
}
    80a4:	e320f000 	nop	{0}
    80a8:	e28bd000 	add	sp, fp, #0
    80ac:	e49db004 	pop	{fp}		; (ldr fp, [sp], #4)
    80b0:	e12fff1e 	bx	lr

000080b4 <__cxa_atexit>:
__cxa_atexit():
/home/silhavyj/School/ZeroMate/examples/07-LED_toggle_debug_monitor/kernel/src/cxx.cpp:31

extern "C" void __cxa_atexit()
{
    80b4:	e52db004 	push	{fp}		; (str fp, [sp, #-4]!)
    80b8:	e28db000 	add	fp, sp, #0
/home/silhavyj/School/ZeroMate/examples/07-LED_toggle_debug_monitor/kernel/src/cxx.cpp:33
    // ignore dtors for now
}
    80bc:	e320f000 	nop	{0}
    80c0:	e28bd000 	add	sp, fp, #0
    80c4:	e49db004 	pop	{fp}		; (ldr fp, [sp], #4)
    80c8:	e12fff1e 	bx	lr

000080cc <__cxa_pure_virtual>:
__cxa_pure_virtual():
/home/silhavyj/School/ZeroMate/examples/07-LED_toggle_debug_monitor/kernel/src/cxx.cpp:36

extern "C" void __cxa_pure_virtual()
{
    80cc:	e52db004 	push	{fp}		; (str fp, [sp, #-4]!)
    80d0:	e28db000 	add	fp, sp, #0
/home/silhavyj/School/ZeroMate/examples/07-LED_toggle_debug_monitor/kernel/src/cxx.cpp:38
    // pure virtual method called
}
    80d4:	e320f000 	nop	{0}
    80d8:	e28bd000 	add	sp, fp, #0
    80dc:	e49db004 	pop	{fp}		; (ldr fp, [sp], #4)
    80e0:	e12fff1e 	bx	lr

000080e4 <__aeabi_unwind_cpp_pr1>:
__aeabi_unwind_cpp_pr1():
/home/silhavyj/School/ZeroMate/examples/07-LED_toggle_debug_monitor/kernel/src/cxx.cpp:41

extern "C" void __aeabi_unwind_cpp_pr1()
{
    80e4:	e52db004 	push	{fp}		; (str fp, [sp, #-4]!)
    80e8:	e28db000 	add	fp, sp, #0
/home/silhavyj/School/ZeroMate/examples/07-LED_toggle_debug_monitor/kernel/src/cxx.cpp:42 (discriminator 1)
    while (true)
    80ec:	eafffffe 	b	80ec <__aeabi_unwind_cpp_pr1+0x8>

000080f0 <_ZN13CGPIO_HandlerC1Ej>:
_ZN13CGPIO_HandlerC2Ej():
/home/silhavyj/School/ZeroMate/examples/07-LED_toggle_debug_monitor/kernel/src/drivers/gpio.cpp:6
#include <hal/peripherals.h>
#include <drivers/gpio.h>

CGPIO_Handler sGPIO(hal::GPIO_Base);

CGPIO_Handler::CGPIO_Handler(unsigned int gpio_base_addr)
    80f0:	e52db004 	push	{fp}		; (str fp, [sp, #-4]!)
    80f4:	e28db000 	add	fp, sp, #0
    80f8:	e24dd00c 	sub	sp, sp, #12
    80fc:	e50b0008 	str	r0, [fp, #-8]
    8100:	e50b100c 	str	r1, [fp, #-12]
/home/silhavyj/School/ZeroMate/examples/07-LED_toggle_debug_monitor/kernel/src/drivers/gpio.cpp:7
: mGPIO(reinterpret_cast<unsigned int*>(gpio_base_addr))
    8104:	e51b200c 	ldr	r2, [fp, #-12]
    8108:	e51b3008 	ldr	r3, [fp, #-8]
    810c:	e5832000 	str	r2, [r3]
/home/silhavyj/School/ZeroMate/examples/07-LED_toggle_debug_monitor/kernel/src/drivers/gpio.cpp:10
{
    //
}
    8110:	e51b3008 	ldr	r3, [fp, #-8]
    8114:	e1a00003 	mov	r0, r3
    8118:	e28bd000 	add	sp, fp, #0
    811c:	e49db004 	pop	{fp}		; (ldr fp, [sp], #4)
    8120:	e12fff1e 	bx	lr

00008124 <_ZNK13CGPIO_Handler19Get_GPFSEL_LocationEjRjS0_>:
_ZNK13CGPIO_Handler19Get_GPFSEL_LocationEjRjS0_():
/home/silhavyj/School/ZeroMate/examples/07-LED_toggle_debug_monitor/kernel/src/drivers/gpio.cpp:13

bool CGPIO_Handler::Get_GPFSEL_Location(uint32_t pin, uint32_t& reg, uint32_t& bit_idx) const
{
    8124:	e52db004 	push	{fp}		; (str fp, [sp, #-4]!)
    8128:	e28db000 	add	fp, sp, #0
    812c:	e24dd014 	sub	sp, sp, #20
    8130:	e50b0008 	str	r0, [fp, #-8]
    8134:	e50b100c 	str	r1, [fp, #-12]
    8138:	e50b2010 	str	r2, [fp, #-16]
    813c:	e50b3014 	str	r3, [fp, #-20]	; 0xffffffec
/home/silhavyj/School/ZeroMate/examples/07-LED_toggle_debug_monitor/kernel/src/drivers/gpio.cpp:14
    if (pin > hal::GPIO_Pin_Count)
    8140:	e51b300c 	ldr	r3, [fp, #-12]
    8144:	e3530036 	cmp	r3, #54	; 0x36
    8148:	9a000001 	bls	8154 <_ZNK13CGPIO_Handler19Get_GPFSEL_LocationEjRjS0_+0x30>
/home/silhavyj/School/ZeroMate/examples/07-LED_toggle_debug_monitor/kernel/src/drivers/gpio.cpp:15
        return false;
    814c:	e3a03000 	mov	r3, #0
    8150:	ea000033 	b	8224 <_ZNK13CGPIO_Handler19Get_GPFSEL_LocationEjRjS0_+0x100>
/home/silhavyj/School/ZeroMate/examples/07-LED_toggle_debug_monitor/kernel/src/drivers/gpio.cpp:17

    switch (pin / 10)
    8154:	e51b300c 	ldr	r3, [fp, #-12]
    8158:	e59f20d4 	ldr	r2, [pc, #212]	; 8234 <_ZNK13CGPIO_Handler19Get_GPFSEL_LocationEjRjS0_+0x110>
    815c:	e0832392 	umull	r2, r3, r2, r3
    8160:	e1a031a3 	lsr	r3, r3, #3
    8164:	e3530005 	cmp	r3, #5
    8168:	979ff103 	ldrls	pc, [pc, r3, lsl #2]
    816c:	ea00001d 	b	81e8 <_ZNK13CGPIO_Handler19Get_GPFSEL_LocationEjRjS0_+0xc4>
    8170:	00008188 	andeq	r8, r0, r8, lsl #3
    8174:	00008198 	muleq	r0, r8, r1
    8178:	000081a8 	andeq	r8, r0, r8, lsr #3
    817c:	000081b8 			; <UNDEFINED> instruction: 0x000081b8
    8180:	000081c8 	andeq	r8, r0, r8, asr #3
    8184:	000081d8 	ldrdeq	r8, [r0], -r8	; <UNPREDICTABLE>
/home/silhavyj/School/ZeroMate/examples/07-LED_toggle_debug_monitor/kernel/src/drivers/gpio.cpp:20
    {
        case 0:
            reg = static_cast<uint32_t>(hal::GPIO_Reg::GPFSEL0);
    8188:	e51b3010 	ldr	r3, [fp, #-16]
    818c:	e3a02000 	mov	r2, #0
    8190:	e5832000 	str	r2, [r3]
/home/silhavyj/School/ZeroMate/examples/07-LED_toggle_debug_monitor/kernel/src/drivers/gpio.cpp:21
            break;
    8194:	ea000013 	b	81e8 <_ZNK13CGPIO_Handler19Get_GPFSEL_LocationEjRjS0_+0xc4>
/home/silhavyj/School/ZeroMate/examples/07-LED_toggle_debug_monitor/kernel/src/drivers/gpio.cpp:23
        case 1:
            reg = static_cast<uint32_t>(hal::GPIO_Reg::GPFSEL1);
    8198:	e51b3010 	ldr	r3, [fp, #-16]
    819c:	e3a02001 	mov	r2, #1
    81a0:	e5832000 	str	r2, [r3]
/home/silhavyj/School/ZeroMate/examples/07-LED_toggle_debug_monitor/kernel/src/drivers/gpio.cpp:24
            break;
    81a4:	ea00000f 	b	81e8 <_ZNK13CGPIO_Handler19Get_GPFSEL_LocationEjRjS0_+0xc4>
/home/silhavyj/School/ZeroMate/examples/07-LED_toggle_debug_monitor/kernel/src/drivers/gpio.cpp:26
        case 2:
            reg = static_cast<uint32_t>(hal::GPIO_Reg::GPFSEL2);
    81a8:	e51b3010 	ldr	r3, [fp, #-16]
    81ac:	e3a02002 	mov	r2, #2
    81b0:	e5832000 	str	r2, [r3]
/home/silhavyj/School/ZeroMate/examples/07-LED_toggle_debug_monitor/kernel/src/drivers/gpio.cpp:27
            break;
    81b4:	ea00000b 	b	81e8 <_ZNK13CGPIO_Handler19Get_GPFSEL_LocationEjRjS0_+0xc4>
/home/silhavyj/School/ZeroMate/examples/07-LED_toggle_debug_monitor/kernel/src/drivers/gpio.cpp:29
        case 3:
            reg = static_cast<uint32_t>(hal::GPIO_Reg::GPFSEL3);
    81b8:	e51b3010 	ldr	r3, [fp, #-16]
    81bc:	e3a02003 	mov	r2, #3
    81c0:	e5832000 	str	r2, [r3]
/home/silhavyj/School/ZeroMate/examples/07-LED_toggle_debug_monitor/kernel/src/drivers/gpio.cpp:30
            break;
    81c4:	ea000007 	b	81e8 <_ZNK13CGPIO_Handler19Get_GPFSEL_LocationEjRjS0_+0xc4>
/home/silhavyj/School/ZeroMate/examples/07-LED_toggle_debug_monitor/kernel/src/drivers/gpio.cpp:32
        case 4:
            reg = static_cast<uint32_t>(hal::GPIO_Reg::GPFSEL4);
    81c8:	e51b3010 	ldr	r3, [fp, #-16]
    81cc:	e3a02004 	mov	r2, #4
    81d0:	e5832000 	str	r2, [r3]
/home/silhavyj/School/ZeroMate/examples/07-LED_toggle_debug_monitor/kernel/src/drivers/gpio.cpp:33
            break;
    81d4:	ea000003 	b	81e8 <_ZNK13CGPIO_Handler19Get_GPFSEL_LocationEjRjS0_+0xc4>
/home/silhavyj/School/ZeroMate/examples/07-LED_toggle_debug_monitor/kernel/src/drivers/gpio.cpp:35
        case 5:
            reg = static_cast<uint32_t>(hal::GPIO_Reg::GPFSEL5);
    81d8:	e51b3010 	ldr	r3, [fp, #-16]
    81dc:	e3a02005 	mov	r2, #5
    81e0:	e5832000 	str	r2, [r3]
/home/silhavyj/School/ZeroMate/examples/07-LED_toggle_debug_monitor/kernel/src/drivers/gpio.cpp:36
            break;
    81e4:	e320f000 	nop	{0}
/home/silhavyj/School/ZeroMate/examples/07-LED_toggle_debug_monitor/kernel/src/drivers/gpio.cpp:39
    }

    bit_idx = (pin % 10) * 3;
    81e8:	e51b100c 	ldr	r1, [fp, #-12]
    81ec:	e59f3040 	ldr	r3, [pc, #64]	; 8234 <_ZNK13CGPIO_Handler19Get_GPFSEL_LocationEjRjS0_+0x110>
    81f0:	e0832193 	umull	r2, r3, r3, r1
    81f4:	e1a021a3 	lsr	r2, r3, #3
    81f8:	e1a03002 	mov	r3, r2
    81fc:	e1a03103 	lsl	r3, r3, #2
    8200:	e0833002 	add	r3, r3, r2
    8204:	e1a03083 	lsl	r3, r3, #1
    8208:	e0412003 	sub	r2, r1, r3
    820c:	e1a03002 	mov	r3, r2
    8210:	e1a03083 	lsl	r3, r3, #1
    8214:	e0832002 	add	r2, r3, r2
    8218:	e51b3014 	ldr	r3, [fp, #-20]	; 0xffffffec
    821c:	e5832000 	str	r2, [r3]
/home/silhavyj/School/ZeroMate/examples/07-LED_toggle_debug_monitor/kernel/src/drivers/gpio.cpp:41

    return true;
    8220:	e3a03001 	mov	r3, #1
/home/silhavyj/School/ZeroMate/examples/07-LED_toggle_debug_monitor/kernel/src/drivers/gpio.cpp:42
}
    8224:	e1a00003 	mov	r0, r3
    8228:	e28bd000 	add	sp, fp, #0
    822c:	e49db004 	pop	{fp}		; (ldr fp, [sp], #4)
    8230:	e12fff1e 	bx	lr
    8234:	cccccccd 	stclgt	12, cr12, [ip], {205}	; 0xcd

00008238 <_ZNK13CGPIO_Handler18Get_GPCLR_LocationEjRjS0_>:
_ZNK13CGPIO_Handler18Get_GPCLR_LocationEjRjS0_():
/home/silhavyj/School/ZeroMate/examples/07-LED_toggle_debug_monitor/kernel/src/drivers/gpio.cpp:45

bool CGPIO_Handler::Get_GPCLR_Location(uint32_t pin, uint32_t& reg, uint32_t& bit_idx) const
{
    8238:	e52db004 	push	{fp}		; (str fp, [sp, #-4]!)
    823c:	e28db000 	add	fp, sp, #0
    8240:	e24dd014 	sub	sp, sp, #20
    8244:	e50b0008 	str	r0, [fp, #-8]
    8248:	e50b100c 	str	r1, [fp, #-12]
    824c:	e50b2010 	str	r2, [fp, #-16]
    8250:	e50b3014 	str	r3, [fp, #-20]	; 0xffffffec
/home/silhavyj/School/ZeroMate/examples/07-LED_toggle_debug_monitor/kernel/src/drivers/gpio.cpp:46
    if (pin > hal::GPIO_Pin_Count)
    8254:	e51b300c 	ldr	r3, [fp, #-12]
    8258:	e3530036 	cmp	r3, #54	; 0x36
    825c:	9a000001 	bls	8268 <_ZNK13CGPIO_Handler18Get_GPCLR_LocationEjRjS0_+0x30>
/home/silhavyj/School/ZeroMate/examples/07-LED_toggle_debug_monitor/kernel/src/drivers/gpio.cpp:47
        return false;
    8260:	e3a03000 	mov	r3, #0
    8264:	ea00000c 	b	829c <_ZNK13CGPIO_Handler18Get_GPCLR_LocationEjRjS0_+0x64>
/home/silhavyj/School/ZeroMate/examples/07-LED_toggle_debug_monitor/kernel/src/drivers/gpio.cpp:49

    reg = static_cast<uint32_t>((pin < 32) ? hal::GPIO_Reg::GPCLR0 : hal::GPIO_Reg::GPCLR1);
    8268:	e51b300c 	ldr	r3, [fp, #-12]
    826c:	e353001f 	cmp	r3, #31
    8270:	8a000001 	bhi	827c <_ZNK13CGPIO_Handler18Get_GPCLR_LocationEjRjS0_+0x44>
/home/silhavyj/School/ZeroMate/examples/07-LED_toggle_debug_monitor/kernel/src/drivers/gpio.cpp:49 (discriminator 1)
    8274:	e3a0200a 	mov	r2, #10
    8278:	ea000000 	b	8280 <_ZNK13CGPIO_Handler18Get_GPCLR_LocationEjRjS0_+0x48>
/home/silhavyj/School/ZeroMate/examples/07-LED_toggle_debug_monitor/kernel/src/drivers/gpio.cpp:49 (discriminator 2)
    827c:	e3a0200b 	mov	r2, #11
/home/silhavyj/School/ZeroMate/examples/07-LED_toggle_debug_monitor/kernel/src/drivers/gpio.cpp:49 (discriminator 4)
    8280:	e51b3010 	ldr	r3, [fp, #-16]
    8284:	e5832000 	str	r2, [r3]
/home/silhavyj/School/ZeroMate/examples/07-LED_toggle_debug_monitor/kernel/src/drivers/gpio.cpp:50 (discriminator 4)
    bit_idx = pin % 32;
    8288:	e51b300c 	ldr	r3, [fp, #-12]
    828c:	e203201f 	and	r2, r3, #31
    8290:	e51b3014 	ldr	r3, [fp, #-20]	; 0xffffffec
    8294:	e5832000 	str	r2, [r3]
/home/silhavyj/School/ZeroMate/examples/07-LED_toggle_debug_monitor/kernel/src/drivers/gpio.cpp:52 (discriminator 4)

    return true;
    8298:	e3a03001 	mov	r3, #1
/home/silhavyj/School/ZeroMate/examples/07-LED_toggle_debug_monitor/kernel/src/drivers/gpio.cpp:53
}
    829c:	e1a00003 	mov	r0, r3
    82a0:	e28bd000 	add	sp, fp, #0
    82a4:	e49db004 	pop	{fp}		; (ldr fp, [sp], #4)
    82a8:	e12fff1e 	bx	lr

000082ac <_ZNK13CGPIO_Handler18Get_GPSET_LocationEjRjS0_>:
_ZNK13CGPIO_Handler18Get_GPSET_LocationEjRjS0_():
/home/silhavyj/School/ZeroMate/examples/07-LED_toggle_debug_monitor/kernel/src/drivers/gpio.cpp:56

bool CGPIO_Handler::Get_GPSET_Location(uint32_t pin, uint32_t& reg, uint32_t& bit_idx) const
{
    82ac:	e52db004 	push	{fp}		; (str fp, [sp, #-4]!)
    82b0:	e28db000 	add	fp, sp, #0
    82b4:	e24dd014 	sub	sp, sp, #20
    82b8:	e50b0008 	str	r0, [fp, #-8]
    82bc:	e50b100c 	str	r1, [fp, #-12]
    82c0:	e50b2010 	str	r2, [fp, #-16]
    82c4:	e50b3014 	str	r3, [fp, #-20]	; 0xffffffec
/home/silhavyj/School/ZeroMate/examples/07-LED_toggle_debug_monitor/kernel/src/drivers/gpio.cpp:57
    if (pin > hal::GPIO_Pin_Count)
    82c8:	e51b300c 	ldr	r3, [fp, #-12]
    82cc:	e3530036 	cmp	r3, #54	; 0x36
    82d0:	9a000001 	bls	82dc <_ZNK13CGPIO_Handler18Get_GPSET_LocationEjRjS0_+0x30>
/home/silhavyj/School/ZeroMate/examples/07-LED_toggle_debug_monitor/kernel/src/drivers/gpio.cpp:58
        return false;
    82d4:	e3a03000 	mov	r3, #0
    82d8:	ea00000c 	b	8310 <_ZNK13CGPIO_Handler18Get_GPSET_LocationEjRjS0_+0x64>
/home/silhavyj/School/ZeroMate/examples/07-LED_toggle_debug_monitor/kernel/src/drivers/gpio.cpp:60

    reg = static_cast<uint32_t>((pin < 32) ? hal::GPIO_Reg::GPSET0 : hal::GPIO_Reg::GPSET1);
    82dc:	e51b300c 	ldr	r3, [fp, #-12]
    82e0:	e353001f 	cmp	r3, #31
    82e4:	8a000001 	bhi	82f0 <_ZNK13CGPIO_Handler18Get_GPSET_LocationEjRjS0_+0x44>
/home/silhavyj/School/ZeroMate/examples/07-LED_toggle_debug_monitor/kernel/src/drivers/gpio.cpp:60 (discriminator 1)
    82e8:	e3a02007 	mov	r2, #7
    82ec:	ea000000 	b	82f4 <_ZNK13CGPIO_Handler18Get_GPSET_LocationEjRjS0_+0x48>
/home/silhavyj/School/ZeroMate/examples/07-LED_toggle_debug_monitor/kernel/src/drivers/gpio.cpp:60 (discriminator 2)
    82f0:	e3a02008 	mov	r2, #8
/home/silhavyj/School/ZeroMate/examples/07-LED_toggle_debug_monitor/kernel/src/drivers/gpio.cpp:60 (discriminator 4)
    82f4:	e51b3010 	ldr	r3, [fp, #-16]
    82f8:	e5832000 	str	r2, [r3]
/home/silhavyj/School/ZeroMate/examples/07-LED_toggle_debug_monitor/kernel/src/drivers/gpio.cpp:61 (discriminator 4)
    bit_idx = pin % 32;
    82fc:	e51b300c 	ldr	r3, [fp, #-12]
    8300:	e203201f 	and	r2, r3, #31
    8304:	e51b3014 	ldr	r3, [fp, #-20]	; 0xffffffec
    8308:	e5832000 	str	r2, [r3]
/home/silhavyj/School/ZeroMate/examples/07-LED_toggle_debug_monitor/kernel/src/drivers/gpio.cpp:63 (discriminator 4)

    return true;
    830c:	e3a03001 	mov	r3, #1
/home/silhavyj/School/ZeroMate/examples/07-LED_toggle_debug_monitor/kernel/src/drivers/gpio.cpp:64
}
    8310:	e1a00003 	mov	r0, r3
    8314:	e28bd000 	add	sp, fp, #0
    8318:	e49db004 	pop	{fp}		; (ldr fp, [sp], #4)
    831c:	e12fff1e 	bx	lr

00008320 <_ZNK13CGPIO_Handler18Get_GPLEV_LocationEjRjS0_>:
_ZNK13CGPIO_Handler18Get_GPLEV_LocationEjRjS0_():
/home/silhavyj/School/ZeroMate/examples/07-LED_toggle_debug_monitor/kernel/src/drivers/gpio.cpp:67

bool CGPIO_Handler::Get_GPLEV_Location(uint32_t pin, uint32_t& reg, uint32_t& bit_idx) const
{
    8320:	e52db004 	push	{fp}		; (str fp, [sp, #-4]!)
    8324:	e28db000 	add	fp, sp, #0
    8328:	e24dd014 	sub	sp, sp, #20
    832c:	e50b0008 	str	r0, [fp, #-8]
    8330:	e50b100c 	str	r1, [fp, #-12]
    8334:	e50b2010 	str	r2, [fp, #-16]
    8338:	e50b3014 	str	r3, [fp, #-20]	; 0xffffffec
/home/silhavyj/School/ZeroMate/examples/07-LED_toggle_debug_monitor/kernel/src/drivers/gpio.cpp:68
    if (pin > hal::GPIO_Pin_Count)
    833c:	e51b300c 	ldr	r3, [fp, #-12]
    8340:	e3530036 	cmp	r3, #54	; 0x36
    8344:	9a000001 	bls	8350 <_ZNK13CGPIO_Handler18Get_GPLEV_LocationEjRjS0_+0x30>
/home/silhavyj/School/ZeroMate/examples/07-LED_toggle_debug_monitor/kernel/src/drivers/gpio.cpp:69
        return false;
    8348:	e3a03000 	mov	r3, #0
    834c:	ea00000c 	b	8384 <_ZNK13CGPIO_Handler18Get_GPLEV_LocationEjRjS0_+0x64>
/home/silhavyj/School/ZeroMate/examples/07-LED_toggle_debug_monitor/kernel/src/drivers/gpio.cpp:71

    reg = static_cast<uint32_t>((pin < 32) ? hal::GPIO_Reg::GPLEV0 : hal::GPIO_Reg::GPLEV1);
    8350:	e51b300c 	ldr	r3, [fp, #-12]
    8354:	e353001f 	cmp	r3, #31
    8358:	8a000001 	bhi	8364 <_ZNK13CGPIO_Handler18Get_GPLEV_LocationEjRjS0_+0x44>
/home/silhavyj/School/ZeroMate/examples/07-LED_toggle_debug_monitor/kernel/src/drivers/gpio.cpp:71 (discriminator 1)
    835c:	e3a0200d 	mov	r2, #13
    8360:	ea000000 	b	8368 <_ZNK13CGPIO_Handler18Get_GPLEV_LocationEjRjS0_+0x48>
/home/silhavyj/School/ZeroMate/examples/07-LED_toggle_debug_monitor/kernel/src/drivers/gpio.cpp:71 (discriminator 2)
    8364:	e3a0200e 	mov	r2, #14
/home/silhavyj/School/ZeroMate/examples/07-LED_toggle_debug_monitor/kernel/src/drivers/gpio.cpp:71 (discriminator 4)
    8368:	e51b3010 	ldr	r3, [fp, #-16]
    836c:	e5832000 	str	r2, [r3]
/home/silhavyj/School/ZeroMate/examples/07-LED_toggle_debug_monitor/kernel/src/drivers/gpio.cpp:72 (discriminator 4)
    bit_idx = pin % 32;
    8370:	e51b300c 	ldr	r3, [fp, #-12]
    8374:	e203201f 	and	r2, r3, #31
    8378:	e51b3014 	ldr	r3, [fp, #-20]	; 0xffffffec
    837c:	e5832000 	str	r2, [r3]
/home/silhavyj/School/ZeroMate/examples/07-LED_toggle_debug_monitor/kernel/src/drivers/gpio.cpp:74 (discriminator 4)

    return true;
    8380:	e3a03001 	mov	r3, #1
/home/silhavyj/School/ZeroMate/examples/07-LED_toggle_debug_monitor/kernel/src/drivers/gpio.cpp:75
}
    8384:	e1a00003 	mov	r0, r3
    8388:	e28bd000 	add	sp, fp, #0
    838c:	e49db004 	pop	{fp}		; (ldr fp, [sp], #4)
    8390:	e12fff1e 	bx	lr

00008394 <_ZN13CGPIO_Handler17Set_GPIO_FunctionEj14NGPIO_Function>:
_ZN13CGPIO_Handler17Set_GPIO_FunctionEj14NGPIO_Function():
/home/silhavyj/School/ZeroMate/examples/07-LED_toggle_debug_monitor/kernel/src/drivers/gpio.cpp:78

void CGPIO_Handler::Set_GPIO_Function(uint32_t pin, NGPIO_Function func)
{
    8394:	e92d4800 	push	{fp, lr}
    8398:	e28db004 	add	fp, sp, #4
    839c:	e24dd018 	sub	sp, sp, #24
    83a0:	e50b0010 	str	r0, [fp, #-16]
    83a4:	e50b1014 	str	r1, [fp, #-20]	; 0xffffffec
    83a8:	e1a03002 	mov	r3, r2
    83ac:	e54b3015 	strb	r3, [fp, #-21]	; 0xffffffeb
/home/silhavyj/School/ZeroMate/examples/07-LED_toggle_debug_monitor/kernel/src/drivers/gpio.cpp:80
    uint32_t reg, bit;
    if (!Get_GPFSEL_Location(pin, reg, bit))
    83b0:	e24b300c 	sub	r3, fp, #12
    83b4:	e24b2008 	sub	r2, fp, #8
    83b8:	e51b1014 	ldr	r1, [fp, #-20]	; 0xffffffec
    83bc:	e51b0010 	ldr	r0, [fp, #-16]
    83c0:	ebffff57 	bl	8124 <_ZNK13CGPIO_Handler19Get_GPFSEL_LocationEjRjS0_>
    83c4:	e1a03000 	mov	r3, r0
    83c8:	e2233001 	eor	r3, r3, #1
    83cc:	e6ef3073 	uxtb	r3, r3
    83d0:	e3530000 	cmp	r3, #0
    83d4:	1a000015 	bne	8430 <_ZN13CGPIO_Handler17Set_GPIO_FunctionEj14NGPIO_Function+0x9c>
/home/silhavyj/School/ZeroMate/examples/07-LED_toggle_debug_monitor/kernel/src/drivers/gpio.cpp:83
        return;

    mGPIO[reg] = (mGPIO[reg] & (~static_cast<unsigned int>(7 << bit))) | (static_cast<unsigned int>(func) << bit);
    83d8:	e51b3010 	ldr	r3, [fp, #-16]
    83dc:	e5932000 	ldr	r2, [r3]
    83e0:	e51b3008 	ldr	r3, [fp, #-8]
    83e4:	e1a03103 	lsl	r3, r3, #2
    83e8:	e0823003 	add	r3, r2, r3
    83ec:	e5932000 	ldr	r2, [r3]
    83f0:	e51b300c 	ldr	r3, [fp, #-12]
    83f4:	e3a01007 	mov	r1, #7
    83f8:	e1a03311 	lsl	r3, r1, r3
    83fc:	e1e03003 	mvn	r3, r3
    8400:	e0021003 	and	r1, r2, r3
    8404:	e55b2015 	ldrb	r2, [fp, #-21]	; 0xffffffeb
    8408:	e51b300c 	ldr	r3, [fp, #-12]
    840c:	e1a02312 	lsl	r2, r2, r3
    8410:	e51b3010 	ldr	r3, [fp, #-16]
    8414:	e5930000 	ldr	r0, [r3]
    8418:	e51b3008 	ldr	r3, [fp, #-8]
    841c:	e1a03103 	lsl	r3, r3, #2
    8420:	e0803003 	add	r3, r0, r3
    8424:	e1812002 	orr	r2, r1, r2
    8428:	e5832000 	str	r2, [r3]
    842c:	ea000000 	b	8434 <_ZN13CGPIO_Handler17Set_GPIO_FunctionEj14NGPIO_Function+0xa0>
/home/silhavyj/School/ZeroMate/examples/07-LED_toggle_debug_monitor/kernel/src/drivers/gpio.cpp:81
        return;
    8430:	e320f000 	nop	{0}
/home/silhavyj/School/ZeroMate/examples/07-LED_toggle_debug_monitor/kernel/src/drivers/gpio.cpp:84
}
    8434:	e24bd004 	sub	sp, fp, #4
    8438:	e8bd8800 	pop	{fp, pc}

0000843c <_ZNK13CGPIO_Handler17Get_GPIO_FunctionEj>:
_ZNK13CGPIO_Handler17Get_GPIO_FunctionEj():
/home/silhavyj/School/ZeroMate/examples/07-LED_toggle_debug_monitor/kernel/src/drivers/gpio.cpp:87

NGPIO_Function CGPIO_Handler::Get_GPIO_Function(uint32_t pin) const
{
    843c:	e92d4800 	push	{fp, lr}
    8440:	e28db004 	add	fp, sp, #4
    8444:	e24dd010 	sub	sp, sp, #16
    8448:	e50b0010 	str	r0, [fp, #-16]
    844c:	e50b1014 	str	r1, [fp, #-20]	; 0xffffffec
/home/silhavyj/School/ZeroMate/examples/07-LED_toggle_debug_monitor/kernel/src/drivers/gpio.cpp:89
    uint32_t reg, bit;
    if (!Get_GPFSEL_Location(pin, reg, bit))
    8450:	e24b300c 	sub	r3, fp, #12
    8454:	e24b2008 	sub	r2, fp, #8
    8458:	e51b1014 	ldr	r1, [fp, #-20]	; 0xffffffec
    845c:	e51b0010 	ldr	r0, [fp, #-16]
    8460:	ebffff2f 	bl	8124 <_ZNK13CGPIO_Handler19Get_GPFSEL_LocationEjRjS0_>
    8464:	e1a03000 	mov	r3, r0
    8468:	e2233001 	eor	r3, r3, #1
    846c:	e6ef3073 	uxtb	r3, r3
    8470:	e3530000 	cmp	r3, #0
    8474:	0a000001 	beq	8480 <_ZNK13CGPIO_Handler17Get_GPIO_FunctionEj+0x44>
/home/silhavyj/School/ZeroMate/examples/07-LED_toggle_debug_monitor/kernel/src/drivers/gpio.cpp:90
        return NGPIO_Function::Unspecified;
    8478:	e3a03008 	mov	r3, #8
    847c:	ea00000a 	b	84ac <_ZNK13CGPIO_Handler17Get_GPIO_FunctionEj+0x70>
/home/silhavyj/School/ZeroMate/examples/07-LED_toggle_debug_monitor/kernel/src/drivers/gpio.cpp:92

    return static_cast<NGPIO_Function>((mGPIO[reg] >> bit) & 7);
    8480:	e51b3010 	ldr	r3, [fp, #-16]
    8484:	e5932000 	ldr	r2, [r3]
    8488:	e51b3008 	ldr	r3, [fp, #-8]
    848c:	e1a03103 	lsl	r3, r3, #2
    8490:	e0823003 	add	r3, r2, r3
    8494:	e5932000 	ldr	r2, [r3]
    8498:	e51b300c 	ldr	r3, [fp, #-12]
    849c:	e1a03332 	lsr	r3, r2, r3
    84a0:	e6ef3073 	uxtb	r3, r3
    84a4:	e2033007 	and	r3, r3, #7
    84a8:	e6ef3073 	uxtb	r3, r3
/home/silhavyj/School/ZeroMate/examples/07-LED_toggle_debug_monitor/kernel/src/drivers/gpio.cpp:93 (discriminator 1)
}
    84ac:	e1a00003 	mov	r0, r3
    84b0:	e24bd004 	sub	sp, fp, #4
    84b4:	e8bd8800 	pop	{fp, pc}

000084b8 <_ZN13CGPIO_Handler10Set_OutputEjb>:
_ZN13CGPIO_Handler10Set_OutputEjb():
/home/silhavyj/School/ZeroMate/examples/07-LED_toggle_debug_monitor/kernel/src/drivers/gpio.cpp:96

void CGPIO_Handler::Set_Output(uint32_t pin, bool set)
{
    84b8:	e92d4800 	push	{fp, lr}
    84bc:	e28db004 	add	fp, sp, #4
    84c0:	e24dd018 	sub	sp, sp, #24
    84c4:	e50b0010 	str	r0, [fp, #-16]
    84c8:	e50b1014 	str	r1, [fp, #-20]	; 0xffffffec
    84cc:	e1a03002 	mov	r3, r2
    84d0:	e54b3015 	strb	r3, [fp, #-21]	; 0xffffffeb
/home/silhavyj/School/ZeroMate/examples/07-LED_toggle_debug_monitor/kernel/src/drivers/gpio.cpp:98
    uint32_t reg, bit;
    if (!(set && Get_GPSET_Location(pin, reg, bit)) && !(!set && Get_GPCLR_Location(pin, reg, bit)))
    84d4:	e55b3015 	ldrb	r3, [fp, #-21]	; 0xffffffeb
    84d8:	e2233001 	eor	r3, r3, #1
    84dc:	e6ef3073 	uxtb	r3, r3
    84e0:	e3530000 	cmp	r3, #0
    84e4:	1a000009 	bne	8510 <_ZN13CGPIO_Handler10Set_OutputEjb+0x58>
/home/silhavyj/School/ZeroMate/examples/07-LED_toggle_debug_monitor/kernel/src/drivers/gpio.cpp:98 (discriminator 2)
    84e8:	e24b300c 	sub	r3, fp, #12
    84ec:	e24b2008 	sub	r2, fp, #8
    84f0:	e51b1014 	ldr	r1, [fp, #-20]	; 0xffffffec
    84f4:	e51b0010 	ldr	r0, [fp, #-16]
    84f8:	ebffff6b 	bl	82ac <_ZNK13CGPIO_Handler18Get_GPSET_LocationEjRjS0_>
    84fc:	e1a03000 	mov	r3, r0
    8500:	e2233001 	eor	r3, r3, #1
    8504:	e6ef3073 	uxtb	r3, r3
    8508:	e3530000 	cmp	r3, #0
    850c:	0a00000e 	beq	854c <_ZN13CGPIO_Handler10Set_OutputEjb+0x94>
/home/silhavyj/School/ZeroMate/examples/07-LED_toggle_debug_monitor/kernel/src/drivers/gpio.cpp:98 (discriminator 3)
    8510:	e55b3015 	ldrb	r3, [fp, #-21]	; 0xffffffeb
    8514:	e3530000 	cmp	r3, #0
    8518:	1a000009 	bne	8544 <_ZN13CGPIO_Handler10Set_OutputEjb+0x8c>
/home/silhavyj/School/ZeroMate/examples/07-LED_toggle_debug_monitor/kernel/src/drivers/gpio.cpp:98 (discriminator 6)
    851c:	e24b300c 	sub	r3, fp, #12
    8520:	e24b2008 	sub	r2, fp, #8
    8524:	e51b1014 	ldr	r1, [fp, #-20]	; 0xffffffec
    8528:	e51b0010 	ldr	r0, [fp, #-16]
    852c:	ebffff41 	bl	8238 <_ZNK13CGPIO_Handler18Get_GPCLR_LocationEjRjS0_>
    8530:	e1a03000 	mov	r3, r0
    8534:	e2233001 	eor	r3, r3, #1
    8538:	e6ef3073 	uxtb	r3, r3
    853c:	e3530000 	cmp	r3, #0
    8540:	0a000001 	beq	854c <_ZN13CGPIO_Handler10Set_OutputEjb+0x94>
/home/silhavyj/School/ZeroMate/examples/07-LED_toggle_debug_monitor/kernel/src/drivers/gpio.cpp:98 (discriminator 7)
    8544:	e3a03001 	mov	r3, #1
    8548:	ea000000 	b	8550 <_ZN13CGPIO_Handler10Set_OutputEjb+0x98>
/home/silhavyj/School/ZeroMate/examples/07-LED_toggle_debug_monitor/kernel/src/drivers/gpio.cpp:98 (discriminator 8)
    854c:	e3a03000 	mov	r3, #0
/home/silhavyj/School/ZeroMate/examples/07-LED_toggle_debug_monitor/kernel/src/drivers/gpio.cpp:98 (discriminator 10)
    8550:	e3530000 	cmp	r3, #0
    8554:	1a00000a 	bne	8584 <_ZN13CGPIO_Handler10Set_OutputEjb+0xcc>
/home/silhavyj/School/ZeroMate/examples/07-LED_toggle_debug_monitor/kernel/src/drivers/gpio.cpp:101
        return;

    mGPIO[reg] = (1 << bit);
    8558:	e51b300c 	ldr	r3, [fp, #-12]
    855c:	e3a02001 	mov	r2, #1
    8560:	e1a01312 	lsl	r1, r2, r3
    8564:	e51b3010 	ldr	r3, [fp, #-16]
    8568:	e5932000 	ldr	r2, [r3]
    856c:	e51b3008 	ldr	r3, [fp, #-8]
    8570:	e1a03103 	lsl	r3, r3, #2
    8574:	e0823003 	add	r3, r2, r3
    8578:	e1a02001 	mov	r2, r1
    857c:	e5832000 	str	r2, [r3]
    8580:	ea000000 	b	8588 <_ZN13CGPIO_Handler10Set_OutputEjb+0xd0>
/home/silhavyj/School/ZeroMate/examples/07-LED_toggle_debug_monitor/kernel/src/drivers/gpio.cpp:99
        return;
    8584:	e320f000 	nop	{0}
/home/silhavyj/School/ZeroMate/examples/07-LED_toggle_debug_monitor/kernel/src/drivers/gpio.cpp:102
}
    8588:	e24bd004 	sub	sp, fp, #4
    858c:	e8bd8800 	pop	{fp, pc}

00008590 <_Z41__static_initialization_and_destruction_0ii>:
_Z41__static_initialization_and_destruction_0ii():
/home/silhavyj/School/ZeroMate/examples/07-LED_toggle_debug_monitor/kernel/src/drivers/gpio.cpp:102
    8590:	e92d4800 	push	{fp, lr}
    8594:	e28db004 	add	fp, sp, #4
    8598:	e24dd008 	sub	sp, sp, #8
    859c:	e50b0008 	str	r0, [fp, #-8]
    85a0:	e50b100c 	str	r1, [fp, #-12]
    85a4:	e51b3008 	ldr	r3, [fp, #-8]
    85a8:	e3530001 	cmp	r3, #1
    85ac:	1a000006 	bne	85cc <_Z41__static_initialization_and_destruction_0ii+0x3c>
/home/silhavyj/School/ZeroMate/examples/07-LED_toggle_debug_monitor/kernel/src/drivers/gpio.cpp:102 (discriminator 1)
    85b0:	e51b300c 	ldr	r3, [fp, #-12]
    85b4:	e59f201c 	ldr	r2, [pc, #28]	; 85d8 <_Z41__static_initialization_and_destruction_0ii+0x48>
    85b8:	e1530002 	cmp	r3, r2
    85bc:	1a000002 	bne	85cc <_Z41__static_initialization_and_destruction_0ii+0x3c>
/home/silhavyj/School/ZeroMate/examples/07-LED_toggle_debug_monitor/kernel/src/drivers/gpio.cpp:4
CGPIO_Handler sGPIO(hal::GPIO_Base);
    85c0:	e59f1014 	ldr	r1, [pc, #20]	; 85dc <_Z41__static_initialization_and_destruction_0ii+0x4c>
    85c4:	e59f0014 	ldr	r0, [pc, #20]	; 85e0 <_Z41__static_initialization_and_destruction_0ii+0x50>
    85c8:	ebfffec8 	bl	80f0 <_ZN13CGPIO_HandlerC1Ej>
/home/silhavyj/School/ZeroMate/examples/07-LED_toggle_debug_monitor/kernel/src/drivers/gpio.cpp:102
}
    85cc:	e320f000 	nop	{0}
    85d0:	e24bd004 	sub	sp, fp, #4
    85d4:	e8bd8800 	pop	{fp, pc}
    85d8:	0000ffff 	strdeq	pc, [r0], -pc	; <UNPREDICTABLE>
    85dc:	20200000 	eorcs	r0, r0, r0
    85e0:	0000921c 	andeq	r9, r0, ip, lsl r2

000085e4 <_GLOBAL__sub_I_sGPIO>:
_GLOBAL__sub_I_sGPIO():
/home/silhavyj/School/ZeroMate/examples/07-LED_toggle_debug_monitor/kernel/src/drivers/gpio.cpp:102
    85e4:	e92d4800 	push	{fp, lr}
    85e8:	e28db004 	add	fp, sp, #4
    85ec:	e59f1008 	ldr	r1, [pc, #8]	; 85fc <_GLOBAL__sub_I_sGPIO+0x18>
    85f0:	e3a00001 	mov	r0, #1
    85f4:	ebffffe5 	bl	8590 <_Z41__static_initialization_and_destruction_0ii>
    85f8:	e8bd8800 	pop	{fp, pc}
    85fc:	0000ffff 	strdeq	pc, [r0], -pc	; <UNPREDICTABLE>

00008600 <_ZN8CMonitorC1Ejjj>:
_ZN8CMonitorC2Ejjj():
/home/silhavyj/School/ZeroMate/examples/07-LED_toggle_debug_monitor/kernel/src/drivers/monitor.cpp:5
#include <drivers/monitor.h>

CMonitor sMonitor{ 0x30000000, 80, 25 };

CMonitor::CMonitor(unsigned int monitor_base_addr, unsigned int width, unsigned int height)
    8600:	e52db004 	push	{fp}		; (str fp, [sp, #-4]!)
    8604:	e28db000 	add	fp, sp, #0
    8608:	e24dd014 	sub	sp, sp, #20
    860c:	e50b0008 	str	r0, [fp, #-8]
    8610:	e50b100c 	str	r1, [fp, #-12]
    8614:	e50b2010 	str	r2, [fp, #-16]
    8618:	e50b3014 	str	r3, [fp, #-20]	; 0xffffffec
/home/silhavyj/School/ZeroMate/examples/07-LED_toggle_debug_monitor/kernel/src/drivers/monitor.cpp:6
: m_monitor{ reinterpret_cast<unsigned char*>(monitor_base_addr) }
    861c:	e51b200c 	ldr	r2, [fp, #-12]
/home/silhavyj/School/ZeroMate/examples/07-LED_toggle_debug_monitor/kernel/src/drivers/monitor.cpp:10
, m_width{ width }
, m_height{ height }
, m_cursor{ 0, 0 }
, m_number_base{ DEFAULT_NUMBER_BASE }
    8620:	e51b3008 	ldr	r3, [fp, #-8]
    8624:	e5832000 	str	r2, [r3]
    8628:	e51b3008 	ldr	r3, [fp, #-8]
    862c:	e51b2010 	ldr	r2, [fp, #-16]
    8630:	e5832004 	str	r2, [r3, #4]
    8634:	e51b3008 	ldr	r3, [fp, #-8]
    8638:	e51b2014 	ldr	r2, [fp, #-20]	; 0xffffffec
    863c:	e5832008 	str	r2, [r3, #8]
    8640:	e51b3008 	ldr	r3, [fp, #-8]
    8644:	e3a02000 	mov	r2, #0
    8648:	e583200c 	str	r2, [r3, #12]
    864c:	e51b3008 	ldr	r3, [fp, #-8]
    8650:	e3a02000 	mov	r2, #0
    8654:	e5832010 	str	r2, [r3, #16]
    8658:	e51b3008 	ldr	r3, [fp, #-8]
    865c:	e3a0200a 	mov	r2, #10
    8660:	e5832014 	str	r2, [r3, #20]
/home/silhavyj/School/ZeroMate/examples/07-LED_toggle_debug_monitor/kernel/src/drivers/monitor.cpp:12
{
}
    8664:	e51b3008 	ldr	r3, [fp, #-8]
    8668:	e1a00003 	mov	r0, r3
    866c:	e28bd000 	add	sp, fp, #0
    8670:	e49db004 	pop	{fp}		; (ldr fp, [sp], #4)
    8674:	e12fff1e 	bx	lr

00008678 <_ZN8CMonitor5ClearEv>:
_ZN8CMonitor5ClearEv():
/home/silhavyj/School/ZeroMate/examples/07-LED_toggle_debug_monitor/kernel/src/drivers/monitor.cpp:21
    m_cursor.y = 0;
    m_cursor.y = 0;
}

void CMonitor::Clear()
{
    8678:	e92d4800 	push	{fp, lr}
    867c:	e28db004 	add	fp, sp, #4
    8680:	e24dd010 	sub	sp, sp, #16
    8684:	e50b0010 	str	r0, [fp, #-16]
/home/silhavyj/School/ZeroMate/examples/07-LED_toggle_debug_monitor/kernel/src/drivers/monitor.cpp:22
    Reset_Cursor();
    8688:	e51b0010 	ldr	r0, [fp, #-16]
    868c:	eb000169 	bl	8c38 <_ZN8CMonitor12Reset_CursorEv>
/home/silhavyj/School/ZeroMate/examples/07-LED_toggle_debug_monitor/kernel/src/drivers/monitor.cpp:24

    for (unsigned int y = 0; y < m_height; ++y)
    8690:	e3a03000 	mov	r3, #0
    8694:	e50b3008 	str	r3, [fp, #-8]
/home/silhavyj/School/ZeroMate/examples/07-LED_toggle_debug_monitor/kernel/src/drivers/monitor.cpp:24 (discriminator 1)
    8698:	e51b3010 	ldr	r3, [fp, #-16]
    869c:	e5933008 	ldr	r3, [r3, #8]
    86a0:	e51b2008 	ldr	r2, [fp, #-8]
    86a4:	e1520003 	cmp	r2, r3
    86a8:	2a000019 	bcs	8714 <_ZN8CMonitor5ClearEv+0x9c>
/home/silhavyj/School/ZeroMate/examples/07-LED_toggle_debug_monitor/kernel/src/drivers/monitor.cpp:26
    {
        for (unsigned int x = 0; x < m_width; ++x)
    86ac:	e3a03000 	mov	r3, #0
    86b0:	e50b300c 	str	r3, [fp, #-12]
/home/silhavyj/School/ZeroMate/examples/07-LED_toggle_debug_monitor/kernel/src/drivers/monitor.cpp:26 (discriminator 3)
    86b4:	e51b3010 	ldr	r3, [fp, #-16]
    86b8:	e5933004 	ldr	r3, [r3, #4]
    86bc:	e51b200c 	ldr	r2, [fp, #-12]
    86c0:	e1520003 	cmp	r2, r3
    86c4:	2a00000e 	bcs	8704 <_ZN8CMonitor5ClearEv+0x8c>
/home/silhavyj/School/ZeroMate/examples/07-LED_toggle_debug_monitor/kernel/src/drivers/monitor.cpp:28 (discriminator 2)
        {
            m_monitor[(y * m_width) + x] = ' ';
    86c8:	e51b3010 	ldr	r3, [fp, #-16]
    86cc:	e5932000 	ldr	r2, [r3]
    86d0:	e51b3010 	ldr	r3, [fp, #-16]
    86d4:	e5933004 	ldr	r3, [r3, #4]
    86d8:	e51b1008 	ldr	r1, [fp, #-8]
    86dc:	e0010391 	mul	r1, r1, r3
    86e0:	e51b300c 	ldr	r3, [fp, #-12]
    86e4:	e0813003 	add	r3, r1, r3
    86e8:	e0823003 	add	r3, r2, r3
    86ec:	e3a02020 	mov	r2, #32
    86f0:	e5c32000 	strb	r2, [r3]
/home/silhavyj/School/ZeroMate/examples/07-LED_toggle_debug_monitor/kernel/src/drivers/monitor.cpp:26 (discriminator 2)
        for (unsigned int x = 0; x < m_width; ++x)
    86f4:	e51b300c 	ldr	r3, [fp, #-12]
    86f8:	e2833001 	add	r3, r3, #1
    86fc:	e50b300c 	str	r3, [fp, #-12]
    8700:	eaffffeb 	b	86b4 <_ZN8CMonitor5ClearEv+0x3c>
/home/silhavyj/School/ZeroMate/examples/07-LED_toggle_debug_monitor/kernel/src/drivers/monitor.cpp:24 (discriminator 2)
    for (unsigned int y = 0; y < m_height; ++y)
    8704:	e51b3008 	ldr	r3, [fp, #-8]
    8708:	e2833001 	add	r3, r3, #1
    870c:	e50b3008 	str	r3, [fp, #-8]
    8710:	eaffffe0 	b	8698 <_ZN8CMonitor5ClearEv+0x20>
/home/silhavyj/School/ZeroMate/examples/07-LED_toggle_debug_monitor/kernel/src/drivers/monitor.cpp:31
        }
    }
}
    8714:	e320f000 	nop	{0}
    8718:	e24bd004 	sub	sp, fp, #4
    871c:	e8bd8800 	pop	{fp, pc}

00008720 <_ZN8CMonitor6ScrollEv>:
_ZN8CMonitor6ScrollEv():
/home/silhavyj/School/ZeroMate/examples/07-LED_toggle_debug_monitor/kernel/src/drivers/monitor.cpp:49
        m_cursor.y = m_height - 1;
    }
}

void CMonitor::Scroll()
{
    8720:	e52db004 	push	{fp}		; (str fp, [sp, #-4]!)
    8724:	e28db000 	add	fp, sp, #0
    8728:	e24dd01c 	sub	sp, sp, #28
    872c:	e50b0018 	str	r0, [fp, #-24]	; 0xffffffe8
/home/silhavyj/School/ZeroMate/examples/07-LED_toggle_debug_monitor/kernel/src/drivers/monitor.cpp:50
    for (unsigned int y = 1; y < m_height; ++y)
    8730:	e3a03001 	mov	r3, #1
    8734:	e50b3008 	str	r3, [fp, #-8]
/home/silhavyj/School/ZeroMate/examples/07-LED_toggle_debug_monitor/kernel/src/drivers/monitor.cpp:50 (discriminator 1)
    8738:	e51b3018 	ldr	r3, [fp, #-24]	; 0xffffffe8
    873c:	e5933008 	ldr	r3, [r3, #8]
    8740:	e51b2008 	ldr	r2, [fp, #-8]
    8744:	e1520003 	cmp	r2, r3
    8748:	2a000024 	bcs	87e0 <_ZN8CMonitor6ScrollEv+0xc0>
/home/silhavyj/School/ZeroMate/examples/07-LED_toggle_debug_monitor/kernel/src/drivers/monitor.cpp:52
    {
        for (unsigned int x = 0; x < m_width; ++x)
    874c:	e3a03000 	mov	r3, #0
    8750:	e50b300c 	str	r3, [fp, #-12]
/home/silhavyj/School/ZeroMate/examples/07-LED_toggle_debug_monitor/kernel/src/drivers/monitor.cpp:52 (discriminator 3)
    8754:	e51b3018 	ldr	r3, [fp, #-24]	; 0xffffffe8
    8758:	e5933004 	ldr	r3, [r3, #4]
    875c:	e51b200c 	ldr	r2, [fp, #-12]
    8760:	e1520003 	cmp	r2, r3
    8764:	2a000019 	bcs	87d0 <_ZN8CMonitor6ScrollEv+0xb0>
/home/silhavyj/School/ZeroMate/examples/07-LED_toggle_debug_monitor/kernel/src/drivers/monitor.cpp:54 (discriminator 2)
        {
            m_monitor[((y - 1) * m_width) + x] = m_monitor[(y * m_width) + x];
    8768:	e51b3018 	ldr	r3, [fp, #-24]	; 0xffffffe8
    876c:	e5932000 	ldr	r2, [r3]
    8770:	e51b3018 	ldr	r3, [fp, #-24]	; 0xffffffe8
    8774:	e5933004 	ldr	r3, [r3, #4]
    8778:	e51b1008 	ldr	r1, [fp, #-8]
    877c:	e0010391 	mul	r1, r1, r3
    8780:	e51b300c 	ldr	r3, [fp, #-12]
    8784:	e0813003 	add	r3, r1, r3
    8788:	e0822003 	add	r2, r2, r3
    878c:	e51b3018 	ldr	r3, [fp, #-24]	; 0xffffffe8
    8790:	e5931000 	ldr	r1, [r3]
    8794:	e51b3008 	ldr	r3, [fp, #-8]
    8798:	e2433001 	sub	r3, r3, #1
    879c:	e51b0018 	ldr	r0, [fp, #-24]	; 0xffffffe8
    87a0:	e5900004 	ldr	r0, [r0, #4]
    87a4:	e0000390 	mul	r0, r0, r3
    87a8:	e51b300c 	ldr	r3, [fp, #-12]
    87ac:	e0803003 	add	r3, r0, r3
    87b0:	e0813003 	add	r3, r1, r3
    87b4:	e5d22000 	ldrb	r2, [r2]
    87b8:	e6ef2072 	uxtb	r2, r2
    87bc:	e5c32000 	strb	r2, [r3]
/home/silhavyj/School/ZeroMate/examples/07-LED_toggle_debug_monitor/kernel/src/drivers/monitor.cpp:52 (discriminator 2)
        for (unsigned int x = 0; x < m_width; ++x)
    87c0:	e51b300c 	ldr	r3, [fp, #-12]
    87c4:	e2833001 	add	r3, r3, #1
    87c8:	e50b300c 	str	r3, [fp, #-12]
    87cc:	eaffffe0 	b	8754 <_ZN8CMonitor6ScrollEv+0x34>
/home/silhavyj/School/ZeroMate/examples/07-LED_toggle_debug_monitor/kernel/src/drivers/monitor.cpp:50 (discriminator 2)
    for (unsigned int y = 1; y < m_height; ++y)
    87d0:	e51b3008 	ldr	r3, [fp, #-8]
    87d4:	e2833001 	add	r3, r3, #1
    87d8:	e50b3008 	str	r3, [fp, #-8]
    87dc:	eaffffd5 	b	8738 <_ZN8CMonitor6ScrollEv+0x18>
/home/silhavyj/School/ZeroMate/examples/07-LED_toggle_debug_monitor/kernel/src/drivers/monitor.cpp:58
        }
    }

    for (unsigned int x = 0; x < m_width; ++x)
    87e0:	e3a03000 	mov	r3, #0
    87e4:	e50b3010 	str	r3, [fp, #-16]
/home/silhavyj/School/ZeroMate/examples/07-LED_toggle_debug_monitor/kernel/src/drivers/monitor.cpp:58 (discriminator 3)
    87e8:	e51b3018 	ldr	r3, [fp, #-24]	; 0xffffffe8
    87ec:	e5933004 	ldr	r3, [r3, #4]
    87f0:	e51b2010 	ldr	r2, [fp, #-16]
    87f4:	e1520003 	cmp	r2, r3
    87f8:	2a000010 	bcs	8840 <_ZN8CMonitor6ScrollEv+0x120>
/home/silhavyj/School/ZeroMate/examples/07-LED_toggle_debug_monitor/kernel/src/drivers/monitor.cpp:60 (discriminator 2)
    {
        m_monitor[((m_height - 1) * m_width) + x] = ' ';
    87fc:	e51b3018 	ldr	r3, [fp, #-24]	; 0xffffffe8
    8800:	e5932000 	ldr	r2, [r3]
    8804:	e51b3018 	ldr	r3, [fp, #-24]	; 0xffffffe8
    8808:	e5933008 	ldr	r3, [r3, #8]
    880c:	e2433001 	sub	r3, r3, #1
    8810:	e51b1018 	ldr	r1, [fp, #-24]	; 0xffffffe8
    8814:	e5911004 	ldr	r1, [r1, #4]
    8818:	e0010391 	mul	r1, r1, r3
    881c:	e51b3010 	ldr	r3, [fp, #-16]
    8820:	e0813003 	add	r3, r1, r3
    8824:	e0823003 	add	r3, r2, r3
    8828:	e3a02020 	mov	r2, #32
    882c:	e5c32000 	strb	r2, [r3]
/home/silhavyj/School/ZeroMate/examples/07-LED_toggle_debug_monitor/kernel/src/drivers/monitor.cpp:58 (discriminator 2)
    for (unsigned int x = 0; x < m_width; ++x)
    8830:	e51b3010 	ldr	r3, [fp, #-16]
    8834:	e2833001 	add	r3, r3, #1
    8838:	e50b3010 	str	r3, [fp, #-16]
    883c:	eaffffe9 	b	87e8 <_ZN8CMonitor6ScrollEv+0xc8>
/home/silhavyj/School/ZeroMate/examples/07-LED_toggle_debug_monitor/kernel/src/drivers/monitor.cpp:62
    }
}
    8840:	e320f000 	nop	{0}
    8844:	e28bd000 	add	sp, fp, #0
    8848:	e49db004 	pop	{fp}		; (ldr fp, [sp], #4)
    884c:	e12fff1e 	bx	lr

00008850 <_ZN8CMonitorlsEc>:
_ZN8CMonitorlsEc():
/home/silhavyj/School/ZeroMate/examples/07-LED_toggle_debug_monitor/kernel/src/drivers/monitor.cpp:70
{
    m_number_base = DEFAULT_NUMBER_BASE;
}

CMonitor& CMonitor::operator<<(char c)
{
    8850:	e92d4800 	push	{fp, lr}
    8854:	e28db004 	add	fp, sp, #4
    8858:	e24dd008 	sub	sp, sp, #8
    885c:	e50b0008 	str	r0, [fp, #-8]
    8860:	e1a03001 	mov	r3, r1
    8864:	e54b3009 	strb	r3, [fp, #-9]
/home/silhavyj/School/ZeroMate/examples/07-LED_toggle_debug_monitor/kernel/src/drivers/monitor.cpp:71
    if (c != '\n')
    8868:	e55b3009 	ldrb	r3, [fp, #-9]
    886c:	e353000a 	cmp	r3, #10
    8870:	0a000012 	beq	88c0 <_ZN8CMonitorlsEc+0x70>
/home/silhavyj/School/ZeroMate/examples/07-LED_toggle_debug_monitor/kernel/src/drivers/monitor.cpp:73
    {
        m_monitor[(m_cursor.y * m_width) + m_cursor.x] = static_cast<unsigned char>(c);
    8874:	e51b3008 	ldr	r3, [fp, #-8]
    8878:	e5932000 	ldr	r2, [r3]
    887c:	e51b3008 	ldr	r3, [fp, #-8]
    8880:	e593300c 	ldr	r3, [r3, #12]
    8884:	e51b1008 	ldr	r1, [fp, #-8]
    8888:	e5911004 	ldr	r1, [r1, #4]
    888c:	e0010391 	mul	r1, r1, r3
    8890:	e51b3008 	ldr	r3, [fp, #-8]
    8894:	e5933010 	ldr	r3, [r3, #16]
    8898:	e0813003 	add	r3, r1, r3
    889c:	e0823003 	add	r3, r2, r3
    88a0:	e55b2009 	ldrb	r2, [fp, #-9]
    88a4:	e5c32000 	strb	r2, [r3]
/home/silhavyj/School/ZeroMate/examples/07-LED_toggle_debug_monitor/kernel/src/drivers/monitor.cpp:74
        ++m_cursor.x;
    88a8:	e51b3008 	ldr	r3, [fp, #-8]
    88ac:	e5933010 	ldr	r3, [r3, #16]
    88b0:	e2832001 	add	r2, r3, #1
    88b4:	e51b3008 	ldr	r3, [fp, #-8]
    88b8:	e5832010 	str	r2, [r3, #16]
    88bc:	ea000007 	b	88e0 <_ZN8CMonitorlsEc+0x90>
/home/silhavyj/School/ZeroMate/examples/07-LED_toggle_debug_monitor/kernel/src/drivers/monitor.cpp:78
    }
    else
    {
        m_cursor.x = 0;
    88c0:	e51b3008 	ldr	r3, [fp, #-8]
    88c4:	e3a02000 	mov	r2, #0
    88c8:	e5832010 	str	r2, [r3, #16]
/home/silhavyj/School/ZeroMate/examples/07-LED_toggle_debug_monitor/kernel/src/drivers/monitor.cpp:79
        ++m_cursor.y;
    88cc:	e51b3008 	ldr	r3, [fp, #-8]
    88d0:	e593300c 	ldr	r3, [r3, #12]
    88d4:	e2832001 	add	r2, r3, #1
    88d8:	e51b3008 	ldr	r3, [fp, #-8]
    88dc:	e583200c 	str	r2, [r3, #12]
/home/silhavyj/School/ZeroMate/examples/07-LED_toggle_debug_monitor/kernel/src/drivers/monitor.cpp:82
    }

    Adjust_Cursor();
    88e0:	e51b0008 	ldr	r0, [fp, #-8]
    88e4:	eb0000e1 	bl	8c70 <_ZN8CMonitor13Adjust_CursorEv>
/home/silhavyj/School/ZeroMate/examples/07-LED_toggle_debug_monitor/kernel/src/drivers/monitor.cpp:84

    return *this;
    88e8:	e51b3008 	ldr	r3, [fp, #-8]
/home/silhavyj/School/ZeroMate/examples/07-LED_toggle_debug_monitor/kernel/src/drivers/monitor.cpp:85
}
    88ec:	e1a00003 	mov	r0, r3
    88f0:	e24bd004 	sub	sp, fp, #4
    88f4:	e8bd8800 	pop	{fp, pc}

000088f8 <_ZN8CMonitorlsEPKc>:
_ZN8CMonitorlsEPKc():
/home/silhavyj/School/ZeroMate/examples/07-LED_toggle_debug_monitor/kernel/src/drivers/monitor.cpp:88

CMonitor& CMonitor::operator<<(const char* str)
{
    88f8:	e92d4800 	push	{fp, lr}
    88fc:	e28db004 	add	fp, sp, #4
    8900:	e24dd010 	sub	sp, sp, #16
    8904:	e50b0010 	str	r0, [fp, #-16]
    8908:	e50b1014 	str	r1, [fp, #-20]	; 0xffffffec
/home/silhavyj/School/ZeroMate/examples/07-LED_toggle_debug_monitor/kernel/src/drivers/monitor.cpp:89
    for (unsigned int i = 0; str[i] != '\0'; ++i)
    890c:	e3a03000 	mov	r3, #0
    8910:	e50b3008 	str	r3, [fp, #-8]
/home/silhavyj/School/ZeroMate/examples/07-LED_toggle_debug_monitor/kernel/src/drivers/monitor.cpp:89 (discriminator 3)
    8914:	e51b2014 	ldr	r2, [fp, #-20]	; 0xffffffec
    8918:	e51b3008 	ldr	r3, [fp, #-8]
    891c:	e0823003 	add	r3, r2, r3
    8920:	e5d33000 	ldrb	r3, [r3]
    8924:	e3530000 	cmp	r3, #0
    8928:	0a00000a 	beq	8958 <_ZN8CMonitorlsEPKc+0x60>
/home/silhavyj/School/ZeroMate/examples/07-LED_toggle_debug_monitor/kernel/src/drivers/monitor.cpp:91 (discriminator 2)
    {
        *this << str[i];
    892c:	e51b2014 	ldr	r2, [fp, #-20]	; 0xffffffec
    8930:	e51b3008 	ldr	r3, [fp, #-8]
    8934:	e0823003 	add	r3, r2, r3
    8938:	e5d33000 	ldrb	r3, [r3]
    893c:	e1a01003 	mov	r1, r3
    8940:	e51b0010 	ldr	r0, [fp, #-16]
    8944:	ebffffc1 	bl	8850 <_ZN8CMonitorlsEc>
/home/silhavyj/School/ZeroMate/examples/07-LED_toggle_debug_monitor/kernel/src/drivers/monitor.cpp:89 (discriminator 2)
    for (unsigned int i = 0; str[i] != '\0'; ++i)
    8948:	e51b3008 	ldr	r3, [fp, #-8]
    894c:	e2833001 	add	r3, r3, #1
    8950:	e50b3008 	str	r3, [fp, #-8]
    8954:	eaffffee 	b	8914 <_ZN8CMonitorlsEPKc+0x1c>
/home/silhavyj/School/ZeroMate/examples/07-LED_toggle_debug_monitor/kernel/src/drivers/monitor.cpp:94
    }

    Reset_Number_Base();
    8958:	e51b0010 	ldr	r0, [fp, #-16]
    895c:	eb0000e5 	bl	8cf8 <_ZN8CMonitor17Reset_Number_BaseEv>
/home/silhavyj/School/ZeroMate/examples/07-LED_toggle_debug_monitor/kernel/src/drivers/monitor.cpp:96

    return *this;
    8960:	e51b3010 	ldr	r3, [fp, #-16]
/home/silhavyj/School/ZeroMate/examples/07-LED_toggle_debug_monitor/kernel/src/drivers/monitor.cpp:97
}
    8964:	e1a00003 	mov	r0, r3
    8968:	e24bd004 	sub	sp, fp, #4
    896c:	e8bd8800 	pop	{fp, pc}

00008970 <_ZN8CMonitorlsENS_12NNumber_BaseE>:
_ZN8CMonitorlsENS_12NNumber_BaseE():
/home/silhavyj/School/ZeroMate/examples/07-LED_toggle_debug_monitor/kernel/src/drivers/monitor.cpp:100

CMonitor& CMonitor::operator<<(CMonitor::NNumber_Base number_base)
{
    8970:	e52db004 	push	{fp}		; (str fp, [sp, #-4]!)
    8974:	e28db000 	add	fp, sp, #0
    8978:	e24dd00c 	sub	sp, sp, #12
    897c:	e50b0008 	str	r0, [fp, #-8]
    8980:	e50b100c 	str	r1, [fp, #-12]
/home/silhavyj/School/ZeroMate/examples/07-LED_toggle_debug_monitor/kernel/src/drivers/monitor.cpp:101
    m_number_base = number_base;
    8984:	e51b3008 	ldr	r3, [fp, #-8]
    8988:	e51b200c 	ldr	r2, [fp, #-12]
    898c:	e5832014 	str	r2, [r3, #20]
/home/silhavyj/School/ZeroMate/examples/07-LED_toggle_debug_monitor/kernel/src/drivers/monitor.cpp:103

    return *this;
    8990:	e51b3008 	ldr	r3, [fp, #-8]
/home/silhavyj/School/ZeroMate/examples/07-LED_toggle_debug_monitor/kernel/src/drivers/monitor.cpp:104
}
    8994:	e1a00003 	mov	r0, r3
    8998:	e28bd000 	add	sp, fp, #0
    899c:	e49db004 	pop	{fp}		; (ldr fp, [sp], #4)
    89a0:	e12fff1e 	bx	lr

000089a4 <_ZN8CMonitorlsEj>:
_ZN8CMonitorlsEj():
/home/silhavyj/School/ZeroMate/examples/07-LED_toggle_debug_monitor/kernel/src/drivers/monitor.cpp:107

CMonitor& CMonitor::operator<<(unsigned int num)
{
    89a4:	e92d4800 	push	{fp, lr}
    89a8:	e28db004 	add	fp, sp, #4
    89ac:	e24dd008 	sub	sp, sp, #8
    89b0:	e50b0008 	str	r0, [fp, #-8]
    89b4:	e50b100c 	str	r1, [fp, #-12]
/home/silhavyj/School/ZeroMate/examples/07-LED_toggle_debug_monitor/kernel/src/drivers/monitor.cpp:112
    static constexpr unsigned int BUFFER_SIZE = 16;

    static char s_buffer[BUFFER_SIZE];

    itoa(num, s_buffer, static_cast<unsigned int>(m_number_base));
    89b8:	e51b3008 	ldr	r3, [fp, #-8]
    89bc:	e5933014 	ldr	r3, [r3, #20]
    89c0:	e59f202c 	ldr	r2, [pc, #44]	; 89f4 <_ZN8CMonitorlsEj+0x50>
    89c4:	e51b100c 	ldr	r1, [fp, #-12]
    89c8:	e51b0008 	ldr	r0, [fp, #-8]
    89cc:	eb000021 	bl	8a58 <_ZN8CMonitor4itoaEjPcj>
/home/silhavyj/School/ZeroMate/examples/07-LED_toggle_debug_monitor/kernel/src/drivers/monitor.cpp:113
    *this << s_buffer;
    89d0:	e59f101c 	ldr	r1, [pc, #28]	; 89f4 <_ZN8CMonitorlsEj+0x50>
    89d4:	e51b0008 	ldr	r0, [fp, #-8]
    89d8:	ebffffc6 	bl	88f8 <_ZN8CMonitorlsEPKc>
/home/silhavyj/School/ZeroMate/examples/07-LED_toggle_debug_monitor/kernel/src/drivers/monitor.cpp:114
    Reset_Number_Base();
    89dc:	e51b0008 	ldr	r0, [fp, #-8]
    89e0:	eb0000c4 	bl	8cf8 <_ZN8CMonitor17Reset_Number_BaseEv>
/home/silhavyj/School/ZeroMate/examples/07-LED_toggle_debug_monitor/kernel/src/drivers/monitor.cpp:116

    return *this;
    89e4:	e51b3008 	ldr	r3, [fp, #-8]
/home/silhavyj/School/ZeroMate/examples/07-LED_toggle_debug_monitor/kernel/src/drivers/monitor.cpp:117
}
    89e8:	e1a00003 	mov	r0, r3
    89ec:	e24bd004 	sub	sp, fp, #4
    89f0:	e8bd8800 	pop	{fp, pc}
    89f4:	00009238 	andeq	r9, r0, r8, lsr r2

000089f8 <_ZN8CMonitorlsEb>:
_ZN8CMonitorlsEb():
/home/silhavyj/School/ZeroMate/examples/07-LED_toggle_debug_monitor/kernel/src/drivers/monitor.cpp:120

CMonitor& CMonitor::operator<<(bool value)
{
    89f8:	e92d4800 	push	{fp, lr}
    89fc:	e28db004 	add	fp, sp, #4
    8a00:	e24dd008 	sub	sp, sp, #8
    8a04:	e50b0008 	str	r0, [fp, #-8]
    8a08:	e1a03001 	mov	r3, r1
    8a0c:	e54b3009 	strb	r3, [fp, #-9]
/home/silhavyj/School/ZeroMate/examples/07-LED_toggle_debug_monitor/kernel/src/drivers/monitor.cpp:121
    if (value)
    8a10:	e55b3009 	ldrb	r3, [fp, #-9]
    8a14:	e3530000 	cmp	r3, #0
    8a18:	0a000003 	beq	8a2c <_ZN8CMonitorlsEb+0x34>
/home/silhavyj/School/ZeroMate/examples/07-LED_toggle_debug_monitor/kernel/src/drivers/monitor.cpp:123
    {
        *this << "true";
    8a1c:	e59f102c 	ldr	r1, [pc, #44]	; 8a50 <_ZN8CMonitorlsEb+0x58>
    8a20:	e51b0008 	ldr	r0, [fp, #-8]
    8a24:	ebffffb3 	bl	88f8 <_ZN8CMonitorlsEPKc>
    8a28:	ea000002 	b	8a38 <_ZN8CMonitorlsEb+0x40>
/home/silhavyj/School/ZeroMate/examples/07-LED_toggle_debug_monitor/kernel/src/drivers/monitor.cpp:127
    }
    else
    {
        *this << "false";
    8a2c:	e59f1020 	ldr	r1, [pc, #32]	; 8a54 <_ZN8CMonitorlsEb+0x5c>
    8a30:	e51b0008 	ldr	r0, [fp, #-8]
    8a34:	ebffffaf 	bl	88f8 <_ZN8CMonitorlsEPKc>
/home/silhavyj/School/ZeroMate/examples/07-LED_toggle_debug_monitor/kernel/src/drivers/monitor.cpp:130
    }

    Reset_Number_Base();
    8a38:	e51b0008 	ldr	r0, [fp, #-8]
    8a3c:	eb0000ad 	bl	8cf8 <_ZN8CMonitor17Reset_Number_BaseEv>
/home/silhavyj/School/ZeroMate/examples/07-LED_toggle_debug_monitor/kernel/src/drivers/monitor.cpp:132

    return *this;
    8a40:	e51b3008 	ldr	r3, [fp, #-8]
/home/silhavyj/School/ZeroMate/examples/07-LED_toggle_debug_monitor/kernel/src/drivers/monitor.cpp:133
}
    8a44:	e1a00003 	mov	r0, r3
    8a48:	e24bd004 	sub	sp, fp, #4
    8a4c:	e8bd8800 	pop	{fp, pc}
    8a50:	00009160 	andeq	r9, r0, r0, ror #2
    8a54:	00009168 	andeq	r9, r0, r8, ror #2

00008a58 <_ZN8CMonitor4itoaEjPcj>:
_ZN8CMonitor4itoaEjPcj():
/home/silhavyj/School/ZeroMate/examples/07-LED_toggle_debug_monitor/kernel/src/drivers/monitor.cpp:178

    return a;
}

void CMonitor::itoa(unsigned int input, char* output, unsigned int base)
{
    8a58:	e92d4800 	push	{fp, lr}
    8a5c:	e28db004 	add	fp, sp, #4
    8a60:	e24dd020 	sub	sp, sp, #32
    8a64:	e50b0018 	str	r0, [fp, #-24]	; 0xffffffe8
    8a68:	e50b101c 	str	r1, [fp, #-28]	; 0xffffffe4
    8a6c:	e50b2020 	str	r2, [fp, #-32]	; 0xffffffe0
    8a70:	e50b3024 	str	r3, [fp, #-36]	; 0xffffffdc
/home/silhavyj/School/ZeroMate/examples/07-LED_toggle_debug_monitor/kernel/src/drivers/monitor.cpp:179
    int i = 0;
    8a74:	e3a03000 	mov	r3, #0
    8a78:	e50b3008 	str	r3, [fp, #-8]
/home/silhavyj/School/ZeroMate/examples/07-LED_toggle_debug_monitor/kernel/src/drivers/monitor.cpp:181

    while (input > 0)
    8a7c:	e51b301c 	ldr	r3, [fp, #-28]	; 0xffffffe4
    8a80:	e3530000 	cmp	r3, #0
    8a84:	0a000014 	beq	8adc <_ZN8CMonitor4itoaEjPcj+0x84>
/home/silhavyj/School/ZeroMate/examples/07-LED_toggle_debug_monitor/kernel/src/drivers/monitor.cpp:183
    {
        output[i] = CharConvArr[Remainder(input, base)];
    8a88:	e51b2024 	ldr	r2, [fp, #-36]	; 0xffffffdc
    8a8c:	e51b101c 	ldr	r1, [fp, #-28]	; 0xffffffe4
    8a90:	e51b0018 	ldr	r0, [fp, #-24]	; 0xffffffe8
    8a94:	eb0000c6 	bl	8db4 <_ZN8CMonitor9RemainderEjj>
    8a98:	e1a03000 	mov	r3, r0
    8a9c:	e59f211c 	ldr	r2, [pc, #284]	; 8bc0 <_ZN8CMonitor4itoaEjPcj+0x168>
    8aa0:	e0832002 	add	r2, r3, r2
    8aa4:	e51b3008 	ldr	r3, [fp, #-8]
    8aa8:	e51b1020 	ldr	r1, [fp, #-32]	; 0xffffffe0
    8aac:	e0813003 	add	r3, r1, r3
    8ab0:	e5d22000 	ldrb	r2, [r2]
    8ab4:	e5c32000 	strb	r2, [r3]
/home/silhavyj/School/ZeroMate/examples/07-LED_toggle_debug_monitor/kernel/src/drivers/monitor.cpp:184
        input = Divide(input, base);
    8ab8:	e51b2024 	ldr	r2, [fp, #-36]	; 0xffffffdc
    8abc:	e51b101c 	ldr	r1, [fp, #-28]	; 0xffffffe4
    8ac0:	e51b0018 	ldr	r0, [fp, #-24]	; 0xffffffe8
    8ac4:	eb000096 	bl	8d24 <_ZN8CMonitor6DivideEjj>
    8ac8:	e50b001c 	str	r0, [fp, #-28]	; 0xffffffe4
/home/silhavyj/School/ZeroMate/examples/07-LED_toggle_debug_monitor/kernel/src/drivers/monitor.cpp:185
        i++;
    8acc:	e51b3008 	ldr	r3, [fp, #-8]
    8ad0:	e2833001 	add	r3, r3, #1
    8ad4:	e50b3008 	str	r3, [fp, #-8]
/home/silhavyj/School/ZeroMate/examples/07-LED_toggle_debug_monitor/kernel/src/drivers/monitor.cpp:181
    while (input > 0)
    8ad8:	eaffffe7 	b	8a7c <_ZN8CMonitor4itoaEjPcj+0x24>
/home/silhavyj/School/ZeroMate/examples/07-LED_toggle_debug_monitor/kernel/src/drivers/monitor.cpp:188
    }

    if (i == 0)
    8adc:	e51b3008 	ldr	r3, [fp, #-8]
    8ae0:	e3530000 	cmp	r3, #0
    8ae4:	1a000007 	bne	8b08 <_ZN8CMonitor4itoaEjPcj+0xb0>
/home/silhavyj/School/ZeroMate/examples/07-LED_toggle_debug_monitor/kernel/src/drivers/monitor.cpp:190
    {
        output[i] = CharConvArr[0];
    8ae8:	e51b3008 	ldr	r3, [fp, #-8]
    8aec:	e51b2020 	ldr	r2, [fp, #-32]	; 0xffffffe0
    8af0:	e0823003 	add	r3, r2, r3
    8af4:	e3a02030 	mov	r2, #48	; 0x30
    8af8:	e5c32000 	strb	r2, [r3]
/home/silhavyj/School/ZeroMate/examples/07-LED_toggle_debug_monitor/kernel/src/drivers/monitor.cpp:191
        i++;
    8afc:	e51b3008 	ldr	r3, [fp, #-8]
    8b00:	e2833001 	add	r3, r3, #1
    8b04:	e50b3008 	str	r3, [fp, #-8]
/home/silhavyj/School/ZeroMate/examples/07-LED_toggle_debug_monitor/kernel/src/drivers/monitor.cpp:194
    }

    output[i] = '\0';
    8b08:	e51b3008 	ldr	r3, [fp, #-8]
    8b0c:	e51b2020 	ldr	r2, [fp, #-32]	; 0xffffffe0
    8b10:	e0823003 	add	r3, r2, r3
    8b14:	e3a02000 	mov	r2, #0
    8b18:	e5c32000 	strb	r2, [r3]
/home/silhavyj/School/ZeroMate/examples/07-LED_toggle_debug_monitor/kernel/src/drivers/monitor.cpp:195
    i--;
    8b1c:	e51b3008 	ldr	r3, [fp, #-8]
    8b20:	e2433001 	sub	r3, r3, #1
    8b24:	e50b3008 	str	r3, [fp, #-8]
/home/silhavyj/School/ZeroMate/examples/07-LED_toggle_debug_monitor/kernel/src/drivers/monitor.cpp:197

    for (int j = 0; j <= (i >> 1); j++)
    8b28:	e3a03000 	mov	r3, #0
    8b2c:	e50b300c 	str	r3, [fp, #-12]
/home/silhavyj/School/ZeroMate/examples/07-LED_toggle_debug_monitor/kernel/src/drivers/monitor.cpp:197 (discriminator 3)
    8b30:	e51b3008 	ldr	r3, [fp, #-8]
    8b34:	e1a030c3 	asr	r3, r3, #1
    8b38:	e51b200c 	ldr	r2, [fp, #-12]
    8b3c:	e1520003 	cmp	r2, r3
    8b40:	ca00001b 	bgt	8bb4 <_ZN8CMonitor4itoaEjPcj+0x15c>
/home/silhavyj/School/ZeroMate/examples/07-LED_toggle_debug_monitor/kernel/src/drivers/monitor.cpp:199 (discriminator 2)
    {
        char c = output[i - j];
    8b44:	e51b2008 	ldr	r2, [fp, #-8]
    8b48:	e51b300c 	ldr	r3, [fp, #-12]
    8b4c:	e0423003 	sub	r3, r2, r3
    8b50:	e1a02003 	mov	r2, r3
    8b54:	e51b3020 	ldr	r3, [fp, #-32]	; 0xffffffe0
    8b58:	e0833002 	add	r3, r3, r2
    8b5c:	e5d33000 	ldrb	r3, [r3]
    8b60:	e54b300d 	strb	r3, [fp, #-13]
/home/silhavyj/School/ZeroMate/examples/07-LED_toggle_debug_monitor/kernel/src/drivers/monitor.cpp:200 (discriminator 2)
        output[i - j] = output[j];
    8b64:	e51b300c 	ldr	r3, [fp, #-12]
    8b68:	e51b2020 	ldr	r2, [fp, #-32]	; 0xffffffe0
    8b6c:	e0822003 	add	r2, r2, r3
    8b70:	e51b1008 	ldr	r1, [fp, #-8]
    8b74:	e51b300c 	ldr	r3, [fp, #-12]
    8b78:	e0413003 	sub	r3, r1, r3
    8b7c:	e1a01003 	mov	r1, r3
    8b80:	e51b3020 	ldr	r3, [fp, #-32]	; 0xffffffe0
    8b84:	e0833001 	add	r3, r3, r1
    8b88:	e5d22000 	ldrb	r2, [r2]
    8b8c:	e5c32000 	strb	r2, [r3]
/home/silhavyj/School/ZeroMate/examples/07-LED_toggle_debug_monitor/kernel/src/drivers/monitor.cpp:201 (discriminator 2)
        output[j] = c;
    8b90:	e51b300c 	ldr	r3, [fp, #-12]
    8b94:	e51b2020 	ldr	r2, [fp, #-32]	; 0xffffffe0
    8b98:	e0823003 	add	r3, r2, r3
    8b9c:	e55b200d 	ldrb	r2, [fp, #-13]
    8ba0:	e5c32000 	strb	r2, [r3]
/home/silhavyj/School/ZeroMate/examples/07-LED_toggle_debug_monitor/kernel/src/drivers/monitor.cpp:197 (discriminator 2)
    for (int j = 0; j <= (i >> 1); j++)
    8ba4:	e51b300c 	ldr	r3, [fp, #-12]
    8ba8:	e2833001 	add	r3, r3, #1
    8bac:	e50b300c 	str	r3, [fp, #-12]
    8bb0:	eaffffde 	b	8b30 <_ZN8CMonitor4itoaEjPcj+0xd8>
/home/silhavyj/School/ZeroMate/examples/07-LED_toggle_debug_monitor/kernel/src/drivers/monitor.cpp:203
    }
}
    8bb4:	e320f000 	nop	{0}
    8bb8:	e24bd004 	sub	sp, fp, #4
    8bbc:	e8bd8800 	pop	{fp, pc}
    8bc0:	00009170 	andeq	r9, r0, r0, ror r1

00008bc4 <_Z41__static_initialization_and_destruction_0ii>:
_Z41__static_initialization_and_destruction_0ii():
/home/silhavyj/School/ZeroMate/examples/07-LED_toggle_debug_monitor/kernel/src/drivers/monitor.cpp:203
    8bc4:	e92d4800 	push	{fp, lr}
    8bc8:	e28db004 	add	fp, sp, #4
    8bcc:	e24dd008 	sub	sp, sp, #8
    8bd0:	e50b0008 	str	r0, [fp, #-8]
    8bd4:	e50b100c 	str	r1, [fp, #-12]
    8bd8:	e51b3008 	ldr	r3, [fp, #-8]
    8bdc:	e3530001 	cmp	r3, #1
    8be0:	1a000008 	bne	8c08 <_Z41__static_initialization_and_destruction_0ii+0x44>
/home/silhavyj/School/ZeroMate/examples/07-LED_toggle_debug_monitor/kernel/src/drivers/monitor.cpp:203 (discriminator 1)
    8be4:	e51b300c 	ldr	r3, [fp, #-12]
    8be8:	e59f2024 	ldr	r2, [pc, #36]	; 8c14 <_Z41__static_initialization_and_destruction_0ii+0x50>
    8bec:	e1530002 	cmp	r3, r2
    8bf0:	1a000004 	bne	8c08 <_Z41__static_initialization_and_destruction_0ii+0x44>
/home/silhavyj/School/ZeroMate/examples/07-LED_toggle_debug_monitor/kernel/src/drivers/monitor.cpp:3
CMonitor sMonitor{ 0x30000000, 80, 25 };
    8bf4:	e3a03019 	mov	r3, #25
    8bf8:	e3a02050 	mov	r2, #80	; 0x50
    8bfc:	e3a01203 	mov	r1, #805306368	; 0x30000000
    8c00:	e59f0010 	ldr	r0, [pc, #16]	; 8c18 <_Z41__static_initialization_and_destruction_0ii+0x54>
    8c04:	ebfffe7d 	bl	8600 <_ZN8CMonitorC1Ejjj>
/home/silhavyj/School/ZeroMate/examples/07-LED_toggle_debug_monitor/kernel/src/drivers/monitor.cpp:203
}
    8c08:	e320f000 	nop	{0}
    8c0c:	e24bd004 	sub	sp, fp, #4
    8c10:	e8bd8800 	pop	{fp, pc}
    8c14:	0000ffff 	strdeq	pc, [r0], -pc	; <UNPREDICTABLE>
    8c18:	00009220 	andeq	r9, r0, r0, lsr #4

00008c1c <_GLOBAL__sub_I_sMonitor>:
_GLOBAL__sub_I_sMonitor():
/home/silhavyj/School/ZeroMate/examples/07-LED_toggle_debug_monitor/kernel/src/drivers/monitor.cpp:203
    8c1c:	e92d4800 	push	{fp, lr}
    8c20:	e28db004 	add	fp, sp, #4
    8c24:	e59f1008 	ldr	r1, [pc, #8]	; 8c34 <_GLOBAL__sub_I_sMonitor+0x18>
    8c28:	e3a00001 	mov	r0, #1
    8c2c:	ebffffe4 	bl	8bc4 <_Z41__static_initialization_and_destruction_0ii>
    8c30:	e8bd8800 	pop	{fp, pc}
    8c34:	0000ffff 	strdeq	pc, [r0], -pc	; <UNPREDICTABLE>

00008c38 <_ZN8CMonitor12Reset_CursorEv>:
_ZN8CMonitor12Reset_CursorEv():
/home/silhavyj/School/ZeroMate/examples/07-LED_toggle_debug_monitor/kernel/src/drivers/monitor.cpp:15
{
    8c38:	e52db004 	push	{fp}		; (str fp, [sp, #-4]!)
    8c3c:	e28db000 	add	fp, sp, #0
    8c40:	e24dd00c 	sub	sp, sp, #12
    8c44:	e50b0008 	str	r0, [fp, #-8]
/home/silhavyj/School/ZeroMate/examples/07-LED_toggle_debug_monitor/kernel/src/drivers/monitor.cpp:16
    m_cursor.y = 0;
    8c48:	e51b3008 	ldr	r3, [fp, #-8]
    8c4c:	e3a02000 	mov	r2, #0
    8c50:	e583200c 	str	r2, [r3, #12]
/home/silhavyj/School/ZeroMate/examples/07-LED_toggle_debug_monitor/kernel/src/drivers/monitor.cpp:17
    m_cursor.y = 0;
    8c54:	e51b3008 	ldr	r3, [fp, #-8]
    8c58:	e3a02000 	mov	r2, #0
    8c5c:	e583200c 	str	r2, [r3, #12]
/home/silhavyj/School/ZeroMate/examples/07-LED_toggle_debug_monitor/kernel/src/drivers/monitor.cpp:18
}
    8c60:	e320f000 	nop	{0}
    8c64:	e28bd000 	add	sp, fp, #0
    8c68:	e49db004 	pop	{fp}		; (ldr fp, [sp], #4)
    8c6c:	e12fff1e 	bx	lr

00008c70 <_ZN8CMonitor13Adjust_CursorEv>:
_ZN8CMonitor13Adjust_CursorEv():
/home/silhavyj/School/ZeroMate/examples/07-LED_toggle_debug_monitor/kernel/src/drivers/monitor.cpp:34
{
    8c70:	e92d4800 	push	{fp, lr}
    8c74:	e28db004 	add	fp, sp, #4
    8c78:	e24dd008 	sub	sp, sp, #8
    8c7c:	e50b0008 	str	r0, [fp, #-8]
/home/silhavyj/School/ZeroMate/examples/07-LED_toggle_debug_monitor/kernel/src/drivers/monitor.cpp:35
    if (m_cursor.x >= m_width)
    8c80:	e51b3008 	ldr	r3, [fp, #-8]
    8c84:	e5932010 	ldr	r2, [r3, #16]
    8c88:	e51b3008 	ldr	r3, [fp, #-8]
    8c8c:	e5933004 	ldr	r3, [r3, #4]
    8c90:	e1520003 	cmp	r2, r3
    8c94:	3a000007 	bcc	8cb8 <_ZN8CMonitor13Adjust_CursorEv+0x48>
/home/silhavyj/School/ZeroMate/examples/07-LED_toggle_debug_monitor/kernel/src/drivers/monitor.cpp:37
        m_cursor.x = 0;
    8c98:	e51b3008 	ldr	r3, [fp, #-8]
    8c9c:	e3a02000 	mov	r2, #0
    8ca0:	e5832010 	str	r2, [r3, #16]
/home/silhavyj/School/ZeroMate/examples/07-LED_toggle_debug_monitor/kernel/src/drivers/monitor.cpp:38
        ++m_cursor.y;
    8ca4:	e51b3008 	ldr	r3, [fp, #-8]
    8ca8:	e593300c 	ldr	r3, [r3, #12]
    8cac:	e2832001 	add	r2, r3, #1
    8cb0:	e51b3008 	ldr	r3, [fp, #-8]
    8cb4:	e583200c 	str	r2, [r3, #12]
/home/silhavyj/School/ZeroMate/examples/07-LED_toggle_debug_monitor/kernel/src/drivers/monitor.cpp:41
    if (m_cursor.y >= m_height)
    8cb8:	e51b3008 	ldr	r3, [fp, #-8]
    8cbc:	e593200c 	ldr	r2, [r3, #12]
    8cc0:	e51b3008 	ldr	r3, [fp, #-8]
    8cc4:	e5933008 	ldr	r3, [r3, #8]
    8cc8:	e1520003 	cmp	r2, r3
    8ccc:	3a000006 	bcc	8cec <_ZN8CMonitor13Adjust_CursorEv+0x7c>
/home/silhavyj/School/ZeroMate/examples/07-LED_toggle_debug_monitor/kernel/src/drivers/monitor.cpp:43
        Scroll();
    8cd0:	e51b0008 	ldr	r0, [fp, #-8]
    8cd4:	ebfffe91 	bl	8720 <_ZN8CMonitor6ScrollEv>
/home/silhavyj/School/ZeroMate/examples/07-LED_toggle_debug_monitor/kernel/src/drivers/monitor.cpp:44
        m_cursor.y = m_height - 1;
    8cd8:	e51b3008 	ldr	r3, [fp, #-8]
    8cdc:	e5933008 	ldr	r3, [r3, #8]
    8ce0:	e2432001 	sub	r2, r3, #1
    8ce4:	e51b3008 	ldr	r3, [fp, #-8]
    8ce8:	e583200c 	str	r2, [r3, #12]
/home/silhavyj/School/ZeroMate/examples/07-LED_toggle_debug_monitor/kernel/src/drivers/monitor.cpp:46
}
    8cec:	e320f000 	nop	{0}
    8cf0:	e24bd004 	sub	sp, fp, #4
    8cf4:	e8bd8800 	pop	{fp, pc}

00008cf8 <_ZN8CMonitor17Reset_Number_BaseEv>:
_ZN8CMonitor17Reset_Number_BaseEv():
/home/silhavyj/School/ZeroMate/examples/07-LED_toggle_debug_monitor/kernel/src/drivers/monitor.cpp:65
{
    8cf8:	e52db004 	push	{fp}		; (str fp, [sp, #-4]!)
    8cfc:	e28db000 	add	fp, sp, #0
    8d00:	e24dd00c 	sub	sp, sp, #12
    8d04:	e50b0008 	str	r0, [fp, #-8]
/home/silhavyj/School/ZeroMate/examples/07-LED_toggle_debug_monitor/kernel/src/drivers/monitor.cpp:66
    m_number_base = DEFAULT_NUMBER_BASE;
    8d08:	e51b3008 	ldr	r3, [fp, #-8]
    8d0c:	e3a0200a 	mov	r2, #10
    8d10:	e5832014 	str	r2, [r3, #20]
/home/silhavyj/School/ZeroMate/examples/07-LED_toggle_debug_monitor/kernel/src/drivers/monitor.cpp:67
}
    8d14:	e320f000 	nop	{0}
    8d18:	e28bd000 	add	sp, fp, #0
    8d1c:	e49db004 	pop	{fp}		; (ldr fp, [sp], #4)
    8d20:	e12fff1e 	bx	lr

00008d24 <_ZN8CMonitor6DivideEjj>:
_ZN8CMonitor6DivideEjj():
/home/silhavyj/School/ZeroMate/examples/07-LED_toggle_debug_monitor/kernel/src/drivers/monitor.cpp:136
{
    8d24:	e52db004 	push	{fp}		; (str fp, [sp, #-4]!)
    8d28:	e28db000 	add	fp, sp, #0
    8d2c:	e24dd01c 	sub	sp, sp, #28
    8d30:	e50b0010 	str	r0, [fp, #-16]
    8d34:	e50b1014 	str	r1, [fp, #-20]	; 0xffffffec
    8d38:	e50b2018 	str	r2, [fp, #-24]	; 0xffffffe8
/home/silhavyj/School/ZeroMate/examples/07-LED_toggle_debug_monitor/kernel/src/drivers/monitor.cpp:137
    if (b == 0)
    8d3c:	e51b3018 	ldr	r3, [fp, #-24]	; 0xffffffe8
    8d40:	e3530000 	cmp	r3, #0
    8d44:	1a000001 	bne	8d50 <_ZN8CMonitor6DivideEjj+0x2c>
/home/silhavyj/School/ZeroMate/examples/07-LED_toggle_debug_monitor/kernel/src/drivers/monitor.cpp:140
        return 0;
    8d48:	e3a03000 	mov	r3, #0
    8d4c:	ea000014 	b	8da4 <_ZN8CMonitor6DivideEjj+0x80>
/home/silhavyj/School/ZeroMate/examples/07-LED_toggle_debug_monitor/kernel/src/drivers/monitor.cpp:142
    if (a < b)
    8d50:	e51b2014 	ldr	r2, [fp, #-20]	; 0xffffffec
    8d54:	e51b3018 	ldr	r3, [fp, #-24]	; 0xffffffe8
    8d58:	e1520003 	cmp	r2, r3
    8d5c:	2a000001 	bcs	8d68 <_ZN8CMonitor6DivideEjj+0x44>
/home/silhavyj/School/ZeroMate/examples/07-LED_toggle_debug_monitor/kernel/src/drivers/monitor.cpp:144
        return 0;
    8d60:	e3a03000 	mov	r3, #0
    8d64:	ea00000e 	b	8da4 <_ZN8CMonitor6DivideEjj+0x80>
/home/silhavyj/School/ZeroMate/examples/07-LED_toggle_debug_monitor/kernel/src/drivers/monitor.cpp:147
    unsigned int quotient = 0;
    8d68:	e3a03000 	mov	r3, #0
    8d6c:	e50b3008 	str	r3, [fp, #-8]
/home/silhavyj/School/ZeroMate/examples/07-LED_toggle_debug_monitor/kernel/src/drivers/monitor.cpp:149
    while (a >= b)
    8d70:	e51b2014 	ldr	r2, [fp, #-20]	; 0xffffffec
    8d74:	e51b3018 	ldr	r3, [fp, #-24]	; 0xffffffe8
    8d78:	e1520003 	cmp	r2, r3
    8d7c:	3a000007 	bcc	8da0 <_ZN8CMonitor6DivideEjj+0x7c>
/home/silhavyj/School/ZeroMate/examples/07-LED_toggle_debug_monitor/kernel/src/drivers/monitor.cpp:151
        a -= b;
    8d80:	e51b2014 	ldr	r2, [fp, #-20]	; 0xffffffec
    8d84:	e51b3018 	ldr	r3, [fp, #-24]	; 0xffffffe8
    8d88:	e0423003 	sub	r3, r2, r3
    8d8c:	e50b3014 	str	r3, [fp, #-20]	; 0xffffffec
/home/silhavyj/School/ZeroMate/examples/07-LED_toggle_debug_monitor/kernel/src/drivers/monitor.cpp:152
        quotient++;
    8d90:	e51b3008 	ldr	r3, [fp, #-8]
    8d94:	e2833001 	add	r3, r3, #1
    8d98:	e50b3008 	str	r3, [fp, #-8]
/home/silhavyj/School/ZeroMate/examples/07-LED_toggle_debug_monitor/kernel/src/drivers/monitor.cpp:149
    while (a >= b)
    8d9c:	eafffff3 	b	8d70 <_ZN8CMonitor6DivideEjj+0x4c>
/home/silhavyj/School/ZeroMate/examples/07-LED_toggle_debug_monitor/kernel/src/drivers/monitor.cpp:155
    return quotient;
    8da0:	e51b3008 	ldr	r3, [fp, #-8]
/home/silhavyj/School/ZeroMate/examples/07-LED_toggle_debug_monitor/kernel/src/drivers/monitor.cpp:156
}
    8da4:	e1a00003 	mov	r0, r3
    8da8:	e28bd000 	add	sp, fp, #0
    8dac:	e49db004 	pop	{fp}		; (ldr fp, [sp], #4)
    8db0:	e12fff1e 	bx	lr

00008db4 <_ZN8CMonitor9RemainderEjj>:
_ZN8CMonitor9RemainderEjj():
/home/silhavyj/School/ZeroMate/examples/07-LED_toggle_debug_monitor/kernel/src/drivers/monitor.cpp:159
{
    8db4:	e52db004 	push	{fp}		; (str fp, [sp, #-4]!)
    8db8:	e28db000 	add	fp, sp, #0
    8dbc:	e24dd014 	sub	sp, sp, #20
    8dc0:	e50b0008 	str	r0, [fp, #-8]
    8dc4:	e50b100c 	str	r1, [fp, #-12]
    8dc8:	e50b2010 	str	r2, [fp, #-16]
/home/silhavyj/School/ZeroMate/examples/07-LED_toggle_debug_monitor/kernel/src/drivers/monitor.cpp:160
    if (b == 0)
    8dcc:	e51b3010 	ldr	r3, [fp, #-16]
    8dd0:	e3530000 	cmp	r3, #0
    8dd4:	1a000001 	bne	8de0 <_ZN8CMonitor9RemainderEjj+0x2c>
/home/silhavyj/School/ZeroMate/examples/07-LED_toggle_debug_monitor/kernel/src/drivers/monitor.cpp:163
        return 0;
    8dd8:	e3a03000 	mov	r3, #0
    8ddc:	ea00000f 	b	8e20 <_ZN8CMonitor9RemainderEjj+0x6c>
/home/silhavyj/School/ZeroMate/examples/07-LED_toggle_debug_monitor/kernel/src/drivers/monitor.cpp:165
    if (a < b)
    8de0:	e51b200c 	ldr	r2, [fp, #-12]
    8de4:	e51b3010 	ldr	r3, [fp, #-16]
    8de8:	e1520003 	cmp	r2, r3
    8dec:	2a000001 	bcs	8df8 <_ZN8CMonitor9RemainderEjj+0x44>
/home/silhavyj/School/ZeroMate/examples/07-LED_toggle_debug_monitor/kernel/src/drivers/monitor.cpp:167
        return a;
    8df0:	e51b300c 	ldr	r3, [fp, #-12]
    8df4:	ea000009 	b	8e20 <_ZN8CMonitor9RemainderEjj+0x6c>
/home/silhavyj/School/ZeroMate/examples/07-LED_toggle_debug_monitor/kernel/src/drivers/monitor.cpp:169
    while (a >= b)
    8df8:	e51b200c 	ldr	r2, [fp, #-12]
    8dfc:	e51b3010 	ldr	r3, [fp, #-16]
    8e00:	e1520003 	cmp	r2, r3
    8e04:	3a000004 	bcc	8e1c <_ZN8CMonitor9RemainderEjj+0x68>
/home/silhavyj/School/ZeroMate/examples/07-LED_toggle_debug_monitor/kernel/src/drivers/monitor.cpp:171
        a -= b;
    8e08:	e51b200c 	ldr	r2, [fp, #-12]
    8e0c:	e51b3010 	ldr	r3, [fp, #-16]
    8e10:	e0423003 	sub	r3, r2, r3
    8e14:	e50b300c 	str	r3, [fp, #-12]
/home/silhavyj/School/ZeroMate/examples/07-LED_toggle_debug_monitor/kernel/src/drivers/monitor.cpp:169
    while (a >= b)
    8e18:	eafffff6 	b	8df8 <_ZN8CMonitor9RemainderEjj+0x44>
/home/silhavyj/School/ZeroMate/examples/07-LED_toggle_debug_monitor/kernel/src/drivers/monitor.cpp:174
    return a;
    8e1c:	e51b300c 	ldr	r3, [fp, #-12]
/home/silhavyj/School/ZeroMate/examples/07-LED_toggle_debug_monitor/kernel/src/drivers/monitor.cpp:175
}
    8e20:	e1a00003 	mov	r0, r3
    8e24:	e28bd000 	add	sp, fp, #0
    8e28:	e49db004 	pop	{fp}		; (ldr fp, [sp], #4)
    8e2c:	e12fff1e 	bx	lr

00008e30 <_kernel_main>:
_kernel_main():
/home/silhavyj/School/ZeroMate/examples/07-LED_toggle_debug_monitor/kernel/src/main.cpp:8

// GPIO pin 47 je pripojeny na LED na desce (tzv. ACT LED)
constexpr uint32_t ACT_Pin = 47;

extern "C" int _kernel_main(void)
{
    8e30:	e92d4800 	push	{fp, lr}
    8e34:	e28db004 	add	fp, sp, #4
    8e38:	e24dd008 	sub	sp, sp, #8
/home/silhavyj/School/ZeroMate/examples/07-LED_toggle_debug_monitor/kernel/src/main.cpp:9
    sMonitor.Clear();
    8e3c:	e59f0174 	ldr	r0, [pc, #372]	; 8fb8 <_kernel_main+0x188>
    8e40:	ebfffe0c 	bl	8678 <_ZN8CMonitor5ClearEv>
/home/silhavyj/School/ZeroMate/examples/07-LED_toggle_debug_monitor/kernel/src/main.cpp:10
    sMonitor << "Hello from the kernel :)\n\n";
    8e44:	e59f1170 	ldr	r1, [pc, #368]	; 8fbc <_kernel_main+0x18c>
    8e48:	e59f0168 	ldr	r0, [pc, #360]	; 8fb8 <_kernel_main+0x188>
    8e4c:	ebfffea9 	bl	88f8 <_ZN8CMonitorlsEPKc>
/home/silhavyj/School/ZeroMate/examples/07-LED_toggle_debug_monitor/kernel/src/main.cpp:12
    
    sMonitor << "Running monitor tests...\nVariable x = " << 137U << "; variable y = 0x" << CMonitor::NNumber_Base::HEX << 199999U << '\n';
    8e50:	e59f1168 	ldr	r1, [pc, #360]	; 8fc0 <_kernel_main+0x190>
    8e54:	e59f015c 	ldr	r0, [pc, #348]	; 8fb8 <_kernel_main+0x188>
    8e58:	ebfffea6 	bl	88f8 <_ZN8CMonitorlsEPKc>
    8e5c:	e1a03000 	mov	r3, r0
    8e60:	e3a01089 	mov	r1, #137	; 0x89
    8e64:	e1a00003 	mov	r0, r3
    8e68:	ebfffecd 	bl	89a4 <_ZN8CMonitorlsEj>
    8e6c:	e1a03000 	mov	r3, r0
    8e70:	e59f114c 	ldr	r1, [pc, #332]	; 8fc4 <_kernel_main+0x194>
    8e74:	e1a00003 	mov	r0, r3
    8e78:	ebfffe9e 	bl	88f8 <_ZN8CMonitorlsEPKc>
    8e7c:	e1a03000 	mov	r3, r0
    8e80:	e3a01010 	mov	r1, #16
    8e84:	e1a00003 	mov	r0, r3
    8e88:	ebfffeb8 	bl	8970 <_ZN8CMonitorlsENS_12NNumber_BaseE>
    8e8c:	e1a03000 	mov	r3, r0
    8e90:	e59f1130 	ldr	r1, [pc, #304]	; 8fc8 <_kernel_main+0x198>
    8e94:	e1a00003 	mov	r0, r3
    8e98:	ebfffec1 	bl	89a4 <_ZN8CMonitorlsEj>
    8e9c:	e1a03000 	mov	r3, r0
    8ea0:	e3a0100a 	mov	r1, #10
    8ea4:	e1a00003 	mov	r0, r3
    8ea8:	ebfffe68 	bl	8850 <_ZN8CMonitorlsEc>
/home/silhavyj/School/ZeroMate/examples/07-LED_toggle_debug_monitor/kernel/src/main.cpp:13
    sMonitor << "15 == 0 is " << (15 == 0) << '\n';
    8eac:	e59f1118 	ldr	r1, [pc, #280]	; 8fcc <_kernel_main+0x19c>
    8eb0:	e59f0100 	ldr	r0, [pc, #256]	; 8fb8 <_kernel_main+0x188>
    8eb4:	ebfffe8f 	bl	88f8 <_ZN8CMonitorlsEPKc>
    8eb8:	e1a03000 	mov	r3, r0
    8ebc:	e3a01000 	mov	r1, #0
    8ec0:	e1a00003 	mov	r0, r3
    8ec4:	ebfffecb 	bl	89f8 <_ZN8CMonitorlsEb>
    8ec8:	e1a03000 	mov	r3, r0
    8ecc:	e3a0100a 	mov	r1, #10
    8ed0:	e1a00003 	mov	r0, r3
    8ed4:	ebfffe5d 	bl	8850 <_ZN8CMonitorlsEc>
/home/silhavyj/School/ZeroMate/examples/07-LED_toggle_debug_monitor/kernel/src/main.cpp:14
    sMonitor << "15 != 0 is " << (15 != 0) << "\n\n";
    8ed8:	e59f10f0 	ldr	r1, [pc, #240]	; 8fd0 <_kernel_main+0x1a0>
    8edc:	e59f00d4 	ldr	r0, [pc, #212]	; 8fb8 <_kernel_main+0x188>
    8ee0:	ebfffe84 	bl	88f8 <_ZN8CMonitorlsEPKc>
    8ee4:	e1a03000 	mov	r3, r0
    8ee8:	e3a01001 	mov	r1, #1
    8eec:	e1a00003 	mov	r0, r3
    8ef0:	ebfffec0 	bl	89f8 <_ZN8CMonitorlsEb>
    8ef4:	e1a03000 	mov	r3, r0
    8ef8:	e59f10d4 	ldr	r1, [pc, #212]	; 8fd4 <_kernel_main+0x1a4>
    8efc:	e1a00003 	mov	r0, r3
    8f00:	ebfffe7c 	bl	88f8 <_ZN8CMonitorlsEPKc>
/home/silhavyj/School/ZeroMate/examples/07-LED_toggle_debug_monitor/kernel/src/main.cpp:17
    
    // nastavime ACT LED pin na vystupni
    sGPIO.Set_GPIO_Function(ACT_Pin, NGPIO_Function::Output);
    8f04:	e3a02001 	mov	r2, #1
    8f08:	e3a0102f 	mov	r1, #47	; 0x2f
    8f0c:	e59f00c4 	ldr	r0, [pc, #196]	; 8fd8 <_kernel_main+0x1a8>
    8f10:	ebfffd1f 	bl	8394 <_ZN13CGPIO_Handler17Set_GPIO_FunctionEj14NGPIO_Function>
/home/silhavyj/School/ZeroMate/examples/07-LED_toggle_debug_monitor/kernel/src/main.cpp:24
    volatile unsigned int tim;

    while (1)
    {
        // spalime 500000 taktu (cekani par milisekund)
        for (tim = 0; tim < 0x5000; tim++)
    8f14:	e3a03000 	mov	r3, #0
    8f18:	e50b3008 	str	r3, [fp, #-8]
/home/silhavyj/School/ZeroMate/examples/07-LED_toggle_debug_monitor/kernel/src/main.cpp:24 (discriminator 3)
    8f1c:	e51b3008 	ldr	r3, [fp, #-8]
    8f20:	e3530a05 	cmp	r3, #20480	; 0x5000
    8f24:	33a03001 	movcc	r3, #1
    8f28:	23a03000 	movcs	r3, #0
    8f2c:	e6ef3073 	uxtb	r3, r3
    8f30:	e3530000 	cmp	r3, #0
    8f34:	0a000003 	beq	8f48 <_kernel_main+0x118>
/home/silhavyj/School/ZeroMate/examples/07-LED_toggle_debug_monitor/kernel/src/main.cpp:24 (discriminator 2)
    8f38:	e51b3008 	ldr	r3, [fp, #-8]
    8f3c:	e2833001 	add	r3, r3, #1
    8f40:	e50b3008 	str	r3, [fp, #-8]
    8f44:	eafffff4 	b	8f1c <_kernel_main+0xec>
/home/silhavyj/School/ZeroMate/examples/07-LED_toggle_debug_monitor/kernel/src/main.cpp:28
            ;

        // zhasneme LED
        sGPIO.Set_Output(ACT_Pin, true);
    8f48:	e3a02001 	mov	r2, #1
    8f4c:	e3a0102f 	mov	r1, #47	; 0x2f
    8f50:	e59f0080 	ldr	r0, [pc, #128]	; 8fd8 <_kernel_main+0x1a8>
    8f54:	ebfffd57 	bl	84b8 <_ZN13CGPIO_Handler10Set_OutputEjb>
/home/silhavyj/School/ZeroMate/examples/07-LED_toggle_debug_monitor/kernel/src/main.cpp:29
        sMonitor << "LED is ON\n";
    8f58:	e59f107c 	ldr	r1, [pc, #124]	; 8fdc <_kernel_main+0x1ac>
    8f5c:	e59f0054 	ldr	r0, [pc, #84]	; 8fb8 <_kernel_main+0x188>
    8f60:	ebfffe64 	bl	88f8 <_ZN8CMonitorlsEPKc>
/home/silhavyj/School/ZeroMate/examples/07-LED_toggle_debug_monitor/kernel/src/main.cpp:32

        // opet cekani
        for (tim = 0; tim < 0x5000; tim++)
    8f64:	e3a03000 	mov	r3, #0
    8f68:	e50b3008 	str	r3, [fp, #-8]
/home/silhavyj/School/ZeroMate/examples/07-LED_toggle_debug_monitor/kernel/src/main.cpp:32 (discriminator 3)
    8f6c:	e51b3008 	ldr	r3, [fp, #-8]
    8f70:	e3530a05 	cmp	r3, #20480	; 0x5000
    8f74:	33a03001 	movcc	r3, #1
    8f78:	23a03000 	movcs	r3, #0
    8f7c:	e6ef3073 	uxtb	r3, r3
    8f80:	e3530000 	cmp	r3, #0
    8f84:	0a000003 	beq	8f98 <_kernel_main+0x168>
/home/silhavyj/School/ZeroMate/examples/07-LED_toggle_debug_monitor/kernel/src/main.cpp:32 (discriminator 2)
    8f88:	e51b3008 	ldr	r3, [fp, #-8]
    8f8c:	e2833001 	add	r3, r3, #1
    8f90:	e50b3008 	str	r3, [fp, #-8]
    8f94:	eafffff4 	b	8f6c <_kernel_main+0x13c>
/home/silhavyj/School/ZeroMate/examples/07-LED_toggle_debug_monitor/kernel/src/main.cpp:36
            ;

        // rozsvitime LED
        sGPIO.Set_Output(ACT_Pin, false);
    8f98:	e3a02000 	mov	r2, #0
    8f9c:	e3a0102f 	mov	r1, #47	; 0x2f
    8fa0:	e59f0030 	ldr	r0, [pc, #48]	; 8fd8 <_kernel_main+0x1a8>
    8fa4:	ebfffd43 	bl	84b8 <_ZN13CGPIO_Handler10Set_OutputEjb>
/home/silhavyj/School/ZeroMate/examples/07-LED_toggle_debug_monitor/kernel/src/main.cpp:37
        sMonitor << "LED is OFF\n";
    8fa8:	e59f1030 	ldr	r1, [pc, #48]	; 8fe0 <_kernel_main+0x1b0>
    8fac:	e59f0004 	ldr	r0, [pc, #4]	; 8fb8 <_kernel_main+0x188>
    8fb0:	ebfffe50 	bl	88f8 <_ZN8CMonitorlsEPKc>
/home/silhavyj/School/ZeroMate/examples/07-LED_toggle_debug_monitor/kernel/src/main.cpp:24
        for (tim = 0; tim < 0x5000; tim++)
    8fb4:	eaffffd6 	b	8f14 <_kernel_main+0xe4>
    8fb8:	00009220 	andeq	r9, r0, r0, lsr #4
    8fbc:	00009188 	andeq	r9, r0, r8, lsl #3
    8fc0:	000091a4 	andeq	r9, r0, r4, lsr #3
    8fc4:	000091cc 	andeq	r9, r0, ip, asr #3
    8fc8:	00030d3f 	andeq	r0, r3, pc, lsr sp
    8fcc:	000091e0 	andeq	r9, r0, r0, ror #3
    8fd0:	000091ec 	andeq	r9, r0, ip, ror #3
    8fd4:	000091f8 	strdeq	r9, [r0], -r8
    8fd8:	0000921c 	andeq	r9, r0, ip, lsl r2
    8fdc:	000091fc 	strdeq	r9, [r0], -ip
    8fe0:	00009208 	andeq	r9, r0, r8, lsl #4

00008fe4 <_c_startup>:
_c_startup():
/home/silhavyj/School/ZeroMate/examples/07-LED_toggle_debug_monitor/kernel/src/startup.cpp:21
extern "C" dtor_ptr __DTOR_LIST__[0];
// konec pole destruktoru
extern "C" dtor_ptr __DTOR_END__[0];

extern "C" int _c_startup(void)
{
    8fe4:	e52db004 	push	{fp}		; (str fp, [sp, #-4]!)
    8fe8:	e28db000 	add	fp, sp, #0
    8fec:	e24dd00c 	sub	sp, sp, #12
/home/silhavyj/School/ZeroMate/examples/07-LED_toggle_debug_monitor/kernel/src/startup.cpp:25
    int* i;

    // vynulujeme .bss sekci
    for (i = (int*)_bss_start; i < (int*)_bss_end; i++)
    8ff0:	e59f304c 	ldr	r3, [pc, #76]	; 9044 <_c_startup+0x60>
    8ff4:	e5933000 	ldr	r3, [r3]
    8ff8:	e50b3008 	str	r3, [fp, #-8]
/home/silhavyj/School/ZeroMate/examples/07-LED_toggle_debug_monitor/kernel/src/startup.cpp:25 (discriminator 3)
    8ffc:	e59f3044 	ldr	r3, [pc, #68]	; 9048 <_c_startup+0x64>
    9000:	e5933000 	ldr	r3, [r3]
    9004:	e1a02003 	mov	r2, r3
    9008:	e51b3008 	ldr	r3, [fp, #-8]
    900c:	e1530002 	cmp	r3, r2
    9010:	2a000006 	bcs	9030 <_c_startup+0x4c>
/home/silhavyj/School/ZeroMate/examples/07-LED_toggle_debug_monitor/kernel/src/startup.cpp:26 (discriminator 2)
        *i = 0;
    9014:	e51b3008 	ldr	r3, [fp, #-8]
    9018:	e3a02000 	mov	r2, #0
    901c:	e5832000 	str	r2, [r3]
/home/silhavyj/School/ZeroMate/examples/07-LED_toggle_debug_monitor/kernel/src/startup.cpp:25 (discriminator 2)
    for (i = (int*)_bss_start; i < (int*)_bss_end; i++)
    9020:	e51b3008 	ldr	r3, [fp, #-8]
    9024:	e2833004 	add	r3, r3, #4
    9028:	e50b3008 	str	r3, [fp, #-8]
    902c:	eafffff2 	b	8ffc <_c_startup+0x18>
/home/silhavyj/School/ZeroMate/examples/07-LED_toggle_debug_monitor/kernel/src/startup.cpp:28

    return 0;
    9030:	e3a03000 	mov	r3, #0
/home/silhavyj/School/ZeroMate/examples/07-LED_toggle_debug_monitor/kernel/src/startup.cpp:29
}
    9034:	e1a00003 	mov	r0, r3
    9038:	e28bd000 	add	sp, fp, #0
    903c:	e49db004 	pop	{fp}		; (ldr fp, [sp], #4)
    9040:	e12fff1e 	bx	lr
    9044:	0000921c 	andeq	r9, r0, ip, lsl r2
    9048:	00009258 	andeq	r9, r0, r8, asr r2

0000904c <_cpp_startup>:
_cpp_startup():
/home/silhavyj/School/ZeroMate/examples/07-LED_toggle_debug_monitor/kernel/src/startup.cpp:32

extern "C" int _cpp_startup(void)
{
    904c:	e92d4800 	push	{fp, lr}
    9050:	e28db004 	add	fp, sp, #4
    9054:	e24dd008 	sub	sp, sp, #8
/home/silhavyj/School/ZeroMate/examples/07-LED_toggle_debug_monitor/kernel/src/startup.cpp:37
    ctor_ptr* fnptr;

    // zavolame konstruktory globalnich C++ trid
    // v poli __CTOR_LIST__ jsou ukazatele na vygenerovane stuby volani konstruktoru
    for (fnptr = __CTOR_LIST__; fnptr < __CTOR_END__; fnptr++)
    9058:	e59f303c 	ldr	r3, [pc, #60]	; 909c <_cpp_startup+0x50>
    905c:	e50b3008 	str	r3, [fp, #-8]
/home/silhavyj/School/ZeroMate/examples/07-LED_toggle_debug_monitor/kernel/src/startup.cpp:37 (discriminator 3)
    9060:	e51b3008 	ldr	r3, [fp, #-8]
    9064:	e59f2034 	ldr	r2, [pc, #52]	; 90a0 <_cpp_startup+0x54>
    9068:	e1530002 	cmp	r3, r2
    906c:	2a000006 	bcs	908c <_cpp_startup+0x40>
/home/silhavyj/School/ZeroMate/examples/07-LED_toggle_debug_monitor/kernel/src/startup.cpp:38 (discriminator 2)
        (*fnptr)();
    9070:	e51b3008 	ldr	r3, [fp, #-8]
    9074:	e5933000 	ldr	r3, [r3]
    9078:	e12fff33 	blx	r3
/home/silhavyj/School/ZeroMate/examples/07-LED_toggle_debug_monitor/kernel/src/startup.cpp:37 (discriminator 2)
    for (fnptr = __CTOR_LIST__; fnptr < __CTOR_END__; fnptr++)
    907c:	e51b3008 	ldr	r3, [fp, #-8]
    9080:	e2833004 	add	r3, r3, #4
    9084:	e50b3008 	str	r3, [fp, #-8]
    9088:	eafffff4 	b	9060 <_cpp_startup+0x14>
/home/silhavyj/School/ZeroMate/examples/07-LED_toggle_debug_monitor/kernel/src/startup.cpp:40

    return 0;
    908c:	e3a03000 	mov	r3, #0
/home/silhavyj/School/ZeroMate/examples/07-LED_toggle_debug_monitor/kernel/src/startup.cpp:41
}
    9090:	e1a00003 	mov	r0, r3
    9094:	e24bd004 	sub	sp, fp, #4
    9098:	e8bd8800 	pop	{fp, pc}
    909c:	00009214 	andeq	r9, r0, r4, lsl r2
    90a0:	0000921c 	andeq	r9, r0, ip, lsl r2

000090a4 <_cpp_shutdown>:
_cpp_shutdown():
/home/silhavyj/School/ZeroMate/examples/07-LED_toggle_debug_monitor/kernel/src/startup.cpp:44

extern "C" int _cpp_shutdown(void)
{
    90a4:	e92d4800 	push	{fp, lr}
    90a8:	e28db004 	add	fp, sp, #4
    90ac:	e24dd008 	sub	sp, sp, #8
/home/silhavyj/School/ZeroMate/examples/07-LED_toggle_debug_monitor/kernel/src/startup.cpp:48
    dtor_ptr* fnptr;

    // zavolame destruktory globalnich C++ trid
    for (fnptr = __DTOR_LIST__; fnptr < __DTOR_END__; fnptr++)
    90b0:	e59f303c 	ldr	r3, [pc, #60]	; 90f4 <_cpp_shutdown+0x50>
    90b4:	e50b3008 	str	r3, [fp, #-8]
/home/silhavyj/School/ZeroMate/examples/07-LED_toggle_debug_monitor/kernel/src/startup.cpp:48 (discriminator 3)
    90b8:	e51b3008 	ldr	r3, [fp, #-8]
    90bc:	e59f2034 	ldr	r2, [pc, #52]	; 90f8 <_cpp_shutdown+0x54>
    90c0:	e1530002 	cmp	r3, r2
    90c4:	2a000006 	bcs	90e4 <_cpp_shutdown+0x40>
/home/silhavyj/School/ZeroMate/examples/07-LED_toggle_debug_monitor/kernel/src/startup.cpp:49 (discriminator 2)
        (*fnptr)();
    90c8:	e51b3008 	ldr	r3, [fp, #-8]
    90cc:	e5933000 	ldr	r3, [r3]
    90d0:	e12fff33 	blx	r3
/home/silhavyj/School/ZeroMate/examples/07-LED_toggle_debug_monitor/kernel/src/startup.cpp:48 (discriminator 2)
    for (fnptr = __DTOR_LIST__; fnptr < __DTOR_END__; fnptr++)
    90d4:	e51b3008 	ldr	r3, [fp, #-8]
    90d8:	e2833004 	add	r3, r3, #4
    90dc:	e50b3008 	str	r3, [fp, #-8]
    90e0:	eafffff4 	b	90b8 <_cpp_shutdown+0x14>
/home/silhavyj/School/ZeroMate/examples/07-LED_toggle_debug_monitor/kernel/src/startup.cpp:51

    return 0;
    90e4:	e3a03000 	mov	r3, #0
/home/silhavyj/School/ZeroMate/examples/07-LED_toggle_debug_monitor/kernel/src/startup.cpp:52
}
    90e8:	e1a00003 	mov	r0, r3
    90ec:	e24bd004 	sub	sp, fp, #4
    90f0:	e8bd8800 	pop	{fp, pc}
    90f4:	0000921c 	andeq	r9, r0, ip, lsl r2
    90f8:	0000921c 	andeq	r9, r0, ip, lsl r2
