
./counter_task:     file format elf32-littlearm


Disassembly of section .text:

00008000 <_start>:
_start():
/mnt/c/Users/Kuba/Documents/ZeroMate/examples/18-edf/userspace/crt0.s:10
;@ startovaci symbol - vstupni bod z jadra OS do uzivatelskeho programu
;@ v podstate jen ihned zavola nejakou C funkci, nepotrebujeme nic tak kritickeho, abychom to vsechno museli psal v ASM
;@ jen _start vlastne ani neni funkce, takze by tento vstupni bod mel byt psany takto; rovnez je treba se ujistit, ze
;@ je tento symbol relokovany spravne na 0x8000 (tam OS ocekava, ze se nachazi vstupni bod)
_start:
    bl __crt0_run
    8000:	eb000017 	bl	8064 <__crt0_run>

00008004 <_hang>:
_hang():
/mnt/c/Users/Kuba/Documents/ZeroMate/examples/18-edf/userspace/crt0.s:13
    ;@ z funkce __crt0_run by se nemel proces uz vratit, ale kdyby neco, tak se zacyklime
_hang:
    b _hang
    8004:	eafffffe 	b	8004 <_hang>

00008008 <__crt0_init_bss>:
__crt0_init_bss():
/mnt/c/Users/Kuba/Documents/ZeroMate/examples/18-edf/userspace/crt0.c:10

extern unsigned int __bss_start;
extern unsigned int __bss_end;

void __crt0_init_bss()
{
    8008:	e52db004 	push	{fp}		; (str fp, [sp, #-4]!)
    800c:	e28db000 	add	fp, sp, #0
    8010:	e24dd00c 	sub	sp, sp, #12
/mnt/c/Users/Kuba/Documents/ZeroMate/examples/18-edf/userspace/crt0.c:11
    unsigned int* begin = (unsigned int*)&__bss_start;
    8014:	e59f3040 	ldr	r3, [pc, #64]	; 805c <__crt0_init_bss+0x54>
    8018:	e50b3008 	str	r3, [fp, #-8]
/mnt/c/Users/Kuba/Documents/ZeroMate/examples/18-edf/userspace/crt0.c:12
    for (; begin < (unsigned int*)&__bss_end; begin++)
    801c:	ea000005 	b	8038 <__crt0_init_bss+0x30>
/mnt/c/Users/Kuba/Documents/ZeroMate/examples/18-edf/userspace/crt0.c:13 (discriminator 2)
        *begin = 0;
    8020:	e51b3008 	ldr	r3, [fp, #-8]
    8024:	e3a02000 	mov	r2, #0
    8028:	e5832000 	str	r2, [r3]
/mnt/c/Users/Kuba/Documents/ZeroMate/examples/18-edf/userspace/crt0.c:12 (discriminator 2)
    for (; begin < (unsigned int*)&__bss_end; begin++)
    802c:	e51b3008 	ldr	r3, [fp, #-8]
    8030:	e2833004 	add	r3, r3, #4
    8034:	e50b3008 	str	r3, [fp, #-8]
/mnt/c/Users/Kuba/Documents/ZeroMate/examples/18-edf/userspace/crt0.c:12 (discriminator 1)
    8038:	e51b3008 	ldr	r3, [fp, #-8]
    803c:	e59f201c 	ldr	r2, [pc, #28]	; 8060 <__crt0_init_bss+0x58>
    8040:	e1530002 	cmp	r3, r2
    8044:	3afffff5 	bcc	8020 <__crt0_init_bss+0x18>
/mnt/c/Users/Kuba/Documents/ZeroMate/examples/18-edf/userspace/crt0.c:14
}
    8048:	e320f000 	nop	{0}
    804c:	e320f000 	nop	{0}
    8050:	e28bd000 	add	sp, fp, #0
    8054:	e49db004 	pop	{fp}		; (ldr fp, [sp], #4)
    8058:	e12fff1e 	bx	lr
    805c:	00008fbc 			; <UNDEFINED> instruction: 0x00008fbc
    8060:	00008fcc 	andeq	r8, r0, ip, asr #31

00008064 <__crt0_run>:
__crt0_run():
/mnt/c/Users/Kuba/Documents/ZeroMate/examples/18-edf/userspace/crt0.c:17

void __crt0_run()
{
    8064:	e92d4800 	push	{fp, lr}
    8068:	e28db004 	add	fp, sp, #4
    806c:	e24dd008 	sub	sp, sp, #8
/mnt/c/Users/Kuba/Documents/ZeroMate/examples/18-edf/userspace/crt0.c:19
    // inicializace .bss sekce (vynulovani)
    __crt0_init_bss();
    8070:	ebffffe4 	bl	8008 <__crt0_init_bss>
/mnt/c/Users/Kuba/Documents/ZeroMate/examples/18-edf/userspace/crt0.c:22

    // volani konstruktoru globalnich trid (C++)
    _cpp_startup();
    8074:	eb000040 	bl	817c <_cpp_startup>
/mnt/c/Users/Kuba/Documents/ZeroMate/examples/18-edf/userspace/crt0.c:28

    // volani funkce main
    // nebudeme se zde zabyvat predavanim parametru do funkce main
    // jinak by se mohly predavat napr. namapovane do virtualniho adr. prostoru a odkazem pres zasobnik (kam nam muze OS
    // pushnout co chce)
    int result = main(0, 0);
    8078:	e3a01000 	mov	r1, #0
    807c:	e3a00000 	mov	r0, #0
    8080:	eb000069 	bl	822c <main>
    8084:	e50b0008 	str	r0, [fp, #-8]
/mnt/c/Users/Kuba/Documents/ZeroMate/examples/18-edf/userspace/crt0.c:31

    // volani destruktoru globalnich trid (C++)
    _cpp_shutdown();
    8088:	eb000051 	bl	81d4 <_cpp_shutdown>
/mnt/c/Users/Kuba/Documents/ZeroMate/examples/18-edf/userspace/crt0.c:34

    // volani terminate() syscallu s navratovym kodem funkce main
    asm volatile("mov r0, %0" : : "r"(result));
    808c:	e51b3008 	ldr	r3, [fp, #-8]
    8090:	e1a00003 	mov	r0, r3
/mnt/c/Users/Kuba/Documents/ZeroMate/examples/18-edf/userspace/crt0.c:35
    asm volatile("svc #1");
    8094:	ef000001 	svc	0x00000001
/mnt/c/Users/Kuba/Documents/ZeroMate/examples/18-edf/userspace/crt0.c:36
}
    8098:	e320f000 	nop	{0}
    809c:	e24bd004 	sub	sp, fp, #4
    80a0:	e8bd8800 	pop	{fp, pc}

000080a4 <__cxa_guard_acquire>:
__cxa_guard_acquire():
/mnt/c/Users/Kuba/Documents/ZeroMate/examples/18-edf/userspace/cxxabi.cpp:11
    extern "C" int __cxa_guard_acquire(__guard*);
    extern "C" void __cxa_guard_release(__guard*);
    extern "C" void __cxa_guard_abort(__guard*);

    extern "C" int __cxa_guard_acquire(__guard* g)
    {
    80a4:	e52db004 	push	{fp}		; (str fp, [sp, #-4]!)
    80a8:	e28db000 	add	fp, sp, #0
    80ac:	e24dd00c 	sub	sp, sp, #12
    80b0:	e50b0008 	str	r0, [fp, #-8]
/mnt/c/Users/Kuba/Documents/ZeroMate/examples/18-edf/userspace/cxxabi.cpp:12
        return !*(char*)(g);
    80b4:	e51b3008 	ldr	r3, [fp, #-8]
    80b8:	e5d33000 	ldrb	r3, [r3]
    80bc:	e3530000 	cmp	r3, #0
    80c0:	03a03001 	moveq	r3, #1
    80c4:	13a03000 	movne	r3, #0
    80c8:	e6ef3073 	uxtb	r3, r3
/mnt/c/Users/Kuba/Documents/ZeroMate/examples/18-edf/userspace/cxxabi.cpp:13
    }
    80cc:	e1a00003 	mov	r0, r3
    80d0:	e28bd000 	add	sp, fp, #0
    80d4:	e49db004 	pop	{fp}		; (ldr fp, [sp], #4)
    80d8:	e12fff1e 	bx	lr

000080dc <__cxa_guard_release>:
__cxa_guard_release():
/mnt/c/Users/Kuba/Documents/ZeroMate/examples/18-edf/userspace/cxxabi.cpp:16

    extern "C" void __cxa_guard_release(__guard* g)
    {
    80dc:	e52db004 	push	{fp}		; (str fp, [sp, #-4]!)
    80e0:	e28db000 	add	fp, sp, #0
    80e4:	e24dd00c 	sub	sp, sp, #12
    80e8:	e50b0008 	str	r0, [fp, #-8]
/mnt/c/Users/Kuba/Documents/ZeroMate/examples/18-edf/userspace/cxxabi.cpp:17
        *(char*)g = 1;
    80ec:	e51b3008 	ldr	r3, [fp, #-8]
    80f0:	e3a02001 	mov	r2, #1
    80f4:	e5c32000 	strb	r2, [r3]
/mnt/c/Users/Kuba/Documents/ZeroMate/examples/18-edf/userspace/cxxabi.cpp:18
    }
    80f8:	e320f000 	nop	{0}
    80fc:	e28bd000 	add	sp, fp, #0
    8100:	e49db004 	pop	{fp}		; (ldr fp, [sp], #4)
    8104:	e12fff1e 	bx	lr

00008108 <__cxa_guard_abort>:
__cxa_guard_abort():
/mnt/c/Users/Kuba/Documents/ZeroMate/examples/18-edf/userspace/cxxabi.cpp:21

    extern "C" void __cxa_guard_abort(__guard*)
    {
    8108:	e52db004 	push	{fp}		; (str fp, [sp, #-4]!)
    810c:	e28db000 	add	fp, sp, #0
    8110:	e24dd00c 	sub	sp, sp, #12
    8114:	e50b0008 	str	r0, [fp, #-8]
/mnt/c/Users/Kuba/Documents/ZeroMate/examples/18-edf/userspace/cxxabi.cpp:22
    }
    8118:	e320f000 	nop	{0}
    811c:	e28bd000 	add	sp, fp, #0
    8120:	e49db004 	pop	{fp}		; (ldr fp, [sp], #4)
    8124:	e12fff1e 	bx	lr

00008128 <__dso_handle>:
__dso_handle():
/mnt/c/Users/Kuba/Documents/ZeroMate/examples/18-edf/userspace/cxxabi.cpp:26
}

extern "C" void __dso_handle()
{
    8128:	e52db004 	push	{fp}		; (str fp, [sp, #-4]!)
    812c:	e28db000 	add	fp, sp, #0
/mnt/c/Users/Kuba/Documents/ZeroMate/examples/18-edf/userspace/cxxabi.cpp:28
    // ignore dtors for now
}
    8130:	e320f000 	nop	{0}
    8134:	e28bd000 	add	sp, fp, #0
    8138:	e49db004 	pop	{fp}		; (ldr fp, [sp], #4)
    813c:	e12fff1e 	bx	lr

00008140 <__cxa_atexit>:
__cxa_atexit():
/mnt/c/Users/Kuba/Documents/ZeroMate/examples/18-edf/userspace/cxxabi.cpp:31

extern "C" void __cxa_atexit()
{
    8140:	e52db004 	push	{fp}		; (str fp, [sp, #-4]!)
    8144:	e28db000 	add	fp, sp, #0
/mnt/c/Users/Kuba/Documents/ZeroMate/examples/18-edf/userspace/cxxabi.cpp:33
    // ignore dtors for now
}
    8148:	e320f000 	nop	{0}
    814c:	e28bd000 	add	sp, fp, #0
    8150:	e49db004 	pop	{fp}		; (ldr fp, [sp], #4)
    8154:	e12fff1e 	bx	lr

00008158 <__cxa_pure_virtual>:
__cxa_pure_virtual():
/mnt/c/Users/Kuba/Documents/ZeroMate/examples/18-edf/userspace/cxxabi.cpp:36

extern "C" void __cxa_pure_virtual()
{
    8158:	e52db004 	push	{fp}		; (str fp, [sp, #-4]!)
    815c:	e28db000 	add	fp, sp, #0
/mnt/c/Users/Kuba/Documents/ZeroMate/examples/18-edf/userspace/cxxabi.cpp:38
    // pure virtual method called
}
    8160:	e320f000 	nop	{0}
    8164:	e28bd000 	add	sp, fp, #0
    8168:	e49db004 	pop	{fp}		; (ldr fp, [sp], #4)
    816c:	e12fff1e 	bx	lr

00008170 <__aeabi_unwind_cpp_pr1>:
__aeabi_unwind_cpp_pr1():
/mnt/c/Users/Kuba/Documents/ZeroMate/examples/18-edf/userspace/cxxabi.cpp:41

extern "C" void __aeabi_unwind_cpp_pr1()
{
    8170:	e52db004 	push	{fp}		; (str fp, [sp, #-4]!)
    8174:	e28db000 	add	fp, sp, #0
/mnt/c/Users/Kuba/Documents/ZeroMate/examples/18-edf/userspace/cxxabi.cpp:42 (discriminator 1)
    while (true)
    8178:	eafffffe 	b	8178 <__aeabi_unwind_cpp_pr1+0x8>

0000817c <_cpp_startup>:
_cpp_startup():
/mnt/c/Users/Kuba/Documents/ZeroMate/examples/18-edf/userspace/cxxabi.cpp:60
extern "C" dtor_ptr __DTOR_LIST__[0];
// konec pole destruktoru
extern "C" dtor_ptr __DTOR_END__[0];

extern "C" int _cpp_startup(void)
{
    817c:	e92d4800 	push	{fp, lr}
    8180:	e28db004 	add	fp, sp, #4
    8184:	e24dd008 	sub	sp, sp, #8
/mnt/c/Users/Kuba/Documents/ZeroMate/examples/18-edf/userspace/cxxabi.cpp:65
    ctor_ptr* fnptr;

    // zavolame konstruktory globalnich C++ trid
    // v poli __CTOR_LIST__ jsou ukazatele na vygenerovane stuby volani konstruktoru
    for (fnptr = __CTOR_LIST__; fnptr < __CTOR_END__; fnptr++)
    8188:	e59f303c 	ldr	r3, [pc, #60]	; 81cc <_cpp_startup+0x50>
    818c:	e50b3008 	str	r3, [fp, #-8]
/mnt/c/Users/Kuba/Documents/ZeroMate/examples/18-edf/userspace/cxxabi.cpp:65 (discriminator 3)
    8190:	e51b3008 	ldr	r3, [fp, #-8]
    8194:	e59f2034 	ldr	r2, [pc, #52]	; 81d0 <_cpp_startup+0x54>
    8198:	e1530002 	cmp	r3, r2
    819c:	2a000006 	bcs	81bc <_cpp_startup+0x40>
/mnt/c/Users/Kuba/Documents/ZeroMate/examples/18-edf/userspace/cxxabi.cpp:66 (discriminator 2)
        (*fnptr)();
    81a0:	e51b3008 	ldr	r3, [fp, #-8]
    81a4:	e5933000 	ldr	r3, [r3]
    81a8:	e12fff33 	blx	r3
/mnt/c/Users/Kuba/Documents/ZeroMate/examples/18-edf/userspace/cxxabi.cpp:65 (discriminator 2)
    for (fnptr = __CTOR_LIST__; fnptr < __CTOR_END__; fnptr++)
    81ac:	e51b3008 	ldr	r3, [fp, #-8]
    81b0:	e2833004 	add	r3, r3, #4
    81b4:	e50b3008 	str	r3, [fp, #-8]
    81b8:	eafffff4 	b	8190 <_cpp_startup+0x14>
/mnt/c/Users/Kuba/Documents/ZeroMate/examples/18-edf/userspace/cxxabi.cpp:68

    return 0;
    81bc:	e3a03000 	mov	r3, #0
/mnt/c/Users/Kuba/Documents/ZeroMate/examples/18-edf/userspace/cxxabi.cpp:69
}
    81c0:	e1a00003 	mov	r0, r3
    81c4:	e24bd004 	sub	sp, fp, #4
    81c8:	e8bd8800 	pop	{fp, pc}
    81cc:	00008fb9 			; <UNDEFINED> instruction: 0x00008fb9
    81d0:	00008fb9 			; <UNDEFINED> instruction: 0x00008fb9

000081d4 <_cpp_shutdown>:
_cpp_shutdown():
/mnt/c/Users/Kuba/Documents/ZeroMate/examples/18-edf/userspace/cxxabi.cpp:72

extern "C" int _cpp_shutdown(void)
{
    81d4:	e92d4800 	push	{fp, lr}
    81d8:	e28db004 	add	fp, sp, #4
    81dc:	e24dd008 	sub	sp, sp, #8
/mnt/c/Users/Kuba/Documents/ZeroMate/examples/18-edf/userspace/cxxabi.cpp:76
    dtor_ptr* fnptr;

    // zavolame destruktory globalnich C++ trid
    for (fnptr = __DTOR_LIST__; fnptr < __DTOR_END__; fnptr++)
    81e0:	e59f303c 	ldr	r3, [pc, #60]	; 8224 <_cpp_shutdown+0x50>
    81e4:	e50b3008 	str	r3, [fp, #-8]
/mnt/c/Users/Kuba/Documents/ZeroMate/examples/18-edf/userspace/cxxabi.cpp:76 (discriminator 3)
    81e8:	e51b3008 	ldr	r3, [fp, #-8]
    81ec:	e59f2034 	ldr	r2, [pc, #52]	; 8228 <_cpp_shutdown+0x54>
    81f0:	e1530002 	cmp	r3, r2
    81f4:	2a000006 	bcs	8214 <_cpp_shutdown+0x40>
/mnt/c/Users/Kuba/Documents/ZeroMate/examples/18-edf/userspace/cxxabi.cpp:77 (discriminator 2)
        (*fnptr)();
    81f8:	e51b3008 	ldr	r3, [fp, #-8]
    81fc:	e5933000 	ldr	r3, [r3]
    8200:	e12fff33 	blx	r3
/mnt/c/Users/Kuba/Documents/ZeroMate/examples/18-edf/userspace/cxxabi.cpp:76 (discriminator 2)
    for (fnptr = __DTOR_LIST__; fnptr < __DTOR_END__; fnptr++)
    8204:	e51b3008 	ldr	r3, [fp, #-8]
    8208:	e2833004 	add	r3, r3, #4
    820c:	e50b3008 	str	r3, [fp, #-8]
    8210:	eafffff4 	b	81e8 <_cpp_shutdown+0x14>
/mnt/c/Users/Kuba/Documents/ZeroMate/examples/18-edf/userspace/cxxabi.cpp:79

    return 0;
    8214:	e3a03000 	mov	r3, #0
/mnt/c/Users/Kuba/Documents/ZeroMate/examples/18-edf/userspace/cxxabi.cpp:80
}
    8218:	e1a00003 	mov	r0, r3
    821c:	e24bd004 	sub	sp, fp, #4
    8220:	e8bd8800 	pop	{fp, pc}
    8224:	00008fb9 			; <UNDEFINED> instruction: 0x00008fb9
    8228:	00008fb9 			; <UNDEFINED> instruction: 0x00008fb9

0000822c <main>:
main():
/mnt/c/Users/Kuba/Documents/ZeroMate/examples/18-edf/userspace/counter_task/main.cpp:17
 *  - vzestupne pokud je prepinac 1 v poloze "zapnuto", jinak sestupne
 *  - rychle pokud je prepinac 2 v poloze "zapnuto", jinak pomalu
 **/

int main(int argc, char** argv)
{
    822c:	e92d4800 	push	{fp, lr}
    8230:	e28db004 	add	fp, sp, #4
    8234:	e24dd020 	sub	sp, sp, #32
    8238:	e50b0020 	str	r0, [fp, #-32]	; 0xffffffe0
    823c:	e50b1024 	str	r1, [fp, #-36]	; 0xffffffdc
/mnt/c/Users/Kuba/Documents/ZeroMate/examples/18-edf/userspace/counter_task/main.cpp:18
    uint32_t display_file = open("DEV:segd", NFile_Open_Mode::Write_Only);
    8240:	e3a01001 	mov	r1, #1
    8244:	e59f0170 	ldr	r0, [pc, #368]	; 83bc <main+0x190>
    8248:	eb00007c 	bl	8440 <_Z4openPKc15NFile_Open_Mode>
    824c:	e50b000c 	str	r0, [fp, #-12]
/mnt/c/Users/Kuba/Documents/ZeroMate/examples/18-edf/userspace/counter_task/main.cpp:19
    uint32_t switch1_file = open("DEV:gpio/4", NFile_Open_Mode::Read_Only);
    8250:	e3a01000 	mov	r1, #0
    8254:	e59f0164 	ldr	r0, [pc, #356]	; 83c0 <main+0x194>
    8258:	eb000078 	bl	8440 <_Z4openPKc15NFile_Open_Mode>
    825c:	e50b0010 	str	r0, [fp, #-16]
/mnt/c/Users/Kuba/Documents/ZeroMate/examples/18-edf/userspace/counter_task/main.cpp:20
    uint32_t switch2_file = open("DEV:gpio/17", NFile_Open_Mode::Read_Only);
    8260:	e3a01000 	mov	r1, #0
    8264:	e59f0158 	ldr	r0, [pc, #344]	; 83c4 <main+0x198>
    8268:	eb000074 	bl	8440 <_Z4openPKc15NFile_Open_Mode>
    826c:	e50b0014 	str	r0, [fp, #-20]	; 0xffffffec
/mnt/c/Users/Kuba/Documents/ZeroMate/examples/18-edf/userspace/counter_task/main.cpp:22

    unsigned int counter = 0;
    8270:	e3a03000 	mov	r3, #0
    8274:	e50b3008 	str	r3, [fp, #-8]
/mnt/c/Users/Kuba/Documents/ZeroMate/examples/18-edf/userspace/counter_task/main.cpp:23
    bool fast = false;
    8278:	e3a03000 	mov	r3, #0
    827c:	e54b3015 	strb	r3, [fp, #-21]	; 0xffffffeb
/mnt/c/Users/Kuba/Documents/ZeroMate/examples/18-edf/userspace/counter_task/main.cpp:24
    bool ascending = true;
    8280:	e3a03001 	mov	r3, #1
    8284:	e54b3016 	strb	r3, [fp, #-22]	; 0xffffffea
/mnt/c/Users/Kuba/Documents/ZeroMate/examples/18-edf/userspace/counter_task/main.cpp:26

    set_task_deadline(fast ? 10 : 28);
    8288:	e55b3015 	ldrb	r3, [fp, #-21]	; 0xffffffeb
    828c:	e3530000 	cmp	r3, #0
    8290:	0a000001 	beq	829c <main+0x70>
/mnt/c/Users/Kuba/Documents/ZeroMate/examples/18-edf/userspace/counter_task/main.cpp:26 (discriminator 1)
    8294:	e3a0300a 	mov	r3, #10
    8298:	ea000000 	b	82a0 <main+0x74>
/mnt/c/Users/Kuba/Documents/ZeroMate/examples/18-edf/userspace/counter_task/main.cpp:26 (discriminator 2)
    829c:	e3a0301c 	mov	r3, #28
/mnt/c/Users/Kuba/Documents/ZeroMate/examples/18-edf/userspace/counter_task/main.cpp:26 (discriminator 4)
    82a0:	e1a00003 	mov	r0, r3
    82a4:	eb000115 	bl	8700 <_Z17set_task_deadlinej>
/mnt/c/Users/Kuba/Documents/ZeroMate/examples/18-edf/userspace/counter_task/main.cpp:30

    while (true)
    {
        char tmp = '0';
    82a8:	e3a03030 	mov	r3, #48	; 0x30
    82ac:	e54b3017 	strb	r3, [fp, #-23]	; 0xffffffe9
/mnt/c/Users/Kuba/Documents/ZeroMate/examples/18-edf/userspace/counter_task/main.cpp:32

        read(switch1_file, &tmp, 1);
    82b0:	e24b3017 	sub	r3, fp, #23
    82b4:	e3a02001 	mov	r2, #1
    82b8:	e1a01003 	mov	r1, r3
    82bc:	e51b0010 	ldr	r0, [fp, #-16]
    82c0:	eb00006f 	bl	8484 <_Z4readjPcj>
/mnt/c/Users/Kuba/Documents/ZeroMate/examples/18-edf/userspace/counter_task/main.cpp:33
        ascending = (tmp == '1');
    82c4:	e55b3017 	ldrb	r3, [fp, #-23]	; 0xffffffe9
    82c8:	e3530031 	cmp	r3, #49	; 0x31
    82cc:	03a03001 	moveq	r3, #1
    82d0:	13a03000 	movne	r3, #0
    82d4:	e54b3016 	strb	r3, [fp, #-22]	; 0xffffffea
/mnt/c/Users/Kuba/Documents/ZeroMate/examples/18-edf/userspace/counter_task/main.cpp:35

        read(switch2_file, &tmp, 1);
    82d8:	e24b3017 	sub	r3, fp, #23
    82dc:	e3a02001 	mov	r2, #1
    82e0:	e1a01003 	mov	r1, r3
    82e4:	e51b0014 	ldr	r0, [fp, #-20]	; 0xffffffec
    82e8:	eb000065 	bl	8484 <_Z4readjPcj>
/mnt/c/Users/Kuba/Documents/ZeroMate/examples/18-edf/userspace/counter_task/main.cpp:36
        fast = (tmp == '1');
    82ec:	e55b3017 	ldrb	r3, [fp, #-23]	; 0xffffffe9
    82f0:	e3530031 	cmp	r3, #49	; 0x31
    82f4:	03a03001 	moveq	r3, #1
    82f8:	13a03000 	movne	r3, #0
    82fc:	e54b3015 	strb	r3, [fp, #-21]	; 0xffffffeb
/mnt/c/Users/Kuba/Documents/ZeroMate/examples/18-edf/userspace/counter_task/main.cpp:38

        if (ascending)
    8300:	e55b3016 	ldrb	r3, [fp, #-22]	; 0xffffffea
    8304:	e3530000 	cmp	r3, #0
    8308:	0a000003 	beq	831c <main+0xf0>
/mnt/c/Users/Kuba/Documents/ZeroMate/examples/18-edf/userspace/counter_task/main.cpp:39
            counter++;
    830c:	e51b3008 	ldr	r3, [fp, #-8]
    8310:	e2833001 	add	r3, r3, #1
    8314:	e50b3008 	str	r3, [fp, #-8]
    8318:	ea000002 	b	8328 <main+0xfc>
/mnt/c/Users/Kuba/Documents/ZeroMate/examples/18-edf/userspace/counter_task/main.cpp:41
        else
            counter--;
    831c:	e51b3008 	ldr	r3, [fp, #-8]
    8320:	e2433001 	sub	r3, r3, #1
    8324:	e50b3008 	str	r3, [fp, #-8]
/mnt/c/Users/Kuba/Documents/ZeroMate/examples/18-edf/userspace/counter_task/main.cpp:43

        tmp = '0' + (counter % 10);
    8328:	e51b1008 	ldr	r1, [fp, #-8]
    832c:	e59f3094 	ldr	r3, [pc, #148]	; 83c8 <main+0x19c>
    8330:	e0832193 	umull	r2, r3, r3, r1
    8334:	e1a021a3 	lsr	r2, r3, #3
    8338:	e1a03002 	mov	r3, r2
    833c:	e1a03103 	lsl	r3, r3, #2
    8340:	e0833002 	add	r3, r3, r2
    8344:	e1a03083 	lsl	r3, r3, #1
    8348:	e0412003 	sub	r2, r1, r3
    834c:	e6ef3072 	uxtb	r3, r2
    8350:	e2833030 	add	r3, r3, #48	; 0x30
    8354:	e6ef3073 	uxtb	r3, r3
    8358:	e54b3017 	strb	r3, [fp, #-23]	; 0xffffffe9
/mnt/c/Users/Kuba/Documents/ZeroMate/examples/18-edf/userspace/counter_task/main.cpp:44
        write(display_file, &tmp, 1);
    835c:	e24b3017 	sub	r3, fp, #23
    8360:	e3a02001 	mov	r2, #1
    8364:	e1a01003 	mov	r1, r3
    8368:	e51b000c 	ldr	r0, [fp, #-12]
    836c:	eb000058 	bl	84d4 <_Z5writejPKcj>
/mnt/c/Users/Kuba/Documents/ZeroMate/examples/18-edf/userspace/counter_task/main.cpp:46

        sleep(3);
    8370:	e3e01001 	mvn	r1, #1
    8374:	e3a00003 	mov	r0, #3
    8378:	eb0000ad 	bl	8634 <_Z5sleepjj>
/mnt/c/Users/Kuba/Documents/ZeroMate/examples/18-edf/userspace/counter_task/main.cpp:47
        sleep(fast ? 4 : 20, fast ? 10 : 28);
    837c:	e55b3015 	ldrb	r3, [fp, #-21]	; 0xffffffeb
    8380:	e3530000 	cmp	r3, #0
    8384:	0a000001 	beq	8390 <main+0x164>
/mnt/c/Users/Kuba/Documents/ZeroMate/examples/18-edf/userspace/counter_task/main.cpp:47 (discriminator 1)
    8388:	e3a02004 	mov	r2, #4
    838c:	ea000000 	b	8394 <main+0x168>
/mnt/c/Users/Kuba/Documents/ZeroMate/examples/18-edf/userspace/counter_task/main.cpp:47 (discriminator 2)
    8390:	e3a02014 	mov	r2, #20
/mnt/c/Users/Kuba/Documents/ZeroMate/examples/18-edf/userspace/counter_task/main.cpp:47 (discriminator 4)
    8394:	e55b3015 	ldrb	r3, [fp, #-21]	; 0xffffffeb
    8398:	e3530000 	cmp	r3, #0
    839c:	0a000001 	beq	83a8 <main+0x17c>
/mnt/c/Users/Kuba/Documents/ZeroMate/examples/18-edf/userspace/counter_task/main.cpp:47 (discriminator 5)
    83a0:	e3a0300a 	mov	r3, #10
    83a4:	ea000000 	b	83ac <main+0x180>
/mnt/c/Users/Kuba/Documents/ZeroMate/examples/18-edf/userspace/counter_task/main.cpp:47 (discriminator 6)
    83a8:	e3a0301c 	mov	r3, #28
/mnt/c/Users/Kuba/Documents/ZeroMate/examples/18-edf/userspace/counter_task/main.cpp:47 (discriminator 8)
    83ac:	e1a01003 	mov	r1, r3
    83b0:	e1a00002 	mov	r0, r2
    83b4:	eb00009e 	bl	8634 <_Z5sleepjj>
/mnt/c/Users/Kuba/Documents/ZeroMate/examples/18-edf/userspace/counter_task/main.cpp:48 (discriminator 8)
    }
    83b8:	eaffffba 	b	82a8 <main+0x7c>
    83bc:	00008f4c 	andeq	r8, r0, ip, asr #30
    83c0:	00008f58 	andeq	r8, r0, r8, asr pc
    83c4:	00008f64 	andeq	r8, r0, r4, ror #30
    83c8:	cccccccd 	stclgt	12, cr12, [ip], {205}	; 0xcd

000083cc <_Z6getpidv>:
_Z6getpidv():
/mnt/c/Users/Kuba/Documents/ZeroMate/examples/18-edf/stdlib/src/stdfile.cpp:5
#include <stdfile.h>
#include <stdstring.h>

uint32_t getpid()
{
    83cc:	e52db004 	push	{fp}		; (str fp, [sp, #-4]!)
    83d0:	e28db000 	add	fp, sp, #0
    83d4:	e24dd00c 	sub	sp, sp, #12
/mnt/c/Users/Kuba/Documents/ZeroMate/examples/18-edf/stdlib/src/stdfile.cpp:8
    uint32_t pid;

    asm volatile("swi 0");
    83d8:	ef000000 	svc	0x00000000
/mnt/c/Users/Kuba/Documents/ZeroMate/examples/18-edf/stdlib/src/stdfile.cpp:9
    asm volatile("mov %0, r0" : "=r"(pid));
    83dc:	e1a03000 	mov	r3, r0
    83e0:	e50b3008 	str	r3, [fp, #-8]
/mnt/c/Users/Kuba/Documents/ZeroMate/examples/18-edf/stdlib/src/stdfile.cpp:11

    return pid;
    83e4:	e51b3008 	ldr	r3, [fp, #-8]
/mnt/c/Users/Kuba/Documents/ZeroMate/examples/18-edf/stdlib/src/stdfile.cpp:12
}
    83e8:	e1a00003 	mov	r0, r3
    83ec:	e28bd000 	add	sp, fp, #0
    83f0:	e49db004 	pop	{fp}		; (ldr fp, [sp], #4)
    83f4:	e12fff1e 	bx	lr

000083f8 <_Z9terminatei>:
_Z9terminatei():
/mnt/c/Users/Kuba/Documents/ZeroMate/examples/18-edf/stdlib/src/stdfile.cpp:15

void terminate(int exitcode)
{
    83f8:	e52db004 	push	{fp}		; (str fp, [sp, #-4]!)
    83fc:	e28db000 	add	fp, sp, #0
    8400:	e24dd00c 	sub	sp, sp, #12
    8404:	e50b0008 	str	r0, [fp, #-8]
/mnt/c/Users/Kuba/Documents/ZeroMate/examples/18-edf/stdlib/src/stdfile.cpp:16
    asm volatile("mov r0, %0" : : "r"(exitcode));
    8408:	e51b3008 	ldr	r3, [fp, #-8]
    840c:	e1a00003 	mov	r0, r3
/mnt/c/Users/Kuba/Documents/ZeroMate/examples/18-edf/stdlib/src/stdfile.cpp:17
    asm volatile("swi 1");
    8410:	ef000001 	svc	0x00000001
/mnt/c/Users/Kuba/Documents/ZeroMate/examples/18-edf/stdlib/src/stdfile.cpp:18
}
    8414:	e320f000 	nop	{0}
    8418:	e28bd000 	add	sp, fp, #0
    841c:	e49db004 	pop	{fp}		; (ldr fp, [sp], #4)
    8420:	e12fff1e 	bx	lr

00008424 <_Z11sched_yieldv>:
_Z11sched_yieldv():
/mnt/c/Users/Kuba/Documents/ZeroMate/examples/18-edf/stdlib/src/stdfile.cpp:21

void sched_yield()
{
    8424:	e52db004 	push	{fp}		; (str fp, [sp, #-4]!)
    8428:	e28db000 	add	fp, sp, #0
/mnt/c/Users/Kuba/Documents/ZeroMate/examples/18-edf/stdlib/src/stdfile.cpp:22
    asm volatile("swi 2");
    842c:	ef000002 	svc	0x00000002
/mnt/c/Users/Kuba/Documents/ZeroMate/examples/18-edf/stdlib/src/stdfile.cpp:23
}
    8430:	e320f000 	nop	{0}
    8434:	e28bd000 	add	sp, fp, #0
    8438:	e49db004 	pop	{fp}		; (ldr fp, [sp], #4)
    843c:	e12fff1e 	bx	lr

00008440 <_Z4openPKc15NFile_Open_Mode>:
_Z4openPKc15NFile_Open_Mode():
/mnt/c/Users/Kuba/Documents/ZeroMate/examples/18-edf/stdlib/src/stdfile.cpp:26

uint32_t open(const char* filename, NFile_Open_Mode mode)
{
    8440:	e52db004 	push	{fp}		; (str fp, [sp, #-4]!)
    8444:	e28db000 	add	fp, sp, #0
    8448:	e24dd014 	sub	sp, sp, #20
    844c:	e50b0010 	str	r0, [fp, #-16]
    8450:	e50b1014 	str	r1, [fp, #-20]	; 0xffffffec
/mnt/c/Users/Kuba/Documents/ZeroMate/examples/18-edf/stdlib/src/stdfile.cpp:29
    uint32_t file;

    asm volatile("mov r0, %0" : : "r"(filename));
    8454:	e51b3010 	ldr	r3, [fp, #-16]
    8458:	e1a00003 	mov	r0, r3
/mnt/c/Users/Kuba/Documents/ZeroMate/examples/18-edf/stdlib/src/stdfile.cpp:30
    asm volatile("mov r1, %0" : : "r"(mode));
    845c:	e51b3014 	ldr	r3, [fp, #-20]	; 0xffffffec
    8460:	e1a01003 	mov	r1, r3
/mnt/c/Users/Kuba/Documents/ZeroMate/examples/18-edf/stdlib/src/stdfile.cpp:31
    asm volatile("swi 64");
    8464:	ef000040 	svc	0x00000040
/mnt/c/Users/Kuba/Documents/ZeroMate/examples/18-edf/stdlib/src/stdfile.cpp:32
    asm volatile("mov %0, r0" : "=r"(file));
    8468:	e1a03000 	mov	r3, r0
    846c:	e50b3008 	str	r3, [fp, #-8]
/mnt/c/Users/Kuba/Documents/ZeroMate/examples/18-edf/stdlib/src/stdfile.cpp:34

    return file;
    8470:	e51b3008 	ldr	r3, [fp, #-8]
/mnt/c/Users/Kuba/Documents/ZeroMate/examples/18-edf/stdlib/src/stdfile.cpp:35
}
    8474:	e1a00003 	mov	r0, r3
    8478:	e28bd000 	add	sp, fp, #0
    847c:	e49db004 	pop	{fp}		; (ldr fp, [sp], #4)
    8480:	e12fff1e 	bx	lr

00008484 <_Z4readjPcj>:
_Z4readjPcj():
/mnt/c/Users/Kuba/Documents/ZeroMate/examples/18-edf/stdlib/src/stdfile.cpp:38

uint32_t read(uint32_t file, char* const buffer, uint32_t size)
{
    8484:	e52db004 	push	{fp}		; (str fp, [sp, #-4]!)
    8488:	e28db000 	add	fp, sp, #0
    848c:	e24dd01c 	sub	sp, sp, #28
    8490:	e50b0010 	str	r0, [fp, #-16]
    8494:	e50b1014 	str	r1, [fp, #-20]	; 0xffffffec
    8498:	e50b2018 	str	r2, [fp, #-24]	; 0xffffffe8
/mnt/c/Users/Kuba/Documents/ZeroMate/examples/18-edf/stdlib/src/stdfile.cpp:41
    uint32_t rdnum;

    asm volatile("mov r0, %0" : : "r"(file));
    849c:	e51b3010 	ldr	r3, [fp, #-16]
    84a0:	e1a00003 	mov	r0, r3
/mnt/c/Users/Kuba/Documents/ZeroMate/examples/18-edf/stdlib/src/stdfile.cpp:42
    asm volatile("mov r1, %0" : : "r"(buffer));
    84a4:	e51b3014 	ldr	r3, [fp, #-20]	; 0xffffffec
    84a8:	e1a01003 	mov	r1, r3
/mnt/c/Users/Kuba/Documents/ZeroMate/examples/18-edf/stdlib/src/stdfile.cpp:43
    asm volatile("mov r2, %0" : : "r"(size));
    84ac:	e51b3018 	ldr	r3, [fp, #-24]	; 0xffffffe8
    84b0:	e1a02003 	mov	r2, r3
/mnt/c/Users/Kuba/Documents/ZeroMate/examples/18-edf/stdlib/src/stdfile.cpp:44
    asm volatile("swi 65");
    84b4:	ef000041 	svc	0x00000041
/mnt/c/Users/Kuba/Documents/ZeroMate/examples/18-edf/stdlib/src/stdfile.cpp:45
    asm volatile("mov %0, r0" : "=r"(rdnum));
    84b8:	e1a03000 	mov	r3, r0
    84bc:	e50b3008 	str	r3, [fp, #-8]
/mnt/c/Users/Kuba/Documents/ZeroMate/examples/18-edf/stdlib/src/stdfile.cpp:47

    return rdnum;
    84c0:	e51b3008 	ldr	r3, [fp, #-8]
/mnt/c/Users/Kuba/Documents/ZeroMate/examples/18-edf/stdlib/src/stdfile.cpp:48
}
    84c4:	e1a00003 	mov	r0, r3
    84c8:	e28bd000 	add	sp, fp, #0
    84cc:	e49db004 	pop	{fp}		; (ldr fp, [sp], #4)
    84d0:	e12fff1e 	bx	lr

000084d4 <_Z5writejPKcj>:
_Z5writejPKcj():
/mnt/c/Users/Kuba/Documents/ZeroMate/examples/18-edf/stdlib/src/stdfile.cpp:51

uint32_t write(uint32_t file, const char* buffer, uint32_t size)
{
    84d4:	e52db004 	push	{fp}		; (str fp, [sp, #-4]!)
    84d8:	e28db000 	add	fp, sp, #0
    84dc:	e24dd01c 	sub	sp, sp, #28
    84e0:	e50b0010 	str	r0, [fp, #-16]
    84e4:	e50b1014 	str	r1, [fp, #-20]	; 0xffffffec
    84e8:	e50b2018 	str	r2, [fp, #-24]	; 0xffffffe8
/mnt/c/Users/Kuba/Documents/ZeroMate/examples/18-edf/stdlib/src/stdfile.cpp:54
    uint32_t wrnum;

    asm volatile("mov r0, %0" : : "r"(file));
    84ec:	e51b3010 	ldr	r3, [fp, #-16]
    84f0:	e1a00003 	mov	r0, r3
/mnt/c/Users/Kuba/Documents/ZeroMate/examples/18-edf/stdlib/src/stdfile.cpp:55
    asm volatile("mov r1, %0" : : "r"(buffer));
    84f4:	e51b3014 	ldr	r3, [fp, #-20]	; 0xffffffec
    84f8:	e1a01003 	mov	r1, r3
/mnt/c/Users/Kuba/Documents/ZeroMate/examples/18-edf/stdlib/src/stdfile.cpp:56
    asm volatile("mov r2, %0" : : "r"(size));
    84fc:	e51b3018 	ldr	r3, [fp, #-24]	; 0xffffffe8
    8500:	e1a02003 	mov	r2, r3
/mnt/c/Users/Kuba/Documents/ZeroMate/examples/18-edf/stdlib/src/stdfile.cpp:57
    asm volatile("swi 66");
    8504:	ef000042 	svc	0x00000042
/mnt/c/Users/Kuba/Documents/ZeroMate/examples/18-edf/stdlib/src/stdfile.cpp:58
    asm volatile("mov %0, r0" : "=r"(wrnum));
    8508:	e1a03000 	mov	r3, r0
    850c:	e50b3008 	str	r3, [fp, #-8]
/mnt/c/Users/Kuba/Documents/ZeroMate/examples/18-edf/stdlib/src/stdfile.cpp:60

    return wrnum;
    8510:	e51b3008 	ldr	r3, [fp, #-8]
/mnt/c/Users/Kuba/Documents/ZeroMate/examples/18-edf/stdlib/src/stdfile.cpp:61
}
    8514:	e1a00003 	mov	r0, r3
    8518:	e28bd000 	add	sp, fp, #0
    851c:	e49db004 	pop	{fp}		; (ldr fp, [sp], #4)
    8520:	e12fff1e 	bx	lr

00008524 <_Z5closej>:
_Z5closej():
/mnt/c/Users/Kuba/Documents/ZeroMate/examples/18-edf/stdlib/src/stdfile.cpp:64

void close(uint32_t file)
{
    8524:	e52db004 	push	{fp}		; (str fp, [sp, #-4]!)
    8528:	e28db000 	add	fp, sp, #0
    852c:	e24dd00c 	sub	sp, sp, #12
    8530:	e50b0008 	str	r0, [fp, #-8]
/mnt/c/Users/Kuba/Documents/ZeroMate/examples/18-edf/stdlib/src/stdfile.cpp:65
    asm volatile("mov r0, %0" : : "r"(file));
    8534:	e51b3008 	ldr	r3, [fp, #-8]
    8538:	e1a00003 	mov	r0, r3
/mnt/c/Users/Kuba/Documents/ZeroMate/examples/18-edf/stdlib/src/stdfile.cpp:66
    asm volatile("swi 67");
    853c:	ef000043 	svc	0x00000043
/mnt/c/Users/Kuba/Documents/ZeroMate/examples/18-edf/stdlib/src/stdfile.cpp:67
}
    8540:	e320f000 	nop	{0}
    8544:	e28bd000 	add	sp, fp, #0
    8548:	e49db004 	pop	{fp}		; (ldr fp, [sp], #4)
    854c:	e12fff1e 	bx	lr

00008550 <_Z5ioctlj16NIOCtl_OperationPv>:
_Z5ioctlj16NIOCtl_OperationPv():
/mnt/c/Users/Kuba/Documents/ZeroMate/examples/18-edf/stdlib/src/stdfile.cpp:70

uint32_t ioctl(uint32_t file, NIOCtl_Operation operation, void* param)
{
    8550:	e52db004 	push	{fp}		; (str fp, [sp, #-4]!)
    8554:	e28db000 	add	fp, sp, #0
    8558:	e24dd01c 	sub	sp, sp, #28
    855c:	e50b0010 	str	r0, [fp, #-16]
    8560:	e50b1014 	str	r1, [fp, #-20]	; 0xffffffec
    8564:	e50b2018 	str	r2, [fp, #-24]	; 0xffffffe8
/mnt/c/Users/Kuba/Documents/ZeroMate/examples/18-edf/stdlib/src/stdfile.cpp:73
    uint32_t retcode;

    asm volatile("mov r0, %0" : : "r"(file));
    8568:	e51b3010 	ldr	r3, [fp, #-16]
    856c:	e1a00003 	mov	r0, r3
/mnt/c/Users/Kuba/Documents/ZeroMate/examples/18-edf/stdlib/src/stdfile.cpp:74
    asm volatile("mov r1, %0" : : "r"(operation));
    8570:	e51b3014 	ldr	r3, [fp, #-20]	; 0xffffffec
    8574:	e1a01003 	mov	r1, r3
/mnt/c/Users/Kuba/Documents/ZeroMate/examples/18-edf/stdlib/src/stdfile.cpp:75
    asm volatile("mov r2, %0" : : "r"(param));
    8578:	e51b3018 	ldr	r3, [fp, #-24]	; 0xffffffe8
    857c:	e1a02003 	mov	r2, r3
/mnt/c/Users/Kuba/Documents/ZeroMate/examples/18-edf/stdlib/src/stdfile.cpp:76
    asm volatile("swi 68");
    8580:	ef000044 	svc	0x00000044
/mnt/c/Users/Kuba/Documents/ZeroMate/examples/18-edf/stdlib/src/stdfile.cpp:77
    asm volatile("mov %0, r0" : "=r"(retcode));
    8584:	e1a03000 	mov	r3, r0
    8588:	e50b3008 	str	r3, [fp, #-8]
/mnt/c/Users/Kuba/Documents/ZeroMate/examples/18-edf/stdlib/src/stdfile.cpp:79

    return retcode;
    858c:	e51b3008 	ldr	r3, [fp, #-8]
/mnt/c/Users/Kuba/Documents/ZeroMate/examples/18-edf/stdlib/src/stdfile.cpp:80
}
    8590:	e1a00003 	mov	r0, r3
    8594:	e28bd000 	add	sp, fp, #0
    8598:	e49db004 	pop	{fp}		; (ldr fp, [sp], #4)
    859c:	e12fff1e 	bx	lr

000085a0 <_Z6notifyjj>:
_Z6notifyjj():
/mnt/c/Users/Kuba/Documents/ZeroMate/examples/18-edf/stdlib/src/stdfile.cpp:83

uint32_t notify(uint32_t file, uint32_t count)
{
    85a0:	e52db004 	push	{fp}		; (str fp, [sp, #-4]!)
    85a4:	e28db000 	add	fp, sp, #0
    85a8:	e24dd014 	sub	sp, sp, #20
    85ac:	e50b0010 	str	r0, [fp, #-16]
    85b0:	e50b1014 	str	r1, [fp, #-20]	; 0xffffffec
/mnt/c/Users/Kuba/Documents/ZeroMate/examples/18-edf/stdlib/src/stdfile.cpp:86
    uint32_t retcnt;

    asm volatile("mov r0, %0" : : "r"(file));
    85b4:	e51b3010 	ldr	r3, [fp, #-16]
    85b8:	e1a00003 	mov	r0, r3
/mnt/c/Users/Kuba/Documents/ZeroMate/examples/18-edf/stdlib/src/stdfile.cpp:87
    asm volatile("mov r1, %0" : : "r"(count));
    85bc:	e51b3014 	ldr	r3, [fp, #-20]	; 0xffffffec
    85c0:	e1a01003 	mov	r1, r3
/mnt/c/Users/Kuba/Documents/ZeroMate/examples/18-edf/stdlib/src/stdfile.cpp:88
    asm volatile("swi 69");
    85c4:	ef000045 	svc	0x00000045
/mnt/c/Users/Kuba/Documents/ZeroMate/examples/18-edf/stdlib/src/stdfile.cpp:89
    asm volatile("mov %0, r0" : "=r"(retcnt));
    85c8:	e1a03000 	mov	r3, r0
    85cc:	e50b3008 	str	r3, [fp, #-8]
/mnt/c/Users/Kuba/Documents/ZeroMate/examples/18-edf/stdlib/src/stdfile.cpp:91

    return retcnt;
    85d0:	e51b3008 	ldr	r3, [fp, #-8]
/mnt/c/Users/Kuba/Documents/ZeroMate/examples/18-edf/stdlib/src/stdfile.cpp:92
}
    85d4:	e1a00003 	mov	r0, r3
    85d8:	e28bd000 	add	sp, fp, #0
    85dc:	e49db004 	pop	{fp}		; (ldr fp, [sp], #4)
    85e0:	e12fff1e 	bx	lr

000085e4 <_Z4waitjjj>:
_Z4waitjjj():
/mnt/c/Users/Kuba/Documents/ZeroMate/examples/18-edf/stdlib/src/stdfile.cpp:95

NSWI_Result_Code wait(uint32_t file, uint32_t count, uint32_t notified_deadline)
{
    85e4:	e52db004 	push	{fp}		; (str fp, [sp, #-4]!)
    85e8:	e28db000 	add	fp, sp, #0
    85ec:	e24dd01c 	sub	sp, sp, #28
    85f0:	e50b0010 	str	r0, [fp, #-16]
    85f4:	e50b1014 	str	r1, [fp, #-20]	; 0xffffffec
    85f8:	e50b2018 	str	r2, [fp, #-24]	; 0xffffffe8
/mnt/c/Users/Kuba/Documents/ZeroMate/examples/18-edf/stdlib/src/stdfile.cpp:98
    NSWI_Result_Code retcode;

    asm volatile("mov r0, %0" : : "r"(file));
    85fc:	e51b3010 	ldr	r3, [fp, #-16]
    8600:	e1a00003 	mov	r0, r3
/mnt/c/Users/Kuba/Documents/ZeroMate/examples/18-edf/stdlib/src/stdfile.cpp:99
    asm volatile("mov r1, %0" : : "r"(count));
    8604:	e51b3014 	ldr	r3, [fp, #-20]	; 0xffffffec
    8608:	e1a01003 	mov	r1, r3
/mnt/c/Users/Kuba/Documents/ZeroMate/examples/18-edf/stdlib/src/stdfile.cpp:100
    asm volatile("mov r2, %0" : : "r"(notified_deadline));
    860c:	e51b3018 	ldr	r3, [fp, #-24]	; 0xffffffe8
    8610:	e1a02003 	mov	r2, r3
/mnt/c/Users/Kuba/Documents/ZeroMate/examples/18-edf/stdlib/src/stdfile.cpp:101
    asm volatile("swi 70");
    8614:	ef000046 	svc	0x00000046
/mnt/c/Users/Kuba/Documents/ZeroMate/examples/18-edf/stdlib/src/stdfile.cpp:102
    asm volatile("mov %0, r0" : "=r"(retcode));
    8618:	e1a03000 	mov	r3, r0
    861c:	e50b3008 	str	r3, [fp, #-8]
/mnt/c/Users/Kuba/Documents/ZeroMate/examples/18-edf/stdlib/src/stdfile.cpp:104

    return retcode;
    8620:	e51b3008 	ldr	r3, [fp, #-8]
/mnt/c/Users/Kuba/Documents/ZeroMate/examples/18-edf/stdlib/src/stdfile.cpp:105
}
    8624:	e1a00003 	mov	r0, r3
    8628:	e28bd000 	add	sp, fp, #0
    862c:	e49db004 	pop	{fp}		; (ldr fp, [sp], #4)
    8630:	e12fff1e 	bx	lr

00008634 <_Z5sleepjj>:
_Z5sleepjj():
/mnt/c/Users/Kuba/Documents/ZeroMate/examples/18-edf/stdlib/src/stdfile.cpp:108

bool sleep(uint32_t ticks, uint32_t notified_deadline)
{
    8634:	e52db004 	push	{fp}		; (str fp, [sp, #-4]!)
    8638:	e28db000 	add	fp, sp, #0
    863c:	e24dd014 	sub	sp, sp, #20
    8640:	e50b0010 	str	r0, [fp, #-16]
    8644:	e50b1014 	str	r1, [fp, #-20]	; 0xffffffec
/mnt/c/Users/Kuba/Documents/ZeroMate/examples/18-edf/stdlib/src/stdfile.cpp:111
    uint32_t retcode;

    asm volatile("mov r0, %0" : : "r"(ticks));
    8648:	e51b3010 	ldr	r3, [fp, #-16]
    864c:	e1a00003 	mov	r0, r3
/mnt/c/Users/Kuba/Documents/ZeroMate/examples/18-edf/stdlib/src/stdfile.cpp:112
    asm volatile("mov r1, %0" : : "r"(notified_deadline));
    8650:	e51b3014 	ldr	r3, [fp, #-20]	; 0xffffffec
    8654:	e1a01003 	mov	r1, r3
/mnt/c/Users/Kuba/Documents/ZeroMate/examples/18-edf/stdlib/src/stdfile.cpp:113
    asm volatile("swi 3");
    8658:	ef000003 	svc	0x00000003
/mnt/c/Users/Kuba/Documents/ZeroMate/examples/18-edf/stdlib/src/stdfile.cpp:114
    asm volatile("mov %0, r0" : "=r"(retcode));
    865c:	e1a03000 	mov	r3, r0
    8660:	e50b3008 	str	r3, [fp, #-8]
/mnt/c/Users/Kuba/Documents/ZeroMate/examples/18-edf/stdlib/src/stdfile.cpp:116

    return retcode;
    8664:	e51b3008 	ldr	r3, [fp, #-8]
    8668:	e3530000 	cmp	r3, #0
    866c:	13a03001 	movne	r3, #1
    8670:	03a03000 	moveq	r3, #0
    8674:	e6ef3073 	uxtb	r3, r3
/mnt/c/Users/Kuba/Documents/ZeroMate/examples/18-edf/stdlib/src/stdfile.cpp:117
}
    8678:	e1a00003 	mov	r0, r3
    867c:	e28bd000 	add	sp, fp, #0
    8680:	e49db004 	pop	{fp}		; (ldr fp, [sp], #4)
    8684:	e12fff1e 	bx	lr

00008688 <_Z24get_active_process_countv>:
_Z24get_active_process_countv():
/mnt/c/Users/Kuba/Documents/ZeroMate/examples/18-edf/stdlib/src/stdfile.cpp:120

uint32_t get_active_process_count()
{
    8688:	e52db004 	push	{fp}		; (str fp, [sp, #-4]!)
    868c:	e28db000 	add	fp, sp, #0
    8690:	e24dd00c 	sub	sp, sp, #12
/mnt/c/Users/Kuba/Documents/ZeroMate/examples/18-edf/stdlib/src/stdfile.cpp:121
    const NGet_Sched_Info_Type req = NGet_Sched_Info_Type::Active_Process_Count;
    8694:	e3a03000 	mov	r3, #0
    8698:	e50b3008 	str	r3, [fp, #-8]
/mnt/c/Users/Kuba/Documents/ZeroMate/examples/18-edf/stdlib/src/stdfile.cpp:124
    uint32_t retval;

    asm volatile("mov r0, %0" : : "r"(req));
    869c:	e3a03000 	mov	r3, #0
    86a0:	e1a00003 	mov	r0, r3
/mnt/c/Users/Kuba/Documents/ZeroMate/examples/18-edf/stdlib/src/stdfile.cpp:125
    asm volatile("mov r1, %0" : : "r"(&retval));
    86a4:	e24b300c 	sub	r3, fp, #12
    86a8:	e1a01003 	mov	r1, r3
/mnt/c/Users/Kuba/Documents/ZeroMate/examples/18-edf/stdlib/src/stdfile.cpp:126
    asm volatile("swi 4");
    86ac:	ef000004 	svc	0x00000004
/mnt/c/Users/Kuba/Documents/ZeroMate/examples/18-edf/stdlib/src/stdfile.cpp:128

    return retval;
    86b0:	e51b300c 	ldr	r3, [fp, #-12]
/mnt/c/Users/Kuba/Documents/ZeroMate/examples/18-edf/stdlib/src/stdfile.cpp:129
}
    86b4:	e1a00003 	mov	r0, r3
    86b8:	e28bd000 	add	sp, fp, #0
    86bc:	e49db004 	pop	{fp}		; (ldr fp, [sp], #4)
    86c0:	e12fff1e 	bx	lr

000086c4 <_Z14get_tick_countv>:
_Z14get_tick_countv():
/mnt/c/Users/Kuba/Documents/ZeroMate/examples/18-edf/stdlib/src/stdfile.cpp:132

uint32_t get_tick_count()
{
    86c4:	e52db004 	push	{fp}		; (str fp, [sp, #-4]!)
    86c8:	e28db000 	add	fp, sp, #0
    86cc:	e24dd00c 	sub	sp, sp, #12
/mnt/c/Users/Kuba/Documents/ZeroMate/examples/18-edf/stdlib/src/stdfile.cpp:133
    const NGet_Sched_Info_Type req = NGet_Sched_Info_Type::Tick_Count;
    86d0:	e3a03001 	mov	r3, #1
    86d4:	e50b3008 	str	r3, [fp, #-8]
/mnt/c/Users/Kuba/Documents/ZeroMate/examples/18-edf/stdlib/src/stdfile.cpp:136
    uint32_t retval;

    asm volatile("mov r0, %0" : : "r"(req));
    86d8:	e3a03001 	mov	r3, #1
    86dc:	e1a00003 	mov	r0, r3
/mnt/c/Users/Kuba/Documents/ZeroMate/examples/18-edf/stdlib/src/stdfile.cpp:137
    asm volatile("mov r1, %0" : : "r"(&retval));
    86e0:	e24b300c 	sub	r3, fp, #12
    86e4:	e1a01003 	mov	r1, r3
/mnt/c/Users/Kuba/Documents/ZeroMate/examples/18-edf/stdlib/src/stdfile.cpp:138
    asm volatile("swi 4");
    86e8:	ef000004 	svc	0x00000004
/mnt/c/Users/Kuba/Documents/ZeroMate/examples/18-edf/stdlib/src/stdfile.cpp:140

    return retval;
    86ec:	e51b300c 	ldr	r3, [fp, #-12]
/mnt/c/Users/Kuba/Documents/ZeroMate/examples/18-edf/stdlib/src/stdfile.cpp:141
}
    86f0:	e1a00003 	mov	r0, r3
    86f4:	e28bd000 	add	sp, fp, #0
    86f8:	e49db004 	pop	{fp}		; (ldr fp, [sp], #4)
    86fc:	e12fff1e 	bx	lr

00008700 <_Z17set_task_deadlinej>:
_Z17set_task_deadlinej():
/mnt/c/Users/Kuba/Documents/ZeroMate/examples/18-edf/stdlib/src/stdfile.cpp:144

void set_task_deadline(uint32_t tick_count_required)
{
    8700:	e52db004 	push	{fp}		; (str fp, [sp, #-4]!)
    8704:	e28db000 	add	fp, sp, #0
    8708:	e24dd014 	sub	sp, sp, #20
    870c:	e50b0010 	str	r0, [fp, #-16]
/mnt/c/Users/Kuba/Documents/ZeroMate/examples/18-edf/stdlib/src/stdfile.cpp:145
    const NDeadline_Subservice req = NDeadline_Subservice::Set_Relative;
    8710:	e3a03000 	mov	r3, #0
    8714:	e50b3008 	str	r3, [fp, #-8]
/mnt/c/Users/Kuba/Documents/ZeroMate/examples/18-edf/stdlib/src/stdfile.cpp:147

    asm volatile("mov r0, %0" : : "r"(req));
    8718:	e3a03000 	mov	r3, #0
    871c:	e1a00003 	mov	r0, r3
/mnt/c/Users/Kuba/Documents/ZeroMate/examples/18-edf/stdlib/src/stdfile.cpp:148
    asm volatile("mov r1, %0" : : "r"(&tick_count_required));
    8720:	e24b3010 	sub	r3, fp, #16
    8724:	e1a01003 	mov	r1, r3
/mnt/c/Users/Kuba/Documents/ZeroMate/examples/18-edf/stdlib/src/stdfile.cpp:149
    asm volatile("swi 5");
    8728:	ef000005 	svc	0x00000005
/mnt/c/Users/Kuba/Documents/ZeroMate/examples/18-edf/stdlib/src/stdfile.cpp:150
}
    872c:	e320f000 	nop	{0}
    8730:	e28bd000 	add	sp, fp, #0
    8734:	e49db004 	pop	{fp}		; (ldr fp, [sp], #4)
    8738:	e12fff1e 	bx	lr

0000873c <_Z26get_task_ticks_to_deadlinev>:
_Z26get_task_ticks_to_deadlinev():
/mnt/c/Users/Kuba/Documents/ZeroMate/examples/18-edf/stdlib/src/stdfile.cpp:153

uint32_t get_task_ticks_to_deadline()
{
    873c:	e52db004 	push	{fp}		; (str fp, [sp, #-4]!)
    8740:	e28db000 	add	fp, sp, #0
    8744:	e24dd00c 	sub	sp, sp, #12
/mnt/c/Users/Kuba/Documents/ZeroMate/examples/18-edf/stdlib/src/stdfile.cpp:154
    const NDeadline_Subservice req = NDeadline_Subservice::Get_Remaining;
    8748:	e3a03001 	mov	r3, #1
    874c:	e50b3008 	str	r3, [fp, #-8]
/mnt/c/Users/Kuba/Documents/ZeroMate/examples/18-edf/stdlib/src/stdfile.cpp:157
    uint32_t ticks;

    asm volatile("mov r0, %0" : : "r"(req));
    8750:	e3a03001 	mov	r3, #1
    8754:	e1a00003 	mov	r0, r3
/mnt/c/Users/Kuba/Documents/ZeroMate/examples/18-edf/stdlib/src/stdfile.cpp:158
    asm volatile("mov r1, %0" : : "r"(&ticks));
    8758:	e24b300c 	sub	r3, fp, #12
    875c:	e1a01003 	mov	r1, r3
/mnt/c/Users/Kuba/Documents/ZeroMate/examples/18-edf/stdlib/src/stdfile.cpp:159
    asm volatile("swi 5");
    8760:	ef000005 	svc	0x00000005
/mnt/c/Users/Kuba/Documents/ZeroMate/examples/18-edf/stdlib/src/stdfile.cpp:161

    return ticks;
    8764:	e51b300c 	ldr	r3, [fp, #-12]
/mnt/c/Users/Kuba/Documents/ZeroMate/examples/18-edf/stdlib/src/stdfile.cpp:162
}
    8768:	e1a00003 	mov	r0, r3
    876c:	e28bd000 	add	sp, fp, #0
    8770:	e49db004 	pop	{fp}		; (ldr fp, [sp], #4)
    8774:	e12fff1e 	bx	lr

00008778 <_Z4pipePKcj>:
_Z4pipePKcj():
/mnt/c/Users/Kuba/Documents/ZeroMate/examples/18-edf/stdlib/src/stdfile.cpp:167

const char Pipe_File_Prefix[] = "SYS:pipe/";

uint32_t pipe(const char* name, uint32_t buf_size)
{
    8778:	e92d4800 	push	{fp, lr}
    877c:	e28db004 	add	fp, sp, #4
    8780:	e24dd050 	sub	sp, sp, #80	; 0x50
    8784:	e50b0050 	str	r0, [fp, #-80]	; 0xffffffb0
    8788:	e50b1054 	str	r1, [fp, #-84]	; 0xffffffac
/mnt/c/Users/Kuba/Documents/ZeroMate/examples/18-edf/stdlib/src/stdfile.cpp:169
    char fname[64];
    strncpy(fname, Pipe_File_Prefix, sizeof(Pipe_File_Prefix));
    878c:	e24b3048 	sub	r3, fp, #72	; 0x48
    8790:	e3a0200a 	mov	r2, #10
    8794:	e59f1088 	ldr	r1, [pc, #136]	; 8824 <_Z4pipePKcj+0xac>
    8798:	e1a00003 	mov	r0, r3
    879c:	eb0000a5 	bl	8a38 <_Z7strncpyPcPKci>
/mnt/c/Users/Kuba/Documents/ZeroMate/examples/18-edf/stdlib/src/stdfile.cpp:170
    strncpy(fname + sizeof(Pipe_File_Prefix), name, sizeof(fname) - sizeof(Pipe_File_Prefix) - 1);
    87a0:	e24b3048 	sub	r3, fp, #72	; 0x48
    87a4:	e283300a 	add	r3, r3, #10
    87a8:	e3a02035 	mov	r2, #53	; 0x35
    87ac:	e51b1050 	ldr	r1, [fp, #-80]	; 0xffffffb0
    87b0:	e1a00003 	mov	r0, r3
    87b4:	eb00009f 	bl	8a38 <_Z7strncpyPcPKci>
/mnt/c/Users/Kuba/Documents/ZeroMate/examples/18-edf/stdlib/src/stdfile.cpp:172

    int ncur = sizeof(Pipe_File_Prefix) + strlen(name);
    87b8:	e51b0050 	ldr	r0, [fp, #-80]	; 0xffffffb0
    87bc:	eb0000f8 	bl	8ba4 <_Z6strlenPKc>
    87c0:	e1a03000 	mov	r3, r0
    87c4:	e283300a 	add	r3, r3, #10
    87c8:	e50b3008 	str	r3, [fp, #-8]
/mnt/c/Users/Kuba/Documents/ZeroMate/examples/18-edf/stdlib/src/stdfile.cpp:174

    fname[ncur++] = '#';
    87cc:	e51b3008 	ldr	r3, [fp, #-8]
    87d0:	e2832001 	add	r2, r3, #1
    87d4:	e50b2008 	str	r2, [fp, #-8]
    87d8:	e2433004 	sub	r3, r3, #4
    87dc:	e083300b 	add	r3, r3, fp
    87e0:	e3a02023 	mov	r2, #35	; 0x23
    87e4:	e5432044 	strb	r2, [r3, #-68]	; 0xffffffbc
/mnt/c/Users/Kuba/Documents/ZeroMate/examples/18-edf/stdlib/src/stdfile.cpp:176

    itoa(buf_size, &fname[ncur], 10);
    87e8:	e24b2048 	sub	r2, fp, #72	; 0x48
    87ec:	e51b3008 	ldr	r3, [fp, #-8]
    87f0:	e0823003 	add	r3, r2, r3
    87f4:	e3a0200a 	mov	r2, #10
    87f8:	e1a01003 	mov	r1, r3
    87fc:	e51b0054 	ldr	r0, [fp, #-84]	; 0xffffffac
    8800:	eb000008 	bl	8828 <_Z4itoajPcj>
/mnt/c/Users/Kuba/Documents/ZeroMate/examples/18-edf/stdlib/src/stdfile.cpp:178

    return open(fname, NFile_Open_Mode::Read_Write);
    8804:	e24b3048 	sub	r3, fp, #72	; 0x48
    8808:	e3a01002 	mov	r1, #2
    880c:	e1a00003 	mov	r0, r3
    8810:	ebffff0a 	bl	8440 <_Z4openPKc15NFile_Open_Mode>
    8814:	e1a03000 	mov	r3, r0
/mnt/c/Users/Kuba/Documents/ZeroMate/examples/18-edf/stdlib/src/stdfile.cpp:179
}
    8818:	e1a00003 	mov	r0, r3
    881c:	e24bd004 	sub	sp, fp, #4
    8820:	e8bd8800 	pop	{fp, pc}
    8824:	00008f9c 	muleq	r0, ip, pc	; <UNPREDICTABLE>

00008828 <_Z4itoajPcj>:
_Z4itoajPcj():
/mnt/c/Users/Kuba/Documents/ZeroMate/examples/18-edf/stdlib/src/stdstring.cpp:9
{
    const char CharConvArr[] = "0123456789ABCDEF";
}

void itoa(unsigned int input, char* output, unsigned int base)
{
    8828:	e92d4800 	push	{fp, lr}
    882c:	e28db004 	add	fp, sp, #4
    8830:	e24dd020 	sub	sp, sp, #32
    8834:	e50b0018 	str	r0, [fp, #-24]	; 0xffffffe8
    8838:	e50b101c 	str	r1, [fp, #-28]	; 0xffffffe4
    883c:	e50b2020 	str	r2, [fp, #-32]	; 0xffffffe0
/mnt/c/Users/Kuba/Documents/ZeroMate/examples/18-edf/stdlib/src/stdstring.cpp:10
    int i = 0;
    8840:	e3a03000 	mov	r3, #0
    8844:	e50b3008 	str	r3, [fp, #-8]
/mnt/c/Users/Kuba/Documents/ZeroMate/examples/18-edf/stdlib/src/stdstring.cpp:12

    while (input > 0)
    8848:	e51b3018 	ldr	r3, [fp, #-24]	; 0xffffffe8
    884c:	e3530000 	cmp	r3, #0
    8850:	0a000014 	beq	88a8 <_Z4itoajPcj+0x80>
/mnt/c/Users/Kuba/Documents/ZeroMate/examples/18-edf/stdlib/src/stdstring.cpp:14
    {
        output[i] = CharConvArr[input % base];
    8854:	e51b3018 	ldr	r3, [fp, #-24]	; 0xffffffe8
    8858:	e51b1020 	ldr	r1, [fp, #-32]	; 0xffffffe0
    885c:	e1a00003 	mov	r0, r3
    8860:	eb000199 	bl	8ecc <__aeabi_uidivmod>
    8864:	e1a03001 	mov	r3, r1
    8868:	e1a01003 	mov	r1, r3
    886c:	e51b3008 	ldr	r3, [fp, #-8]
    8870:	e51b201c 	ldr	r2, [fp, #-28]	; 0xffffffe4
    8874:	e0823003 	add	r3, r2, r3
    8878:	e59f2118 	ldr	r2, [pc, #280]	; 8998 <_Z4itoajPcj+0x170>
    887c:	e7d22001 	ldrb	r2, [r2, r1]
    8880:	e5c32000 	strb	r2, [r3]
/mnt/c/Users/Kuba/Documents/ZeroMate/examples/18-edf/stdlib/src/stdstring.cpp:15
        input /= base;
    8884:	e51b1020 	ldr	r1, [fp, #-32]	; 0xffffffe0
    8888:	e51b0018 	ldr	r0, [fp, #-24]	; 0xffffffe8
    888c:	eb000113 	bl	8ce0 <__udivsi3>
    8890:	e1a03000 	mov	r3, r0
    8894:	e50b3018 	str	r3, [fp, #-24]	; 0xffffffe8
/mnt/c/Users/Kuba/Documents/ZeroMate/examples/18-edf/stdlib/src/stdstring.cpp:16
        i++;
    8898:	e51b3008 	ldr	r3, [fp, #-8]
    889c:	e2833001 	add	r3, r3, #1
    88a0:	e50b3008 	str	r3, [fp, #-8]
/mnt/c/Users/Kuba/Documents/ZeroMate/examples/18-edf/stdlib/src/stdstring.cpp:12
    while (input > 0)
    88a4:	eaffffe7 	b	8848 <_Z4itoajPcj+0x20>
/mnt/c/Users/Kuba/Documents/ZeroMate/examples/18-edf/stdlib/src/stdstring.cpp:19
    }

    if (i == 0)
    88a8:	e51b3008 	ldr	r3, [fp, #-8]
    88ac:	e3530000 	cmp	r3, #0
    88b0:	1a000007 	bne	88d4 <_Z4itoajPcj+0xac>
/mnt/c/Users/Kuba/Documents/ZeroMate/examples/18-edf/stdlib/src/stdstring.cpp:21
    {
        output[i] = CharConvArr[0];
    88b4:	e51b3008 	ldr	r3, [fp, #-8]
    88b8:	e51b201c 	ldr	r2, [fp, #-28]	; 0xffffffe4
    88bc:	e0823003 	add	r3, r2, r3
    88c0:	e3a02030 	mov	r2, #48	; 0x30
    88c4:	e5c32000 	strb	r2, [r3]
/mnt/c/Users/Kuba/Documents/ZeroMate/examples/18-edf/stdlib/src/stdstring.cpp:22
        i++;
    88c8:	e51b3008 	ldr	r3, [fp, #-8]
    88cc:	e2833001 	add	r3, r3, #1
    88d0:	e50b3008 	str	r3, [fp, #-8]
/mnt/c/Users/Kuba/Documents/ZeroMate/examples/18-edf/stdlib/src/stdstring.cpp:25
    }

    output[i] = '\0';
    88d4:	e51b3008 	ldr	r3, [fp, #-8]
    88d8:	e51b201c 	ldr	r2, [fp, #-28]	; 0xffffffe4
    88dc:	e0823003 	add	r3, r2, r3
    88e0:	e3a02000 	mov	r2, #0
    88e4:	e5c32000 	strb	r2, [r3]
/mnt/c/Users/Kuba/Documents/ZeroMate/examples/18-edf/stdlib/src/stdstring.cpp:26
    i--;
    88e8:	e51b3008 	ldr	r3, [fp, #-8]
    88ec:	e2433001 	sub	r3, r3, #1
    88f0:	e50b3008 	str	r3, [fp, #-8]
/mnt/c/Users/Kuba/Documents/ZeroMate/examples/18-edf/stdlib/src/stdstring.cpp:28

    for (int j = 0; j <= i / 2; j++)
    88f4:	e3a03000 	mov	r3, #0
    88f8:	e50b300c 	str	r3, [fp, #-12]
/mnt/c/Users/Kuba/Documents/ZeroMate/examples/18-edf/stdlib/src/stdstring.cpp:28 (discriminator 3)
    88fc:	e51b3008 	ldr	r3, [fp, #-8]
    8900:	e1a02fa3 	lsr	r2, r3, #31
    8904:	e0823003 	add	r3, r2, r3
    8908:	e1a030c3 	asr	r3, r3, #1
    890c:	e1a02003 	mov	r2, r3
    8910:	e51b300c 	ldr	r3, [fp, #-12]
    8914:	e1530002 	cmp	r3, r2
    8918:	ca00001b 	bgt	898c <_Z4itoajPcj+0x164>
/mnt/c/Users/Kuba/Documents/ZeroMate/examples/18-edf/stdlib/src/stdstring.cpp:30 (discriminator 2)
    {
        char c = output[i - j];
    891c:	e51b2008 	ldr	r2, [fp, #-8]
    8920:	e51b300c 	ldr	r3, [fp, #-12]
    8924:	e0423003 	sub	r3, r2, r3
    8928:	e1a02003 	mov	r2, r3
    892c:	e51b301c 	ldr	r3, [fp, #-28]	; 0xffffffe4
    8930:	e0833002 	add	r3, r3, r2
    8934:	e5d33000 	ldrb	r3, [r3]
    8938:	e54b300d 	strb	r3, [fp, #-13]
/mnt/c/Users/Kuba/Documents/ZeroMate/examples/18-edf/stdlib/src/stdstring.cpp:31 (discriminator 2)
        output[i - j] = output[j];
    893c:	e51b300c 	ldr	r3, [fp, #-12]
    8940:	e51b201c 	ldr	r2, [fp, #-28]	; 0xffffffe4
    8944:	e0822003 	add	r2, r2, r3
    8948:	e51b1008 	ldr	r1, [fp, #-8]
    894c:	e51b300c 	ldr	r3, [fp, #-12]
    8950:	e0413003 	sub	r3, r1, r3
    8954:	e1a01003 	mov	r1, r3
    8958:	e51b301c 	ldr	r3, [fp, #-28]	; 0xffffffe4
    895c:	e0833001 	add	r3, r3, r1
    8960:	e5d22000 	ldrb	r2, [r2]
    8964:	e5c32000 	strb	r2, [r3]
/mnt/c/Users/Kuba/Documents/ZeroMate/examples/18-edf/stdlib/src/stdstring.cpp:32 (discriminator 2)
        output[j] = c;
    8968:	e51b300c 	ldr	r3, [fp, #-12]
    896c:	e51b201c 	ldr	r2, [fp, #-28]	; 0xffffffe4
    8970:	e0823003 	add	r3, r2, r3
    8974:	e55b200d 	ldrb	r2, [fp, #-13]
    8978:	e5c32000 	strb	r2, [r3]
/mnt/c/Users/Kuba/Documents/ZeroMate/examples/18-edf/stdlib/src/stdstring.cpp:28 (discriminator 2)
    for (int j = 0; j <= i / 2; j++)
    897c:	e51b300c 	ldr	r3, [fp, #-12]
    8980:	e2833001 	add	r3, r3, #1
    8984:	e50b300c 	str	r3, [fp, #-12]
    8988:	eaffffdb 	b	88fc <_Z4itoajPcj+0xd4>
/mnt/c/Users/Kuba/Documents/ZeroMate/examples/18-edf/stdlib/src/stdstring.cpp:34
    }
}
    898c:	e320f000 	nop	{0}
    8990:	e24bd004 	sub	sp, fp, #4
    8994:	e8bd8800 	pop	{fp, pc}
    8998:	00008fa8 	andeq	r8, r0, r8, lsr #31

0000899c <_Z4atoiPKc>:
_Z4atoiPKc():
/mnt/c/Users/Kuba/Documents/ZeroMate/examples/18-edf/stdlib/src/stdstring.cpp:37

int atoi(const char* input)
{
    899c:	e52db004 	push	{fp}		; (str fp, [sp, #-4]!)
    89a0:	e28db000 	add	fp, sp, #0
    89a4:	e24dd014 	sub	sp, sp, #20
    89a8:	e50b0010 	str	r0, [fp, #-16]
/mnt/c/Users/Kuba/Documents/ZeroMate/examples/18-edf/stdlib/src/stdstring.cpp:38
    int output = 0;
    89ac:	e3a03000 	mov	r3, #0
    89b0:	e50b3008 	str	r3, [fp, #-8]
/mnt/c/Users/Kuba/Documents/ZeroMate/examples/18-edf/stdlib/src/stdstring.cpp:40

    while (*input != '\0')
    89b4:	e51b3010 	ldr	r3, [fp, #-16]
    89b8:	e5d33000 	ldrb	r3, [r3]
    89bc:	e3530000 	cmp	r3, #0
    89c0:	0a000017 	beq	8a24 <_Z4atoiPKc+0x88>
/mnt/c/Users/Kuba/Documents/ZeroMate/examples/18-edf/stdlib/src/stdstring.cpp:42
    {
        output *= 10;
    89c4:	e51b2008 	ldr	r2, [fp, #-8]
    89c8:	e1a03002 	mov	r3, r2
    89cc:	e1a03103 	lsl	r3, r3, #2
    89d0:	e0833002 	add	r3, r3, r2
    89d4:	e1a03083 	lsl	r3, r3, #1
    89d8:	e50b3008 	str	r3, [fp, #-8]
/mnt/c/Users/Kuba/Documents/ZeroMate/examples/18-edf/stdlib/src/stdstring.cpp:43
        if (*input > '9' || *input < '0')
    89dc:	e51b3010 	ldr	r3, [fp, #-16]
    89e0:	e5d33000 	ldrb	r3, [r3]
    89e4:	e3530039 	cmp	r3, #57	; 0x39
    89e8:	8a00000d 	bhi	8a24 <_Z4atoiPKc+0x88>
/mnt/c/Users/Kuba/Documents/ZeroMate/examples/18-edf/stdlib/src/stdstring.cpp:43 (discriminator 1)
    89ec:	e51b3010 	ldr	r3, [fp, #-16]
    89f0:	e5d33000 	ldrb	r3, [r3]
    89f4:	e353002f 	cmp	r3, #47	; 0x2f
    89f8:	9a000009 	bls	8a24 <_Z4atoiPKc+0x88>
/mnt/c/Users/Kuba/Documents/ZeroMate/examples/18-edf/stdlib/src/stdstring.cpp:46
            break;

        output += *input - '0';
    89fc:	e51b3010 	ldr	r3, [fp, #-16]
    8a00:	e5d33000 	ldrb	r3, [r3]
    8a04:	e2433030 	sub	r3, r3, #48	; 0x30
    8a08:	e51b2008 	ldr	r2, [fp, #-8]
    8a0c:	e0823003 	add	r3, r2, r3
    8a10:	e50b3008 	str	r3, [fp, #-8]
/mnt/c/Users/Kuba/Documents/ZeroMate/examples/18-edf/stdlib/src/stdstring.cpp:48

        input++;
    8a14:	e51b3010 	ldr	r3, [fp, #-16]
    8a18:	e2833001 	add	r3, r3, #1
    8a1c:	e50b3010 	str	r3, [fp, #-16]
/mnt/c/Users/Kuba/Documents/ZeroMate/examples/18-edf/stdlib/src/stdstring.cpp:40
    while (*input != '\0')
    8a20:	eaffffe3 	b	89b4 <_Z4atoiPKc+0x18>
/mnt/c/Users/Kuba/Documents/ZeroMate/examples/18-edf/stdlib/src/stdstring.cpp:51
    }

    return output;
    8a24:	e51b3008 	ldr	r3, [fp, #-8]
/mnt/c/Users/Kuba/Documents/ZeroMate/examples/18-edf/stdlib/src/stdstring.cpp:52
}
    8a28:	e1a00003 	mov	r0, r3
    8a2c:	e28bd000 	add	sp, fp, #0
    8a30:	e49db004 	pop	{fp}		; (ldr fp, [sp], #4)
    8a34:	e12fff1e 	bx	lr

00008a38 <_Z7strncpyPcPKci>:
_Z7strncpyPcPKci():
/mnt/c/Users/Kuba/Documents/ZeroMate/examples/18-edf/stdlib/src/stdstring.cpp:55

char* strncpy(char* dest, const char* src, int num)
{
    8a38:	e52db004 	push	{fp}		; (str fp, [sp, #-4]!)
    8a3c:	e28db000 	add	fp, sp, #0
    8a40:	e24dd01c 	sub	sp, sp, #28
    8a44:	e50b0010 	str	r0, [fp, #-16]
    8a48:	e50b1014 	str	r1, [fp, #-20]	; 0xffffffec
    8a4c:	e50b2018 	str	r2, [fp, #-24]	; 0xffffffe8
/mnt/c/Users/Kuba/Documents/ZeroMate/examples/18-edf/stdlib/src/stdstring.cpp:58
    int i;

    for (i = 0; i < num && src[i] != '\0'; i++)
    8a50:	e3a03000 	mov	r3, #0
    8a54:	e50b3008 	str	r3, [fp, #-8]
/mnt/c/Users/Kuba/Documents/ZeroMate/examples/18-edf/stdlib/src/stdstring.cpp:58 (discriminator 4)
    8a58:	e51b2008 	ldr	r2, [fp, #-8]
    8a5c:	e51b3018 	ldr	r3, [fp, #-24]	; 0xffffffe8
    8a60:	e1520003 	cmp	r2, r3
    8a64:	aa000011 	bge	8ab0 <_Z7strncpyPcPKci+0x78>
/mnt/c/Users/Kuba/Documents/ZeroMate/examples/18-edf/stdlib/src/stdstring.cpp:58 (discriminator 2)
    8a68:	e51b3008 	ldr	r3, [fp, #-8]
    8a6c:	e51b2014 	ldr	r2, [fp, #-20]	; 0xffffffec
    8a70:	e0823003 	add	r3, r2, r3
    8a74:	e5d33000 	ldrb	r3, [r3]
    8a78:	e3530000 	cmp	r3, #0
    8a7c:	0a00000b 	beq	8ab0 <_Z7strncpyPcPKci+0x78>
/mnt/c/Users/Kuba/Documents/ZeroMate/examples/18-edf/stdlib/src/stdstring.cpp:59 (discriminator 3)
        dest[i] = src[i];
    8a80:	e51b3008 	ldr	r3, [fp, #-8]
    8a84:	e51b2014 	ldr	r2, [fp, #-20]	; 0xffffffec
    8a88:	e0822003 	add	r2, r2, r3
    8a8c:	e51b3008 	ldr	r3, [fp, #-8]
    8a90:	e51b1010 	ldr	r1, [fp, #-16]
    8a94:	e0813003 	add	r3, r1, r3
    8a98:	e5d22000 	ldrb	r2, [r2]
    8a9c:	e5c32000 	strb	r2, [r3]
/mnt/c/Users/Kuba/Documents/ZeroMate/examples/18-edf/stdlib/src/stdstring.cpp:58 (discriminator 3)
    for (i = 0; i < num && src[i] != '\0'; i++)
    8aa0:	e51b3008 	ldr	r3, [fp, #-8]
    8aa4:	e2833001 	add	r3, r3, #1
    8aa8:	e50b3008 	str	r3, [fp, #-8]
    8aac:	eaffffe9 	b	8a58 <_Z7strncpyPcPKci+0x20>
/mnt/c/Users/Kuba/Documents/ZeroMate/examples/18-edf/stdlib/src/stdstring.cpp:60 (discriminator 2)
    for (; i < num; i++)
    8ab0:	e51b2008 	ldr	r2, [fp, #-8]
    8ab4:	e51b3018 	ldr	r3, [fp, #-24]	; 0xffffffe8
    8ab8:	e1520003 	cmp	r2, r3
    8abc:	aa000008 	bge	8ae4 <_Z7strncpyPcPKci+0xac>
/mnt/c/Users/Kuba/Documents/ZeroMate/examples/18-edf/stdlib/src/stdstring.cpp:61 (discriminator 1)
        dest[i] = '\0';
    8ac0:	e51b3008 	ldr	r3, [fp, #-8]
    8ac4:	e51b2010 	ldr	r2, [fp, #-16]
    8ac8:	e0823003 	add	r3, r2, r3
    8acc:	e3a02000 	mov	r2, #0
    8ad0:	e5c32000 	strb	r2, [r3]
/mnt/c/Users/Kuba/Documents/ZeroMate/examples/18-edf/stdlib/src/stdstring.cpp:60 (discriminator 1)
    for (; i < num; i++)
    8ad4:	e51b3008 	ldr	r3, [fp, #-8]
    8ad8:	e2833001 	add	r3, r3, #1
    8adc:	e50b3008 	str	r3, [fp, #-8]
    8ae0:	eafffff2 	b	8ab0 <_Z7strncpyPcPKci+0x78>
/mnt/c/Users/Kuba/Documents/ZeroMate/examples/18-edf/stdlib/src/stdstring.cpp:63

    return dest;
    8ae4:	e51b3010 	ldr	r3, [fp, #-16]
/mnt/c/Users/Kuba/Documents/ZeroMate/examples/18-edf/stdlib/src/stdstring.cpp:64
}
    8ae8:	e1a00003 	mov	r0, r3
    8aec:	e28bd000 	add	sp, fp, #0
    8af0:	e49db004 	pop	{fp}		; (ldr fp, [sp], #4)
    8af4:	e12fff1e 	bx	lr

00008af8 <_Z7strncmpPKcS0_i>:
_Z7strncmpPKcS0_i():
/mnt/c/Users/Kuba/Documents/ZeroMate/examples/18-edf/stdlib/src/stdstring.cpp:67

int strncmp(const char* s1, const char* s2, int num)
{
    8af8:	e52db004 	push	{fp}		; (str fp, [sp, #-4]!)
    8afc:	e28db000 	add	fp, sp, #0
    8b00:	e24dd01c 	sub	sp, sp, #28
    8b04:	e50b0010 	str	r0, [fp, #-16]
    8b08:	e50b1014 	str	r1, [fp, #-20]	; 0xffffffec
    8b0c:	e50b2018 	str	r2, [fp, #-24]	; 0xffffffe8
/mnt/c/Users/Kuba/Documents/ZeroMate/examples/18-edf/stdlib/src/stdstring.cpp:69
    unsigned char u1, u2;
    while (num-- > 0)
    8b10:	e51b3018 	ldr	r3, [fp, #-24]	; 0xffffffe8
    8b14:	e2432001 	sub	r2, r3, #1
    8b18:	e50b2018 	str	r2, [fp, #-24]	; 0xffffffe8
    8b1c:	e3530000 	cmp	r3, #0
    8b20:	c3a03001 	movgt	r3, #1
    8b24:	d3a03000 	movle	r3, #0
    8b28:	e6ef3073 	uxtb	r3, r3
    8b2c:	e3530000 	cmp	r3, #0
    8b30:	0a000016 	beq	8b90 <_Z7strncmpPKcS0_i+0x98>
/mnt/c/Users/Kuba/Documents/ZeroMate/examples/18-edf/stdlib/src/stdstring.cpp:71
    {
        u1 = (unsigned char)*s1++;
    8b34:	e51b3010 	ldr	r3, [fp, #-16]
    8b38:	e2832001 	add	r2, r3, #1
    8b3c:	e50b2010 	str	r2, [fp, #-16]
    8b40:	e5d33000 	ldrb	r3, [r3]
    8b44:	e54b3005 	strb	r3, [fp, #-5]
/mnt/c/Users/Kuba/Documents/ZeroMate/examples/18-edf/stdlib/src/stdstring.cpp:72
        u2 = (unsigned char)*s2++;
    8b48:	e51b3014 	ldr	r3, [fp, #-20]	; 0xffffffec
    8b4c:	e2832001 	add	r2, r3, #1
    8b50:	e50b2014 	str	r2, [fp, #-20]	; 0xffffffec
    8b54:	e5d33000 	ldrb	r3, [r3]
    8b58:	e54b3006 	strb	r3, [fp, #-6]
/mnt/c/Users/Kuba/Documents/ZeroMate/examples/18-edf/stdlib/src/stdstring.cpp:73
        if (u1 != u2)
    8b5c:	e55b2005 	ldrb	r2, [fp, #-5]
    8b60:	e55b3006 	ldrb	r3, [fp, #-6]
    8b64:	e1520003 	cmp	r2, r3
    8b68:	0a000003 	beq	8b7c <_Z7strncmpPKcS0_i+0x84>
/mnt/c/Users/Kuba/Documents/ZeroMate/examples/18-edf/stdlib/src/stdstring.cpp:74
            return u1 - u2;
    8b6c:	e55b2005 	ldrb	r2, [fp, #-5]
    8b70:	e55b3006 	ldrb	r3, [fp, #-6]
    8b74:	e0423003 	sub	r3, r2, r3
    8b78:	ea000005 	b	8b94 <_Z7strncmpPKcS0_i+0x9c>
/mnt/c/Users/Kuba/Documents/ZeroMate/examples/18-edf/stdlib/src/stdstring.cpp:75
        if (u1 == '\0')
    8b7c:	e55b3005 	ldrb	r3, [fp, #-5]
    8b80:	e3530000 	cmp	r3, #0
    8b84:	1affffe1 	bne	8b10 <_Z7strncmpPKcS0_i+0x18>
/mnt/c/Users/Kuba/Documents/ZeroMate/examples/18-edf/stdlib/src/stdstring.cpp:76
            return 0;
    8b88:	e3a03000 	mov	r3, #0
    8b8c:	ea000000 	b	8b94 <_Z7strncmpPKcS0_i+0x9c>
/mnt/c/Users/Kuba/Documents/ZeroMate/examples/18-edf/stdlib/src/stdstring.cpp:79
    }

    return 0;
    8b90:	e3a03000 	mov	r3, #0
/mnt/c/Users/Kuba/Documents/ZeroMate/examples/18-edf/stdlib/src/stdstring.cpp:80
}
    8b94:	e1a00003 	mov	r0, r3
    8b98:	e28bd000 	add	sp, fp, #0
    8b9c:	e49db004 	pop	{fp}		; (ldr fp, [sp], #4)
    8ba0:	e12fff1e 	bx	lr

00008ba4 <_Z6strlenPKc>:
_Z6strlenPKc():
/mnt/c/Users/Kuba/Documents/ZeroMate/examples/18-edf/stdlib/src/stdstring.cpp:83

int strlen(const char* s)
{
    8ba4:	e52db004 	push	{fp}		; (str fp, [sp, #-4]!)
    8ba8:	e28db000 	add	fp, sp, #0
    8bac:	e24dd014 	sub	sp, sp, #20
    8bb0:	e50b0010 	str	r0, [fp, #-16]
/mnt/c/Users/Kuba/Documents/ZeroMate/examples/18-edf/stdlib/src/stdstring.cpp:84
    int i = 0;
    8bb4:	e3a03000 	mov	r3, #0
    8bb8:	e50b3008 	str	r3, [fp, #-8]
/mnt/c/Users/Kuba/Documents/ZeroMate/examples/18-edf/stdlib/src/stdstring.cpp:86

    while (s[i] != '\0')
    8bbc:	e51b3008 	ldr	r3, [fp, #-8]
    8bc0:	e51b2010 	ldr	r2, [fp, #-16]
    8bc4:	e0823003 	add	r3, r2, r3
    8bc8:	e5d33000 	ldrb	r3, [r3]
    8bcc:	e3530000 	cmp	r3, #0
    8bd0:	0a000003 	beq	8be4 <_Z6strlenPKc+0x40>
/mnt/c/Users/Kuba/Documents/ZeroMate/examples/18-edf/stdlib/src/stdstring.cpp:87
        i++;
    8bd4:	e51b3008 	ldr	r3, [fp, #-8]
    8bd8:	e2833001 	add	r3, r3, #1
    8bdc:	e50b3008 	str	r3, [fp, #-8]
/mnt/c/Users/Kuba/Documents/ZeroMate/examples/18-edf/stdlib/src/stdstring.cpp:86
    while (s[i] != '\0')
    8be0:	eafffff5 	b	8bbc <_Z6strlenPKc+0x18>
/mnt/c/Users/Kuba/Documents/ZeroMate/examples/18-edf/stdlib/src/stdstring.cpp:89

    return i;
    8be4:	e51b3008 	ldr	r3, [fp, #-8]
/mnt/c/Users/Kuba/Documents/ZeroMate/examples/18-edf/stdlib/src/stdstring.cpp:90
}
    8be8:	e1a00003 	mov	r0, r3
    8bec:	e28bd000 	add	sp, fp, #0
    8bf0:	e49db004 	pop	{fp}		; (ldr fp, [sp], #4)
    8bf4:	e12fff1e 	bx	lr

00008bf8 <_Z5bzeroPvi>:
_Z5bzeroPvi():
/mnt/c/Users/Kuba/Documents/ZeroMate/examples/18-edf/stdlib/src/stdstring.cpp:93

void bzero(void* memory, int length)
{
    8bf8:	e52db004 	push	{fp}		; (str fp, [sp, #-4]!)
    8bfc:	e28db000 	add	fp, sp, #0
    8c00:	e24dd014 	sub	sp, sp, #20
    8c04:	e50b0010 	str	r0, [fp, #-16]
    8c08:	e50b1014 	str	r1, [fp, #-20]	; 0xffffffec
/mnt/c/Users/Kuba/Documents/ZeroMate/examples/18-edf/stdlib/src/stdstring.cpp:94
    char* mem = reinterpret_cast<char*>(memory);
    8c0c:	e51b3010 	ldr	r3, [fp, #-16]
    8c10:	e50b300c 	str	r3, [fp, #-12]
/mnt/c/Users/Kuba/Documents/ZeroMate/examples/18-edf/stdlib/src/stdstring.cpp:96

    for (int i = 0; i < length; i++)
    8c14:	e3a03000 	mov	r3, #0
    8c18:	e50b3008 	str	r3, [fp, #-8]
/mnt/c/Users/Kuba/Documents/ZeroMate/examples/18-edf/stdlib/src/stdstring.cpp:96 (discriminator 3)
    8c1c:	e51b2008 	ldr	r2, [fp, #-8]
    8c20:	e51b3014 	ldr	r3, [fp, #-20]	; 0xffffffec
    8c24:	e1520003 	cmp	r2, r3
    8c28:	aa000008 	bge	8c50 <_Z5bzeroPvi+0x58>
/mnt/c/Users/Kuba/Documents/ZeroMate/examples/18-edf/stdlib/src/stdstring.cpp:97 (discriminator 2)
        mem[i] = 0;
    8c2c:	e51b3008 	ldr	r3, [fp, #-8]
    8c30:	e51b200c 	ldr	r2, [fp, #-12]
    8c34:	e0823003 	add	r3, r2, r3
    8c38:	e3a02000 	mov	r2, #0
    8c3c:	e5c32000 	strb	r2, [r3]
/mnt/c/Users/Kuba/Documents/ZeroMate/examples/18-edf/stdlib/src/stdstring.cpp:96 (discriminator 2)
    for (int i = 0; i < length; i++)
    8c40:	e51b3008 	ldr	r3, [fp, #-8]
    8c44:	e2833001 	add	r3, r3, #1
    8c48:	e50b3008 	str	r3, [fp, #-8]
    8c4c:	eafffff2 	b	8c1c <_Z5bzeroPvi+0x24>
/mnt/c/Users/Kuba/Documents/ZeroMate/examples/18-edf/stdlib/src/stdstring.cpp:98
}
    8c50:	e320f000 	nop	{0}
    8c54:	e28bd000 	add	sp, fp, #0
    8c58:	e49db004 	pop	{fp}		; (ldr fp, [sp], #4)
    8c5c:	e12fff1e 	bx	lr

00008c60 <_Z6memcpyPKvPvi>:
_Z6memcpyPKvPvi():
/mnt/c/Users/Kuba/Documents/ZeroMate/examples/18-edf/stdlib/src/stdstring.cpp:101

void memcpy(const void* src, void* dst, int num)
{
    8c60:	e52db004 	push	{fp}		; (str fp, [sp, #-4]!)
    8c64:	e28db000 	add	fp, sp, #0
    8c68:	e24dd024 	sub	sp, sp, #36	; 0x24
    8c6c:	e50b0018 	str	r0, [fp, #-24]	; 0xffffffe8
    8c70:	e50b101c 	str	r1, [fp, #-28]	; 0xffffffe4
    8c74:	e50b2020 	str	r2, [fp, #-32]	; 0xffffffe0
/mnt/c/Users/Kuba/Documents/ZeroMate/examples/18-edf/stdlib/src/stdstring.cpp:102
    const char* memsrc = reinterpret_cast<const char*>(src);
    8c78:	e51b3018 	ldr	r3, [fp, #-24]	; 0xffffffe8
    8c7c:	e50b300c 	str	r3, [fp, #-12]
/mnt/c/Users/Kuba/Documents/ZeroMate/examples/18-edf/stdlib/src/stdstring.cpp:103
    char* memdst = reinterpret_cast<char*>(dst);
    8c80:	e51b301c 	ldr	r3, [fp, #-28]	; 0xffffffe4
    8c84:	e50b3010 	str	r3, [fp, #-16]
/mnt/c/Users/Kuba/Documents/ZeroMate/examples/18-edf/stdlib/src/stdstring.cpp:105

    for (int i = 0; i < num; i++)
    8c88:	e3a03000 	mov	r3, #0
    8c8c:	e50b3008 	str	r3, [fp, #-8]
/mnt/c/Users/Kuba/Documents/ZeroMate/examples/18-edf/stdlib/src/stdstring.cpp:105 (discriminator 3)
    8c90:	e51b2008 	ldr	r2, [fp, #-8]
    8c94:	e51b3020 	ldr	r3, [fp, #-32]	; 0xffffffe0
    8c98:	e1520003 	cmp	r2, r3
    8c9c:	aa00000b 	bge	8cd0 <_Z6memcpyPKvPvi+0x70>
/mnt/c/Users/Kuba/Documents/ZeroMate/examples/18-edf/stdlib/src/stdstring.cpp:106 (discriminator 2)
        memdst[i] = memsrc[i];
    8ca0:	e51b3008 	ldr	r3, [fp, #-8]
    8ca4:	e51b200c 	ldr	r2, [fp, #-12]
    8ca8:	e0822003 	add	r2, r2, r3
    8cac:	e51b3008 	ldr	r3, [fp, #-8]
    8cb0:	e51b1010 	ldr	r1, [fp, #-16]
    8cb4:	e0813003 	add	r3, r1, r3
    8cb8:	e5d22000 	ldrb	r2, [r2]
    8cbc:	e5c32000 	strb	r2, [r3]
/mnt/c/Users/Kuba/Documents/ZeroMate/examples/18-edf/stdlib/src/stdstring.cpp:105 (discriminator 2)
    for (int i = 0; i < num; i++)
    8cc0:	e51b3008 	ldr	r3, [fp, #-8]
    8cc4:	e2833001 	add	r3, r3, #1
    8cc8:	e50b3008 	str	r3, [fp, #-8]
    8ccc:	eaffffef 	b	8c90 <_Z6memcpyPKvPvi+0x30>
/mnt/c/Users/Kuba/Documents/ZeroMate/examples/18-edf/stdlib/src/stdstring.cpp:107
}
    8cd0:	e320f000 	nop	{0}
    8cd4:	e28bd000 	add	sp, fp, #0
    8cd8:	e49db004 	pop	{fp}		; (ldr fp, [sp], #4)
    8cdc:	e12fff1e 	bx	lr

00008ce0 <__udivsi3>:
__udivsi3():
/build/gcc-arm-none-eabi-hYfgK4/gcc-arm-none-eabi-10.3-2021.07/build/arm-none-eabi/arm/v5te/hard/libgcc/../../../../../../libgcc/config/arm/lib1funcs.S:1104
    8ce0:	e2512001 	subs	r2, r1, #1
/build/gcc-arm-none-eabi-hYfgK4/gcc-arm-none-eabi-10.3-2021.07/build/arm-none-eabi/arm/v5te/hard/libgcc/../../../../../../libgcc/config/arm/lib1funcs.S:1106
    8ce4:	012fff1e 	bxeq	lr
/build/gcc-arm-none-eabi-hYfgK4/gcc-arm-none-eabi-10.3-2021.07/build/arm-none-eabi/arm/v5te/hard/libgcc/../../../../../../libgcc/config/arm/lib1funcs.S:1107
    8ce8:	3a000074 	bcc	8ec0 <__udivsi3+0x1e0>
/build/gcc-arm-none-eabi-hYfgK4/gcc-arm-none-eabi-10.3-2021.07/build/arm-none-eabi/arm/v5te/hard/libgcc/../../../../../../libgcc/config/arm/lib1funcs.S:1108
    8cec:	e1500001 	cmp	r0, r1
/build/gcc-arm-none-eabi-hYfgK4/gcc-arm-none-eabi-10.3-2021.07/build/arm-none-eabi/arm/v5te/hard/libgcc/../../../../../../libgcc/config/arm/lib1funcs.S:1109
    8cf0:	9a00006b 	bls	8ea4 <__udivsi3+0x1c4>
/build/gcc-arm-none-eabi-hYfgK4/gcc-arm-none-eabi-10.3-2021.07/build/arm-none-eabi/arm/v5te/hard/libgcc/../../../../../../libgcc/config/arm/lib1funcs.S:1110
    8cf4:	e1110002 	tst	r1, r2
/build/gcc-arm-none-eabi-hYfgK4/gcc-arm-none-eabi-10.3-2021.07/build/arm-none-eabi/arm/v5te/hard/libgcc/../../../../../../libgcc/config/arm/lib1funcs.S:1111
    8cf8:	0a00006c 	beq	8eb0 <__udivsi3+0x1d0>
/build/gcc-arm-none-eabi-hYfgK4/gcc-arm-none-eabi-10.3-2021.07/build/arm-none-eabi/arm/v5te/hard/libgcc/../../../../../../libgcc/config/arm/lib1funcs.S:1113
    8cfc:	e16f3f10 	clz	r3, r0
    8d00:	e16f2f11 	clz	r2, r1
    8d04:	e0423003 	sub	r3, r2, r3
    8d08:	e273301f 	rsbs	r3, r3, #31
    8d0c:	10833083 	addne	r3, r3, r3, lsl #1
    8d10:	e3a02000 	mov	r2, #0
    8d14:	108ff103 	addne	pc, pc, r3, lsl #2
    8d18:	e1a00000 	nop			; (mov r0, r0)
    8d1c:	e1500f81 	cmp	r0, r1, lsl #31
    8d20:	e0a22002 	adc	r2, r2, r2
    8d24:	20400f81 	subcs	r0, r0, r1, lsl #31
    8d28:	e1500f01 	cmp	r0, r1, lsl #30
    8d2c:	e0a22002 	adc	r2, r2, r2
    8d30:	20400f01 	subcs	r0, r0, r1, lsl #30
    8d34:	e1500e81 	cmp	r0, r1, lsl #29
    8d38:	e0a22002 	adc	r2, r2, r2
    8d3c:	20400e81 	subcs	r0, r0, r1, lsl #29
    8d40:	e1500e01 	cmp	r0, r1, lsl #28
    8d44:	e0a22002 	adc	r2, r2, r2
    8d48:	20400e01 	subcs	r0, r0, r1, lsl #28
    8d4c:	e1500d81 	cmp	r0, r1, lsl #27
    8d50:	e0a22002 	adc	r2, r2, r2
    8d54:	20400d81 	subcs	r0, r0, r1, lsl #27
    8d58:	e1500d01 	cmp	r0, r1, lsl #26
    8d5c:	e0a22002 	adc	r2, r2, r2
    8d60:	20400d01 	subcs	r0, r0, r1, lsl #26
    8d64:	e1500c81 	cmp	r0, r1, lsl #25
    8d68:	e0a22002 	adc	r2, r2, r2
    8d6c:	20400c81 	subcs	r0, r0, r1, lsl #25
    8d70:	e1500c01 	cmp	r0, r1, lsl #24
    8d74:	e0a22002 	adc	r2, r2, r2
    8d78:	20400c01 	subcs	r0, r0, r1, lsl #24
    8d7c:	e1500b81 	cmp	r0, r1, lsl #23
    8d80:	e0a22002 	adc	r2, r2, r2
    8d84:	20400b81 	subcs	r0, r0, r1, lsl #23
    8d88:	e1500b01 	cmp	r0, r1, lsl #22
    8d8c:	e0a22002 	adc	r2, r2, r2
    8d90:	20400b01 	subcs	r0, r0, r1, lsl #22
    8d94:	e1500a81 	cmp	r0, r1, lsl #21
    8d98:	e0a22002 	adc	r2, r2, r2
    8d9c:	20400a81 	subcs	r0, r0, r1, lsl #21
    8da0:	e1500a01 	cmp	r0, r1, lsl #20
    8da4:	e0a22002 	adc	r2, r2, r2
    8da8:	20400a01 	subcs	r0, r0, r1, lsl #20
    8dac:	e1500981 	cmp	r0, r1, lsl #19
    8db0:	e0a22002 	adc	r2, r2, r2
    8db4:	20400981 	subcs	r0, r0, r1, lsl #19
    8db8:	e1500901 	cmp	r0, r1, lsl #18
    8dbc:	e0a22002 	adc	r2, r2, r2
    8dc0:	20400901 	subcs	r0, r0, r1, lsl #18
    8dc4:	e1500881 	cmp	r0, r1, lsl #17
    8dc8:	e0a22002 	adc	r2, r2, r2
    8dcc:	20400881 	subcs	r0, r0, r1, lsl #17
    8dd0:	e1500801 	cmp	r0, r1, lsl #16
    8dd4:	e0a22002 	adc	r2, r2, r2
    8dd8:	20400801 	subcs	r0, r0, r1, lsl #16
    8ddc:	e1500781 	cmp	r0, r1, lsl #15
    8de0:	e0a22002 	adc	r2, r2, r2
    8de4:	20400781 	subcs	r0, r0, r1, lsl #15
    8de8:	e1500701 	cmp	r0, r1, lsl #14
    8dec:	e0a22002 	adc	r2, r2, r2
    8df0:	20400701 	subcs	r0, r0, r1, lsl #14
    8df4:	e1500681 	cmp	r0, r1, lsl #13
    8df8:	e0a22002 	adc	r2, r2, r2
    8dfc:	20400681 	subcs	r0, r0, r1, lsl #13
    8e00:	e1500601 	cmp	r0, r1, lsl #12
    8e04:	e0a22002 	adc	r2, r2, r2
    8e08:	20400601 	subcs	r0, r0, r1, lsl #12
    8e0c:	e1500581 	cmp	r0, r1, lsl #11
    8e10:	e0a22002 	adc	r2, r2, r2
    8e14:	20400581 	subcs	r0, r0, r1, lsl #11
    8e18:	e1500501 	cmp	r0, r1, lsl #10
    8e1c:	e0a22002 	adc	r2, r2, r2
    8e20:	20400501 	subcs	r0, r0, r1, lsl #10
    8e24:	e1500481 	cmp	r0, r1, lsl #9
    8e28:	e0a22002 	adc	r2, r2, r2
    8e2c:	20400481 	subcs	r0, r0, r1, lsl #9
    8e30:	e1500401 	cmp	r0, r1, lsl #8
    8e34:	e0a22002 	adc	r2, r2, r2
    8e38:	20400401 	subcs	r0, r0, r1, lsl #8
    8e3c:	e1500381 	cmp	r0, r1, lsl #7
    8e40:	e0a22002 	adc	r2, r2, r2
    8e44:	20400381 	subcs	r0, r0, r1, lsl #7
    8e48:	e1500301 	cmp	r0, r1, lsl #6
    8e4c:	e0a22002 	adc	r2, r2, r2
    8e50:	20400301 	subcs	r0, r0, r1, lsl #6
    8e54:	e1500281 	cmp	r0, r1, lsl #5
    8e58:	e0a22002 	adc	r2, r2, r2
    8e5c:	20400281 	subcs	r0, r0, r1, lsl #5
    8e60:	e1500201 	cmp	r0, r1, lsl #4
    8e64:	e0a22002 	adc	r2, r2, r2
    8e68:	20400201 	subcs	r0, r0, r1, lsl #4
    8e6c:	e1500181 	cmp	r0, r1, lsl #3
    8e70:	e0a22002 	adc	r2, r2, r2
    8e74:	20400181 	subcs	r0, r0, r1, lsl #3
    8e78:	e1500101 	cmp	r0, r1, lsl #2
    8e7c:	e0a22002 	adc	r2, r2, r2
    8e80:	20400101 	subcs	r0, r0, r1, lsl #2
    8e84:	e1500081 	cmp	r0, r1, lsl #1
    8e88:	e0a22002 	adc	r2, r2, r2
    8e8c:	20400081 	subcs	r0, r0, r1, lsl #1
    8e90:	e1500001 	cmp	r0, r1
    8e94:	e0a22002 	adc	r2, r2, r2
    8e98:	20400001 	subcs	r0, r0, r1
/build/gcc-arm-none-eabi-hYfgK4/gcc-arm-none-eabi-10.3-2021.07/build/arm-none-eabi/arm/v5te/hard/libgcc/../../../../../../libgcc/config/arm/lib1funcs.S:1115
    8e9c:	e1a00002 	mov	r0, r2
/build/gcc-arm-none-eabi-hYfgK4/gcc-arm-none-eabi-10.3-2021.07/build/arm-none-eabi/arm/v5te/hard/libgcc/../../../../../../libgcc/config/arm/lib1funcs.S:1116
    8ea0:	e12fff1e 	bx	lr
/build/gcc-arm-none-eabi-hYfgK4/gcc-arm-none-eabi-10.3-2021.07/build/arm-none-eabi/arm/v5te/hard/libgcc/../../../../../../libgcc/config/arm/lib1funcs.S:1119
    8ea4:	03a00001 	moveq	r0, #1
/build/gcc-arm-none-eabi-hYfgK4/gcc-arm-none-eabi-10.3-2021.07/build/arm-none-eabi/arm/v5te/hard/libgcc/../../../../../../libgcc/config/arm/lib1funcs.S:1120
    8ea8:	13a00000 	movne	r0, #0
/build/gcc-arm-none-eabi-hYfgK4/gcc-arm-none-eabi-10.3-2021.07/build/arm-none-eabi/arm/v5te/hard/libgcc/../../../../../../libgcc/config/arm/lib1funcs.S:1121
    8eac:	e12fff1e 	bx	lr
/build/gcc-arm-none-eabi-hYfgK4/gcc-arm-none-eabi-10.3-2021.07/build/arm-none-eabi/arm/v5te/hard/libgcc/../../../../../../libgcc/config/arm/lib1funcs.S:1123
    8eb0:	e16f2f11 	clz	r2, r1
    8eb4:	e262201f 	rsb	r2, r2, #31
/build/gcc-arm-none-eabi-hYfgK4/gcc-arm-none-eabi-10.3-2021.07/build/arm-none-eabi/arm/v5te/hard/libgcc/../../../../../../libgcc/config/arm/lib1funcs.S:1125
    8eb8:	e1a00230 	lsr	r0, r0, r2
/build/gcc-arm-none-eabi-hYfgK4/gcc-arm-none-eabi-10.3-2021.07/build/arm-none-eabi/arm/v5te/hard/libgcc/../../../../../../libgcc/config/arm/lib1funcs.S:1126
    8ebc:	e12fff1e 	bx	lr
/build/gcc-arm-none-eabi-hYfgK4/gcc-arm-none-eabi-10.3-2021.07/build/arm-none-eabi/arm/v5te/hard/libgcc/../../../../../../libgcc/config/arm/lib1funcs.S:1130
    8ec0:	e3500000 	cmp	r0, #0
    8ec4:	13e00000 	mvnne	r0, #0
    8ec8:	ea000007 	b	8eec <__aeabi_idiv0>

00008ecc <__aeabi_uidivmod>:
__aeabi_uidivmod():
/build/gcc-arm-none-eabi-hYfgK4/gcc-arm-none-eabi-10.3-2021.07/build/arm-none-eabi/arm/v5te/hard/libgcc/../../../../../../libgcc/config/arm/lib1funcs.S:1161
    8ecc:	e3510000 	cmp	r1, #0
/build/gcc-arm-none-eabi-hYfgK4/gcc-arm-none-eabi-10.3-2021.07/build/arm-none-eabi/arm/v5te/hard/libgcc/../../../../../../libgcc/config/arm/lib1funcs.S:1162
    8ed0:	0afffffa 	beq	8ec0 <__udivsi3+0x1e0>
/build/gcc-arm-none-eabi-hYfgK4/gcc-arm-none-eabi-10.3-2021.07/build/arm-none-eabi/arm/v5te/hard/libgcc/../../../../../../libgcc/config/arm/lib1funcs.S:1163
    8ed4:	e92d4003 	push	{r0, r1, lr}
/build/gcc-arm-none-eabi-hYfgK4/gcc-arm-none-eabi-10.3-2021.07/build/arm-none-eabi/arm/v5te/hard/libgcc/../../../../../../libgcc/config/arm/lib1funcs.S:1164
    8ed8:	ebffff80 	bl	8ce0 <__udivsi3>
/build/gcc-arm-none-eabi-hYfgK4/gcc-arm-none-eabi-10.3-2021.07/build/arm-none-eabi/arm/v5te/hard/libgcc/../../../../../../libgcc/config/arm/lib1funcs.S:1165
    8edc:	e8bd4006 	pop	{r1, r2, lr}
/build/gcc-arm-none-eabi-hYfgK4/gcc-arm-none-eabi-10.3-2021.07/build/arm-none-eabi/arm/v5te/hard/libgcc/../../../../../../libgcc/config/arm/lib1funcs.S:1166
    8ee0:	e0030092 	mul	r3, r2, r0
/build/gcc-arm-none-eabi-hYfgK4/gcc-arm-none-eabi-10.3-2021.07/build/arm-none-eabi/arm/v5te/hard/libgcc/../../../../../../libgcc/config/arm/lib1funcs.S:1167
    8ee4:	e0411003 	sub	r1, r1, r3
/build/gcc-arm-none-eabi-hYfgK4/gcc-arm-none-eabi-10.3-2021.07/build/arm-none-eabi/arm/v5te/hard/libgcc/../../../../../../libgcc/config/arm/lib1funcs.S:1168
    8ee8:	e12fff1e 	bx	lr

00008eec <__aeabi_idiv0>:
__aeabi_ldiv0():
/build/gcc-arm-none-eabi-hYfgK4/gcc-arm-none-eabi-10.3-2021.07/build/arm-none-eabi/arm/v5te/hard/libgcc/../../../../../../libgcc/config/arm/lib1funcs.S:1466
    8eec:	e12fff1e 	bx	lr
