
./kernel:     file format elf32-littlearm


Disassembly of section .text:

00008000 <_start>:
_start():
/home/silhavyj/School/ZeroMate/examples/10-timer_and_GPIO_interrupt/kernel/src/start.s:14
	;@	- sem skoci bootloader, prvni na co narazi je "ldr pc, _reset_ptr" -> tedy se chova jako kdyby slo o reset a skoci na zacatek provadeni
	;@	- v cele svoji krase (vsechny "ldr" instrukce) slouzi jako predloha skutecne tabulce vektoru preruseni
	;@ na dany offset procesor skoci, kdyz je vyvolano libovolne preruseni
	;@ ARM nastavuje rovnou registr PC na tuto adresu, tzn. na teto adrese musi byt kodovana 4B instrukce skoku nekam jinam
	;@ oproti tomu napr. x86 (x86_64) obsahuje v tabulce rovnou adresu a procesor nastavuje PC (CS:IP) na adresu kterou najde v tabulce
	ldr pc, _reset_ptr						;@ 0x00 - reset - vyvolano pri resetu procesoru
    8000:	e59ff018 	ldr	pc, [pc, #24]	; 8020 <_reset_ptr>
/home/silhavyj/School/ZeroMate/examples/10-timer_and_GPIO_interrupt/kernel/src/start.s:15
	ldr pc, _undefined_instruction_ptr		;@ 0x04 - undefined instruction - vyjimka, vyvolana pri dekodovani nezname instrukce
    8004:	e59ff018 	ldr	pc, [pc, #24]	; 8024 <_undefined_instruction_ptr>
/home/silhavyj/School/ZeroMate/examples/10-timer_and_GPIO_interrupt/kernel/src/start.s:16
	ldr pc, _software_interrupt_ptr			;@ 0x08 - software interrupt - vyvolano, kdyz procesor provede instrukci swi
    8008:	e59ff018 	ldr	pc, [pc, #24]	; 8028 <_software_interrupt_ptr>
/home/silhavyj/School/ZeroMate/examples/10-timer_and_GPIO_interrupt/kernel/src/start.s:17
	ldr pc, _prefetch_abort_ptr				;@ 0x0C - prefetch abort - vyvolano, kdyz se procesor snazi napr. nacist instrukci z mista, odkud nacist nejde
    800c:	e59ff018 	ldr	pc, [pc, #24]	; 802c <_prefetch_abort_ptr>
/home/silhavyj/School/ZeroMate/examples/10-timer_and_GPIO_interrupt/kernel/src/start.s:18
	ldr pc, _data_abort_ptr					;@ 0x10 - data abort - vyvolano, kdyz se procesor snazi napr. nacist data z mista, odkud nacist nejdou
    8010:	e59ff018 	ldr	pc, [pc, #24]	; 8030 <_data_abort_ptr>
/home/silhavyj/School/ZeroMate/examples/10-timer_and_GPIO_interrupt/kernel/src/start.s:19
	ldr pc, _unused_handler_ptr				;@ 0x14 - unused - ve specifikaci ARM neni uvedeno zadne vyuziti
    8014:	e59ff018 	ldr	pc, [pc, #24]	; 8034 <_unused_handler_ptr>
/home/silhavyj/School/ZeroMate/examples/10-timer_and_GPIO_interrupt/kernel/src/start.s:20
	ldr pc, _irq_ptr						;@ 0x18 - IRQ - hardwarove preruseni (general purpose)
    8018:	e59ff018 	ldr	pc, [pc, #24]	; 8038 <_irq_ptr>
/home/silhavyj/School/ZeroMate/examples/10-timer_and_GPIO_interrupt/kernel/src/start.s:21
	ldr pc, _fast_interrupt_ptr				;@ 0x1C - fast interrupt request - prioritni IRQ pro vysokorychlostni zalezitosti
    801c:	e59ff018 	ldr	pc, [pc, #24]	; 803c <_fast_interrupt_ptr>

00008020 <_reset_ptr>:
_reset_ptr():
/home/silhavyj/School/ZeroMate/examples/10-timer_and_GPIO_interrupt/kernel/src/start.s:21
    8020:	00008040 	andeq	r8, r0, r0, asr #32

00008024 <_undefined_instruction_ptr>:
_undefined_instruction_ptr():
/home/silhavyj/School/ZeroMate/examples/10-timer_and_GPIO_interrupt/kernel/src/start.s:21
    8024:	00009044 	andeq	r9, r0, r4, asr #32

00008028 <_software_interrupt_ptr>:
_software_interrupt_ptr():
/home/silhavyj/School/ZeroMate/examples/10-timer_and_GPIO_interrupt/kernel/src/start.s:21
    8028:	00008c38 	andeq	r8, r0, r8, lsr ip

0000802c <_prefetch_abort_ptr>:
_prefetch_abort_ptr():
/home/silhavyj/School/ZeroMate/examples/10-timer_and_GPIO_interrupt/kernel/src/start.s:21
    802c:	00009048 	andeq	r9, r0, r8, asr #32

00008030 <_data_abort_ptr>:
_data_abort_ptr():
/home/silhavyj/School/ZeroMate/examples/10-timer_and_GPIO_interrupt/kernel/src/start.s:21
    8030:	0000904c 	andeq	r9, r0, ip, asr #32

00008034 <_unused_handler_ptr>:
_unused_handler_ptr():
/home/silhavyj/School/ZeroMate/examples/10-timer_and_GPIO_interrupt/kernel/src/start.s:21
    8034:	00008040 	andeq	r8, r0, r0, asr #32

00008038 <_irq_ptr>:
_irq_ptr():
/home/silhavyj/School/ZeroMate/examples/10-timer_and_GPIO_interrupt/kernel/src/start.s:21
    8038:	00008c50 	andeq	r8, r0, r0, asr ip

0000803c <_fast_interrupt_ptr>:
_fast_interrupt_ptr():
/home/silhavyj/School/ZeroMate/examples/10-timer_and_GPIO_interrupt/kernel/src/start.s:21
    803c:	00008cd0 	ldrdeq	r8, [r0], -r0

00008040 <_reset>:
_reset():
/home/silhavyj/School/ZeroMate/examples/10-timer_and_GPIO_interrupt/kernel/src/start.s:50
.equ    CPSR_FIQ_INHIBIT,       0x40


;@ kernel reset vektor - tento kod se vykona pri kazdem resetu zarizeni (i prvnim spusteni)
_reset:
	mov sp, #0x8000			;@ nastavime stack pointer na spodek zasobniku
    8040:	e3a0d902 	mov	sp, #32768	; 0x8000
/home/silhavyj/School/ZeroMate/examples/10-timer_and_GPIO_interrupt/kernel/src/start.s:53

	;@ nacteni tabulky vektoru preruseni do pameti
	mov r0, #0x8000			;@ adresa 0x8000 (_start) do r0
    8044:	e3a00902 	mov	r0, #32768	; 0x8000
/home/silhavyj/School/ZeroMate/examples/10-timer_and_GPIO_interrupt/kernel/src/start.s:54
    mov r1, #0x0000			;@ adresa 0x0000 (pocatek RAM) do r1 - tam budeme vkladat tabulku vektoru preruseni
    8048:	e3a01000 	mov	r1, #0
/home/silhavyj/School/ZeroMate/examples/10-timer_and_GPIO_interrupt/kernel/src/start.s:58

	;@ Thumb instrukce - nacteni 4B slov z pameti ulozene v r0 (0x8000) do registru r2, 3, ... 9
	;@                 - ulozeni obsahu registru r2, 3, ... 9 do pameti ulozene v registru r1 (0x0000)
    ldmia r0!,{r2, r3, r4, r5, r6, r7, r8, r9}
    804c:	e8b003fc 	ldm	r0!, {r2, r3, r4, r5, r6, r7, r8, r9}
/home/silhavyj/School/ZeroMate/examples/10-timer_and_GPIO_interrupt/kernel/src/start.s:59
    stmia r1!,{r2, r3, r4, r5, r6, r7, r8, r9}
    8050:	e8a103fc 	stmia	r1!, {r2, r3, r4, r5, r6, r7, r8, r9}
/home/silhavyj/School/ZeroMate/examples/10-timer_and_GPIO_interrupt/kernel/src/start.s:60
    ldmia r0!,{r2, r3, r4, r5, r6, r7, r8, r9}
    8054:	e8b003fc 	ldm	r0!, {r2, r3, r4, r5, r6, r7, r8, r9}
/home/silhavyj/School/ZeroMate/examples/10-timer_and_GPIO_interrupt/kernel/src/start.s:61
    stmia r1!,{r2, r3, r4, r5, r6, r7, r8, r9}
    8058:	e8a103fc 	stmia	r1!, {r2, r3, r4, r5, r6, r7, r8, r9}
/home/silhavyj/School/ZeroMate/examples/10-timer_and_GPIO_interrupt/kernel/src/start.s:64

	;@ na moment se prepneme do IRQ rezimu, nastavime mu stack pointer
	mov r0, #(CPSR_MODE_IRQ | CPSR_IRQ_INHIBIT | CPSR_FIQ_INHIBIT)
    805c:	e3a000d2 	mov	r0, #210	; 0xd2
/home/silhavyj/School/ZeroMate/examples/10-timer_and_GPIO_interrupt/kernel/src/start.s:65
    msr cpsr_c, r0
    8060:	e121f000 	msr	CPSR_c, r0
/home/silhavyj/School/ZeroMate/examples/10-timer_and_GPIO_interrupt/kernel/src/start.s:66
    mov sp, #0x7000
    8064:	e3a0da07 	mov	sp, #28672	; 0x7000
/home/silhavyj/School/ZeroMate/examples/10-timer_and_GPIO_interrupt/kernel/src/start.s:69

	;@ na moment se prepneme do FIQ rezimu, nastavime mu stack pointer
	mov r0, #(CPSR_MODE_FIQ | CPSR_IRQ_INHIBIT | CPSR_FIQ_INHIBIT)
    8068:	e3a000d1 	mov	r0, #209	; 0xd1
/home/silhavyj/School/ZeroMate/examples/10-timer_and_GPIO_interrupt/kernel/src/start.s:70
    msr cpsr_c, r0
    806c:	e121f000 	msr	CPSR_c, r0
/home/silhavyj/School/ZeroMate/examples/10-timer_and_GPIO_interrupt/kernel/src/start.s:71
    mov sp, #0x6000
    8070:	e3a0da06 	mov	sp, #24576	; 0x6000
/home/silhavyj/School/ZeroMate/examples/10-timer_and_GPIO_interrupt/kernel/src/start.s:74

	;@ a vracime se zpet do supervisor modu, SP si nastavime zpet na nasi hodnotu
    mov r0, #(CPSR_MODE_SVR | CPSR_IRQ_INHIBIT | CPSR_FIQ_INHIBIT)
    8074:	e3a000d3 	mov	r0, #211	; 0xd3
/home/silhavyj/School/ZeroMate/examples/10-timer_and_GPIO_interrupt/kernel/src/start.s:75
    msr cpsr_c, r0
    8078:	e121f000 	msr	CPSR_c, r0
/home/silhavyj/School/ZeroMate/examples/10-timer_and_GPIO_interrupt/kernel/src/start.s:76
    mov sp, #0x8000
    807c:	e3a0d902 	mov	sp, #32768	; 0x8000
/home/silhavyj/School/ZeroMate/examples/10-timer_and_GPIO_interrupt/kernel/src/start.s:78

	bl _c_startup			;@ C startup kod (inicializace prostredi)
    8080:	eb0003f2 	bl	9050 <_c_startup>
/home/silhavyj/School/ZeroMate/examples/10-timer_and_GPIO_interrupt/kernel/src/start.s:79
	bl _cpp_startup			;@ C++ startup kod (volani globalnich konstruktoru, ...)
    8084:	eb00040b 	bl	90b8 <_cpp_startup>
/home/silhavyj/School/ZeroMate/examples/10-timer_and_GPIO_interrupt/kernel/src/start.s:80
	bl _kernel_main			;@ skocime do hlavniho kodu jadra (v C)
    8088:	eb0003be 	bl	8f88 <_kernel_main>
/home/silhavyj/School/ZeroMate/examples/10-timer_and_GPIO_interrupt/kernel/src/start.s:81
	bl _cpp_shutdown		;@ C++ shutdown kod (volani globalnich destruktoru, ...)
    808c:	eb00041f 	bl	9110 <_cpp_shutdown>

00008090 <hang>:
hang():
/home/silhavyj/School/ZeroMate/examples/10-timer_and_GPIO_interrupt/kernel/src/start.s:83
hang:
	b hang
    8090:	eafffffe 	b	8090 <hang>

00008094 <__cxa_guard_acquire>:
__cxa_guard_acquire():
/home/silhavyj/School/ZeroMate/examples/10-timer_and_GPIO_interrupt/kernel/src/cxx.cpp:11
    extern "C" int __cxa_guard_acquire(__guard*);
    extern "C" void __cxa_guard_release(__guard*);
    extern "C" void __cxa_guard_abort(__guard*);

    extern "C" int __cxa_guard_acquire(__guard* g)
    {
    8094:	e52db004 	push	{fp}		; (str fp, [sp, #-4]!)
    8098:	e28db000 	add	fp, sp, #0
    809c:	e24dd00c 	sub	sp, sp, #12
    80a0:	e50b0008 	str	r0, [fp, #-8]
/home/silhavyj/School/ZeroMate/examples/10-timer_and_GPIO_interrupt/kernel/src/cxx.cpp:12
        return !*(char*)(g);
    80a4:	e51b3008 	ldr	r3, [fp, #-8]
    80a8:	e5d33000 	ldrb	r3, [r3]
    80ac:	e3530000 	cmp	r3, #0
    80b0:	03a03001 	moveq	r3, #1
    80b4:	13a03000 	movne	r3, #0
    80b8:	e6ef3073 	uxtb	r3, r3
/home/silhavyj/School/ZeroMate/examples/10-timer_and_GPIO_interrupt/kernel/src/cxx.cpp:13
    }
    80bc:	e1a00003 	mov	r0, r3
    80c0:	e28bd000 	add	sp, fp, #0
    80c4:	e49db004 	pop	{fp}		; (ldr fp, [sp], #4)
    80c8:	e12fff1e 	bx	lr

000080cc <__cxa_guard_release>:
__cxa_guard_release():
/home/silhavyj/School/ZeroMate/examples/10-timer_and_GPIO_interrupt/kernel/src/cxx.cpp:16

    extern "C" void __cxa_guard_release(__guard* g)
    {
    80cc:	e52db004 	push	{fp}		; (str fp, [sp, #-4]!)
    80d0:	e28db000 	add	fp, sp, #0
    80d4:	e24dd00c 	sub	sp, sp, #12
    80d8:	e50b0008 	str	r0, [fp, #-8]
/home/silhavyj/School/ZeroMate/examples/10-timer_and_GPIO_interrupt/kernel/src/cxx.cpp:17
        *(char*)g = 1;
    80dc:	e51b3008 	ldr	r3, [fp, #-8]
    80e0:	e3a02001 	mov	r2, #1
    80e4:	e5c32000 	strb	r2, [r3]
/home/silhavyj/School/ZeroMate/examples/10-timer_and_GPIO_interrupt/kernel/src/cxx.cpp:18
    }
    80e8:	e320f000 	nop	{0}
    80ec:	e28bd000 	add	sp, fp, #0
    80f0:	e49db004 	pop	{fp}		; (ldr fp, [sp], #4)
    80f4:	e12fff1e 	bx	lr

000080f8 <__cxa_guard_abort>:
__cxa_guard_abort():
/home/silhavyj/School/ZeroMate/examples/10-timer_and_GPIO_interrupt/kernel/src/cxx.cpp:21

    extern "C" void __cxa_guard_abort(__guard*)
    {
    80f8:	e52db004 	push	{fp}		; (str fp, [sp, #-4]!)
    80fc:	e28db000 	add	fp, sp, #0
    8100:	e24dd00c 	sub	sp, sp, #12
    8104:	e50b0008 	str	r0, [fp, #-8]
/home/silhavyj/School/ZeroMate/examples/10-timer_and_GPIO_interrupt/kernel/src/cxx.cpp:22
    }
    8108:	e320f000 	nop	{0}
    810c:	e28bd000 	add	sp, fp, #0
    8110:	e49db004 	pop	{fp}		; (ldr fp, [sp], #4)
    8114:	e12fff1e 	bx	lr

00008118 <__dso_handle>:
__dso_handle():
/home/silhavyj/School/ZeroMate/examples/10-timer_and_GPIO_interrupt/kernel/src/cxx.cpp:26
}

extern "C" void __dso_handle()
{
    8118:	e52db004 	push	{fp}		; (str fp, [sp, #-4]!)
    811c:	e28db000 	add	fp, sp, #0
/home/silhavyj/School/ZeroMate/examples/10-timer_and_GPIO_interrupt/kernel/src/cxx.cpp:28
    // ignore dtors for now
}
    8120:	e320f000 	nop	{0}
    8124:	e28bd000 	add	sp, fp, #0
    8128:	e49db004 	pop	{fp}		; (ldr fp, [sp], #4)
    812c:	e12fff1e 	bx	lr

00008130 <__cxa_atexit>:
__cxa_atexit():
/home/silhavyj/School/ZeroMate/examples/10-timer_and_GPIO_interrupt/kernel/src/cxx.cpp:31

extern "C" void __cxa_atexit()
{
    8130:	e52db004 	push	{fp}		; (str fp, [sp, #-4]!)
    8134:	e28db000 	add	fp, sp, #0
/home/silhavyj/School/ZeroMate/examples/10-timer_and_GPIO_interrupt/kernel/src/cxx.cpp:33
    // ignore dtors for now
}
    8138:	e320f000 	nop	{0}
    813c:	e28bd000 	add	sp, fp, #0
    8140:	e49db004 	pop	{fp}		; (ldr fp, [sp], #4)
    8144:	e12fff1e 	bx	lr

00008148 <__cxa_pure_virtual>:
__cxa_pure_virtual():
/home/silhavyj/School/ZeroMate/examples/10-timer_and_GPIO_interrupt/kernel/src/cxx.cpp:36

extern "C" void __cxa_pure_virtual()
{
    8148:	e52db004 	push	{fp}		; (str fp, [sp, #-4]!)
    814c:	e28db000 	add	fp, sp, #0
/home/silhavyj/School/ZeroMate/examples/10-timer_and_GPIO_interrupt/kernel/src/cxx.cpp:38
    // pure virtual method called
}
    8150:	e320f000 	nop	{0}
    8154:	e28bd000 	add	sp, fp, #0
    8158:	e49db004 	pop	{fp}		; (ldr fp, [sp], #4)
    815c:	e12fff1e 	bx	lr

00008160 <__aeabi_unwind_cpp_pr1>:
__aeabi_unwind_cpp_pr1():
/home/silhavyj/School/ZeroMate/examples/10-timer_and_GPIO_interrupt/kernel/src/cxx.cpp:41

extern "C" void __aeabi_unwind_cpp_pr1()
{
    8160:	e52db004 	push	{fp}		; (str fp, [sp, #-4]!)
    8164:	e28db000 	add	fp, sp, #0
/home/silhavyj/School/ZeroMate/examples/10-timer_and_GPIO_interrupt/kernel/src/cxx.cpp:42 (discriminator 1)
    while (true)
    8168:	eafffffe 	b	8168 <__aeabi_unwind_cpp_pr1+0x8>

0000816c <_ZN13CGPIO_HandlerC1Ej>:
_ZN13CGPIO_HandlerC2Ej():
/home/silhavyj/School/ZeroMate/examples/10-timer_and_GPIO_interrupt/kernel/src/drivers/gpio.cpp:6
#include <hal/peripherals.h>
#include <drivers/gpio.h>

CGPIO_Handler sGPIO(hal::GPIO_Base);

CGPIO_Handler::CGPIO_Handler(unsigned int gpio_base_addr)
    816c:	e52db004 	push	{fp}		; (str fp, [sp, #-4]!)
    8170:	e28db000 	add	fp, sp, #0
    8174:	e24dd00c 	sub	sp, sp, #12
    8178:	e50b0008 	str	r0, [fp, #-8]
    817c:	e50b100c 	str	r1, [fp, #-12]
/home/silhavyj/School/ZeroMate/examples/10-timer_and_GPIO_interrupt/kernel/src/drivers/gpio.cpp:7
: mGPIO(reinterpret_cast<unsigned int*>(gpio_base_addr))
    8180:	e51b200c 	ldr	r2, [fp, #-12]
    8184:	e51b3008 	ldr	r3, [fp, #-8]
    8188:	e5832000 	str	r2, [r3]
/home/silhavyj/School/ZeroMate/examples/10-timer_and_GPIO_interrupt/kernel/src/drivers/gpio.cpp:10
{
    //
}
    818c:	e51b3008 	ldr	r3, [fp, #-8]
    8190:	e1a00003 	mov	r0, r3
    8194:	e28bd000 	add	sp, fp, #0
    8198:	e49db004 	pop	{fp}		; (ldr fp, [sp], #4)
    819c:	e12fff1e 	bx	lr

000081a0 <_ZNK13CGPIO_Handler19Get_GPFSEL_LocationEjRjS0_>:
_ZNK13CGPIO_Handler19Get_GPFSEL_LocationEjRjS0_():
/home/silhavyj/School/ZeroMate/examples/10-timer_and_GPIO_interrupt/kernel/src/drivers/gpio.cpp:13

bool CGPIO_Handler::Get_GPFSEL_Location(uint32_t pin, uint32_t& reg, uint32_t& bit_idx) const
{
    81a0:	e52db004 	push	{fp}		; (str fp, [sp, #-4]!)
    81a4:	e28db000 	add	fp, sp, #0
    81a8:	e24dd014 	sub	sp, sp, #20
    81ac:	e50b0008 	str	r0, [fp, #-8]
    81b0:	e50b100c 	str	r1, [fp, #-12]
    81b4:	e50b2010 	str	r2, [fp, #-16]
    81b8:	e50b3014 	str	r3, [fp, #-20]	; 0xffffffec
/home/silhavyj/School/ZeroMate/examples/10-timer_and_GPIO_interrupt/kernel/src/drivers/gpio.cpp:14
    if (pin > hal::GPIO_Pin_Count)
    81bc:	e51b300c 	ldr	r3, [fp, #-12]
    81c0:	e3530036 	cmp	r3, #54	; 0x36
    81c4:	9a000001 	bls	81d0 <_ZNK13CGPIO_Handler19Get_GPFSEL_LocationEjRjS0_+0x30>
/home/silhavyj/School/ZeroMate/examples/10-timer_and_GPIO_interrupt/kernel/src/drivers/gpio.cpp:15
        return false;
    81c8:	e3a03000 	mov	r3, #0
    81cc:	ea000033 	b	82a0 <_ZNK13CGPIO_Handler19Get_GPFSEL_LocationEjRjS0_+0x100>
/home/silhavyj/School/ZeroMate/examples/10-timer_and_GPIO_interrupt/kernel/src/drivers/gpio.cpp:17

    switch (pin / 10)
    81d0:	e51b300c 	ldr	r3, [fp, #-12]
    81d4:	e59f20d4 	ldr	r2, [pc, #212]	; 82b0 <_ZNK13CGPIO_Handler19Get_GPFSEL_LocationEjRjS0_+0x110>
    81d8:	e0832392 	umull	r2, r3, r2, r3
    81dc:	e1a031a3 	lsr	r3, r3, #3
    81e0:	e3530005 	cmp	r3, #5
    81e4:	979ff103 	ldrls	pc, [pc, r3, lsl #2]
    81e8:	ea00001d 	b	8264 <_ZNK13CGPIO_Handler19Get_GPFSEL_LocationEjRjS0_+0xc4>
    81ec:	00008204 	andeq	r8, r0, r4, lsl #4
    81f0:	00008214 	andeq	r8, r0, r4, lsl r2
    81f4:	00008224 	andeq	r8, r0, r4, lsr #4
    81f8:	00008234 	andeq	r8, r0, r4, lsr r2
    81fc:	00008244 	andeq	r8, r0, r4, asr #4
    8200:	00008254 	andeq	r8, r0, r4, asr r2
/home/silhavyj/School/ZeroMate/examples/10-timer_and_GPIO_interrupt/kernel/src/drivers/gpio.cpp:20
    {
        case 0:
            reg = static_cast<uint32_t>(hal::GPIO_Reg::GPFSEL0);
    8204:	e51b3010 	ldr	r3, [fp, #-16]
    8208:	e3a02000 	mov	r2, #0
    820c:	e5832000 	str	r2, [r3]
/home/silhavyj/School/ZeroMate/examples/10-timer_and_GPIO_interrupt/kernel/src/drivers/gpio.cpp:21
            break;
    8210:	ea000013 	b	8264 <_ZNK13CGPIO_Handler19Get_GPFSEL_LocationEjRjS0_+0xc4>
/home/silhavyj/School/ZeroMate/examples/10-timer_and_GPIO_interrupt/kernel/src/drivers/gpio.cpp:23
        case 1:
            reg = static_cast<uint32_t>(hal::GPIO_Reg::GPFSEL1);
    8214:	e51b3010 	ldr	r3, [fp, #-16]
    8218:	e3a02001 	mov	r2, #1
    821c:	e5832000 	str	r2, [r3]
/home/silhavyj/School/ZeroMate/examples/10-timer_and_GPIO_interrupt/kernel/src/drivers/gpio.cpp:24
            break;
    8220:	ea00000f 	b	8264 <_ZNK13CGPIO_Handler19Get_GPFSEL_LocationEjRjS0_+0xc4>
/home/silhavyj/School/ZeroMate/examples/10-timer_and_GPIO_interrupt/kernel/src/drivers/gpio.cpp:26
        case 2:
            reg = static_cast<uint32_t>(hal::GPIO_Reg::GPFSEL2);
    8224:	e51b3010 	ldr	r3, [fp, #-16]
    8228:	e3a02002 	mov	r2, #2
    822c:	e5832000 	str	r2, [r3]
/home/silhavyj/School/ZeroMate/examples/10-timer_and_GPIO_interrupt/kernel/src/drivers/gpio.cpp:27
            break;
    8230:	ea00000b 	b	8264 <_ZNK13CGPIO_Handler19Get_GPFSEL_LocationEjRjS0_+0xc4>
/home/silhavyj/School/ZeroMate/examples/10-timer_and_GPIO_interrupt/kernel/src/drivers/gpio.cpp:29
        case 3:
            reg = static_cast<uint32_t>(hal::GPIO_Reg::GPFSEL3);
    8234:	e51b3010 	ldr	r3, [fp, #-16]
    8238:	e3a02003 	mov	r2, #3
    823c:	e5832000 	str	r2, [r3]
/home/silhavyj/School/ZeroMate/examples/10-timer_and_GPIO_interrupt/kernel/src/drivers/gpio.cpp:30
            break;
    8240:	ea000007 	b	8264 <_ZNK13CGPIO_Handler19Get_GPFSEL_LocationEjRjS0_+0xc4>
/home/silhavyj/School/ZeroMate/examples/10-timer_and_GPIO_interrupt/kernel/src/drivers/gpio.cpp:32
        case 4:
            reg = static_cast<uint32_t>(hal::GPIO_Reg::GPFSEL4);
    8244:	e51b3010 	ldr	r3, [fp, #-16]
    8248:	e3a02004 	mov	r2, #4
    824c:	e5832000 	str	r2, [r3]
/home/silhavyj/School/ZeroMate/examples/10-timer_and_GPIO_interrupt/kernel/src/drivers/gpio.cpp:33
            break;
    8250:	ea000003 	b	8264 <_ZNK13CGPIO_Handler19Get_GPFSEL_LocationEjRjS0_+0xc4>
/home/silhavyj/School/ZeroMate/examples/10-timer_and_GPIO_interrupt/kernel/src/drivers/gpio.cpp:35
        case 5:
            reg = static_cast<uint32_t>(hal::GPIO_Reg::GPFSEL5);
    8254:	e51b3010 	ldr	r3, [fp, #-16]
    8258:	e3a02005 	mov	r2, #5
    825c:	e5832000 	str	r2, [r3]
/home/silhavyj/School/ZeroMate/examples/10-timer_and_GPIO_interrupt/kernel/src/drivers/gpio.cpp:36
            break;
    8260:	e320f000 	nop	{0}
/home/silhavyj/School/ZeroMate/examples/10-timer_and_GPIO_interrupt/kernel/src/drivers/gpio.cpp:39
    }

    bit_idx = (pin % 10) * 3;
    8264:	e51b100c 	ldr	r1, [fp, #-12]
    8268:	e59f3040 	ldr	r3, [pc, #64]	; 82b0 <_ZNK13CGPIO_Handler19Get_GPFSEL_LocationEjRjS0_+0x110>
    826c:	e0832193 	umull	r2, r3, r3, r1
    8270:	e1a021a3 	lsr	r2, r3, #3
    8274:	e1a03002 	mov	r3, r2
    8278:	e1a03103 	lsl	r3, r3, #2
    827c:	e0833002 	add	r3, r3, r2
    8280:	e1a03083 	lsl	r3, r3, #1
    8284:	e0412003 	sub	r2, r1, r3
    8288:	e1a03002 	mov	r3, r2
    828c:	e1a03083 	lsl	r3, r3, #1
    8290:	e0832002 	add	r2, r3, r2
    8294:	e51b3014 	ldr	r3, [fp, #-20]	; 0xffffffec
    8298:	e5832000 	str	r2, [r3]
/home/silhavyj/School/ZeroMate/examples/10-timer_and_GPIO_interrupt/kernel/src/drivers/gpio.cpp:41

    return true;
    829c:	e3a03001 	mov	r3, #1
/home/silhavyj/School/ZeroMate/examples/10-timer_and_GPIO_interrupt/kernel/src/drivers/gpio.cpp:42
}
    82a0:	e1a00003 	mov	r0, r3
    82a4:	e28bd000 	add	sp, fp, #0
    82a8:	e49db004 	pop	{fp}		; (ldr fp, [sp], #4)
    82ac:	e12fff1e 	bx	lr
    82b0:	cccccccd 	stclgt	12, cr12, [ip], {205}	; 0xcd

000082b4 <_ZNK13CGPIO_Handler18Get_GPCLR_LocationEjRjS0_>:
_ZNK13CGPIO_Handler18Get_GPCLR_LocationEjRjS0_():
/home/silhavyj/School/ZeroMate/examples/10-timer_and_GPIO_interrupt/kernel/src/drivers/gpio.cpp:45

bool CGPIO_Handler::Get_GPCLR_Location(uint32_t pin, uint32_t& reg, uint32_t& bit_idx) const
{
    82b4:	e52db004 	push	{fp}		; (str fp, [sp, #-4]!)
    82b8:	e28db000 	add	fp, sp, #0
    82bc:	e24dd014 	sub	sp, sp, #20
    82c0:	e50b0008 	str	r0, [fp, #-8]
    82c4:	e50b100c 	str	r1, [fp, #-12]
    82c8:	e50b2010 	str	r2, [fp, #-16]
    82cc:	e50b3014 	str	r3, [fp, #-20]	; 0xffffffec
/home/silhavyj/School/ZeroMate/examples/10-timer_and_GPIO_interrupt/kernel/src/drivers/gpio.cpp:46
    if (pin > hal::GPIO_Pin_Count)
    82d0:	e51b300c 	ldr	r3, [fp, #-12]
    82d4:	e3530036 	cmp	r3, #54	; 0x36
    82d8:	9a000001 	bls	82e4 <_ZNK13CGPIO_Handler18Get_GPCLR_LocationEjRjS0_+0x30>
/home/silhavyj/School/ZeroMate/examples/10-timer_and_GPIO_interrupt/kernel/src/drivers/gpio.cpp:47
        return false;
    82dc:	e3a03000 	mov	r3, #0
    82e0:	ea00000c 	b	8318 <_ZNK13CGPIO_Handler18Get_GPCLR_LocationEjRjS0_+0x64>
/home/silhavyj/School/ZeroMate/examples/10-timer_and_GPIO_interrupt/kernel/src/drivers/gpio.cpp:49

    reg = static_cast<uint32_t>((pin < 32) ? hal::GPIO_Reg::GPCLR0 : hal::GPIO_Reg::GPCLR1);
    82e4:	e51b300c 	ldr	r3, [fp, #-12]
    82e8:	e353001f 	cmp	r3, #31
    82ec:	8a000001 	bhi	82f8 <_ZNK13CGPIO_Handler18Get_GPCLR_LocationEjRjS0_+0x44>
/home/silhavyj/School/ZeroMate/examples/10-timer_and_GPIO_interrupt/kernel/src/drivers/gpio.cpp:49 (discriminator 1)
    82f0:	e3a0200a 	mov	r2, #10
    82f4:	ea000000 	b	82fc <_ZNK13CGPIO_Handler18Get_GPCLR_LocationEjRjS0_+0x48>
/home/silhavyj/School/ZeroMate/examples/10-timer_and_GPIO_interrupt/kernel/src/drivers/gpio.cpp:49 (discriminator 2)
    82f8:	e3a0200b 	mov	r2, #11
/home/silhavyj/School/ZeroMate/examples/10-timer_and_GPIO_interrupt/kernel/src/drivers/gpio.cpp:49 (discriminator 4)
    82fc:	e51b3010 	ldr	r3, [fp, #-16]
    8300:	e5832000 	str	r2, [r3]
/home/silhavyj/School/ZeroMate/examples/10-timer_and_GPIO_interrupt/kernel/src/drivers/gpio.cpp:50 (discriminator 4)
    bit_idx = pin % 32;
    8304:	e51b300c 	ldr	r3, [fp, #-12]
    8308:	e203201f 	and	r2, r3, #31
    830c:	e51b3014 	ldr	r3, [fp, #-20]	; 0xffffffec
    8310:	e5832000 	str	r2, [r3]
/home/silhavyj/School/ZeroMate/examples/10-timer_and_GPIO_interrupt/kernel/src/drivers/gpio.cpp:52 (discriminator 4)

    return true;
    8314:	e3a03001 	mov	r3, #1
/home/silhavyj/School/ZeroMate/examples/10-timer_and_GPIO_interrupt/kernel/src/drivers/gpio.cpp:53
}
    8318:	e1a00003 	mov	r0, r3
    831c:	e28bd000 	add	sp, fp, #0
    8320:	e49db004 	pop	{fp}		; (ldr fp, [sp], #4)
    8324:	e12fff1e 	bx	lr

00008328 <_ZNK13CGPIO_Handler18Get_GPSET_LocationEjRjS0_>:
_ZNK13CGPIO_Handler18Get_GPSET_LocationEjRjS0_():
/home/silhavyj/School/ZeroMate/examples/10-timer_and_GPIO_interrupt/kernel/src/drivers/gpio.cpp:56

bool CGPIO_Handler::Get_GPSET_Location(uint32_t pin, uint32_t& reg, uint32_t& bit_idx) const
{
    8328:	e52db004 	push	{fp}		; (str fp, [sp, #-4]!)
    832c:	e28db000 	add	fp, sp, #0
    8330:	e24dd014 	sub	sp, sp, #20
    8334:	e50b0008 	str	r0, [fp, #-8]
    8338:	e50b100c 	str	r1, [fp, #-12]
    833c:	e50b2010 	str	r2, [fp, #-16]
    8340:	e50b3014 	str	r3, [fp, #-20]	; 0xffffffec
/home/silhavyj/School/ZeroMate/examples/10-timer_and_GPIO_interrupt/kernel/src/drivers/gpio.cpp:57
    if (pin > hal::GPIO_Pin_Count)
    8344:	e51b300c 	ldr	r3, [fp, #-12]
    8348:	e3530036 	cmp	r3, #54	; 0x36
    834c:	9a000001 	bls	8358 <_ZNK13CGPIO_Handler18Get_GPSET_LocationEjRjS0_+0x30>
/home/silhavyj/School/ZeroMate/examples/10-timer_and_GPIO_interrupt/kernel/src/drivers/gpio.cpp:58
        return false;
    8350:	e3a03000 	mov	r3, #0
    8354:	ea00000c 	b	838c <_ZNK13CGPIO_Handler18Get_GPSET_LocationEjRjS0_+0x64>
/home/silhavyj/School/ZeroMate/examples/10-timer_and_GPIO_interrupt/kernel/src/drivers/gpio.cpp:60

    reg = static_cast<uint32_t>((pin < 32) ? hal::GPIO_Reg::GPSET0 : hal::GPIO_Reg::GPSET1);
    8358:	e51b300c 	ldr	r3, [fp, #-12]
    835c:	e353001f 	cmp	r3, #31
    8360:	8a000001 	bhi	836c <_ZNK13CGPIO_Handler18Get_GPSET_LocationEjRjS0_+0x44>
/home/silhavyj/School/ZeroMate/examples/10-timer_and_GPIO_interrupt/kernel/src/drivers/gpio.cpp:60 (discriminator 1)
    8364:	e3a02007 	mov	r2, #7
    8368:	ea000000 	b	8370 <_ZNK13CGPIO_Handler18Get_GPSET_LocationEjRjS0_+0x48>
/home/silhavyj/School/ZeroMate/examples/10-timer_and_GPIO_interrupt/kernel/src/drivers/gpio.cpp:60 (discriminator 2)
    836c:	e3a02008 	mov	r2, #8
/home/silhavyj/School/ZeroMate/examples/10-timer_and_GPIO_interrupt/kernel/src/drivers/gpio.cpp:60 (discriminator 4)
    8370:	e51b3010 	ldr	r3, [fp, #-16]
    8374:	e5832000 	str	r2, [r3]
/home/silhavyj/School/ZeroMate/examples/10-timer_and_GPIO_interrupt/kernel/src/drivers/gpio.cpp:61 (discriminator 4)
    bit_idx = pin % 32;
    8378:	e51b300c 	ldr	r3, [fp, #-12]
    837c:	e203201f 	and	r2, r3, #31
    8380:	e51b3014 	ldr	r3, [fp, #-20]	; 0xffffffec
    8384:	e5832000 	str	r2, [r3]
/home/silhavyj/School/ZeroMate/examples/10-timer_and_GPIO_interrupt/kernel/src/drivers/gpio.cpp:63 (discriminator 4)

    return true;
    8388:	e3a03001 	mov	r3, #1
/home/silhavyj/School/ZeroMate/examples/10-timer_and_GPIO_interrupt/kernel/src/drivers/gpio.cpp:64
}
    838c:	e1a00003 	mov	r0, r3
    8390:	e28bd000 	add	sp, fp, #0
    8394:	e49db004 	pop	{fp}		; (ldr fp, [sp], #4)
    8398:	e12fff1e 	bx	lr

0000839c <_ZNK13CGPIO_Handler18Get_GPLEV_LocationEjRjS0_>:
_ZNK13CGPIO_Handler18Get_GPLEV_LocationEjRjS0_():
/home/silhavyj/School/ZeroMate/examples/10-timer_and_GPIO_interrupt/kernel/src/drivers/gpio.cpp:67

bool CGPIO_Handler::Get_GPLEV_Location(uint32_t pin, uint32_t& reg, uint32_t& bit_idx) const
{
    839c:	e52db004 	push	{fp}		; (str fp, [sp, #-4]!)
    83a0:	e28db000 	add	fp, sp, #0
    83a4:	e24dd014 	sub	sp, sp, #20
    83a8:	e50b0008 	str	r0, [fp, #-8]
    83ac:	e50b100c 	str	r1, [fp, #-12]
    83b0:	e50b2010 	str	r2, [fp, #-16]
    83b4:	e50b3014 	str	r3, [fp, #-20]	; 0xffffffec
/home/silhavyj/School/ZeroMate/examples/10-timer_and_GPIO_interrupt/kernel/src/drivers/gpio.cpp:68
    if (pin > hal::GPIO_Pin_Count)
    83b8:	e51b300c 	ldr	r3, [fp, #-12]
    83bc:	e3530036 	cmp	r3, #54	; 0x36
    83c0:	9a000001 	bls	83cc <_ZNK13CGPIO_Handler18Get_GPLEV_LocationEjRjS0_+0x30>
/home/silhavyj/School/ZeroMate/examples/10-timer_and_GPIO_interrupt/kernel/src/drivers/gpio.cpp:69
        return false;
    83c4:	e3a03000 	mov	r3, #0
    83c8:	ea00000c 	b	8400 <_ZNK13CGPIO_Handler18Get_GPLEV_LocationEjRjS0_+0x64>
/home/silhavyj/School/ZeroMate/examples/10-timer_and_GPIO_interrupt/kernel/src/drivers/gpio.cpp:71

    reg = static_cast<uint32_t>((pin < 32) ? hal::GPIO_Reg::GPLEV0 : hal::GPIO_Reg::GPLEV1);
    83cc:	e51b300c 	ldr	r3, [fp, #-12]
    83d0:	e353001f 	cmp	r3, #31
    83d4:	8a000001 	bhi	83e0 <_ZNK13CGPIO_Handler18Get_GPLEV_LocationEjRjS0_+0x44>
/home/silhavyj/School/ZeroMate/examples/10-timer_and_GPIO_interrupt/kernel/src/drivers/gpio.cpp:71 (discriminator 1)
    83d8:	e3a0200d 	mov	r2, #13
    83dc:	ea000000 	b	83e4 <_ZNK13CGPIO_Handler18Get_GPLEV_LocationEjRjS0_+0x48>
/home/silhavyj/School/ZeroMate/examples/10-timer_and_GPIO_interrupt/kernel/src/drivers/gpio.cpp:71 (discriminator 2)
    83e0:	e3a0200e 	mov	r2, #14
/home/silhavyj/School/ZeroMate/examples/10-timer_and_GPIO_interrupt/kernel/src/drivers/gpio.cpp:71 (discriminator 4)
    83e4:	e51b3010 	ldr	r3, [fp, #-16]
    83e8:	e5832000 	str	r2, [r3]
/home/silhavyj/School/ZeroMate/examples/10-timer_and_GPIO_interrupt/kernel/src/drivers/gpio.cpp:72 (discriminator 4)
    bit_idx = pin % 32;
    83ec:	e51b300c 	ldr	r3, [fp, #-12]
    83f0:	e203201f 	and	r2, r3, #31
    83f4:	e51b3014 	ldr	r3, [fp, #-20]	; 0xffffffec
    83f8:	e5832000 	str	r2, [r3]
/home/silhavyj/School/ZeroMate/examples/10-timer_and_GPIO_interrupt/kernel/src/drivers/gpio.cpp:74 (discriminator 4)

    return true;
    83fc:	e3a03001 	mov	r3, #1
/home/silhavyj/School/ZeroMate/examples/10-timer_and_GPIO_interrupt/kernel/src/drivers/gpio.cpp:75
}
    8400:	e1a00003 	mov	r0, r3
    8404:	e28bd000 	add	sp, fp, #0
    8408:	e49db004 	pop	{fp}		; (ldr fp, [sp], #4)
    840c:	e12fff1e 	bx	lr

00008410 <_ZN13CGPIO_Handler17Set_GPIO_FunctionEj14NGPIO_Function>:
_ZN13CGPIO_Handler17Set_GPIO_FunctionEj14NGPIO_Function():
/home/silhavyj/School/ZeroMate/examples/10-timer_and_GPIO_interrupt/kernel/src/drivers/gpio.cpp:78

void CGPIO_Handler::Set_GPIO_Function(uint32_t pin, NGPIO_Function func)
{
    8410:	e92d4800 	push	{fp, lr}
    8414:	e28db004 	add	fp, sp, #4
    8418:	e24dd018 	sub	sp, sp, #24
    841c:	e50b0010 	str	r0, [fp, #-16]
    8420:	e50b1014 	str	r1, [fp, #-20]	; 0xffffffec
    8424:	e1a03002 	mov	r3, r2
    8428:	e54b3015 	strb	r3, [fp, #-21]	; 0xffffffeb
/home/silhavyj/School/ZeroMate/examples/10-timer_and_GPIO_interrupt/kernel/src/drivers/gpio.cpp:80
    uint32_t reg, bit;
    if (!Get_GPFSEL_Location(pin, reg, bit))
    842c:	e24b300c 	sub	r3, fp, #12
    8430:	e24b2008 	sub	r2, fp, #8
    8434:	e51b1014 	ldr	r1, [fp, #-20]	; 0xffffffec
    8438:	e51b0010 	ldr	r0, [fp, #-16]
    843c:	ebffff57 	bl	81a0 <_ZNK13CGPIO_Handler19Get_GPFSEL_LocationEjRjS0_>
    8440:	e1a03000 	mov	r3, r0
    8444:	e2233001 	eor	r3, r3, #1
    8448:	e6ef3073 	uxtb	r3, r3
    844c:	e3530000 	cmp	r3, #0
    8450:	1a000015 	bne	84ac <_ZN13CGPIO_Handler17Set_GPIO_FunctionEj14NGPIO_Function+0x9c>
/home/silhavyj/School/ZeroMate/examples/10-timer_and_GPIO_interrupt/kernel/src/drivers/gpio.cpp:83
        return;

    mGPIO[reg] = (mGPIO[reg] & (~static_cast<unsigned int>(7 << bit))) | (static_cast<unsigned int>(func) << bit);
    8454:	e51b3010 	ldr	r3, [fp, #-16]
    8458:	e5932000 	ldr	r2, [r3]
    845c:	e51b3008 	ldr	r3, [fp, #-8]
    8460:	e1a03103 	lsl	r3, r3, #2
    8464:	e0823003 	add	r3, r2, r3
    8468:	e5932000 	ldr	r2, [r3]
    846c:	e51b300c 	ldr	r3, [fp, #-12]
    8470:	e3a01007 	mov	r1, #7
    8474:	e1a03311 	lsl	r3, r1, r3
    8478:	e1e03003 	mvn	r3, r3
    847c:	e0021003 	and	r1, r2, r3
    8480:	e55b2015 	ldrb	r2, [fp, #-21]	; 0xffffffeb
    8484:	e51b300c 	ldr	r3, [fp, #-12]
    8488:	e1a02312 	lsl	r2, r2, r3
    848c:	e51b3010 	ldr	r3, [fp, #-16]
    8490:	e5930000 	ldr	r0, [r3]
    8494:	e51b3008 	ldr	r3, [fp, #-8]
    8498:	e1a03103 	lsl	r3, r3, #2
    849c:	e0803003 	add	r3, r0, r3
    84a0:	e1812002 	orr	r2, r1, r2
    84a4:	e5832000 	str	r2, [r3]
    84a8:	ea000000 	b	84b0 <_ZN13CGPIO_Handler17Set_GPIO_FunctionEj14NGPIO_Function+0xa0>
/home/silhavyj/School/ZeroMate/examples/10-timer_and_GPIO_interrupt/kernel/src/drivers/gpio.cpp:81
        return;
    84ac:	e320f000 	nop	{0}
/home/silhavyj/School/ZeroMate/examples/10-timer_and_GPIO_interrupt/kernel/src/drivers/gpio.cpp:84
}
    84b0:	e24bd004 	sub	sp, fp, #4
    84b4:	e8bd8800 	pop	{fp, pc}

000084b8 <_ZNK13CGPIO_Handler17Get_GPIO_FunctionEj>:
_ZNK13CGPIO_Handler17Get_GPIO_FunctionEj():
/home/silhavyj/School/ZeroMate/examples/10-timer_and_GPIO_interrupt/kernel/src/drivers/gpio.cpp:87

NGPIO_Function CGPIO_Handler::Get_GPIO_Function(uint32_t pin) const
{
    84b8:	e92d4800 	push	{fp, lr}
    84bc:	e28db004 	add	fp, sp, #4
    84c0:	e24dd010 	sub	sp, sp, #16
    84c4:	e50b0010 	str	r0, [fp, #-16]
    84c8:	e50b1014 	str	r1, [fp, #-20]	; 0xffffffec
/home/silhavyj/School/ZeroMate/examples/10-timer_and_GPIO_interrupt/kernel/src/drivers/gpio.cpp:89
    uint32_t reg, bit;
    if (!Get_GPFSEL_Location(pin, reg, bit))
    84cc:	e24b300c 	sub	r3, fp, #12
    84d0:	e24b2008 	sub	r2, fp, #8
    84d4:	e51b1014 	ldr	r1, [fp, #-20]	; 0xffffffec
    84d8:	e51b0010 	ldr	r0, [fp, #-16]
    84dc:	ebffff2f 	bl	81a0 <_ZNK13CGPIO_Handler19Get_GPFSEL_LocationEjRjS0_>
    84e0:	e1a03000 	mov	r3, r0
    84e4:	e2233001 	eor	r3, r3, #1
    84e8:	e6ef3073 	uxtb	r3, r3
    84ec:	e3530000 	cmp	r3, #0
    84f0:	0a000001 	beq	84fc <_ZNK13CGPIO_Handler17Get_GPIO_FunctionEj+0x44>
/home/silhavyj/School/ZeroMate/examples/10-timer_and_GPIO_interrupt/kernel/src/drivers/gpio.cpp:90
        return NGPIO_Function::Unspecified;
    84f4:	e3a03008 	mov	r3, #8
    84f8:	ea00000a 	b	8528 <_ZNK13CGPIO_Handler17Get_GPIO_FunctionEj+0x70>
/home/silhavyj/School/ZeroMate/examples/10-timer_and_GPIO_interrupt/kernel/src/drivers/gpio.cpp:92

    return static_cast<NGPIO_Function>((mGPIO[reg] >> bit) & 7);
    84fc:	e51b3010 	ldr	r3, [fp, #-16]
    8500:	e5932000 	ldr	r2, [r3]
    8504:	e51b3008 	ldr	r3, [fp, #-8]
    8508:	e1a03103 	lsl	r3, r3, #2
    850c:	e0823003 	add	r3, r2, r3
    8510:	e5932000 	ldr	r2, [r3]
    8514:	e51b300c 	ldr	r3, [fp, #-12]
    8518:	e1a03332 	lsr	r3, r2, r3
    851c:	e6ef3073 	uxtb	r3, r3
    8520:	e2033007 	and	r3, r3, #7
    8524:	e6ef3073 	uxtb	r3, r3
/home/silhavyj/School/ZeroMate/examples/10-timer_and_GPIO_interrupt/kernel/src/drivers/gpio.cpp:93 (discriminator 1)
}
    8528:	e1a00003 	mov	r0, r3
    852c:	e24bd004 	sub	sp, fp, #4
    8530:	e8bd8800 	pop	{fp, pc}

00008534 <_ZN13CGPIO_Handler19Enable_Event_DetectEj20NGPIO_Interrupt_Type>:
_ZN13CGPIO_Handler19Enable_Event_DetectEj20NGPIO_Interrupt_Type():
/home/silhavyj/School/ZeroMate/examples/10-timer_and_GPIO_interrupt/kernel/src/drivers/gpio.cpp:96

void CGPIO_Handler::Enable_Event_Detect(uint32_t pin, NGPIO_Interrupt_Type type)
{
    8534:	e92d4800 	push	{fp, lr}
    8538:	e28db004 	add	fp, sp, #4
    853c:	e24dd020 	sub	sp, sp, #32
    8540:	e50b0010 	str	r0, [fp, #-16]
    8544:	e50b1014 	str	r1, [fp, #-20]	; 0xffffffec
    8548:	e50b2018 	str	r2, [fp, #-24]	; 0xffffffe8
/home/silhavyj/School/ZeroMate/examples/10-timer_and_GPIO_interrupt/kernel/src/drivers/gpio.cpp:98
    uint32_t reg, bit;
    if (!Get_GP_IRQ_Detect_Location(pin, type, reg, bit))
    854c:	e24b2008 	sub	r2, fp, #8
    8550:	e24b300c 	sub	r3, fp, #12
    8554:	e58d3000 	str	r3, [sp]
    8558:	e1a03002 	mov	r3, r2
    855c:	e51b2018 	ldr	r2, [fp, #-24]	; 0xffffffe8
    8560:	e51b1014 	ldr	r1, [fp, #-20]	; 0xffffffec
    8564:	e51b0010 	ldr	r0, [fp, #-16]
    8568:	eb000012 	bl	85b8 <_ZNK13CGPIO_Handler26Get_GP_IRQ_Detect_LocationEj20NGPIO_Interrupt_TypeRjS1_>
    856c:	e1a03000 	mov	r3, r0
    8570:	e2233001 	eor	r3, r3, #1
    8574:	e6ef3073 	uxtb	r3, r3
    8578:	e3530000 	cmp	r3, #0
    857c:	1a00000a 	bne	85ac <_ZN13CGPIO_Handler19Enable_Event_DetectEj20NGPIO_Interrupt_Type+0x78>
/home/silhavyj/School/ZeroMate/examples/10-timer_and_GPIO_interrupt/kernel/src/drivers/gpio.cpp:101
        return;

    mGPIO[reg] = (1 << bit);
    8580:	e51b300c 	ldr	r3, [fp, #-12]
    8584:	e3a02001 	mov	r2, #1
    8588:	e1a01312 	lsl	r1, r2, r3
    858c:	e51b3010 	ldr	r3, [fp, #-16]
    8590:	e5932000 	ldr	r2, [r3]
    8594:	e51b3008 	ldr	r3, [fp, #-8]
    8598:	e1a03103 	lsl	r3, r3, #2
    859c:	e0823003 	add	r3, r2, r3
    85a0:	e1a02001 	mov	r2, r1
    85a4:	e5832000 	str	r2, [r3]
    85a8:	ea000000 	b	85b0 <_ZN13CGPIO_Handler19Enable_Event_DetectEj20NGPIO_Interrupt_Type+0x7c>
/home/silhavyj/School/ZeroMate/examples/10-timer_and_GPIO_interrupt/kernel/src/drivers/gpio.cpp:99
        return;
    85ac:	e320f000 	nop	{0}
/home/silhavyj/School/ZeroMate/examples/10-timer_and_GPIO_interrupt/kernel/src/drivers/gpio.cpp:108
    // TODO: vyresit tohle trochu lepe
    // sInterruptCtl.Enable_IRQ(hal::IRQ_Source::GPIO_0);
    // sInterruptCtl.Enable_IRQ(hal::IRQ_Source::GPIO_1);
    // sInterruptCtl.Enable_IRQ(hal::IRQ_Source::GPIO_2);
    // sInterruptCtl.Enable_IRQ(hal::IRQ_Source::GPIO_3);
}
    85b0:	e24bd004 	sub	sp, fp, #4
    85b4:	e8bd8800 	pop	{fp, pc}

000085b8 <_ZNK13CGPIO_Handler26Get_GP_IRQ_Detect_LocationEj20NGPIO_Interrupt_TypeRjS1_>:
_ZNK13CGPIO_Handler26Get_GP_IRQ_Detect_LocationEj20NGPIO_Interrupt_TypeRjS1_():
/home/silhavyj/School/ZeroMate/examples/10-timer_and_GPIO_interrupt/kernel/src/drivers/gpio.cpp:111

bool CGPIO_Handler::Get_GP_IRQ_Detect_Location(uint32_t pin, NGPIO_Interrupt_Type type, uint32_t& reg, uint32_t& bit_idx) const
{
    85b8:	e52db004 	push	{fp}		; (str fp, [sp, #-4]!)
    85bc:	e28db000 	add	fp, sp, #0
    85c0:	e24dd014 	sub	sp, sp, #20
    85c4:	e50b0008 	str	r0, [fp, #-8]
    85c8:	e50b100c 	str	r1, [fp, #-12]
    85cc:	e50b2010 	str	r2, [fp, #-16]
    85d0:	e50b3014 	str	r3, [fp, #-20]	; 0xffffffec
/home/silhavyj/School/ZeroMate/examples/10-timer_and_GPIO_interrupt/kernel/src/drivers/gpio.cpp:112
    if (pin > hal::GPIO_Pin_Count)
    85d4:	e51b300c 	ldr	r3, [fp, #-12]
    85d8:	e3530036 	cmp	r3, #54	; 0x36
    85dc:	9a000001 	bls	85e8 <_ZNK13CGPIO_Handler26Get_GP_IRQ_Detect_LocationEj20NGPIO_Interrupt_TypeRjS1_+0x30>
/home/silhavyj/School/ZeroMate/examples/10-timer_and_GPIO_interrupt/kernel/src/drivers/gpio.cpp:113
        return false;
    85e0:	e3a03000 	mov	r3, #0
    85e4:	ea000032 	b	86b4 <_ZNK13CGPIO_Handler26Get_GP_IRQ_Detect_LocationEj20NGPIO_Interrupt_TypeRjS1_+0xfc>
/home/silhavyj/School/ZeroMate/examples/10-timer_and_GPIO_interrupt/kernel/src/drivers/gpio.cpp:115

    bit_idx = pin % 32;
    85e8:	e51b300c 	ldr	r3, [fp, #-12]
    85ec:	e203201f 	and	r2, r3, #31
    85f0:	e59b3004 	ldr	r3, [fp, #4]
    85f4:	e5832000 	str	r2, [r3]
    85f8:	e51b3010 	ldr	r3, [fp, #-16]
    85fc:	e3530003 	cmp	r3, #3
    8600:	979ff103 	ldrls	pc, [pc, r3, lsl #2]
    8604:	ea000027 	b	86a8 <_ZNK13CGPIO_Handler26Get_GP_IRQ_Detect_LocationEj20NGPIO_Interrupt_TypeRjS1_+0xf0>
    8608:	00008618 	andeq	r8, r0, r8, lsl r6
    860c:	0000863c 	andeq	r8, r0, ip, lsr r6
    8610:	00008660 	andeq	r8, r0, r0, ror #12
    8614:	00008684 	andeq	r8, r0, r4, lsl #13
/home/silhavyj/School/ZeroMate/examples/10-timer_and_GPIO_interrupt/kernel/src/drivers/gpio.cpp:120

    switch (type)
    {
        case NGPIO_Interrupt_Type::Rising_Edge:
            reg = static_cast<uint32_t>((pin < 32) ? hal::GPIO_Reg::GPREN0 : hal::GPIO_Reg::GPREN1);
    8618:	e51b300c 	ldr	r3, [fp, #-12]
    861c:	e353001f 	cmp	r3, #31
    8620:	8a000001 	bhi	862c <_ZNK13CGPIO_Handler26Get_GP_IRQ_Detect_LocationEj20NGPIO_Interrupt_TypeRjS1_+0x74>
/home/silhavyj/School/ZeroMate/examples/10-timer_and_GPIO_interrupt/kernel/src/drivers/gpio.cpp:120 (discriminator 1)
    8624:	e3a02013 	mov	r2, #19
    8628:	ea000000 	b	8630 <_ZNK13CGPIO_Handler26Get_GP_IRQ_Detect_LocationEj20NGPIO_Interrupt_TypeRjS1_+0x78>
/home/silhavyj/School/ZeroMate/examples/10-timer_and_GPIO_interrupt/kernel/src/drivers/gpio.cpp:120 (discriminator 2)
    862c:	e3a02014 	mov	r2, #20
/home/silhavyj/School/ZeroMate/examples/10-timer_and_GPIO_interrupt/kernel/src/drivers/gpio.cpp:120 (discriminator 4)
    8630:	e51b3014 	ldr	r3, [fp, #-20]	; 0xffffffec
    8634:	e5832000 	str	r2, [r3]
/home/silhavyj/School/ZeroMate/examples/10-timer_and_GPIO_interrupt/kernel/src/drivers/gpio.cpp:121 (discriminator 4)
            break;
    8638:	ea00001c 	b	86b0 <_ZNK13CGPIO_Handler26Get_GP_IRQ_Detect_LocationEj20NGPIO_Interrupt_TypeRjS1_+0xf8>
/home/silhavyj/School/ZeroMate/examples/10-timer_and_GPIO_interrupt/kernel/src/drivers/gpio.cpp:123
        case NGPIO_Interrupt_Type::Falling_Edge:
            reg = static_cast<uint32_t>((pin < 32) ? hal::GPIO_Reg::GPFEN0 : hal::GPIO_Reg::GPFEN1);
    863c:	e51b300c 	ldr	r3, [fp, #-12]
    8640:	e353001f 	cmp	r3, #31
    8644:	8a000001 	bhi	8650 <_ZNK13CGPIO_Handler26Get_GP_IRQ_Detect_LocationEj20NGPIO_Interrupt_TypeRjS1_+0x98>
/home/silhavyj/School/ZeroMate/examples/10-timer_and_GPIO_interrupt/kernel/src/drivers/gpio.cpp:123 (discriminator 1)
    8648:	e3a02016 	mov	r2, #22
    864c:	ea000000 	b	8654 <_ZNK13CGPIO_Handler26Get_GP_IRQ_Detect_LocationEj20NGPIO_Interrupt_TypeRjS1_+0x9c>
/home/silhavyj/School/ZeroMate/examples/10-timer_and_GPIO_interrupt/kernel/src/drivers/gpio.cpp:123 (discriminator 2)
    8650:	e3a02017 	mov	r2, #23
/home/silhavyj/School/ZeroMate/examples/10-timer_and_GPIO_interrupt/kernel/src/drivers/gpio.cpp:123 (discriminator 4)
    8654:	e51b3014 	ldr	r3, [fp, #-20]	; 0xffffffec
    8658:	e5832000 	str	r2, [r3]
/home/silhavyj/School/ZeroMate/examples/10-timer_and_GPIO_interrupt/kernel/src/drivers/gpio.cpp:124 (discriminator 4)
            break;
    865c:	ea000013 	b	86b0 <_ZNK13CGPIO_Handler26Get_GP_IRQ_Detect_LocationEj20NGPIO_Interrupt_TypeRjS1_+0xf8>
/home/silhavyj/School/ZeroMate/examples/10-timer_and_GPIO_interrupt/kernel/src/drivers/gpio.cpp:126
        case NGPIO_Interrupt_Type::High:
            reg = static_cast<uint32_t>((pin < 32) ? hal::GPIO_Reg::GPHEN0 : hal::GPIO_Reg::GPHEN1);
    8660:	e51b300c 	ldr	r3, [fp, #-12]
    8664:	e353001f 	cmp	r3, #31
    8668:	8a000001 	bhi	8674 <_ZNK13CGPIO_Handler26Get_GP_IRQ_Detect_LocationEj20NGPIO_Interrupt_TypeRjS1_+0xbc>
/home/silhavyj/School/ZeroMate/examples/10-timer_and_GPIO_interrupt/kernel/src/drivers/gpio.cpp:126 (discriminator 1)
    866c:	e3a02019 	mov	r2, #25
    8670:	ea000000 	b	8678 <_ZNK13CGPIO_Handler26Get_GP_IRQ_Detect_LocationEj20NGPIO_Interrupt_TypeRjS1_+0xc0>
/home/silhavyj/School/ZeroMate/examples/10-timer_and_GPIO_interrupt/kernel/src/drivers/gpio.cpp:126 (discriminator 2)
    8674:	e3a0201a 	mov	r2, #26
/home/silhavyj/School/ZeroMate/examples/10-timer_and_GPIO_interrupt/kernel/src/drivers/gpio.cpp:126 (discriminator 4)
    8678:	e51b3014 	ldr	r3, [fp, #-20]	; 0xffffffec
    867c:	e5832000 	str	r2, [r3]
/home/silhavyj/School/ZeroMate/examples/10-timer_and_GPIO_interrupt/kernel/src/drivers/gpio.cpp:127 (discriminator 4)
            break;
    8680:	ea00000a 	b	86b0 <_ZNK13CGPIO_Handler26Get_GP_IRQ_Detect_LocationEj20NGPIO_Interrupt_TypeRjS1_+0xf8>
/home/silhavyj/School/ZeroMate/examples/10-timer_and_GPIO_interrupt/kernel/src/drivers/gpio.cpp:129
        case NGPIO_Interrupt_Type::Low:
            reg = static_cast<uint32_t>((pin < 32) ? hal::GPIO_Reg::GPLEN0 : hal::GPIO_Reg::GPLEN1);
    8684:	e51b300c 	ldr	r3, [fp, #-12]
    8688:	e353001f 	cmp	r3, #31
    868c:	8a000001 	bhi	8698 <_ZNK13CGPIO_Handler26Get_GP_IRQ_Detect_LocationEj20NGPIO_Interrupt_TypeRjS1_+0xe0>
/home/silhavyj/School/ZeroMate/examples/10-timer_and_GPIO_interrupt/kernel/src/drivers/gpio.cpp:129 (discriminator 1)
    8690:	e3a0201c 	mov	r2, #28
    8694:	ea000000 	b	869c <_ZNK13CGPIO_Handler26Get_GP_IRQ_Detect_LocationEj20NGPIO_Interrupt_TypeRjS1_+0xe4>
/home/silhavyj/School/ZeroMate/examples/10-timer_and_GPIO_interrupt/kernel/src/drivers/gpio.cpp:129 (discriminator 2)
    8698:	e3a0201d 	mov	r2, #29
/home/silhavyj/School/ZeroMate/examples/10-timer_and_GPIO_interrupt/kernel/src/drivers/gpio.cpp:129 (discriminator 4)
    869c:	e51b3014 	ldr	r3, [fp, #-20]	; 0xffffffec
    86a0:	e5832000 	str	r2, [r3]
/home/silhavyj/School/ZeroMate/examples/10-timer_and_GPIO_interrupt/kernel/src/drivers/gpio.cpp:130 (discriminator 4)
            break;
    86a4:	ea000001 	b	86b0 <_ZNK13CGPIO_Handler26Get_GP_IRQ_Detect_LocationEj20NGPIO_Interrupt_TypeRjS1_+0xf8>
/home/silhavyj/School/ZeroMate/examples/10-timer_and_GPIO_interrupt/kernel/src/drivers/gpio.cpp:132
        default:
            return false;
    86a8:	e3a03000 	mov	r3, #0
    86ac:	ea000000 	b	86b4 <_ZNK13CGPIO_Handler26Get_GP_IRQ_Detect_LocationEj20NGPIO_Interrupt_TypeRjS1_+0xfc>
/home/silhavyj/School/ZeroMate/examples/10-timer_and_GPIO_interrupt/kernel/src/drivers/gpio.cpp:135
    }

    return true;
    86b0:	e3a03001 	mov	r3, #1
/home/silhavyj/School/ZeroMate/examples/10-timer_and_GPIO_interrupt/kernel/src/drivers/gpio.cpp:136
}
    86b4:	e1a00003 	mov	r0, r3
    86b8:	e28bd000 	add	sp, fp, #0
    86bc:	e49db004 	pop	{fp}		; (ldr fp, [sp], #4)
    86c0:	e12fff1e 	bx	lr

000086c4 <_ZN13CGPIO_Handler20Disable_Event_DetectEj20NGPIO_Interrupt_Type>:
_ZN13CGPIO_Handler20Disable_Event_DetectEj20NGPIO_Interrupt_Type():
/home/silhavyj/School/ZeroMate/examples/10-timer_and_GPIO_interrupt/kernel/src/drivers/gpio.cpp:139

void CGPIO_Handler::Disable_Event_Detect(uint32_t pin, NGPIO_Interrupt_Type type)
{
    86c4:	e92d4800 	push	{fp, lr}
    86c8:	e28db004 	add	fp, sp, #4
    86cc:	e24dd028 	sub	sp, sp, #40	; 0x28
    86d0:	e50b0018 	str	r0, [fp, #-24]	; 0xffffffe8
    86d4:	e50b101c 	str	r1, [fp, #-28]	; 0xffffffe4
    86d8:	e50b2020 	str	r2, [fp, #-32]	; 0xffffffe0
/home/silhavyj/School/ZeroMate/examples/10-timer_and_GPIO_interrupt/kernel/src/drivers/gpio.cpp:141
    uint32_t reg, bit;
    if (!Get_GP_IRQ_Detect_Location(pin, type, reg, bit))
    86dc:	e24b200c 	sub	r2, fp, #12
    86e0:	e24b3010 	sub	r3, fp, #16
    86e4:	e58d3000 	str	r3, [sp]
    86e8:	e1a03002 	mov	r3, r2
    86ec:	e51b2020 	ldr	r2, [fp, #-32]	; 0xffffffe0
    86f0:	e51b101c 	ldr	r1, [fp, #-28]	; 0xffffffe4
    86f4:	e51b0018 	ldr	r0, [fp, #-24]	; 0xffffffe8
    86f8:	ebffffae 	bl	85b8 <_ZNK13CGPIO_Handler26Get_GP_IRQ_Detect_LocationEj20NGPIO_Interrupt_TypeRjS1_>
    86fc:	e1a03000 	mov	r3, r0
    8700:	e2233001 	eor	r3, r3, #1
    8704:	e6ef3073 	uxtb	r3, r3
    8708:	e3530000 	cmp	r3, #0
    870c:	1a000016 	bne	876c <_ZN13CGPIO_Handler20Disable_Event_DetectEj20NGPIO_Interrupt_Type+0xa8>
/home/silhavyj/School/ZeroMate/examples/10-timer_and_GPIO_interrupt/kernel/src/drivers/gpio.cpp:144
        return;

    uint32_t val = mGPIO[reg];
    8710:	e51b3018 	ldr	r3, [fp, #-24]	; 0xffffffe8
    8714:	e5932000 	ldr	r2, [r3]
    8718:	e51b300c 	ldr	r3, [fp, #-12]
    871c:	e1a03103 	lsl	r3, r3, #2
    8720:	e0823003 	add	r3, r2, r3
    8724:	e5933000 	ldr	r3, [r3]
    8728:	e50b3008 	str	r3, [fp, #-8]
/home/silhavyj/School/ZeroMate/examples/10-timer_and_GPIO_interrupt/kernel/src/drivers/gpio.cpp:145
    val &= ~(1 << bit);
    872c:	e51b3010 	ldr	r3, [fp, #-16]
    8730:	e3a02001 	mov	r2, #1
    8734:	e1a03312 	lsl	r3, r2, r3
    8738:	e1e03003 	mvn	r3, r3
    873c:	e1a02003 	mov	r2, r3
    8740:	e51b3008 	ldr	r3, [fp, #-8]
    8744:	e0033002 	and	r3, r3, r2
    8748:	e50b3008 	str	r3, [fp, #-8]
/home/silhavyj/School/ZeroMate/examples/10-timer_and_GPIO_interrupt/kernel/src/drivers/gpio.cpp:146
    mGPIO[reg] = val;
    874c:	e51b3018 	ldr	r3, [fp, #-24]	; 0xffffffe8
    8750:	e5932000 	ldr	r2, [r3]
    8754:	e51b300c 	ldr	r3, [fp, #-12]
    8758:	e1a03103 	lsl	r3, r3, #2
    875c:	e0823003 	add	r3, r2, r3
    8760:	e51b2008 	ldr	r2, [fp, #-8]
    8764:	e5832000 	str	r2, [r3]
    8768:	ea000000 	b	8770 <_ZN13CGPIO_Handler20Disable_Event_DetectEj20NGPIO_Interrupt_Type+0xac>
/home/silhavyj/School/ZeroMate/examples/10-timer_and_GPIO_interrupt/kernel/src/drivers/gpio.cpp:142
        return;
    876c:	e320f000 	nop	{0}
/home/silhavyj/School/ZeroMate/examples/10-timer_and_GPIO_interrupt/kernel/src/drivers/gpio.cpp:147
}
    8770:	e24bd004 	sub	sp, fp, #4
    8774:	e8bd8800 	pop	{fp, pc}

00008778 <_ZN13CGPIO_Handler10Set_OutputEjb>:
_ZN13CGPIO_Handler10Set_OutputEjb():
/home/silhavyj/School/ZeroMate/examples/10-timer_and_GPIO_interrupt/kernel/src/drivers/gpio.cpp:150

void CGPIO_Handler::Set_Output(uint32_t pin, bool set)
{
    8778:	e92d4800 	push	{fp, lr}
    877c:	e28db004 	add	fp, sp, #4
    8780:	e24dd018 	sub	sp, sp, #24
    8784:	e50b0010 	str	r0, [fp, #-16]
    8788:	e50b1014 	str	r1, [fp, #-20]	; 0xffffffec
    878c:	e1a03002 	mov	r3, r2
    8790:	e54b3015 	strb	r3, [fp, #-21]	; 0xffffffeb
/home/silhavyj/School/ZeroMate/examples/10-timer_and_GPIO_interrupt/kernel/src/drivers/gpio.cpp:152
    uint32_t reg, bit;
    if (!(set && Get_GPSET_Location(pin, reg, bit)) && !(!set && Get_GPCLR_Location(pin, reg, bit)))
    8794:	e55b3015 	ldrb	r3, [fp, #-21]	; 0xffffffeb
    8798:	e2233001 	eor	r3, r3, #1
    879c:	e6ef3073 	uxtb	r3, r3
    87a0:	e3530000 	cmp	r3, #0
    87a4:	1a000009 	bne	87d0 <_ZN13CGPIO_Handler10Set_OutputEjb+0x58>
/home/silhavyj/School/ZeroMate/examples/10-timer_and_GPIO_interrupt/kernel/src/drivers/gpio.cpp:152 (discriminator 2)
    87a8:	e24b300c 	sub	r3, fp, #12
    87ac:	e24b2008 	sub	r2, fp, #8
    87b0:	e51b1014 	ldr	r1, [fp, #-20]	; 0xffffffec
    87b4:	e51b0010 	ldr	r0, [fp, #-16]
    87b8:	ebfffeda 	bl	8328 <_ZNK13CGPIO_Handler18Get_GPSET_LocationEjRjS0_>
    87bc:	e1a03000 	mov	r3, r0
    87c0:	e2233001 	eor	r3, r3, #1
    87c4:	e6ef3073 	uxtb	r3, r3
    87c8:	e3530000 	cmp	r3, #0
    87cc:	0a00000e 	beq	880c <_ZN13CGPIO_Handler10Set_OutputEjb+0x94>
/home/silhavyj/School/ZeroMate/examples/10-timer_and_GPIO_interrupt/kernel/src/drivers/gpio.cpp:152 (discriminator 3)
    87d0:	e55b3015 	ldrb	r3, [fp, #-21]	; 0xffffffeb
    87d4:	e3530000 	cmp	r3, #0
    87d8:	1a000009 	bne	8804 <_ZN13CGPIO_Handler10Set_OutputEjb+0x8c>
/home/silhavyj/School/ZeroMate/examples/10-timer_and_GPIO_interrupt/kernel/src/drivers/gpio.cpp:152 (discriminator 6)
    87dc:	e24b300c 	sub	r3, fp, #12
    87e0:	e24b2008 	sub	r2, fp, #8
    87e4:	e51b1014 	ldr	r1, [fp, #-20]	; 0xffffffec
    87e8:	e51b0010 	ldr	r0, [fp, #-16]
    87ec:	ebfffeb0 	bl	82b4 <_ZNK13CGPIO_Handler18Get_GPCLR_LocationEjRjS0_>
    87f0:	e1a03000 	mov	r3, r0
    87f4:	e2233001 	eor	r3, r3, #1
    87f8:	e6ef3073 	uxtb	r3, r3
    87fc:	e3530000 	cmp	r3, #0
    8800:	0a000001 	beq	880c <_ZN13CGPIO_Handler10Set_OutputEjb+0x94>
/home/silhavyj/School/ZeroMate/examples/10-timer_and_GPIO_interrupt/kernel/src/drivers/gpio.cpp:152 (discriminator 7)
    8804:	e3a03001 	mov	r3, #1
    8808:	ea000000 	b	8810 <_ZN13CGPIO_Handler10Set_OutputEjb+0x98>
/home/silhavyj/School/ZeroMate/examples/10-timer_and_GPIO_interrupt/kernel/src/drivers/gpio.cpp:152 (discriminator 8)
    880c:	e3a03000 	mov	r3, #0
/home/silhavyj/School/ZeroMate/examples/10-timer_and_GPIO_interrupt/kernel/src/drivers/gpio.cpp:152 (discriminator 10)
    8810:	e3530000 	cmp	r3, #0
    8814:	1a00000a 	bne	8844 <_ZN13CGPIO_Handler10Set_OutputEjb+0xcc>
/home/silhavyj/School/ZeroMate/examples/10-timer_and_GPIO_interrupt/kernel/src/drivers/gpio.cpp:155
        return;

    mGPIO[reg] = (1 << bit);
    8818:	e51b300c 	ldr	r3, [fp, #-12]
    881c:	e3a02001 	mov	r2, #1
    8820:	e1a01312 	lsl	r1, r2, r3
    8824:	e51b3010 	ldr	r3, [fp, #-16]
    8828:	e5932000 	ldr	r2, [r3]
    882c:	e51b3008 	ldr	r3, [fp, #-8]
    8830:	e1a03103 	lsl	r3, r3, #2
    8834:	e0823003 	add	r3, r2, r3
    8838:	e1a02001 	mov	r2, r1
    883c:	e5832000 	str	r2, [r3]
    8840:	ea000000 	b	8848 <_ZN13CGPIO_Handler10Set_OutputEjb+0xd0>
/home/silhavyj/School/ZeroMate/examples/10-timer_and_GPIO_interrupt/kernel/src/drivers/gpio.cpp:153
        return;
    8844:	e320f000 	nop	{0}
/home/silhavyj/School/ZeroMate/examples/10-timer_and_GPIO_interrupt/kernel/src/drivers/gpio.cpp:156
}
    8848:	e24bd004 	sub	sp, fp, #4
    884c:	e8bd8800 	pop	{fp, pc}

00008850 <_ZNK13CGPIO_Handler18Get_GPEDS_LocationEjRjS0_>:
_ZNK13CGPIO_Handler18Get_GPEDS_LocationEjRjS0_():
/home/silhavyj/School/ZeroMate/examples/10-timer_and_GPIO_interrupt/kernel/src/drivers/gpio.cpp:159

bool CGPIO_Handler::Get_GPEDS_Location(uint32_t pin, uint32_t& reg, uint32_t& bit_idx) const
{
    8850:	e52db004 	push	{fp}		; (str fp, [sp, #-4]!)
    8854:	e28db000 	add	fp, sp, #0
    8858:	e24dd014 	sub	sp, sp, #20
    885c:	e50b0008 	str	r0, [fp, #-8]
    8860:	e50b100c 	str	r1, [fp, #-12]
    8864:	e50b2010 	str	r2, [fp, #-16]
    8868:	e50b3014 	str	r3, [fp, #-20]	; 0xffffffec
/home/silhavyj/School/ZeroMate/examples/10-timer_and_GPIO_interrupt/kernel/src/drivers/gpio.cpp:160
    if (pin > hal::GPIO_Pin_Count)
    886c:	e51b300c 	ldr	r3, [fp, #-12]
    8870:	e3530036 	cmp	r3, #54	; 0x36
    8874:	9a000001 	bls	8880 <_ZNK13CGPIO_Handler18Get_GPEDS_LocationEjRjS0_+0x30>
/home/silhavyj/School/ZeroMate/examples/10-timer_and_GPIO_interrupt/kernel/src/drivers/gpio.cpp:161
        return false;
    8878:	e3a03000 	mov	r3, #0
    887c:	ea00000c 	b	88b4 <_ZNK13CGPIO_Handler18Get_GPEDS_LocationEjRjS0_+0x64>
/home/silhavyj/School/ZeroMate/examples/10-timer_and_GPIO_interrupt/kernel/src/drivers/gpio.cpp:163

    reg = static_cast<uint32_t>((pin < 32) ? hal::GPIO_Reg::GPEDS0 : hal::GPIO_Reg::GPEDS1);
    8880:	e51b300c 	ldr	r3, [fp, #-12]
    8884:	e353001f 	cmp	r3, #31
    8888:	8a000001 	bhi	8894 <_ZNK13CGPIO_Handler18Get_GPEDS_LocationEjRjS0_+0x44>
/home/silhavyj/School/ZeroMate/examples/10-timer_and_GPIO_interrupt/kernel/src/drivers/gpio.cpp:163 (discriminator 1)
    888c:	e3a02010 	mov	r2, #16
    8890:	ea000000 	b	8898 <_ZNK13CGPIO_Handler18Get_GPEDS_LocationEjRjS0_+0x48>
/home/silhavyj/School/ZeroMate/examples/10-timer_and_GPIO_interrupt/kernel/src/drivers/gpio.cpp:163 (discriminator 2)
    8894:	e3a02011 	mov	r2, #17
/home/silhavyj/School/ZeroMate/examples/10-timer_and_GPIO_interrupt/kernel/src/drivers/gpio.cpp:163 (discriminator 4)
    8898:	e51b3010 	ldr	r3, [fp, #-16]
    889c:	e5832000 	str	r2, [r3]
/home/silhavyj/School/ZeroMate/examples/10-timer_and_GPIO_interrupt/kernel/src/drivers/gpio.cpp:164 (discriminator 4)
    bit_idx = pin % 32;
    88a0:	e51b300c 	ldr	r3, [fp, #-12]
    88a4:	e203201f 	and	r2, r3, #31
    88a8:	e51b3014 	ldr	r3, [fp, #-20]	; 0xffffffec
    88ac:	e5832000 	str	r2, [r3]
/home/silhavyj/School/ZeroMate/examples/10-timer_and_GPIO_interrupt/kernel/src/drivers/gpio.cpp:166 (discriminator 4)

    return true;
    88b0:	e3a03001 	mov	r3, #1
/home/silhavyj/School/ZeroMate/examples/10-timer_and_GPIO_interrupt/kernel/src/drivers/gpio.cpp:167
}
    88b4:	e1a00003 	mov	r0, r3
    88b8:	e28bd000 	add	sp, fp, #0
    88bc:	e49db004 	pop	{fp}		; (ldr fp, [sp], #4)
    88c0:	e12fff1e 	bx	lr

000088c4 <_ZN13CGPIO_Handler20Clear_Detected_EventEj>:
_ZN13CGPIO_Handler20Clear_Detected_EventEj():
/home/silhavyj/School/ZeroMate/examples/10-timer_and_GPIO_interrupt/kernel/src/drivers/gpio.cpp:170

void CGPIO_Handler::Clear_Detected_Event(uint32_t pin)
{
    88c4:	e92d4800 	push	{fp, lr}
    88c8:	e28db004 	add	fp, sp, #4
    88cc:	e24dd010 	sub	sp, sp, #16
    88d0:	e50b0010 	str	r0, [fp, #-16]
    88d4:	e50b1014 	str	r1, [fp, #-20]	; 0xffffffec
/home/silhavyj/School/ZeroMate/examples/10-timer_and_GPIO_interrupt/kernel/src/drivers/gpio.cpp:172
    uint32_t reg, bit;
    if (!Get_GPEDS_Location(pin, reg, bit))
    88d8:	e24b300c 	sub	r3, fp, #12
    88dc:	e24b2008 	sub	r2, fp, #8
    88e0:	e51b1014 	ldr	r1, [fp, #-20]	; 0xffffffec
    88e4:	e51b0010 	ldr	r0, [fp, #-16]
    88e8:	ebffffd8 	bl	8850 <_ZNK13CGPIO_Handler18Get_GPEDS_LocationEjRjS0_>
    88ec:	e1a03000 	mov	r3, r0
    88f0:	e2233001 	eor	r3, r3, #1
    88f4:	e6ef3073 	uxtb	r3, r3
    88f8:	e3530000 	cmp	r3, #0
    88fc:	1a00000a 	bne	892c <_ZN13CGPIO_Handler20Clear_Detected_EventEj+0x68>
/home/silhavyj/School/ZeroMate/examples/10-timer_and_GPIO_interrupt/kernel/src/drivers/gpio.cpp:176
        return;

    // BCM2835 manual: "The bit is cleared by writing a '1' to the relevant bit."
    mGPIO[reg] = 1 << bit;
    8900:	e51b300c 	ldr	r3, [fp, #-12]
    8904:	e3a02001 	mov	r2, #1
    8908:	e1a01312 	lsl	r1, r2, r3
    890c:	e51b3010 	ldr	r3, [fp, #-16]
    8910:	e5932000 	ldr	r2, [r3]
    8914:	e51b3008 	ldr	r3, [fp, #-8]
    8918:	e1a03103 	lsl	r3, r3, #2
    891c:	e0823003 	add	r3, r2, r3
    8920:	e1a02001 	mov	r2, r1
    8924:	e5832000 	str	r2, [r3]
    8928:	ea000000 	b	8930 <_ZN13CGPIO_Handler20Clear_Detected_EventEj+0x6c>
/home/silhavyj/School/ZeroMate/examples/10-timer_and_GPIO_interrupt/kernel/src/drivers/gpio.cpp:173
        return;
    892c:	e320f000 	nop	{0}
/home/silhavyj/School/ZeroMate/examples/10-timer_and_GPIO_interrupt/kernel/src/drivers/gpio.cpp:177
    8930:	e24bd004 	sub	sp, fp, #4
    8934:	e8bd8800 	pop	{fp, pc}

00008938 <_Z41__static_initialization_and_destruction_0ii>:
_Z41__static_initialization_and_destruction_0ii():
/home/silhavyj/School/ZeroMate/examples/10-timer_and_GPIO_interrupt/kernel/src/drivers/gpio.cpp:177
    8938:	e92d4800 	push	{fp, lr}
    893c:	e28db004 	add	fp, sp, #4
    8940:	e24dd008 	sub	sp, sp, #8
    8944:	e50b0008 	str	r0, [fp, #-8]
    8948:	e50b100c 	str	r1, [fp, #-12]
    894c:	e51b3008 	ldr	r3, [fp, #-8]
    8950:	e3530001 	cmp	r3, #1
    8954:	1a000006 	bne	8974 <_Z41__static_initialization_and_destruction_0ii+0x3c>
/home/silhavyj/School/ZeroMate/examples/10-timer_and_GPIO_interrupt/kernel/src/drivers/gpio.cpp:177 (discriminator 1)
    8958:	e51b300c 	ldr	r3, [fp, #-12]
    895c:	e59f201c 	ldr	r2, [pc, #28]	; 8980 <_Z41__static_initialization_and_destruction_0ii+0x48>
    8960:	e1530002 	cmp	r3, r2
    8964:	1a000002 	bne	8974 <_Z41__static_initialization_and_destruction_0ii+0x3c>
/home/silhavyj/School/ZeroMate/examples/10-timer_and_GPIO_interrupt/kernel/src/drivers/gpio.cpp:4
CGPIO_Handler sGPIO(hal::GPIO_Base);
    8968:	e59f1014 	ldr	r1, [pc, #20]	; 8984 <_Z41__static_initialization_and_destruction_0ii+0x4c>
    896c:	e59f0014 	ldr	r0, [pc, #20]	; 8988 <_Z41__static_initialization_and_destruction_0ii+0x50>
    8970:	ebfffdfd 	bl	816c <_ZN13CGPIO_HandlerC1Ej>
/home/silhavyj/School/ZeroMate/examples/10-timer_and_GPIO_interrupt/kernel/src/drivers/gpio.cpp:177
    8974:	e320f000 	nop	{0}
    8978:	e24bd004 	sub	sp, fp, #4
    897c:	e8bd8800 	pop	{fp, pc}
    8980:	0000ffff 	strdeq	pc, [r0], -pc	; <UNPREDICTABLE>
    8984:	20200000 	eorcs	r0, r0, r0
    8988:	00009288 	andeq	r9, r0, r8, lsl #5

0000898c <_GLOBAL__sub_I_sGPIO>:
_GLOBAL__sub_I_sGPIO():
/home/silhavyj/School/ZeroMate/examples/10-timer_and_GPIO_interrupt/kernel/src/drivers/gpio.cpp:177
    898c:	e92d4800 	push	{fp, lr}
    8990:	e28db004 	add	fp, sp, #4
    8994:	e59f1008 	ldr	r1, [pc, #8]	; 89a4 <_GLOBAL__sub_I_sGPIO+0x18>
    8998:	e3a00001 	mov	r0, #1
    899c:	ebffffe5 	bl	8938 <_Z41__static_initialization_and_destruction_0ii>
    89a0:	e8bd8800 	pop	{fp, pc}
    89a4:	0000ffff 	strdeq	pc, [r0], -pc	; <UNPREDICTABLE>

000089a8 <_ZN6CTimerC1Em>:
_ZN6CTimerC2Em():
/home/silhavyj/School/ZeroMate/examples/10-timer_and_GPIO_interrupt/kernel/src/drivers/timer.cpp:26
    uint16_t unused_4 : 10;
};

#pragma pack(pop)

CTimer::CTimer(unsigned long timer_reg_base)
    89a8:	e52db004 	push	{fp}		; (str fp, [sp, #-4]!)
    89ac:	e28db000 	add	fp, sp, #0
    89b0:	e24dd00c 	sub	sp, sp, #12
    89b4:	e50b0008 	str	r0, [fp, #-8]
    89b8:	e50b100c 	str	r1, [fp, #-12]
/home/silhavyj/School/ZeroMate/examples/10-timer_and_GPIO_interrupt/kernel/src/drivers/timer.cpp:27
: mTimer_Regs(reinterpret_cast<unsigned int*>(timer_reg_base))
    89bc:	e51b200c 	ldr	r2, [fp, #-12]
/home/silhavyj/School/ZeroMate/examples/10-timer_and_GPIO_interrupt/kernel/src/drivers/timer.cpp:28
, mCallback(nullptr)
    89c0:	e51b3008 	ldr	r3, [fp, #-8]
    89c4:	e5832000 	str	r2, [r3]
    89c8:	e51b3008 	ldr	r3, [fp, #-8]
    89cc:	e3a02000 	mov	r2, #0
    89d0:	e5832004 	str	r2, [r3, #4]
/home/silhavyj/School/ZeroMate/examples/10-timer_and_GPIO_interrupt/kernel/src/drivers/timer.cpp:31
{
    //
}
    89d4:	e51b3008 	ldr	r3, [fp, #-8]
    89d8:	e1a00003 	mov	r0, r3
    89dc:	e28bd000 	add	sp, fp, #0
    89e0:	e49db004 	pop	{fp}		; (ldr fp, [sp], #4)
    89e4:	e12fff1e 	bx	lr

000089e8 <_ZN6CTimer4RegsEN3hal9Timer_RegE>:
_ZN6CTimer4RegsEN3hal9Timer_RegE():
/home/silhavyj/School/ZeroMate/examples/10-timer_and_GPIO_interrupt/kernel/src/drivers/timer.cpp:34

volatile unsigned int& CTimer::Regs(hal::Timer_Reg reg)
{
    89e8:	e52db004 	push	{fp}		; (str fp, [sp, #-4]!)
    89ec:	e28db000 	add	fp, sp, #0
    89f0:	e24dd00c 	sub	sp, sp, #12
    89f4:	e50b0008 	str	r0, [fp, #-8]
    89f8:	e50b100c 	str	r1, [fp, #-12]
/home/silhavyj/School/ZeroMate/examples/10-timer_and_GPIO_interrupt/kernel/src/drivers/timer.cpp:35
    return mTimer_Regs[static_cast<unsigned int>(reg)];
    89fc:	e51b3008 	ldr	r3, [fp, #-8]
    8a00:	e5932000 	ldr	r2, [r3]
    8a04:	e51b300c 	ldr	r3, [fp, #-12]
    8a08:	e1a03103 	lsl	r3, r3, #2
    8a0c:	e0823003 	add	r3, r2, r3
/home/silhavyj/School/ZeroMate/examples/10-timer_and_GPIO_interrupt/kernel/src/drivers/timer.cpp:36
}
    8a10:	e1a00003 	mov	r0, r3
    8a14:	e28bd000 	add	sp, fp, #0
    8a18:	e49db004 	pop	{fp}		; (ldr fp, [sp], #4)
    8a1c:	e12fff1e 	bx	lr

00008a20 <_ZN6CTimer6EnableEPFvvEj16NTimer_Prescaler>:
_ZN6CTimer6EnableEPFvvEj16NTimer_Prescaler():
/home/silhavyj/School/ZeroMate/examples/10-timer_and_GPIO_interrupt/kernel/src/drivers/timer.cpp:39

void CTimer::Enable(TTimer_Callback callback, unsigned int delay, NTimer_Prescaler prescaler)
{
    8a20:	e92d4810 	push	{r4, fp, lr}
    8a24:	e28db008 	add	fp, sp, #8
    8a28:	e24dd01c 	sub	sp, sp, #28
    8a2c:	e50b0018 	str	r0, [fp, #-24]	; 0xffffffe8
    8a30:	e50b101c 	str	r1, [fp, #-28]	; 0xffffffe4
    8a34:	e50b2020 	str	r2, [fp, #-32]	; 0xffffffe0
    8a38:	e54b3021 	strb	r3, [fp, #-33]	; 0xffffffdf
/home/silhavyj/School/ZeroMate/examples/10-timer_and_GPIO_interrupt/kernel/src/drivers/timer.cpp:40
    Regs(hal::Timer_Reg::Load) = delay;
    8a3c:	e3a01000 	mov	r1, #0
    8a40:	e51b0018 	ldr	r0, [fp, #-24]	; 0xffffffe8
    8a44:	ebffffe7 	bl	89e8 <_ZN6CTimer4RegsEN3hal9Timer_RegE>
    8a48:	e1a02000 	mov	r2, r0
    8a4c:	e51b3020 	ldr	r3, [fp, #-32]	; 0xffffffe0
    8a50:	e5823000 	str	r3, [r2]
/home/silhavyj/School/ZeroMate/examples/10-timer_and_GPIO_interrupt/kernel/src/drivers/timer.cpp:43

    TTimer_Ctl_Flags reg;
    reg.counter_32b = 1;
    8a54:	e55b3014 	ldrb	r3, [fp, #-20]	; 0xffffffec
    8a58:	e3833002 	orr	r3, r3, #2
    8a5c:	e54b3014 	strb	r3, [fp, #-20]	; 0xffffffec
/home/silhavyj/School/ZeroMate/examples/10-timer_and_GPIO_interrupt/kernel/src/drivers/timer.cpp:44
    reg.interrupt_enabled = 1;
    8a60:	e55b3014 	ldrb	r3, [fp, #-20]	; 0xffffffec
    8a64:	e3833020 	orr	r3, r3, #32
    8a68:	e54b3014 	strb	r3, [fp, #-20]	; 0xffffffec
/home/silhavyj/School/ZeroMate/examples/10-timer_and_GPIO_interrupt/kernel/src/drivers/timer.cpp:45
    reg.timer_enabled = 1;
    8a6c:	e55b3014 	ldrb	r3, [fp, #-20]	; 0xffffffec
    8a70:	e3833080 	orr	r3, r3, #128	; 0x80
    8a74:	e54b3014 	strb	r3, [fp, #-20]	; 0xffffffec
/home/silhavyj/School/ZeroMate/examples/10-timer_and_GPIO_interrupt/kernel/src/drivers/timer.cpp:46
    reg.prescaler = static_cast<uint8_t>(prescaler);
    8a78:	e55b3021 	ldrb	r3, [fp, #-33]	; 0xffffffdf
    8a7c:	e2033003 	and	r3, r3, #3
    8a80:	e6ef3073 	uxtb	r3, r3
    8a84:	e55b2014 	ldrb	r2, [fp, #-20]	; 0xffffffec
    8a88:	e2033003 	and	r3, r3, #3
    8a8c:	e3c2200c 	bic	r2, r2, #12
    8a90:	e1a03103 	lsl	r3, r3, #2
    8a94:	e1833002 	orr	r3, r3, r2
    8a98:	e1a02003 	mov	r2, r3
    8a9c:	e54b2014 	strb	r2, [fp, #-20]	; 0xffffffec
/home/silhavyj/School/ZeroMate/examples/10-timer_and_GPIO_interrupt/kernel/src/drivers/timer.cpp:48

    Regs(hal::Timer_Reg::Control) = *reinterpret_cast<unsigned int*>(&reg);
    8aa0:	e24b4014 	sub	r4, fp, #20
    8aa4:	e3a01002 	mov	r1, #2
    8aa8:	e51b0018 	ldr	r0, [fp, #-24]	; 0xffffffe8
    8aac:	ebffffcd 	bl	89e8 <_ZN6CTimer4RegsEN3hal9Timer_RegE>
    8ab0:	e1a02000 	mov	r2, r0
    8ab4:	e5943000 	ldr	r3, [r4]
    8ab8:	e5823000 	str	r3, [r2]
/home/silhavyj/School/ZeroMate/examples/10-timer_and_GPIO_interrupt/kernel/src/drivers/timer.cpp:50

    Regs(hal::Timer_Reg::IRQ_Clear) = 1;
    8abc:	e3a01003 	mov	r1, #3
    8ac0:	e51b0018 	ldr	r0, [fp, #-24]	; 0xffffffe8
    8ac4:	ebffffc7 	bl	89e8 <_ZN6CTimer4RegsEN3hal9Timer_RegE>
    8ac8:	e1a03000 	mov	r3, r0
    8acc:	e3a02001 	mov	r2, #1
    8ad0:	e5832000 	str	r2, [r3]
/home/silhavyj/School/ZeroMate/examples/10-timer_and_GPIO_interrupt/kernel/src/drivers/timer.cpp:52

    mCallback = callback;
    8ad4:	e51b3018 	ldr	r3, [fp, #-24]	; 0xffffffe8
    8ad8:	e51b201c 	ldr	r2, [fp, #-28]	; 0xffffffe4
    8adc:	e5832004 	str	r2, [r3, #4]
/home/silhavyj/School/ZeroMate/examples/10-timer_and_GPIO_interrupt/kernel/src/drivers/timer.cpp:53
}
    8ae0:	e320f000 	nop	{0}
    8ae4:	e24bd008 	sub	sp, fp, #8
    8ae8:	e8bd8810 	pop	{r4, fp, pc}

00008aec <_ZN6CTimer7DisableEv>:
_ZN6CTimer7DisableEv():
/home/silhavyj/School/ZeroMate/examples/10-timer_and_GPIO_interrupt/kernel/src/drivers/timer.cpp:56

void CTimer::Disable()
{
    8aec:	e92d4800 	push	{fp, lr}
    8af0:	e28db004 	add	fp, sp, #4
    8af4:	e24dd010 	sub	sp, sp, #16
    8af8:	e50b0010 	str	r0, [fp, #-16]
/home/silhavyj/School/ZeroMate/examples/10-timer_and_GPIO_interrupt/kernel/src/drivers/timer.cpp:57
    volatile TTimer_Ctl_Flags& reg = reinterpret_cast<volatile TTimer_Ctl_Flags&>(Regs(hal::Timer_Reg::Control));
    8afc:	e3a01002 	mov	r1, #2
    8b00:	e51b0010 	ldr	r0, [fp, #-16]
    8b04:	ebffffb7 	bl	89e8 <_ZN6CTimer4RegsEN3hal9Timer_RegE>
    8b08:	e50b0008 	str	r0, [fp, #-8]
/home/silhavyj/School/ZeroMate/examples/10-timer_and_GPIO_interrupt/kernel/src/drivers/timer.cpp:59

    reg.interrupt_enabled = 0;
    8b0c:	e51b2008 	ldr	r2, [fp, #-8]
    8b10:	e5d23000 	ldrb	r3, [r2]
    8b14:	e3c33020 	bic	r3, r3, #32
    8b18:	e5c23000 	strb	r3, [r2]
/home/silhavyj/School/ZeroMate/examples/10-timer_and_GPIO_interrupt/kernel/src/drivers/timer.cpp:60
    reg.timer_enabled = 0;
    8b1c:	e51b2008 	ldr	r2, [fp, #-8]
    8b20:	e5d23000 	ldrb	r3, [r2]
    8b24:	e3c33080 	bic	r3, r3, #128	; 0x80
    8b28:	e5c23000 	strb	r3, [r2]
/home/silhavyj/School/ZeroMate/examples/10-timer_and_GPIO_interrupt/kernel/src/drivers/timer.cpp:61
}
    8b2c:	e320f000 	nop	{0}
    8b30:	e24bd004 	sub	sp, fp, #4
    8b34:	e8bd8800 	pop	{fp, pc}

00008b38 <_ZN6CTimer12IRQ_CallbackEv>:
_ZN6CTimer12IRQ_CallbackEv():
/home/silhavyj/School/ZeroMate/examples/10-timer_and_GPIO_interrupt/kernel/src/drivers/timer.cpp:64

void CTimer::IRQ_Callback()
{
    8b38:	e92d4800 	push	{fp, lr}
    8b3c:	e28db004 	add	fp, sp, #4
    8b40:	e24dd008 	sub	sp, sp, #8
    8b44:	e50b0008 	str	r0, [fp, #-8]
/home/silhavyj/School/ZeroMate/examples/10-timer_and_GPIO_interrupt/kernel/src/drivers/timer.cpp:65
    Regs(hal::Timer_Reg::IRQ_Clear) = 1;
    8b48:	e3a01003 	mov	r1, #3
    8b4c:	e51b0008 	ldr	r0, [fp, #-8]
    8b50:	ebffffa4 	bl	89e8 <_ZN6CTimer4RegsEN3hal9Timer_RegE>
    8b54:	e1a03000 	mov	r3, r0
    8b58:	e3a02001 	mov	r2, #1
    8b5c:	e5832000 	str	r2, [r3]
/home/silhavyj/School/ZeroMate/examples/10-timer_and_GPIO_interrupt/kernel/src/drivers/timer.cpp:67

    if (mCallback)
    8b60:	e51b3008 	ldr	r3, [fp, #-8]
    8b64:	e5933004 	ldr	r3, [r3, #4]
    8b68:	e3530000 	cmp	r3, #0
    8b6c:	0a000002 	beq	8b7c <_ZN6CTimer12IRQ_CallbackEv+0x44>
/home/silhavyj/School/ZeroMate/examples/10-timer_and_GPIO_interrupt/kernel/src/drivers/timer.cpp:68
        mCallback();
    8b70:	e51b3008 	ldr	r3, [fp, #-8]
    8b74:	e5933004 	ldr	r3, [r3, #4]
    8b78:	e12fff33 	blx	r3
/home/silhavyj/School/ZeroMate/examples/10-timer_and_GPIO_interrupt/kernel/src/drivers/timer.cpp:69
}
    8b7c:	e320f000 	nop	{0}
    8b80:	e24bd004 	sub	sp, fp, #4
    8b84:	e8bd8800 	pop	{fp, pc}

00008b88 <_ZN6CTimer20Is_Timer_IRQ_PendingEv>:
_ZN6CTimer20Is_Timer_IRQ_PendingEv():
/home/silhavyj/School/ZeroMate/examples/10-timer_and_GPIO_interrupt/kernel/src/drivers/timer.cpp:72

bool CTimer::Is_Timer_IRQ_Pending()
{
    8b88:	e92d4800 	push	{fp, lr}
    8b8c:	e28db004 	add	fp, sp, #4
    8b90:	e24dd008 	sub	sp, sp, #8
    8b94:	e50b0008 	str	r0, [fp, #-8]
/home/silhavyj/School/ZeroMate/examples/10-timer_and_GPIO_interrupt/kernel/src/drivers/timer.cpp:73
    return Regs(hal::Timer_Reg::IRQ_Masked);
    8b98:	e3a01005 	mov	r1, #5
    8b9c:	e51b0008 	ldr	r0, [fp, #-8]
    8ba0:	ebffff90 	bl	89e8 <_ZN6CTimer4RegsEN3hal9Timer_RegE>
    8ba4:	e1a03000 	mov	r3, r0
    8ba8:	e5933000 	ldr	r3, [r3]
    8bac:	e3530000 	cmp	r3, #0
    8bb0:	13a03001 	movne	r3, #1
    8bb4:	03a03000 	moveq	r3, #0
    8bb8:	e6ef3073 	uxtb	r3, r3
/home/silhavyj/School/ZeroMate/examples/10-timer_and_GPIO_interrupt/kernel/src/drivers/timer.cpp:74
}
    8bbc:	e1a00003 	mov	r0, r3
    8bc0:	e24bd004 	sub	sp, fp, #4
    8bc4:	e8bd8800 	pop	{fp, pc}

00008bc8 <_Z41__static_initialization_and_destruction_0ii>:
_Z41__static_initialization_and_destruction_0ii():
/home/silhavyj/School/ZeroMate/examples/10-timer_and_GPIO_interrupt/kernel/src/drivers/timer.cpp:74
    8bc8:	e92d4800 	push	{fp, lr}
    8bcc:	e28db004 	add	fp, sp, #4
    8bd0:	e24dd008 	sub	sp, sp, #8
    8bd4:	e50b0008 	str	r0, [fp, #-8]
    8bd8:	e50b100c 	str	r1, [fp, #-12]
    8bdc:	e51b3008 	ldr	r3, [fp, #-8]
    8be0:	e3530001 	cmp	r3, #1
    8be4:	1a000006 	bne	8c04 <_Z41__static_initialization_and_destruction_0ii+0x3c>
/home/silhavyj/School/ZeroMate/examples/10-timer_and_GPIO_interrupt/kernel/src/drivers/timer.cpp:74 (discriminator 1)
    8be8:	e51b300c 	ldr	r3, [fp, #-12]
    8bec:	e59f201c 	ldr	r2, [pc, #28]	; 8c10 <_Z41__static_initialization_and_destruction_0ii+0x48>
    8bf0:	e1530002 	cmp	r3, r2
    8bf4:	1a000002 	bne	8c04 <_Z41__static_initialization_and_destruction_0ii+0x3c>
/home/silhavyj/School/ZeroMate/examples/10-timer_and_GPIO_interrupt/kernel/src/drivers/timer.cpp:4
CTimer sTimer(hal::Timer_Base);
    8bf8:	e59f1014 	ldr	r1, [pc, #20]	; 8c14 <_Z41__static_initialization_and_destruction_0ii+0x4c>
    8bfc:	e59f0014 	ldr	r0, [pc, #20]	; 8c18 <_Z41__static_initialization_and_destruction_0ii+0x50>
    8c00:	ebffff68 	bl	89a8 <_ZN6CTimerC1Em>
/home/silhavyj/School/ZeroMate/examples/10-timer_and_GPIO_interrupt/kernel/src/drivers/timer.cpp:74
}
    8c04:	e320f000 	nop	{0}
    8c08:	e24bd004 	sub	sp, fp, #4
    8c0c:	e8bd8800 	pop	{fp, pc}
    8c10:	0000ffff 	strdeq	pc, [r0], -pc	; <UNPREDICTABLE>
    8c14:	2000b400 	andcs	fp, r0, r0, lsl #8
    8c18:	0000928c 	andeq	r9, r0, ip, lsl #5

00008c1c <_GLOBAL__sub_I_sTimer>:
_GLOBAL__sub_I_sTimer():
/home/silhavyj/School/ZeroMate/examples/10-timer_and_GPIO_interrupt/kernel/src/drivers/timer.cpp:74
    8c1c:	e92d4800 	push	{fp, lr}
    8c20:	e28db004 	add	fp, sp, #4
    8c24:	e59f1008 	ldr	r1, [pc, #8]	; 8c34 <_GLOBAL__sub_I_sTimer+0x18>
    8c28:	e3a00001 	mov	r0, #1
    8c2c:	ebffffe5 	bl	8bc8 <_Z41__static_initialization_and_destruction_0ii>
    8c30:	e8bd8800 	pop	{fp, pc}
    8c34:	0000ffff 	strdeq	pc, [r0], -pc	; <UNPREDICTABLE>

00008c38 <software_interrupt_handler>:
software_interrupt_handler():
/home/silhavyj/School/ZeroMate/examples/10-timer_and_GPIO_interrupt/kernel/src/interrupt_controller.cpp:8
#include <drivers/gpio.h>
#include <interrupt_controller.h>
#include <drivers/timer.h>

extern "C" void __attribute__((interrupt("SWI"))) software_interrupt_handler()
{
    8c38:	e52db004 	push	{fp}		; (str fp, [sp, #-4]!)
    8c3c:	e28db000 	add	fp, sp, #0
/home/silhavyj/School/ZeroMate/examples/10-timer_and_GPIO_interrupt/kernel/src/interrupt_controller.cpp:9
}
    8c40:	e320f000 	nop	{0}
    8c44:	e28bd000 	add	sp, fp, #0
    8c48:	e49db004 	pop	{fp}		; (ldr fp, [sp], #4)
    8c4c:	e1b0f00e 	movs	pc, lr

00008c50 <irq_handler>:
irq_handler():
/home/silhavyj/School/ZeroMate/examples/10-timer_and_GPIO_interrupt/kernel/src/interrupt_controller.cpp:12

extern "C" void __attribute__((interrupt("IRQ"))) irq_handler()
{
    8c50:	e24ee004 	sub	lr, lr, #4
    8c54:	e92d581f 	push	{r0, r1, r2, r3, r4, fp, ip, lr}
    8c58:	e28db01c 	add	fp, sp, #28
/home/silhavyj/School/ZeroMate/examples/10-timer_and_GPIO_interrupt/kernel/src/interrupt_controller.cpp:15
    static bool pin_48_state{ true };

    if (sTimer.Is_Timer_IRQ_Pending())
    8c5c:	e59f0060 	ldr	r0, [pc, #96]	; 8cc4 <irq_handler+0x74>
    8c60:	ebffffc8 	bl	8b88 <_ZN6CTimer20Is_Timer_IRQ_PendingEv>
    8c64:	e1a03000 	mov	r3, r0
    8c68:	e3530000 	cmp	r3, #0
    8c6c:	0a000002 	beq	8c7c <irq_handler+0x2c>
/home/silhavyj/School/ZeroMate/examples/10-timer_and_GPIO_interrupt/kernel/src/interrupt_controller.cpp:16
        sTimer.IRQ_Callback();
    8c70:	e59f004c 	ldr	r0, [pc, #76]	; 8cc4 <irq_handler+0x74>
    8c74:	ebffffaf 	bl	8b38 <_ZN6CTimer12IRQ_CallbackEv>
/home/silhavyj/School/ZeroMate/examples/10-timer_and_GPIO_interrupt/kernel/src/interrupt_controller.cpp:23
    {
        sGPIO.Set_Output(48, pin_48_state);
        sGPIO.Clear_Detected_Event(46);
        pin_48_state = !pin_48_state;
    }
}
    8c78:	ea00000e 	b	8cb8 <irq_handler+0x68>
/home/silhavyj/School/ZeroMate/examples/10-timer_and_GPIO_interrupt/kernel/src/interrupt_controller.cpp:19
        sGPIO.Set_Output(48, pin_48_state);
    8c7c:	e59f3044 	ldr	r3, [pc, #68]	; 8cc8 <irq_handler+0x78>
    8c80:	e5d33000 	ldrb	r3, [r3]
    8c84:	e1a02003 	mov	r2, r3
    8c88:	e3a01030 	mov	r1, #48	; 0x30
    8c8c:	e59f0038 	ldr	r0, [pc, #56]	; 8ccc <irq_handler+0x7c>
    8c90:	ebfffeb8 	bl	8778 <_ZN13CGPIO_Handler10Set_OutputEjb>
/home/silhavyj/School/ZeroMate/examples/10-timer_and_GPIO_interrupt/kernel/src/interrupt_controller.cpp:20
        sGPIO.Clear_Detected_Event(46);
    8c94:	e3a0102e 	mov	r1, #46	; 0x2e
    8c98:	e59f002c 	ldr	r0, [pc, #44]	; 8ccc <irq_handler+0x7c>
    8c9c:	ebffff08 	bl	88c4 <_ZN13CGPIO_Handler20Clear_Detected_EventEj>
/home/silhavyj/School/ZeroMate/examples/10-timer_and_GPIO_interrupt/kernel/src/interrupt_controller.cpp:21
        pin_48_state = !pin_48_state;
    8ca0:	e59f3020 	ldr	r3, [pc, #32]	; 8cc8 <irq_handler+0x78>
    8ca4:	e5d33000 	ldrb	r3, [r3]
    8ca8:	e2233001 	eor	r3, r3, #1
    8cac:	e6ef2073 	uxtb	r2, r3
    8cb0:	e59f3010 	ldr	r3, [pc, #16]	; 8cc8 <irq_handler+0x78>
    8cb4:	e5c32000 	strb	r2, [r3]
/home/silhavyj/School/ZeroMate/examples/10-timer_and_GPIO_interrupt/kernel/src/interrupt_controller.cpp:23
}
    8cb8:	e320f000 	nop	{0}
    8cbc:	e24bd01c 	sub	sp, fp, #28
    8cc0:	e8fd981f 	ldm	sp!, {r0, r1, r2, r3, r4, fp, ip, pc}^
    8cc4:	0000928c 	andeq	r9, r0, ip, lsl #5
    8cc8:	00009284 	andeq	r9, r0, r4, lsl #5
    8ccc:	00009288 	andeq	r9, r0, r8, lsl #5

00008cd0 <fast_interrupt_handler>:
fast_interrupt_handler():
/home/silhavyj/School/ZeroMate/examples/10-timer_and_GPIO_interrupt/kernel/src/interrupt_controller.cpp:26

extern "C" void __attribute__((interrupt("FIQ"))) fast_interrupt_handler()
{
    8cd0:	e24db004 	sub	fp, sp, #4
/home/silhavyj/School/ZeroMate/examples/10-timer_and_GPIO_interrupt/kernel/src/interrupt_controller.cpp:27
}
    8cd4:	e320f000 	nop	{0}
    8cd8:	e28bd004 	add	sp, fp, #4
    8cdc:	e25ef004 	subs	pc, lr, #4

00008ce0 <_ZN21CInterrupt_ControllerC1Em>:
_ZN21CInterrupt_ControllerC2Em():
/home/silhavyj/School/ZeroMate/examples/10-timer_and_GPIO_interrupt/kernel/src/interrupt_controller.cpp:31

CInterrupt_Controller sInterruptCtl(hal::Interrupt_Controller_Base);

CInterrupt_Controller::CInterrupt_Controller(unsigned long base)
    8ce0:	e52db004 	push	{fp}		; (str fp, [sp, #-4]!)
    8ce4:	e28db000 	add	fp, sp, #0
    8ce8:	e24dd00c 	sub	sp, sp, #12
    8cec:	e50b0008 	str	r0, [fp, #-8]
    8cf0:	e50b100c 	str	r1, [fp, #-12]
/home/silhavyj/School/ZeroMate/examples/10-timer_and_GPIO_interrupt/kernel/src/interrupt_controller.cpp:32
: mInterrupt_Regs(reinterpret_cast<unsigned int*>(base))
    8cf4:	e51b200c 	ldr	r2, [fp, #-12]
    8cf8:	e51b3008 	ldr	r3, [fp, #-8]
    8cfc:	e5832000 	str	r2, [r3]
/home/silhavyj/School/ZeroMate/examples/10-timer_and_GPIO_interrupt/kernel/src/interrupt_controller.cpp:34
{
}
    8d00:	e51b3008 	ldr	r3, [fp, #-8]
    8d04:	e1a00003 	mov	r0, r3
    8d08:	e28bd000 	add	sp, fp, #0
    8d0c:	e49db004 	pop	{fp}		; (ldr fp, [sp], #4)
    8d10:	e12fff1e 	bx	lr

00008d14 <_ZN21CInterrupt_Controller4RegsEN3hal24Interrupt_Controller_RegE>:
_ZN21CInterrupt_Controller4RegsEN3hal24Interrupt_Controller_RegE():
/home/silhavyj/School/ZeroMate/examples/10-timer_and_GPIO_interrupt/kernel/src/interrupt_controller.cpp:37

volatile unsigned int& CInterrupt_Controller::Regs(hal::Interrupt_Controller_Reg reg)
{
    8d14:	e52db004 	push	{fp}		; (str fp, [sp, #-4]!)
    8d18:	e28db000 	add	fp, sp, #0
    8d1c:	e24dd00c 	sub	sp, sp, #12
    8d20:	e50b0008 	str	r0, [fp, #-8]
    8d24:	e50b100c 	str	r1, [fp, #-12]
/home/silhavyj/School/ZeroMate/examples/10-timer_and_GPIO_interrupt/kernel/src/interrupt_controller.cpp:38
    return mInterrupt_Regs[static_cast<unsigned int>(reg)];
    8d28:	e51b3008 	ldr	r3, [fp, #-8]
    8d2c:	e5932000 	ldr	r2, [r3]
    8d30:	e51b300c 	ldr	r3, [fp, #-12]
    8d34:	e1a03103 	lsl	r3, r3, #2
    8d38:	e0823003 	add	r3, r2, r3
/home/silhavyj/School/ZeroMate/examples/10-timer_and_GPIO_interrupt/kernel/src/interrupt_controller.cpp:39
}
    8d3c:	e1a00003 	mov	r0, r3
    8d40:	e28bd000 	add	sp, fp, #0
    8d44:	e49db004 	pop	{fp}		; (ldr fp, [sp], #4)
    8d48:	e12fff1e 	bx	lr

00008d4c <_ZN21CInterrupt_Controller16Enable_Basic_IRQEN3hal16IRQ_Basic_SourceE>:
_ZN21CInterrupt_Controller16Enable_Basic_IRQEN3hal16IRQ_Basic_SourceE():
/home/silhavyj/School/ZeroMate/examples/10-timer_and_GPIO_interrupt/kernel/src/interrupt_controller.cpp:42

void CInterrupt_Controller::Enable_Basic_IRQ(hal::IRQ_Basic_Source source_idx)
{
    8d4c:	e92d4810 	push	{r4, fp, lr}
    8d50:	e28db008 	add	fp, sp, #8
    8d54:	e24dd00c 	sub	sp, sp, #12
    8d58:	e50b0010 	str	r0, [fp, #-16]
    8d5c:	e50b1014 	str	r1, [fp, #-20]	; 0xffffffec
/home/silhavyj/School/ZeroMate/examples/10-timer_and_GPIO_interrupt/kernel/src/interrupt_controller.cpp:43
    Regs(hal::Interrupt_Controller_Reg::IRQ_Basic_Enable) = (1 << static_cast<unsigned int>(source_idx));
    8d60:	e51b3014 	ldr	r3, [fp, #-20]	; 0xffffffec
    8d64:	e3a02001 	mov	r2, #1
    8d68:	e1a04312 	lsl	r4, r2, r3
    8d6c:	e3a01006 	mov	r1, #6
    8d70:	e51b0010 	ldr	r0, [fp, #-16]
    8d74:	ebffffe6 	bl	8d14 <_ZN21CInterrupt_Controller4RegsEN3hal24Interrupt_Controller_RegE>
    8d78:	e1a03000 	mov	r3, r0
    8d7c:	e1a02004 	mov	r2, r4
    8d80:	e5832000 	str	r2, [r3]
/home/silhavyj/School/ZeroMate/examples/10-timer_and_GPIO_interrupt/kernel/src/interrupt_controller.cpp:44
}
    8d84:	e320f000 	nop	{0}
    8d88:	e24bd008 	sub	sp, fp, #8
    8d8c:	e8bd8810 	pop	{r4, fp, pc}

00008d90 <_ZN21CInterrupt_Controller17Disable_Basic_IRQEN3hal16IRQ_Basic_SourceE>:
_ZN21CInterrupt_Controller17Disable_Basic_IRQEN3hal16IRQ_Basic_SourceE():
/home/silhavyj/School/ZeroMate/examples/10-timer_and_GPIO_interrupt/kernel/src/interrupt_controller.cpp:47

void CInterrupt_Controller::Disable_Basic_IRQ(hal::IRQ_Basic_Source source_idx)
{
    8d90:	e92d4810 	push	{r4, fp, lr}
    8d94:	e28db008 	add	fp, sp, #8
    8d98:	e24dd00c 	sub	sp, sp, #12
    8d9c:	e50b0010 	str	r0, [fp, #-16]
    8da0:	e50b1014 	str	r1, [fp, #-20]	; 0xffffffec
/home/silhavyj/School/ZeroMate/examples/10-timer_and_GPIO_interrupt/kernel/src/interrupt_controller.cpp:48
    Regs(hal::Interrupt_Controller_Reg::IRQ_Basic_Disable) = (1 << static_cast<unsigned int>(source_idx));
    8da4:	e51b3014 	ldr	r3, [fp, #-20]	; 0xffffffec
    8da8:	e3a02001 	mov	r2, #1
    8dac:	e1a04312 	lsl	r4, r2, r3
    8db0:	e3a01009 	mov	r1, #9
    8db4:	e51b0010 	ldr	r0, [fp, #-16]
    8db8:	ebffffd5 	bl	8d14 <_ZN21CInterrupt_Controller4RegsEN3hal24Interrupt_Controller_RegE>
    8dbc:	e1a03000 	mov	r3, r0
    8dc0:	e1a02004 	mov	r2, r4
    8dc4:	e5832000 	str	r2, [r3]
/home/silhavyj/School/ZeroMate/examples/10-timer_and_GPIO_interrupt/kernel/src/interrupt_controller.cpp:49
}
    8dc8:	e320f000 	nop	{0}
    8dcc:	e24bd008 	sub	sp, fp, #8
    8dd0:	e8bd8810 	pop	{r4, fp, pc}

00008dd4 <_ZN21CInterrupt_Controller10Enable_IRQEN3hal10IRQ_SourceE>:
_ZN21CInterrupt_Controller10Enable_IRQEN3hal10IRQ_SourceE():
/home/silhavyj/School/ZeroMate/examples/10-timer_and_GPIO_interrupt/kernel/src/interrupt_controller.cpp:52

void CInterrupt_Controller::Enable_IRQ(hal::IRQ_Source source_idx)
{
    8dd4:	e92d4810 	push	{r4, fp, lr}
    8dd8:	e28db008 	add	fp, sp, #8
    8ddc:	e24dd014 	sub	sp, sp, #20
    8de0:	e50b0018 	str	r0, [fp, #-24]	; 0xffffffe8
    8de4:	e50b101c 	str	r1, [fp, #-28]	; 0xffffffe4
/home/silhavyj/School/ZeroMate/examples/10-timer_and_GPIO_interrupt/kernel/src/interrupt_controller.cpp:53
    const unsigned int idx_base = static_cast<unsigned int>(source_idx);
    8de8:	e51b301c 	ldr	r3, [fp, #-28]	; 0xffffffe4
    8dec:	e50b3010 	str	r3, [fp, #-16]
/home/silhavyj/School/ZeroMate/examples/10-timer_and_GPIO_interrupt/kernel/src/interrupt_controller.cpp:55

    Regs(idx_base < 32 ? hal::Interrupt_Controller_Reg::IRQ_Enable_1 : hal::Interrupt_Controller_Reg::IRQ_Enable_2) = (1 << (idx_base % 32));
    8df0:	e51b3010 	ldr	r3, [fp, #-16]
    8df4:	e203301f 	and	r3, r3, #31
    8df8:	e3a02001 	mov	r2, #1
    8dfc:	e1a04312 	lsl	r4, r2, r3
    8e00:	e51b3010 	ldr	r3, [fp, #-16]
    8e04:	e353001f 	cmp	r3, #31
    8e08:	8a000001 	bhi	8e14 <_ZN21CInterrupt_Controller10Enable_IRQEN3hal10IRQ_SourceE+0x40>
/home/silhavyj/School/ZeroMate/examples/10-timer_and_GPIO_interrupt/kernel/src/interrupt_controller.cpp:55 (discriminator 1)
    8e0c:	e3a03004 	mov	r3, #4
    8e10:	ea000000 	b	8e18 <_ZN21CInterrupt_Controller10Enable_IRQEN3hal10IRQ_SourceE+0x44>
/home/silhavyj/School/ZeroMate/examples/10-timer_and_GPIO_interrupt/kernel/src/interrupt_controller.cpp:55 (discriminator 2)
    8e14:	e3a03005 	mov	r3, #5
/home/silhavyj/School/ZeroMate/examples/10-timer_and_GPIO_interrupt/kernel/src/interrupt_controller.cpp:55 (discriminator 4)
    8e18:	e1a01003 	mov	r1, r3
    8e1c:	e51b0018 	ldr	r0, [fp, #-24]	; 0xffffffe8
    8e20:	ebffffbb 	bl	8d14 <_ZN21CInterrupt_Controller4RegsEN3hal24Interrupt_Controller_RegE>
    8e24:	e1a03000 	mov	r3, r0
    8e28:	e1a02004 	mov	r2, r4
    8e2c:	e5832000 	str	r2, [r3]
/home/silhavyj/School/ZeroMate/examples/10-timer_and_GPIO_interrupt/kernel/src/interrupt_controller.cpp:56 (discriminator 4)
}
    8e30:	e320f000 	nop	{0}
    8e34:	e24bd008 	sub	sp, fp, #8
    8e38:	e8bd8810 	pop	{r4, fp, pc}

00008e3c <_ZN21CInterrupt_Controller11Disable_IRQEN3hal10IRQ_SourceE>:
_ZN21CInterrupt_Controller11Disable_IRQEN3hal10IRQ_SourceE():
/home/silhavyj/School/ZeroMate/examples/10-timer_and_GPIO_interrupt/kernel/src/interrupt_controller.cpp:59

void CInterrupt_Controller::Disable_IRQ(hal::IRQ_Source source_idx)
{
    8e3c:	e92d4810 	push	{r4, fp, lr}
    8e40:	e28db008 	add	fp, sp, #8
    8e44:	e24dd014 	sub	sp, sp, #20
    8e48:	e50b0018 	str	r0, [fp, #-24]	; 0xffffffe8
    8e4c:	e50b101c 	str	r1, [fp, #-28]	; 0xffffffe4
/home/silhavyj/School/ZeroMate/examples/10-timer_and_GPIO_interrupt/kernel/src/interrupt_controller.cpp:60
    const unsigned int idx_base = static_cast<unsigned int>(source_idx);
    8e50:	e51b301c 	ldr	r3, [fp, #-28]	; 0xffffffe4
    8e54:	e50b3010 	str	r3, [fp, #-16]
/home/silhavyj/School/ZeroMate/examples/10-timer_and_GPIO_interrupt/kernel/src/interrupt_controller.cpp:62

    Regs(idx_base < 32 ? hal::Interrupt_Controller_Reg::IRQ_Disable_1 : hal::Interrupt_Controller_Reg::IRQ_Disable_2) = (1 << (idx_base % 32));
    8e58:	e51b3010 	ldr	r3, [fp, #-16]
    8e5c:	e203301f 	and	r3, r3, #31
    8e60:	e3a02001 	mov	r2, #1
    8e64:	e1a04312 	lsl	r4, r2, r3
    8e68:	e51b3010 	ldr	r3, [fp, #-16]
    8e6c:	e353001f 	cmp	r3, #31
    8e70:	8a000001 	bhi	8e7c <_ZN21CInterrupt_Controller11Disable_IRQEN3hal10IRQ_SourceE+0x40>
/home/silhavyj/School/ZeroMate/examples/10-timer_and_GPIO_interrupt/kernel/src/interrupt_controller.cpp:62 (discriminator 1)
    8e74:	e3a03007 	mov	r3, #7
    8e78:	ea000000 	b	8e80 <_ZN21CInterrupt_Controller11Disable_IRQEN3hal10IRQ_SourceE+0x44>
/home/silhavyj/School/ZeroMate/examples/10-timer_and_GPIO_interrupt/kernel/src/interrupt_controller.cpp:62 (discriminator 2)
    8e7c:	e3a03008 	mov	r3, #8
/home/silhavyj/School/ZeroMate/examples/10-timer_and_GPIO_interrupt/kernel/src/interrupt_controller.cpp:62 (discriminator 4)
    8e80:	e1a01003 	mov	r1, r3
    8e84:	e51b0018 	ldr	r0, [fp, #-24]	; 0xffffffe8
    8e88:	ebffffa1 	bl	8d14 <_ZN21CInterrupt_Controller4RegsEN3hal24Interrupt_Controller_RegE>
    8e8c:	e1a03000 	mov	r3, r0
    8e90:	e1a02004 	mov	r2, r4
    8e94:	e5832000 	str	r2, [r3]
/home/silhavyj/School/ZeroMate/examples/10-timer_and_GPIO_interrupt/kernel/src/interrupt_controller.cpp:63 (discriminator 4)
}
    8e98:	e320f000 	nop	{0}
    8e9c:	e24bd008 	sub	sp, fp, #8
    8ea0:	e8bd8810 	pop	{r4, fp, pc}

00008ea4 <_Z41__static_initialization_and_destruction_0ii>:
_Z41__static_initialization_and_destruction_0ii():
/home/silhavyj/School/ZeroMate/examples/10-timer_and_GPIO_interrupt/kernel/src/interrupt_controller.cpp:63
    8ea4:	e92d4800 	push	{fp, lr}
    8ea8:	e28db004 	add	fp, sp, #4
    8eac:	e24dd008 	sub	sp, sp, #8
    8eb0:	e50b0008 	str	r0, [fp, #-8]
    8eb4:	e50b100c 	str	r1, [fp, #-12]
    8eb8:	e51b3008 	ldr	r3, [fp, #-8]
    8ebc:	e3530001 	cmp	r3, #1
    8ec0:	1a000006 	bne	8ee0 <_Z41__static_initialization_and_destruction_0ii+0x3c>
/home/silhavyj/School/ZeroMate/examples/10-timer_and_GPIO_interrupt/kernel/src/interrupt_controller.cpp:63 (discriminator 1)
    8ec4:	e51b300c 	ldr	r3, [fp, #-12]
    8ec8:	e59f201c 	ldr	r2, [pc, #28]	; 8eec <_Z41__static_initialization_and_destruction_0ii+0x48>
    8ecc:	e1530002 	cmp	r3, r2
    8ed0:	1a000002 	bne	8ee0 <_Z41__static_initialization_and_destruction_0ii+0x3c>
/home/silhavyj/School/ZeroMate/examples/10-timer_and_GPIO_interrupt/kernel/src/interrupt_controller.cpp:29
CInterrupt_Controller sInterruptCtl(hal::Interrupt_Controller_Base);
    8ed4:	e59f1014 	ldr	r1, [pc, #20]	; 8ef0 <_Z41__static_initialization_and_destruction_0ii+0x4c>
    8ed8:	e59f0014 	ldr	r0, [pc, #20]	; 8ef4 <_Z41__static_initialization_and_destruction_0ii+0x50>
    8edc:	ebffff7f 	bl	8ce0 <_ZN21CInterrupt_ControllerC1Em>
/home/silhavyj/School/ZeroMate/examples/10-timer_and_GPIO_interrupt/kernel/src/interrupt_controller.cpp:63
}
    8ee0:	e320f000 	nop	{0}
    8ee4:	e24bd004 	sub	sp, fp, #4
    8ee8:	e8bd8800 	pop	{fp, pc}
    8eec:	0000ffff 	strdeq	pc, [r0], -pc	; <UNPREDICTABLE>
    8ef0:	2000b200 	andcs	fp, r0, r0, lsl #4
    8ef4:	00009294 	muleq	r0, r4, r2

00008ef8 <_GLOBAL__sub_I_software_interrupt_handler>:
_GLOBAL__sub_I_software_interrupt_handler():
/home/silhavyj/School/ZeroMate/examples/10-timer_and_GPIO_interrupt/kernel/src/interrupt_controller.cpp:63
    8ef8:	e92d4800 	push	{fp, lr}
    8efc:	e28db004 	add	fp, sp, #4
    8f00:	e59f1008 	ldr	r1, [pc, #8]	; 8f10 <_GLOBAL__sub_I_software_interrupt_handler+0x18>
    8f04:	e3a00001 	mov	r0, #1
    8f08:	ebffffe5 	bl	8ea4 <_Z41__static_initialization_and_destruction_0ii>
    8f0c:	e8bd8800 	pop	{fp, pc}
    8f10:	0000ffff 	strdeq	pc, [r0], -pc	; <UNPREDICTABLE>

00008f14 <ACT_LED_Blinker>:
ACT_LED_Blinker():
/home/silhavyj/School/ZeroMate/examples/10-timer_and_GPIO_interrupt/kernel/src/main.cpp:8
#include <drivers/timer.h>

volatile int LED_State = 0;

extern "C" void ACT_LED_Blinker()
{
    8f14:	e92d4800 	push	{fp, lr}
    8f18:	e28db004 	add	fp, sp, #4
/home/silhavyj/School/ZeroMate/examples/10-timer_and_GPIO_interrupt/kernel/src/main.cpp:11
    // prepinani LED pri kazdem vytikani casovace

    if (LED_State)
    8f1c:	e59f305c 	ldr	r3, [pc, #92]	; 8f80 <ACT_LED_Blinker+0x6c>
    8f20:	e5933000 	ldr	r3, [r3]
    8f24:	e3530000 	cmp	r3, #0
    8f28:	13a03001 	movne	r3, #1
    8f2c:	03a03000 	moveq	r3, #0
    8f30:	e6ef3073 	uxtb	r3, r3
    8f34:	e3530000 	cmp	r3, #0
    8f38:	0a000007 	beq	8f5c <ACT_LED_Blinker+0x48>
/home/silhavyj/School/ZeroMate/examples/10-timer_and_GPIO_interrupt/kernel/src/main.cpp:13
    {
        LED_State = 0;
    8f3c:	e59f303c 	ldr	r3, [pc, #60]	; 8f80 <ACT_LED_Blinker+0x6c>
    8f40:	e3a02000 	mov	r2, #0
    8f44:	e5832000 	str	r2, [r3]
/home/silhavyj/School/ZeroMate/examples/10-timer_and_GPIO_interrupt/kernel/src/main.cpp:14
        sGPIO.Set_Output(47, true);
    8f48:	e3a02001 	mov	r2, #1
    8f4c:	e3a0102f 	mov	r1, #47	; 0x2f
    8f50:	e59f002c 	ldr	r0, [pc, #44]	; 8f84 <ACT_LED_Blinker+0x70>
    8f54:	ebfffe07 	bl	8778 <_ZN13CGPIO_Handler10Set_OutputEjb>
/home/silhavyj/School/ZeroMate/examples/10-timer_and_GPIO_interrupt/kernel/src/main.cpp:21
    else
    {
        LED_State = 1;
        sGPIO.Set_Output(47, false);
    }
}
    8f58:	ea000006 	b	8f78 <ACT_LED_Blinker+0x64>
/home/silhavyj/School/ZeroMate/examples/10-timer_and_GPIO_interrupt/kernel/src/main.cpp:18
        LED_State = 1;
    8f5c:	e59f301c 	ldr	r3, [pc, #28]	; 8f80 <ACT_LED_Blinker+0x6c>
    8f60:	e3a02001 	mov	r2, #1
    8f64:	e5832000 	str	r2, [r3]
/home/silhavyj/School/ZeroMate/examples/10-timer_and_GPIO_interrupt/kernel/src/main.cpp:19
        sGPIO.Set_Output(47, false);
    8f68:	e3a02000 	mov	r2, #0
    8f6c:	e3a0102f 	mov	r1, #47	; 0x2f
    8f70:	e59f000c 	ldr	r0, [pc, #12]	; 8f84 <ACT_LED_Blinker+0x70>
    8f74:	ebfffdff 	bl	8778 <_ZN13CGPIO_Handler10Set_OutputEjb>
/home/silhavyj/School/ZeroMate/examples/10-timer_and_GPIO_interrupt/kernel/src/main.cpp:21
}
    8f78:	e320f000 	nop	{0}
    8f7c:	e8bd8800 	pop	{fp, pc}
    8f80:	00009298 	muleq	r0, r8, r2
    8f84:	00009288 	andeq	r9, r0, r8, lsl #5

00008f88 <_kernel_main>:
_kernel_main():
/home/silhavyj/School/ZeroMate/examples/10-timer_and_GPIO_interrupt/kernel/src/main.cpp:24

extern "C" int _kernel_main(void)
{
    8f88:	e92d4800 	push	{fp, lr}
    8f8c:	e28db004 	add	fp, sp, #4
/home/silhavyj/School/ZeroMate/examples/10-timer_and_GPIO_interrupt/kernel/src/main.cpp:25
    sGPIO.Set_GPIO_Function(47, NGPIO_Function::Output);
    8f90:	e3a02001 	mov	r2, #1
    8f94:	e3a0102f 	mov	r1, #47	; 0x2f
    8f98:	e59f0080 	ldr	r0, [pc, #128]	; 9020 <_kernel_main+0x98>
    8f9c:	ebfffd1b 	bl	8410 <_ZN13CGPIO_Handler17Set_GPIO_FunctionEj14NGPIO_Function>
/home/silhavyj/School/ZeroMate/examples/10-timer_and_GPIO_interrupt/kernel/src/main.cpp:26
    sGPIO.Set_GPIO_Function(48, NGPIO_Function::Output);
    8fa0:	e3a02001 	mov	r2, #1
    8fa4:	e3a01030 	mov	r1, #48	; 0x30
    8fa8:	e59f0070 	ldr	r0, [pc, #112]	; 9020 <_kernel_main+0x98>
    8fac:	ebfffd17 	bl	8410 <_ZN13CGPIO_Handler17Set_GPIO_FunctionEj14NGPIO_Function>
/home/silhavyj/School/ZeroMate/examples/10-timer_and_GPIO_interrupt/kernel/src/main.cpp:28

    sGPIO.Set_GPIO_Function(46, NGPIO_Function::Input);
    8fb0:	e3a02000 	mov	r2, #0
    8fb4:	e3a0102e 	mov	r1, #46	; 0x2e
    8fb8:	e59f0060 	ldr	r0, [pc, #96]	; 9020 <_kernel_main+0x98>
    8fbc:	ebfffd13 	bl	8410 <_ZN13CGPIO_Handler17Set_GPIO_FunctionEj14NGPIO_Function>
/home/silhavyj/School/ZeroMate/examples/10-timer_and_GPIO_interrupt/kernel/src/main.cpp:29
    sGPIO.Enable_Event_Detect(46, NGPIO_Interrupt_Type::Rising_Edge);
    8fc0:	e3a02000 	mov	r2, #0
    8fc4:	e3a0102e 	mov	r1, #46	; 0x2e
    8fc8:	e59f0050 	ldr	r0, [pc, #80]	; 9020 <_kernel_main+0x98>
    8fcc:	ebfffd58 	bl	8534 <_ZN13CGPIO_Handler19Enable_Event_DetectEj20NGPIO_Interrupt_Type>
/home/silhavyj/School/ZeroMate/examples/10-timer_and_GPIO_interrupt/kernel/src/main.cpp:30
    sGPIO.Enable_Event_Detect(46, NGPIO_Interrupt_Type::Falling_Edge);
    8fd0:	e3a02001 	mov	r2, #1
    8fd4:	e3a0102e 	mov	r1, #46	; 0x2e
    8fd8:	e59f0040 	ldr	r0, [pc, #64]	; 9020 <_kernel_main+0x98>
    8fdc:	ebfffd54 	bl	8534 <_ZN13CGPIO_Handler19Enable_Event_DetectEj20NGPIO_Interrupt_Type>
/home/silhavyj/School/ZeroMate/examples/10-timer_and_GPIO_interrupt/kernel/src/main.cpp:32

    sInterruptCtl.Enable_IRQ(hal::IRQ_Source::GPIO_2);
    8fe0:	e3a01033 	mov	r1, #51	; 0x33
    8fe4:	e59f0038 	ldr	r0, [pc, #56]	; 9024 <_kernel_main+0x9c>
    8fe8:	ebffff79 	bl	8dd4 <_ZN21CInterrupt_Controller10Enable_IRQEN3hal10IRQ_SourceE>
/home/silhavyj/School/ZeroMate/examples/10-timer_and_GPIO_interrupt/kernel/src/main.cpp:34

    sInterruptCtl.Disable_Basic_IRQ(hal::IRQ_Basic_Source::Timer);
    8fec:	e3a01000 	mov	r1, #0
    8ff0:	e59f002c 	ldr	r0, [pc, #44]	; 9024 <_kernel_main+0x9c>
    8ff4:	ebffff65 	bl	8d90 <_ZN21CInterrupt_Controller17Disable_Basic_IRQEN3hal16IRQ_Basic_SourceE>
/home/silhavyj/School/ZeroMate/examples/10-timer_and_GPIO_interrupt/kernel/src/main.cpp:37

    // nastavime casovac - budeme pro ted blikat LEDkou, v budoucnu muzeme treba spoustet planovac procesu
    sTimer.Enable(ACT_LED_Blinker, 0x100, NTimer_Prescaler::Prescaler_16);
    8ff8:	e3a03001 	mov	r3, #1
    8ffc:	e3a02c01 	mov	r2, #256	; 0x100
    9000:	e59f1020 	ldr	r1, [pc, #32]	; 9028 <_kernel_main+0xa0>
    9004:	e59f0020 	ldr	r0, [pc, #32]	; 902c <_kernel_main+0xa4>
    9008:	ebfffe84 	bl	8a20 <_ZN6CTimer6EnableEPFvvEj16NTimer_Prescaler>
/home/silhavyj/School/ZeroMate/examples/10-timer_and_GPIO_interrupt/kernel/src/main.cpp:40

    // povolime IRQ casovace
    sInterruptCtl.Enable_Basic_IRQ(hal::IRQ_Basic_Source::Timer);
    900c:	e3a01000 	mov	r1, #0
    9010:	e59f000c 	ldr	r0, [pc, #12]	; 9024 <_kernel_main+0x9c>
    9014:	ebffff4c 	bl	8d4c <_ZN21CInterrupt_Controller16Enable_Basic_IRQEN3hal16IRQ_Basic_SourceE>
/home/silhavyj/School/ZeroMate/examples/10-timer_and_GPIO_interrupt/kernel/src/main.cpp:42

    enable_irq();
    9018:	eb000004 	bl	9030 <enable_irq>
/home/silhavyj/School/ZeroMate/examples/10-timer_and_GPIO_interrupt/kernel/src/main.cpp:44 (discriminator 1)

    while (1)
    901c:	eafffffe 	b	901c <_kernel_main+0x94>
    9020:	00009288 	andeq	r9, r0, r8, lsl #5
    9024:	00009294 	muleq	r0, r4, r2
    9028:	00008f14 	andeq	r8, r0, r4, lsl pc
    902c:	0000928c 	andeq	r9, r0, ip, lsl #5

00009030 <enable_irq>:
enable_irq():
/home/silhavyj/School/ZeroMate/examples/10-timer_and_GPIO_interrupt/kernel/src/start.s:90
;@ tady budou ostatni symboly, ktere nevyzaduji zadne specialni misto
.section .text

.global enable_irq
enable_irq:
    mrs r0, cpsr		;@ presun ridiciho registru (CPSR) do general purpose registru (R0)
    9030:	e10f0000 	mrs	r0, CPSR
/home/silhavyj/School/ZeroMate/examples/10-timer_and_GPIO_interrupt/kernel/src/start.s:91
    bic r0, r0, #0x80	;@ vypne bit 7 v registru r0 ("IRQ mask bit")
    9034:	e3c00080 	bic	r0, r0, #128	; 0x80
/home/silhavyj/School/ZeroMate/examples/10-timer_and_GPIO_interrupt/kernel/src/start.s:92
    msr cpsr_c, r0		;@ nacteme upraveny general purpose (R0) registr do ridiciho (CPSR)
    9038:	e121f000 	msr	CPSR_c, r0
/home/silhavyj/School/ZeroMate/examples/10-timer_and_GPIO_interrupt/kernel/src/start.s:93
    cpsie i				;@ povoli preruseni
    903c:	f1080080 	cpsie	i
/home/silhavyj/School/ZeroMate/examples/10-timer_and_GPIO_interrupt/kernel/src/start.s:94
    bx lr
    9040:	e12fff1e 	bx	lr

00009044 <undefined_instruction_handler>:
undefined_instruction_handler():
/home/silhavyj/School/ZeroMate/examples/10-timer_and_GPIO_interrupt/kernel/src/start.s:97

undefined_instruction_handler:
	b hang
    9044:	eafffc11 	b	8090 <hang>

00009048 <prefetch_abort_handler>:
prefetch_abort_handler():
/home/silhavyj/School/ZeroMate/examples/10-timer_and_GPIO_interrupt/kernel/src/start.s:102

prefetch_abort_handler:
	;@ tady pak muzeme osetrit, kdyz program zasahne do mista, ktere nema mapovane ve svem virtualnim adr. prostoru
	;@ a treba vyvolat nasi obdobu segfaultu
	b hang
    9048:	eafffc10 	b	8090 <hang>

0000904c <data_abort_handler>:
data_abort_handler():
/home/silhavyj/School/ZeroMate/examples/10-timer_and_GPIO_interrupt/kernel/src/start.s:107

data_abort_handler:
	;@ tady pak muzeme osetrit, kdyz program zasahne do mista, ktere nema mapovane ve svem virtualnim adr. prostoru
	;@ a treba vyvolat nasi obdobu segfaultu
	b hang
    904c:	eafffc0f 	b	8090 <hang>

00009050 <_c_startup>:
_c_startup():
/home/silhavyj/School/ZeroMate/examples/10-timer_and_GPIO_interrupt/kernel/src/startup.cpp:21
extern "C" dtor_ptr __DTOR_LIST__[0];
// konec pole destruktoru
extern "C" dtor_ptr __DTOR_END__[0];

extern "C" int _c_startup(void)
{
    9050:	e52db004 	push	{fp}		; (str fp, [sp, #-4]!)
    9054:	e28db000 	add	fp, sp, #0
    9058:	e24dd00c 	sub	sp, sp, #12
/home/silhavyj/School/ZeroMate/examples/10-timer_and_GPIO_interrupt/kernel/src/startup.cpp:25
    int* i;

    // vynulujeme .bss sekci
    for (i = (int*)_bss_start; i < (int*)_bss_end; i++)
    905c:	e59f304c 	ldr	r3, [pc, #76]	; 90b0 <_c_startup+0x60>
    9060:	e5933000 	ldr	r3, [r3]
    9064:	e50b3008 	str	r3, [fp, #-8]
/home/silhavyj/School/ZeroMate/examples/10-timer_and_GPIO_interrupt/kernel/src/startup.cpp:25 (discriminator 3)
    9068:	e59f3044 	ldr	r3, [pc, #68]	; 90b4 <_c_startup+0x64>
    906c:	e5933000 	ldr	r3, [r3]
    9070:	e1a02003 	mov	r2, r3
    9074:	e51b3008 	ldr	r3, [fp, #-8]
    9078:	e1530002 	cmp	r3, r2
    907c:	2a000006 	bcs	909c <_c_startup+0x4c>
/home/silhavyj/School/ZeroMate/examples/10-timer_and_GPIO_interrupt/kernel/src/startup.cpp:26 (discriminator 2)
        *i = 0;
    9080:	e51b3008 	ldr	r3, [fp, #-8]
    9084:	e3a02000 	mov	r2, #0
    9088:	e5832000 	str	r2, [r3]
/home/silhavyj/School/ZeroMate/examples/10-timer_and_GPIO_interrupt/kernel/src/startup.cpp:25 (discriminator 2)
    for (i = (int*)_bss_start; i < (int*)_bss_end; i++)
    908c:	e51b3008 	ldr	r3, [fp, #-8]
    9090:	e2833004 	add	r3, r3, #4
    9094:	e50b3008 	str	r3, [fp, #-8]
    9098:	eafffff2 	b	9068 <_c_startup+0x18>
/home/silhavyj/School/ZeroMate/examples/10-timer_and_GPIO_interrupt/kernel/src/startup.cpp:28

    return 0;
    909c:	e3a03000 	mov	r3, #0
/home/silhavyj/School/ZeroMate/examples/10-timer_and_GPIO_interrupt/kernel/src/startup.cpp:29
}
    90a0:	e1a00003 	mov	r0, r3
    90a4:	e28bd000 	add	sp, fp, #0
    90a8:	e49db004 	pop	{fp}		; (ldr fp, [sp], #4)
    90ac:	e12fff1e 	bx	lr
    90b0:	00009285 	andeq	r9, r0, r5, lsl #5
    90b4:	000092ac 	andeq	r9, r0, ip, lsr #5

000090b8 <_cpp_startup>:
_cpp_startup():
/home/silhavyj/School/ZeroMate/examples/10-timer_and_GPIO_interrupt/kernel/src/startup.cpp:32

extern "C" int _cpp_startup(void)
{
    90b8:	e92d4800 	push	{fp, lr}
    90bc:	e28db004 	add	fp, sp, #4
    90c0:	e24dd008 	sub	sp, sp, #8
/home/silhavyj/School/ZeroMate/examples/10-timer_and_GPIO_interrupt/kernel/src/startup.cpp:37
    ctor_ptr* fnptr;

    // zavolame konstruktory globalnich C++ trid
    // v poli __CTOR_LIST__ jsou ukazatele na vygenerovane stuby volani konstruktoru
    for (fnptr = __CTOR_LIST__; fnptr < __CTOR_END__; fnptr++)
    90c4:	e59f303c 	ldr	r3, [pc, #60]	; 9108 <_cpp_startup+0x50>
    90c8:	e50b3008 	str	r3, [fp, #-8]
/home/silhavyj/School/ZeroMate/examples/10-timer_and_GPIO_interrupt/kernel/src/startup.cpp:37 (discriminator 3)
    90cc:	e51b3008 	ldr	r3, [fp, #-8]
    90d0:	e59f2034 	ldr	r2, [pc, #52]	; 910c <_cpp_startup+0x54>
    90d4:	e1530002 	cmp	r3, r2
    90d8:	2a000006 	bcs	90f8 <_cpp_startup+0x40>
/home/silhavyj/School/ZeroMate/examples/10-timer_and_GPIO_interrupt/kernel/src/startup.cpp:38 (discriminator 2)
        (*fnptr)();
    90dc:	e51b3008 	ldr	r3, [fp, #-8]
    90e0:	e5933000 	ldr	r3, [r3]
    90e4:	e12fff33 	blx	r3
/home/silhavyj/School/ZeroMate/examples/10-timer_and_GPIO_interrupt/kernel/src/startup.cpp:37 (discriminator 2)
    for (fnptr = __CTOR_LIST__; fnptr < __CTOR_END__; fnptr++)
    90e8:	e51b3008 	ldr	r3, [fp, #-8]
    90ec:	e2833004 	add	r3, r3, #4
    90f0:	e50b3008 	str	r3, [fp, #-8]
    90f4:	eafffff4 	b	90cc <_cpp_startup+0x14>
/home/silhavyj/School/ZeroMate/examples/10-timer_and_GPIO_interrupt/kernel/src/startup.cpp:40

    return 0;
    90f8:	e3a03000 	mov	r3, #0
/home/silhavyj/School/ZeroMate/examples/10-timer_and_GPIO_interrupt/kernel/src/startup.cpp:41
}
    90fc:	e1a00003 	mov	r0, r3
    9100:	e24bd004 	sub	sp, fp, #4
    9104:	e8bd8800 	pop	{fp, pc}
    9108:	00009278 	andeq	r9, r0, r8, ror r2
    910c:	00009284 	andeq	r9, r0, r4, lsl #5

00009110 <_cpp_shutdown>:
_cpp_shutdown():
/home/silhavyj/School/ZeroMate/examples/10-timer_and_GPIO_interrupt/kernel/src/startup.cpp:44

extern "C" int _cpp_shutdown(void)
{
    9110:	e92d4800 	push	{fp, lr}
    9114:	e28db004 	add	fp, sp, #4
    9118:	e24dd008 	sub	sp, sp, #8
/home/silhavyj/School/ZeroMate/examples/10-timer_and_GPIO_interrupt/kernel/src/startup.cpp:48
    dtor_ptr* fnptr;

    // zavolame destruktory globalnich C++ trid
    for (fnptr = __DTOR_LIST__; fnptr < __DTOR_END__; fnptr++)
    911c:	e59f303c 	ldr	r3, [pc, #60]	; 9160 <_cpp_shutdown+0x50>
    9120:	e50b3008 	str	r3, [fp, #-8]
/home/silhavyj/School/ZeroMate/examples/10-timer_and_GPIO_interrupt/kernel/src/startup.cpp:48 (discriminator 3)
    9124:	e51b3008 	ldr	r3, [fp, #-8]
    9128:	e59f2034 	ldr	r2, [pc, #52]	; 9164 <_cpp_shutdown+0x54>
    912c:	e1530002 	cmp	r3, r2
    9130:	2a000006 	bcs	9150 <_cpp_shutdown+0x40>
/home/silhavyj/School/ZeroMate/examples/10-timer_and_GPIO_interrupt/kernel/src/startup.cpp:49 (discriminator 2)
        (*fnptr)();
    9134:	e51b3008 	ldr	r3, [fp, #-8]
    9138:	e5933000 	ldr	r3, [r3]
    913c:	e12fff33 	blx	r3
/home/silhavyj/School/ZeroMate/examples/10-timer_and_GPIO_interrupt/kernel/src/startup.cpp:48 (discriminator 2)
    for (fnptr = __DTOR_LIST__; fnptr < __DTOR_END__; fnptr++)
    9140:	e51b3008 	ldr	r3, [fp, #-8]
    9144:	e2833004 	add	r3, r3, #4
    9148:	e50b3008 	str	r3, [fp, #-8]
    914c:	eafffff4 	b	9124 <_cpp_shutdown+0x14>
/home/silhavyj/School/ZeroMate/examples/10-timer_and_GPIO_interrupt/kernel/src/startup.cpp:51

    return 0;
    9150:	e3a03000 	mov	r3, #0
/home/silhavyj/School/ZeroMate/examples/10-timer_and_GPIO_interrupt/kernel/src/startup.cpp:52
}
    9154:	e1a00003 	mov	r0, r3
    9158:	e24bd004 	sub	sp, fp, #4
    915c:	e8bd8800 	pop	{fp, pc}
    9160:	00009284 	andeq	r9, r0, r4, lsl #5
    9164:	00009284 	andeq	r9, r0, r4, lsl #5
