
./kernel:     file format elf32-littlearm


Disassembly of section .text:

00008000 <_start>:
_start():
/home/silhavyj/School/ZeroMate/examples/13-context_switch_monitor/kernel/src/start.s:14
	;@	- sem skoci bootloader, prvni na co narazi je "ldr pc, _reset_ptr" -> tedy se chova jako kdyby slo o reset a skoci na zacatek provadeni
	;@	- v cele svoji krase (vsechny "ldr" instrukce) slouzi jako predloha skutecne tabulce vektoru preruseni
	;@ na dany offset procesor skoci, kdyz je vyvolano libovolne preruseni
	;@ ARM nastavuje rovnou registr PC na tuto adresu, tzn. na teto adrese musi byt kodovana 4B instrukce skoku nekam jinam
	;@ oproti tomu napr. x86 (x86_64) obsahuje v tabulce rovnou adresu a procesor nastavuje PC (CS:IP) na adresu kterou najde v tabulce
	ldr pc, _reset_ptr						;@ 0x00 - reset - vyvolano pri resetu procesoru
    8000:	e59ff018 	ldr	pc, [pc, #24]	; 8020 <_reset_ptr>
/home/silhavyj/School/ZeroMate/examples/13-context_switch_monitor/kernel/src/start.s:15
	ldr pc, _undefined_instruction_ptr		;@ 0x04 - undefined instruction - vyjimka, vyvolana pri dekodovani nezname instrukce
    8004:	e59ff018 	ldr	pc, [pc, #24]	; 8024 <_undefined_instruction_ptr>
/home/silhavyj/School/ZeroMate/examples/13-context_switch_monitor/kernel/src/start.s:16
	ldr pc, _software_interrupt_ptr			;@ 0x08 - software interrupt - vyvolano, kdyz procesor provede instrukci swi
    8008:	e59ff018 	ldr	pc, [pc, #24]	; 8028 <_software_interrupt_ptr>
/home/silhavyj/School/ZeroMate/examples/13-context_switch_monitor/kernel/src/start.s:17
	ldr pc, _prefetch_abort_ptr				;@ 0x0C - prefetch abort - vyvolano, kdyz se procesor snazi napr. nacist instrukci z mista, odkud nacist nejde
    800c:	e59ff018 	ldr	pc, [pc, #24]	; 802c <_prefetch_abort_ptr>
/home/silhavyj/School/ZeroMate/examples/13-context_switch_monitor/kernel/src/start.s:18
	ldr pc, _data_abort_ptr					;@ 0x10 - data abort - vyvolano, kdyz se procesor snazi napr. nacist data z mista, odkud nacist nejdou
    8010:	e59ff018 	ldr	pc, [pc, #24]	; 8030 <_data_abort_ptr>
/home/silhavyj/School/ZeroMate/examples/13-context_switch_monitor/kernel/src/start.s:19
	ldr pc, _unused_handler_ptr				;@ 0x14 - unused - ve specifikaci ARM neni uvedeno zadne vyuziti
    8014:	e59ff018 	ldr	pc, [pc, #24]	; 8034 <_unused_handler_ptr>
/home/silhavyj/School/ZeroMate/examples/13-context_switch_monitor/kernel/src/start.s:20
	ldr pc, _irq_ptr						;@ 0x18 - IRQ - hardwarove preruseni (general purpose)
    8018:	e59ff018 	ldr	pc, [pc, #24]	; 8038 <_irq_ptr>
/home/silhavyj/School/ZeroMate/examples/13-context_switch_monitor/kernel/src/start.s:21
	ldr pc, _fast_interrupt_ptr				;@ 0x1C - fast interrupt request - prioritni IRQ pro vysokorychlostni zalezitosti
    801c:	e59ff018 	ldr	pc, [pc, #24]	; 803c <_fast_interrupt_ptr>

00008020 <_reset_ptr>:
_reset_ptr():
/home/silhavyj/School/ZeroMate/examples/13-context_switch_monitor/kernel/src/start.s:21
    8020:	00008040 	andeq	r8, r0, r0, asr #32

00008024 <_undefined_instruction_ptr>:
_undefined_instruction_ptr():
/home/silhavyj/School/ZeroMate/examples/13-context_switch_monitor/kernel/src/start.s:21
    8024:	0000a2b8 			; <UNDEFINED> instruction: 0x0000a2b8

00008028 <_software_interrupt_ptr>:
_software_interrupt_ptr():
/home/silhavyj/School/ZeroMate/examples/13-context_switch_monitor/kernel/src/start.s:21
    8028:	00009078 	andeq	r9, r0, r8, ror r0

0000802c <_prefetch_abort_ptr>:
_prefetch_abort_ptr():
/home/silhavyj/School/ZeroMate/examples/13-context_switch_monitor/kernel/src/start.s:21
    802c:	0000a2e4 	andeq	sl, r0, r4, ror #5

00008030 <_data_abort_ptr>:
_data_abort_ptr():
/home/silhavyj/School/ZeroMate/examples/13-context_switch_monitor/kernel/src/start.s:21
    8030:	0000a2e8 	andeq	sl, r0, r8, ror #5

00008034 <_unused_handler_ptr>:
_unused_handler_ptr():
/home/silhavyj/School/ZeroMate/examples/13-context_switch_monitor/kernel/src/start.s:21
    8034:	00008040 	andeq	r8, r0, r0, asr #32

00008038 <_irq_ptr>:
_irq_ptr():
/home/silhavyj/School/ZeroMate/examples/13-context_switch_monitor/kernel/src/start.s:21
    8038:	0000a2bc 			; <UNDEFINED> instruction: 0x0000a2bc

0000803c <_fast_interrupt_ptr>:
_fast_interrupt_ptr():
/home/silhavyj/School/ZeroMate/examples/13-context_switch_monitor/kernel/src/start.s:21
    803c:	000090c0 	andeq	r9, r0, r0, asr #1

00008040 <_reset>:
_reset():
/home/silhavyj/School/ZeroMate/examples/13-context_switch_monitor/kernel/src/start.s:52


;@ kernel reset vektor - tento kod se vykona pri kazdem resetu zarizeni (i prvnim spusteni)
_reset:
	;@ nacteni tabulky vektoru preruseni do pameti
	mov r0, #0x8000			;@ adresa 0x8000 (_start) do r0
    8040:	e3a00902 	mov	r0, #32768	; 0x8000
/home/silhavyj/School/ZeroMate/examples/13-context_switch_monitor/kernel/src/start.s:53
    mov r1, #0x0000			;@ adresa 0x0000 (pocatek RAM) do r1 - tam budeme vkladat tabulku vektoru preruseni
    8044:	e3a01000 	mov	r1, #0
/home/silhavyj/School/ZeroMate/examples/13-context_switch_monitor/kernel/src/start.s:57

	;@ Thumb instrukce - nacteni 4B slov z pameti ulozene v r0 (0x8000) do registru r2, 3, ... 9
	;@                 - ulozeni obsahu registru r2, 3, ... 9 do pameti ulozene v registru r1 (0x0000)
    ldmia r0!,{r2, r3, r4, r5, r6, r7, r8, r9}
    8048:	e8b003fc 	ldm	r0!, {r2, r3, r4, r5, r6, r7, r8, r9}
/home/silhavyj/School/ZeroMate/examples/13-context_switch_monitor/kernel/src/start.s:58
    stmia r1!,{r2, r3, r4, r5, r6, r7, r8, r9}
    804c:	e8a103fc 	stmia	r1!, {r2, r3, r4, r5, r6, r7, r8, r9}
/home/silhavyj/School/ZeroMate/examples/13-context_switch_monitor/kernel/src/start.s:59
    ldmia r0!,{r2, r3, r4, r5, r6, r7, r8, r9}
    8050:	e8b003fc 	ldm	r0!, {r2, r3, r4, r5, r6, r7, r8, r9}
/home/silhavyj/School/ZeroMate/examples/13-context_switch_monitor/kernel/src/start.s:60
    stmia r1!,{r2, r3, r4, r5, r6, r7, r8, r9}
    8054:	e8a103fc 	stmia	r1!, {r2, r3, r4, r5, r6, r7, r8, r9}
/home/silhavyj/School/ZeroMate/examples/13-context_switch_monitor/kernel/src/start.s:63

	;@ baze pro systemove zasobniky
	mov r4, #0x0
    8058:	e3a04000 	mov	r4, #0
/home/silhavyj/School/ZeroMate/examples/13-context_switch_monitor/kernel/src/start.s:66

	;@ nejdrive supervisor mod a jeho stack
    mov r0, #(CPSR_MODE_SVR | CPSR_IRQ_INHIBIT | CPSR_FIQ_INHIBIT)
    805c:	e3a000d3 	mov	r0, #211	; 0xd3
/home/silhavyj/School/ZeroMate/examples/13-context_switch_monitor/kernel/src/start.s:67
    msr cpsr_c, r0
    8060:	e121f000 	msr	CPSR_c, r0
/home/silhavyj/School/ZeroMate/examples/13-context_switch_monitor/kernel/src/start.s:68
	add sp, r4, #0x8000
    8064:	e284d902 	add	sp, r4, #32768	; 0x8000
/home/silhavyj/School/ZeroMate/examples/13-context_switch_monitor/kernel/src/start.s:71

	;@ na moment se prepneme do IRQ rezimu, nastavime mu stack pointer
	mov r0, #(CPSR_MODE_IRQ | CPSR_IRQ_INHIBIT | CPSR_FIQ_INHIBIT)
    8068:	e3a000d2 	mov	r0, #210	; 0xd2
/home/silhavyj/School/ZeroMate/examples/13-context_switch_monitor/kernel/src/start.s:72
    msr cpsr_c, r0
    806c:	e121f000 	msr	CPSR_c, r0
/home/silhavyj/School/ZeroMate/examples/13-context_switch_monitor/kernel/src/start.s:73
	add sp, r4, #0x7000
    8070:	e284da07 	add	sp, r4, #28672	; 0x7000
/home/silhavyj/School/ZeroMate/examples/13-context_switch_monitor/kernel/src/start.s:76

	;@ na moment se prepneme do FIQ rezimu, nastavime mu stack pointer
	mov r0, #(CPSR_MODE_FIQ | CPSR_IRQ_INHIBIT | CPSR_FIQ_INHIBIT)
    8074:	e3a000d1 	mov	r0, #209	; 0xd1
/home/silhavyj/School/ZeroMate/examples/13-context_switch_monitor/kernel/src/start.s:77
    msr cpsr_c, r0
    8078:	e121f000 	msr	CPSR_c, r0
/home/silhavyj/School/ZeroMate/examples/13-context_switch_monitor/kernel/src/start.s:78
	add sp, r4, #0x6000
    807c:	e284da06 	add	sp, r4, #24576	; 0x6000
/home/silhavyj/School/ZeroMate/examples/13-context_switch_monitor/kernel/src/start.s:81

	;@ nakonec system mod a stack
    mov r0, #(CPSR_MODE_SYS | CPSR_IRQ_INHIBIT | CPSR_FIQ_INHIBIT)
    8080:	e3a000df 	mov	r0, #223	; 0xdf
/home/silhavyj/School/ZeroMate/examples/13-context_switch_monitor/kernel/src/start.s:82
    msr cpsr_c, r0
    8084:	e121f000 	msr	CPSR_c, r0
/home/silhavyj/School/ZeroMate/examples/13-context_switch_monitor/kernel/src/start.s:83
	add sp, r4, #0x5000
    8088:	e284da05 	add	sp, r4, #20480	; 0x5000
/home/silhavyj/School/ZeroMate/examples/13-context_switch_monitor/kernel/src/start.s:86

	;@ zapneme nezarovnany pristup do pameti (nemusi byt zadouci, ale pro nase potreby je to v poradku)
	mrc p15, #0, r4, c1, c0, #0
    808c:	ee114f10 	mrc	15, 0, r4, cr1, cr0, {0}
/home/silhavyj/School/ZeroMate/examples/13-context_switch_monitor/kernel/src/start.s:87
	orr r4, #0x400000
    8090:	e3844501 	orr	r4, r4, #4194304	; 0x400000
/home/silhavyj/School/ZeroMate/examples/13-context_switch_monitor/kernel/src/start.s:88
	mcr p15, #0, r4, c1, c0, #0
    8094:	ee014f10 	mcr	15, 0, r4, cr1, cr0, {0}
/home/silhavyj/School/ZeroMate/examples/13-context_switch_monitor/kernel/src/start.s:90

	bl _c_startup			;@ C startup kod (inicializace prostredi)
    8098:	eb000893 	bl	a2ec <_c_startup>
/home/silhavyj/School/ZeroMate/examples/13-context_switch_monitor/kernel/src/start.s:91
	bl _cpp_startup			;@ C++ startup kod (volani globalnich konstruktoru, ...)
    809c:	eb0008ac 	bl	a354 <_cpp_startup>
/home/silhavyj/School/ZeroMate/examples/13-context_switch_monitor/kernel/src/start.s:92
	bl _kernel_main			;@ skocime do hlavniho kodu jadra (v C)
    80a0:	eb00050e 	bl	94e0 <_kernel_main>
/home/silhavyj/School/ZeroMate/examples/13-context_switch_monitor/kernel/src/start.s:93
	bl _cpp_shutdown		;@ C++ shutdown kod (volani globalnich destruktoru, ...)
    80a4:	eb0008c0 	bl	a3ac <_cpp_shutdown>

000080a8 <hang>:
hang():
/home/silhavyj/School/ZeroMate/examples/13-context_switch_monitor/kernel/src/start.s:95
hang:
	b hang
    80a8:	eafffffe 	b	80a8 <hang>

000080ac <__cxa_guard_acquire>:
__cxa_guard_acquire():
/home/silhavyj/School/ZeroMate/examples/13-context_switch_monitor/kernel/src/cxx.cpp:11
    extern "C" int __cxa_guard_acquire(__guard*);
    extern "C" void __cxa_guard_release(__guard*);
    extern "C" void __cxa_guard_abort(__guard*);

    extern "C" int __cxa_guard_acquire(__guard* g)
    {
    80ac:	e52db004 	push	{fp}		; (str fp, [sp, #-4]!)
    80b0:	e28db000 	add	fp, sp, #0
    80b4:	e24dd00c 	sub	sp, sp, #12
    80b8:	e50b0008 	str	r0, [fp, #-8]
/home/silhavyj/School/ZeroMate/examples/13-context_switch_monitor/kernel/src/cxx.cpp:12
        return !*(char*)(g);
    80bc:	e51b3008 	ldr	r3, [fp, #-8]
    80c0:	e5d33000 	ldrb	r3, [r3]
    80c4:	e3530000 	cmp	r3, #0
    80c8:	03a03001 	moveq	r3, #1
    80cc:	13a03000 	movne	r3, #0
    80d0:	e6ef3073 	uxtb	r3, r3
/home/silhavyj/School/ZeroMate/examples/13-context_switch_monitor/kernel/src/cxx.cpp:13
    }
    80d4:	e1a00003 	mov	r0, r3
    80d8:	e28bd000 	add	sp, fp, #0
    80dc:	e49db004 	pop	{fp}		; (ldr fp, [sp], #4)
    80e0:	e12fff1e 	bx	lr

000080e4 <__cxa_guard_release>:
__cxa_guard_release():
/home/silhavyj/School/ZeroMate/examples/13-context_switch_monitor/kernel/src/cxx.cpp:16

    extern "C" void __cxa_guard_release(__guard* g)
    {
    80e4:	e52db004 	push	{fp}		; (str fp, [sp, #-4]!)
    80e8:	e28db000 	add	fp, sp, #0
    80ec:	e24dd00c 	sub	sp, sp, #12
    80f0:	e50b0008 	str	r0, [fp, #-8]
/home/silhavyj/School/ZeroMate/examples/13-context_switch_monitor/kernel/src/cxx.cpp:17
        *(char*)g = 1;
    80f4:	e51b3008 	ldr	r3, [fp, #-8]
    80f8:	e3a02001 	mov	r2, #1
    80fc:	e5c32000 	strb	r2, [r3]
/home/silhavyj/School/ZeroMate/examples/13-context_switch_monitor/kernel/src/cxx.cpp:18
    }
    8100:	e320f000 	nop	{0}
    8104:	e28bd000 	add	sp, fp, #0
    8108:	e49db004 	pop	{fp}		; (ldr fp, [sp], #4)
    810c:	e12fff1e 	bx	lr

00008110 <__cxa_guard_abort>:
__cxa_guard_abort():
/home/silhavyj/School/ZeroMate/examples/13-context_switch_monitor/kernel/src/cxx.cpp:21

    extern "C" void __cxa_guard_abort(__guard*)
    {
    8110:	e52db004 	push	{fp}		; (str fp, [sp, #-4]!)
    8114:	e28db000 	add	fp, sp, #0
    8118:	e24dd00c 	sub	sp, sp, #12
    811c:	e50b0008 	str	r0, [fp, #-8]
/home/silhavyj/School/ZeroMate/examples/13-context_switch_monitor/kernel/src/cxx.cpp:22
    }
    8120:	e320f000 	nop	{0}
    8124:	e28bd000 	add	sp, fp, #0
    8128:	e49db004 	pop	{fp}		; (ldr fp, [sp], #4)
    812c:	e12fff1e 	bx	lr

00008130 <__dso_handle>:
__dso_handle():
/home/silhavyj/School/ZeroMate/examples/13-context_switch_monitor/kernel/src/cxx.cpp:26
}

extern "C" void __dso_handle()
{
    8130:	e52db004 	push	{fp}		; (str fp, [sp, #-4]!)
    8134:	e28db000 	add	fp, sp, #0
/home/silhavyj/School/ZeroMate/examples/13-context_switch_monitor/kernel/src/cxx.cpp:28
    // ignore dtors for now
}
    8138:	e320f000 	nop	{0}
    813c:	e28bd000 	add	sp, fp, #0
    8140:	e49db004 	pop	{fp}		; (ldr fp, [sp], #4)
    8144:	e12fff1e 	bx	lr

00008148 <__cxa_atexit>:
__cxa_atexit():
/home/silhavyj/School/ZeroMate/examples/13-context_switch_monitor/kernel/src/cxx.cpp:31

extern "C" void __cxa_atexit()
{
    8148:	e52db004 	push	{fp}		; (str fp, [sp, #-4]!)
    814c:	e28db000 	add	fp, sp, #0
/home/silhavyj/School/ZeroMate/examples/13-context_switch_monitor/kernel/src/cxx.cpp:33
    // ignore dtors for now
}
    8150:	e320f000 	nop	{0}
    8154:	e28bd000 	add	sp, fp, #0
    8158:	e49db004 	pop	{fp}		; (ldr fp, [sp], #4)
    815c:	e12fff1e 	bx	lr

00008160 <__cxa_pure_virtual>:
__cxa_pure_virtual():
/home/silhavyj/School/ZeroMate/examples/13-context_switch_monitor/kernel/src/cxx.cpp:36

extern "C" void __cxa_pure_virtual()
{
    8160:	e52db004 	push	{fp}		; (str fp, [sp, #-4]!)
    8164:	e28db000 	add	fp, sp, #0
/home/silhavyj/School/ZeroMate/examples/13-context_switch_monitor/kernel/src/cxx.cpp:38
    // pure virtual method called
}
    8168:	e320f000 	nop	{0}
    816c:	e28bd000 	add	sp, fp, #0
    8170:	e49db004 	pop	{fp}		; (ldr fp, [sp], #4)
    8174:	e12fff1e 	bx	lr

00008178 <__aeabi_unwind_cpp_pr1>:
__aeabi_unwind_cpp_pr1():
/home/silhavyj/School/ZeroMate/examples/13-context_switch_monitor/kernel/src/cxx.cpp:41

extern "C" void __aeabi_unwind_cpp_pr1()
{
    8178:	e52db004 	push	{fp}		; (str fp, [sp, #-4]!)
    817c:	e28db000 	add	fp, sp, #0
/home/silhavyj/School/ZeroMate/examples/13-context_switch_monitor/kernel/src/cxx.cpp:42 (discriminator 1)
    while (true)
    8180:	eafffffe 	b	8180 <__aeabi_unwind_cpp_pr1+0x8>

00008184 <_ZN13CGPIO_HandlerC1Ej>:
_ZN13CGPIO_HandlerC2Ej():
/home/silhavyj/School/ZeroMate/examples/13-context_switch_monitor/kernel/src/drivers/gpio.cpp:6
#include <hal/peripherals.h>
#include <drivers/gpio.h>

CGPIO_Handler sGPIO(hal::GPIO_Base);

CGPIO_Handler::CGPIO_Handler(unsigned int gpio_base_addr)
    8184:	e52db004 	push	{fp}		; (str fp, [sp, #-4]!)
    8188:	e28db000 	add	fp, sp, #0
    818c:	e24dd00c 	sub	sp, sp, #12
    8190:	e50b0008 	str	r0, [fp, #-8]
    8194:	e50b100c 	str	r1, [fp, #-12]
/home/silhavyj/School/ZeroMate/examples/13-context_switch_monitor/kernel/src/drivers/gpio.cpp:7
: mGPIO(reinterpret_cast<unsigned int*>(gpio_base_addr))
    8198:	e51b200c 	ldr	r2, [fp, #-12]
    819c:	e51b3008 	ldr	r3, [fp, #-8]
    81a0:	e5832000 	str	r2, [r3]
/home/silhavyj/School/ZeroMate/examples/13-context_switch_monitor/kernel/src/drivers/gpio.cpp:10
{
    //
}
    81a4:	e51b3008 	ldr	r3, [fp, #-8]
    81a8:	e1a00003 	mov	r0, r3
    81ac:	e28bd000 	add	sp, fp, #0
    81b0:	e49db004 	pop	{fp}		; (ldr fp, [sp], #4)
    81b4:	e12fff1e 	bx	lr

000081b8 <_ZNK13CGPIO_Handler19Get_GPFSEL_LocationEjRjS0_>:
_ZNK13CGPIO_Handler19Get_GPFSEL_LocationEjRjS0_():
/home/silhavyj/School/ZeroMate/examples/13-context_switch_monitor/kernel/src/drivers/gpio.cpp:13

bool CGPIO_Handler::Get_GPFSEL_Location(uint32_t pin, uint32_t& reg, uint32_t& bit_idx) const
{
    81b8:	e52db004 	push	{fp}		; (str fp, [sp, #-4]!)
    81bc:	e28db000 	add	fp, sp, #0
    81c0:	e24dd014 	sub	sp, sp, #20
    81c4:	e50b0008 	str	r0, [fp, #-8]
    81c8:	e50b100c 	str	r1, [fp, #-12]
    81cc:	e50b2010 	str	r2, [fp, #-16]
    81d0:	e50b3014 	str	r3, [fp, #-20]	; 0xffffffec
/home/silhavyj/School/ZeroMate/examples/13-context_switch_monitor/kernel/src/drivers/gpio.cpp:14
    if (pin > hal::GPIO_Pin_Count)
    81d4:	e51b300c 	ldr	r3, [fp, #-12]
    81d8:	e3530036 	cmp	r3, #54	; 0x36
    81dc:	9a000001 	bls	81e8 <_ZNK13CGPIO_Handler19Get_GPFSEL_LocationEjRjS0_+0x30>
/home/silhavyj/School/ZeroMate/examples/13-context_switch_monitor/kernel/src/drivers/gpio.cpp:15
        return false;
    81e0:	e3a03000 	mov	r3, #0
    81e4:	ea000014 	b	823c <_ZNK13CGPIO_Handler19Get_GPFSEL_LocationEjRjS0_+0x84>
/home/silhavyj/School/ZeroMate/examples/13-context_switch_monitor/kernel/src/drivers/gpio.cpp:17

    reg = pin / 10;
    81e8:	e51b300c 	ldr	r3, [fp, #-12]
    81ec:	e59f2058 	ldr	r2, [pc, #88]	; 824c <_ZNK13CGPIO_Handler19Get_GPFSEL_LocationEjRjS0_+0x94>
    81f0:	e0832392 	umull	r2, r3, r2, r3
    81f4:	e1a021a3 	lsr	r2, r3, #3
    81f8:	e51b3010 	ldr	r3, [fp, #-16]
    81fc:	e5832000 	str	r2, [r3]
/home/silhavyj/School/ZeroMate/examples/13-context_switch_monitor/kernel/src/drivers/gpio.cpp:28
            case 3: reg = static_cast<uint32_t>(hal::GPIO_Reg::GPFSEL3); break;
            case 4: reg = static_cast<uint32_t>(hal::GPIO_Reg::GPFSEL4); break;
            case 5: reg = static_cast<uint32_t>(hal::GPIO_Reg::GPFSEL5); break;
    }*/

    bit_idx = (pin % 10) * 3;
    8200:	e51b100c 	ldr	r1, [fp, #-12]
    8204:	e59f3040 	ldr	r3, [pc, #64]	; 824c <_ZNK13CGPIO_Handler19Get_GPFSEL_LocationEjRjS0_+0x94>
    8208:	e0832193 	umull	r2, r3, r3, r1
    820c:	e1a021a3 	lsr	r2, r3, #3
    8210:	e1a03002 	mov	r3, r2
    8214:	e1a03103 	lsl	r3, r3, #2
    8218:	e0833002 	add	r3, r3, r2
    821c:	e1a03083 	lsl	r3, r3, #1
    8220:	e0412003 	sub	r2, r1, r3
    8224:	e1a03002 	mov	r3, r2
    8228:	e1a03083 	lsl	r3, r3, #1
    822c:	e0832002 	add	r2, r3, r2
    8230:	e51b3014 	ldr	r3, [fp, #-20]	; 0xffffffec
    8234:	e5832000 	str	r2, [r3]
/home/silhavyj/School/ZeroMate/examples/13-context_switch_monitor/kernel/src/drivers/gpio.cpp:30

    return true;
    8238:	e3a03001 	mov	r3, #1
/home/silhavyj/School/ZeroMate/examples/13-context_switch_monitor/kernel/src/drivers/gpio.cpp:31
}
    823c:	e1a00003 	mov	r0, r3
    8240:	e28bd000 	add	sp, fp, #0
    8244:	e49db004 	pop	{fp}		; (ldr fp, [sp], #4)
    8248:	e12fff1e 	bx	lr
    824c:	cccccccd 	stclgt	12, cr12, [ip], {205}	; 0xcd

00008250 <_ZNK13CGPIO_Handler18Get_GPCLR_LocationEjRjS0_>:
_ZNK13CGPIO_Handler18Get_GPCLR_LocationEjRjS0_():
/home/silhavyj/School/ZeroMate/examples/13-context_switch_monitor/kernel/src/drivers/gpio.cpp:34

bool CGPIO_Handler::Get_GPCLR_Location(uint32_t pin, uint32_t& reg, uint32_t& bit_idx) const
{
    8250:	e52db004 	push	{fp}		; (str fp, [sp, #-4]!)
    8254:	e28db000 	add	fp, sp, #0
    8258:	e24dd014 	sub	sp, sp, #20
    825c:	e50b0008 	str	r0, [fp, #-8]
    8260:	e50b100c 	str	r1, [fp, #-12]
    8264:	e50b2010 	str	r2, [fp, #-16]
    8268:	e50b3014 	str	r3, [fp, #-20]	; 0xffffffec
/home/silhavyj/School/ZeroMate/examples/13-context_switch_monitor/kernel/src/drivers/gpio.cpp:35
    if (pin > hal::GPIO_Pin_Count)
    826c:	e51b300c 	ldr	r3, [fp, #-12]
    8270:	e3530036 	cmp	r3, #54	; 0x36
    8274:	9a000001 	bls	8280 <_ZNK13CGPIO_Handler18Get_GPCLR_LocationEjRjS0_+0x30>
/home/silhavyj/School/ZeroMate/examples/13-context_switch_monitor/kernel/src/drivers/gpio.cpp:36
        return false;
    8278:	e3a03000 	mov	r3, #0
    827c:	ea00000c 	b	82b4 <_ZNK13CGPIO_Handler18Get_GPCLR_LocationEjRjS0_+0x64>
/home/silhavyj/School/ZeroMate/examples/13-context_switch_monitor/kernel/src/drivers/gpio.cpp:38

    reg = static_cast<uint32_t>((pin < 32) ? hal::GPIO_Reg::GPCLR0 : hal::GPIO_Reg::GPCLR1);
    8280:	e51b300c 	ldr	r3, [fp, #-12]
    8284:	e353001f 	cmp	r3, #31
    8288:	8a000001 	bhi	8294 <_ZNK13CGPIO_Handler18Get_GPCLR_LocationEjRjS0_+0x44>
/home/silhavyj/School/ZeroMate/examples/13-context_switch_monitor/kernel/src/drivers/gpio.cpp:38 (discriminator 1)
    828c:	e3a0200a 	mov	r2, #10
    8290:	ea000000 	b	8298 <_ZNK13CGPIO_Handler18Get_GPCLR_LocationEjRjS0_+0x48>
/home/silhavyj/School/ZeroMate/examples/13-context_switch_monitor/kernel/src/drivers/gpio.cpp:38 (discriminator 2)
    8294:	e3a0200b 	mov	r2, #11
/home/silhavyj/School/ZeroMate/examples/13-context_switch_monitor/kernel/src/drivers/gpio.cpp:38 (discriminator 4)
    8298:	e51b3010 	ldr	r3, [fp, #-16]
    829c:	e5832000 	str	r2, [r3]
/home/silhavyj/School/ZeroMate/examples/13-context_switch_monitor/kernel/src/drivers/gpio.cpp:39 (discriminator 4)
    bit_idx = pin % 32;
    82a0:	e51b300c 	ldr	r3, [fp, #-12]
    82a4:	e203201f 	and	r2, r3, #31
    82a8:	e51b3014 	ldr	r3, [fp, #-20]	; 0xffffffec
    82ac:	e5832000 	str	r2, [r3]
/home/silhavyj/School/ZeroMate/examples/13-context_switch_monitor/kernel/src/drivers/gpio.cpp:41 (discriminator 4)

    return true;
    82b0:	e3a03001 	mov	r3, #1
/home/silhavyj/School/ZeroMate/examples/13-context_switch_monitor/kernel/src/drivers/gpio.cpp:42
}
    82b4:	e1a00003 	mov	r0, r3
    82b8:	e28bd000 	add	sp, fp, #0
    82bc:	e49db004 	pop	{fp}		; (ldr fp, [sp], #4)
    82c0:	e12fff1e 	bx	lr

000082c4 <_ZNK13CGPIO_Handler18Get_GPSET_LocationEjRjS0_>:
_ZNK13CGPIO_Handler18Get_GPSET_LocationEjRjS0_():
/home/silhavyj/School/ZeroMate/examples/13-context_switch_monitor/kernel/src/drivers/gpio.cpp:45

bool CGPIO_Handler::Get_GPSET_Location(uint32_t pin, uint32_t& reg, uint32_t& bit_idx) const
{
    82c4:	e52db004 	push	{fp}		; (str fp, [sp, #-4]!)
    82c8:	e28db000 	add	fp, sp, #0
    82cc:	e24dd014 	sub	sp, sp, #20
    82d0:	e50b0008 	str	r0, [fp, #-8]
    82d4:	e50b100c 	str	r1, [fp, #-12]
    82d8:	e50b2010 	str	r2, [fp, #-16]
    82dc:	e50b3014 	str	r3, [fp, #-20]	; 0xffffffec
/home/silhavyj/School/ZeroMate/examples/13-context_switch_monitor/kernel/src/drivers/gpio.cpp:46
    if (pin > hal::GPIO_Pin_Count)
    82e0:	e51b300c 	ldr	r3, [fp, #-12]
    82e4:	e3530036 	cmp	r3, #54	; 0x36
    82e8:	9a000001 	bls	82f4 <_ZNK13CGPIO_Handler18Get_GPSET_LocationEjRjS0_+0x30>
/home/silhavyj/School/ZeroMate/examples/13-context_switch_monitor/kernel/src/drivers/gpio.cpp:47
        return false;
    82ec:	e3a03000 	mov	r3, #0
    82f0:	ea00000c 	b	8328 <_ZNK13CGPIO_Handler18Get_GPSET_LocationEjRjS0_+0x64>
/home/silhavyj/School/ZeroMate/examples/13-context_switch_monitor/kernel/src/drivers/gpio.cpp:49

    reg = static_cast<uint32_t>((pin < 32) ? hal::GPIO_Reg::GPSET0 : hal::GPIO_Reg::GPSET1);
    82f4:	e51b300c 	ldr	r3, [fp, #-12]
    82f8:	e353001f 	cmp	r3, #31
    82fc:	8a000001 	bhi	8308 <_ZNK13CGPIO_Handler18Get_GPSET_LocationEjRjS0_+0x44>
/home/silhavyj/School/ZeroMate/examples/13-context_switch_monitor/kernel/src/drivers/gpio.cpp:49 (discriminator 1)
    8300:	e3a02007 	mov	r2, #7
    8304:	ea000000 	b	830c <_ZNK13CGPIO_Handler18Get_GPSET_LocationEjRjS0_+0x48>
/home/silhavyj/School/ZeroMate/examples/13-context_switch_monitor/kernel/src/drivers/gpio.cpp:49 (discriminator 2)
    8308:	e3a02008 	mov	r2, #8
/home/silhavyj/School/ZeroMate/examples/13-context_switch_monitor/kernel/src/drivers/gpio.cpp:49 (discriminator 4)
    830c:	e51b3010 	ldr	r3, [fp, #-16]
    8310:	e5832000 	str	r2, [r3]
/home/silhavyj/School/ZeroMate/examples/13-context_switch_monitor/kernel/src/drivers/gpio.cpp:50 (discriminator 4)
    bit_idx = pin % 32;
    8314:	e51b300c 	ldr	r3, [fp, #-12]
    8318:	e203201f 	and	r2, r3, #31
    831c:	e51b3014 	ldr	r3, [fp, #-20]	; 0xffffffec
    8320:	e5832000 	str	r2, [r3]
/home/silhavyj/School/ZeroMate/examples/13-context_switch_monitor/kernel/src/drivers/gpio.cpp:52 (discriminator 4)

    return true;
    8324:	e3a03001 	mov	r3, #1
/home/silhavyj/School/ZeroMate/examples/13-context_switch_monitor/kernel/src/drivers/gpio.cpp:53
}
    8328:	e1a00003 	mov	r0, r3
    832c:	e28bd000 	add	sp, fp, #0
    8330:	e49db004 	pop	{fp}		; (ldr fp, [sp], #4)
    8334:	e12fff1e 	bx	lr

00008338 <_ZNK13CGPIO_Handler18Get_GPLEV_LocationEjRjS0_>:
_ZNK13CGPIO_Handler18Get_GPLEV_LocationEjRjS0_():
/home/silhavyj/School/ZeroMate/examples/13-context_switch_monitor/kernel/src/drivers/gpio.cpp:56

bool CGPIO_Handler::Get_GPLEV_Location(uint32_t pin, uint32_t& reg, uint32_t& bit_idx) const
{
    8338:	e52db004 	push	{fp}		; (str fp, [sp, #-4]!)
    833c:	e28db000 	add	fp, sp, #0
    8340:	e24dd014 	sub	sp, sp, #20
    8344:	e50b0008 	str	r0, [fp, #-8]
    8348:	e50b100c 	str	r1, [fp, #-12]
    834c:	e50b2010 	str	r2, [fp, #-16]
    8350:	e50b3014 	str	r3, [fp, #-20]	; 0xffffffec
/home/silhavyj/School/ZeroMate/examples/13-context_switch_monitor/kernel/src/drivers/gpio.cpp:57
    if (pin > hal::GPIO_Pin_Count)
    8354:	e51b300c 	ldr	r3, [fp, #-12]
    8358:	e3530036 	cmp	r3, #54	; 0x36
    835c:	9a000001 	bls	8368 <_ZNK13CGPIO_Handler18Get_GPLEV_LocationEjRjS0_+0x30>
/home/silhavyj/School/ZeroMate/examples/13-context_switch_monitor/kernel/src/drivers/gpio.cpp:58
        return false;
    8360:	e3a03000 	mov	r3, #0
    8364:	ea00000c 	b	839c <_ZNK13CGPIO_Handler18Get_GPLEV_LocationEjRjS0_+0x64>
/home/silhavyj/School/ZeroMate/examples/13-context_switch_monitor/kernel/src/drivers/gpio.cpp:60

    reg = static_cast<uint32_t>((pin < 32) ? hal::GPIO_Reg::GPLEV0 : hal::GPIO_Reg::GPLEV1);
    8368:	e51b300c 	ldr	r3, [fp, #-12]
    836c:	e353001f 	cmp	r3, #31
    8370:	8a000001 	bhi	837c <_ZNK13CGPIO_Handler18Get_GPLEV_LocationEjRjS0_+0x44>
/home/silhavyj/School/ZeroMate/examples/13-context_switch_monitor/kernel/src/drivers/gpio.cpp:60 (discriminator 1)
    8374:	e3a0200d 	mov	r2, #13
    8378:	ea000000 	b	8380 <_ZNK13CGPIO_Handler18Get_GPLEV_LocationEjRjS0_+0x48>
/home/silhavyj/School/ZeroMate/examples/13-context_switch_monitor/kernel/src/drivers/gpio.cpp:60 (discriminator 2)
    837c:	e3a0200e 	mov	r2, #14
/home/silhavyj/School/ZeroMate/examples/13-context_switch_monitor/kernel/src/drivers/gpio.cpp:60 (discriminator 4)
    8380:	e51b3010 	ldr	r3, [fp, #-16]
    8384:	e5832000 	str	r2, [r3]
/home/silhavyj/School/ZeroMate/examples/13-context_switch_monitor/kernel/src/drivers/gpio.cpp:61 (discriminator 4)
    bit_idx = pin % 32;
    8388:	e51b300c 	ldr	r3, [fp, #-12]
    838c:	e203201f 	and	r2, r3, #31
    8390:	e51b3014 	ldr	r3, [fp, #-20]	; 0xffffffec
    8394:	e5832000 	str	r2, [r3]
/home/silhavyj/School/ZeroMate/examples/13-context_switch_monitor/kernel/src/drivers/gpio.cpp:63 (discriminator 4)

    return true;
    8398:	e3a03001 	mov	r3, #1
/home/silhavyj/School/ZeroMate/examples/13-context_switch_monitor/kernel/src/drivers/gpio.cpp:64
}
    839c:	e1a00003 	mov	r0, r3
    83a0:	e28bd000 	add	sp, fp, #0
    83a4:	e49db004 	pop	{fp}		; (ldr fp, [sp], #4)
    83a8:	e12fff1e 	bx	lr

000083ac <_ZN13CGPIO_Handler17Set_GPIO_FunctionEj14NGPIO_Function>:
_ZN13CGPIO_Handler17Set_GPIO_FunctionEj14NGPIO_Function():
/home/silhavyj/School/ZeroMate/examples/13-context_switch_monitor/kernel/src/drivers/gpio.cpp:67

void CGPIO_Handler::Set_GPIO_Function(uint32_t pin, NGPIO_Function func)
{
    83ac:	e92d4800 	push	{fp, lr}
    83b0:	e28db004 	add	fp, sp, #4
    83b4:	e24dd020 	sub	sp, sp, #32
    83b8:	e50b0018 	str	r0, [fp, #-24]	; 0xffffffe8
    83bc:	e50b101c 	str	r1, [fp, #-28]	; 0xffffffe4
    83c0:	e50b2020 	str	r2, [fp, #-32]	; 0xffffffe0
/home/silhavyj/School/ZeroMate/examples/13-context_switch_monitor/kernel/src/drivers/gpio.cpp:69
    uint32_t reg, bit;
    if (!Get_GPFSEL_Location(pin, reg, bit))
    83c4:	e24b3014 	sub	r3, fp, #20
    83c8:	e24b2010 	sub	r2, fp, #16
    83cc:	e51b101c 	ldr	r1, [fp, #-28]	; 0xffffffe4
    83d0:	e51b0018 	ldr	r0, [fp, #-24]	; 0xffffffe8
    83d4:	ebffff77 	bl	81b8 <_ZNK13CGPIO_Handler19Get_GPFSEL_LocationEjRjS0_>
    83d8:	e1a03000 	mov	r3, r0
    83dc:	e2233001 	eor	r3, r3, #1
    83e0:	e6ef3073 	uxtb	r3, r3
    83e4:	e3530000 	cmp	r3, #0
    83e8:	1a00001e 	bne	8468 <_ZN13CGPIO_Handler17Set_GPIO_FunctionEj14NGPIO_Function+0xbc>
/home/silhavyj/School/ZeroMate/examples/13-context_switch_monitor/kernel/src/drivers/gpio.cpp:72
        return;

    unsigned int mode = static_cast<unsigned int>(func);
    83ec:	e51b3020 	ldr	r3, [fp, #-32]	; 0xffffffe0
    83f0:	e50b3008 	str	r3, [fp, #-8]
/home/silhavyj/School/ZeroMate/examples/13-context_switch_monitor/kernel/src/drivers/gpio.cpp:74

    unsigned int rd = mGPIO[reg];
    83f4:	e51b3018 	ldr	r3, [fp, #-24]	; 0xffffffe8
    83f8:	e5932000 	ldr	r2, [r3]
    83fc:	e51b3010 	ldr	r3, [fp, #-16]
    8400:	e1a03103 	lsl	r3, r3, #2
    8404:	e0823003 	add	r3, r2, r3
    8408:	e5933000 	ldr	r3, [r3]
    840c:	e50b300c 	str	r3, [fp, #-12]
/home/silhavyj/School/ZeroMate/examples/13-context_switch_monitor/kernel/src/drivers/gpio.cpp:75
    rd &= ~(7 << bit);
    8410:	e51b3014 	ldr	r3, [fp, #-20]	; 0xffffffec
    8414:	e3a02007 	mov	r2, #7
    8418:	e1a03312 	lsl	r3, r2, r3
    841c:	e1e03003 	mvn	r3, r3
    8420:	e1a02003 	mov	r2, r3
    8424:	e51b300c 	ldr	r3, [fp, #-12]
    8428:	e0033002 	and	r3, r3, r2
    842c:	e50b300c 	str	r3, [fp, #-12]
/home/silhavyj/School/ZeroMate/examples/13-context_switch_monitor/kernel/src/drivers/gpio.cpp:76
    rd |= (mode << bit);
    8430:	e51b3014 	ldr	r3, [fp, #-20]	; 0xffffffec
    8434:	e51b2008 	ldr	r2, [fp, #-8]
    8438:	e1a03312 	lsl	r3, r2, r3
    843c:	e51b200c 	ldr	r2, [fp, #-12]
    8440:	e1823003 	orr	r3, r2, r3
    8444:	e50b300c 	str	r3, [fp, #-12]
/home/silhavyj/School/ZeroMate/examples/13-context_switch_monitor/kernel/src/drivers/gpio.cpp:78

    mGPIO[reg] = rd;
    8448:	e51b3018 	ldr	r3, [fp, #-24]	; 0xffffffe8
    844c:	e5932000 	ldr	r2, [r3]
    8450:	e51b3010 	ldr	r3, [fp, #-16]
    8454:	e1a03103 	lsl	r3, r3, #2
    8458:	e0823003 	add	r3, r2, r3
    845c:	e51b200c 	ldr	r2, [fp, #-12]
    8460:	e5832000 	str	r2, [r3]
    8464:	ea000000 	b	846c <_ZN13CGPIO_Handler17Set_GPIO_FunctionEj14NGPIO_Function+0xc0>
/home/silhavyj/School/ZeroMate/examples/13-context_switch_monitor/kernel/src/drivers/gpio.cpp:70
        return;
    8468:	e320f000 	nop	{0}
/home/silhavyj/School/ZeroMate/examples/13-context_switch_monitor/kernel/src/drivers/gpio.cpp:79
}
    846c:	e24bd004 	sub	sp, fp, #4
    8470:	e8bd8800 	pop	{fp, pc}

00008474 <_ZNK13CGPIO_Handler17Get_GPIO_FunctionEj>:
_ZNK13CGPIO_Handler17Get_GPIO_FunctionEj():
/home/silhavyj/School/ZeroMate/examples/13-context_switch_monitor/kernel/src/drivers/gpio.cpp:82

NGPIO_Function CGPIO_Handler::Get_GPIO_Function(uint32_t pin) const
{
    8474:	e92d4800 	push	{fp, lr}
    8478:	e28db004 	add	fp, sp, #4
    847c:	e24dd010 	sub	sp, sp, #16
    8480:	e50b0010 	str	r0, [fp, #-16]
    8484:	e50b1014 	str	r1, [fp, #-20]	; 0xffffffec
/home/silhavyj/School/ZeroMate/examples/13-context_switch_monitor/kernel/src/drivers/gpio.cpp:84
    uint32_t reg, bit;
    if (!Get_GPFSEL_Location(pin, reg, bit))
    8488:	e24b300c 	sub	r3, fp, #12
    848c:	e24b2008 	sub	r2, fp, #8
    8490:	e51b1014 	ldr	r1, [fp, #-20]	; 0xffffffec
    8494:	e51b0010 	ldr	r0, [fp, #-16]
    8498:	ebffff46 	bl	81b8 <_ZNK13CGPIO_Handler19Get_GPFSEL_LocationEjRjS0_>
    849c:	e1a03000 	mov	r3, r0
    84a0:	e2233001 	eor	r3, r3, #1
    84a4:	e6ef3073 	uxtb	r3, r3
    84a8:	e3530000 	cmp	r3, #0
    84ac:	0a000001 	beq	84b8 <_ZNK13CGPIO_Handler17Get_GPIO_FunctionEj+0x44>
/home/silhavyj/School/ZeroMate/examples/13-context_switch_monitor/kernel/src/drivers/gpio.cpp:85
        return NGPIO_Function::Unspecified;
    84b0:	e3a03008 	mov	r3, #8
    84b4:	ea000008 	b	84dc <_ZNK13CGPIO_Handler17Get_GPIO_FunctionEj+0x68>
/home/silhavyj/School/ZeroMate/examples/13-context_switch_monitor/kernel/src/drivers/gpio.cpp:87

    return static_cast<NGPIO_Function>((mGPIO[reg] >> bit) & 7);
    84b8:	e51b3010 	ldr	r3, [fp, #-16]
    84bc:	e5932000 	ldr	r2, [r3]
    84c0:	e51b3008 	ldr	r3, [fp, #-8]
    84c4:	e1a03103 	lsl	r3, r3, #2
    84c8:	e0823003 	add	r3, r2, r3
    84cc:	e5932000 	ldr	r2, [r3]
    84d0:	e51b300c 	ldr	r3, [fp, #-12]
    84d4:	e1a03332 	lsr	r3, r2, r3
    84d8:	e2033007 	and	r3, r3, #7
/home/silhavyj/School/ZeroMate/examples/13-context_switch_monitor/kernel/src/drivers/gpio.cpp:88 (discriminator 1)
}
    84dc:	e1a00003 	mov	r0, r3
    84e0:	e24bd004 	sub	sp, fp, #4
    84e4:	e8bd8800 	pop	{fp, pc}

000084e8 <_ZN13CGPIO_Handler10Set_OutputEjb>:
_ZN13CGPIO_Handler10Set_OutputEjb():
/home/silhavyj/School/ZeroMate/examples/13-context_switch_monitor/kernel/src/drivers/gpio.cpp:91

void CGPIO_Handler::Set_Output(uint32_t pin, bool set)
{
    84e8:	e92d4800 	push	{fp, lr}
    84ec:	e28db004 	add	fp, sp, #4
    84f0:	e24dd018 	sub	sp, sp, #24
    84f4:	e50b0010 	str	r0, [fp, #-16]
    84f8:	e50b1014 	str	r1, [fp, #-20]	; 0xffffffec
    84fc:	e1a03002 	mov	r3, r2
    8500:	e54b3015 	strb	r3, [fp, #-21]	; 0xffffffeb
/home/silhavyj/School/ZeroMate/examples/13-context_switch_monitor/kernel/src/drivers/gpio.cpp:93
    uint32_t reg, bit;
    if (!(set && Get_GPSET_Location(pin, reg, bit)) && !(!set && Get_GPCLR_Location(pin, reg, bit)))
    8504:	e55b3015 	ldrb	r3, [fp, #-21]	; 0xffffffeb
    8508:	e2233001 	eor	r3, r3, #1
    850c:	e6ef3073 	uxtb	r3, r3
    8510:	e3530000 	cmp	r3, #0
    8514:	1a000009 	bne	8540 <_ZN13CGPIO_Handler10Set_OutputEjb+0x58>
/home/silhavyj/School/ZeroMate/examples/13-context_switch_monitor/kernel/src/drivers/gpio.cpp:93 (discriminator 2)
    8518:	e24b300c 	sub	r3, fp, #12
    851c:	e24b2008 	sub	r2, fp, #8
    8520:	e51b1014 	ldr	r1, [fp, #-20]	; 0xffffffec
    8524:	e51b0010 	ldr	r0, [fp, #-16]
    8528:	ebffff65 	bl	82c4 <_ZNK13CGPIO_Handler18Get_GPSET_LocationEjRjS0_>
    852c:	e1a03000 	mov	r3, r0
    8530:	e2233001 	eor	r3, r3, #1
    8534:	e6ef3073 	uxtb	r3, r3
    8538:	e3530000 	cmp	r3, #0
    853c:	0a00000e 	beq	857c <_ZN13CGPIO_Handler10Set_OutputEjb+0x94>
/home/silhavyj/School/ZeroMate/examples/13-context_switch_monitor/kernel/src/drivers/gpio.cpp:93 (discriminator 3)
    8540:	e55b3015 	ldrb	r3, [fp, #-21]	; 0xffffffeb
    8544:	e3530000 	cmp	r3, #0
    8548:	1a000009 	bne	8574 <_ZN13CGPIO_Handler10Set_OutputEjb+0x8c>
/home/silhavyj/School/ZeroMate/examples/13-context_switch_monitor/kernel/src/drivers/gpio.cpp:93 (discriminator 6)
    854c:	e24b300c 	sub	r3, fp, #12
    8550:	e24b2008 	sub	r2, fp, #8
    8554:	e51b1014 	ldr	r1, [fp, #-20]	; 0xffffffec
    8558:	e51b0010 	ldr	r0, [fp, #-16]
    855c:	ebffff3b 	bl	8250 <_ZNK13CGPIO_Handler18Get_GPCLR_LocationEjRjS0_>
    8560:	e1a03000 	mov	r3, r0
    8564:	e2233001 	eor	r3, r3, #1
    8568:	e6ef3073 	uxtb	r3, r3
    856c:	e3530000 	cmp	r3, #0
    8570:	0a000001 	beq	857c <_ZN13CGPIO_Handler10Set_OutputEjb+0x94>
/home/silhavyj/School/ZeroMate/examples/13-context_switch_monitor/kernel/src/drivers/gpio.cpp:93 (discriminator 7)
    8574:	e3a03001 	mov	r3, #1
    8578:	ea000000 	b	8580 <_ZN13CGPIO_Handler10Set_OutputEjb+0x98>
/home/silhavyj/School/ZeroMate/examples/13-context_switch_monitor/kernel/src/drivers/gpio.cpp:93 (discriminator 8)
    857c:	e3a03000 	mov	r3, #0
/home/silhavyj/School/ZeroMate/examples/13-context_switch_monitor/kernel/src/drivers/gpio.cpp:93 (discriminator 10)
    8580:	e3530000 	cmp	r3, #0
    8584:	1a00000a 	bne	85b4 <_ZN13CGPIO_Handler10Set_OutputEjb+0xcc>
/home/silhavyj/School/ZeroMate/examples/13-context_switch_monitor/kernel/src/drivers/gpio.cpp:96
        return;

    mGPIO[reg] = (1 << bit);
    8588:	e51b300c 	ldr	r3, [fp, #-12]
    858c:	e3a02001 	mov	r2, #1
    8590:	e1a01312 	lsl	r1, r2, r3
    8594:	e51b3010 	ldr	r3, [fp, #-16]
    8598:	e5932000 	ldr	r2, [r3]
    859c:	e51b3008 	ldr	r3, [fp, #-8]
    85a0:	e1a03103 	lsl	r3, r3, #2
    85a4:	e0823003 	add	r3, r2, r3
    85a8:	e1a02001 	mov	r2, r1
    85ac:	e5832000 	str	r2, [r3]
    85b0:	ea000000 	b	85b8 <_ZN13CGPIO_Handler10Set_OutputEjb+0xd0>
/home/silhavyj/School/ZeroMate/examples/13-context_switch_monitor/kernel/src/drivers/gpio.cpp:94
        return;
    85b4:	e320f000 	nop	{0}
/home/silhavyj/School/ZeroMate/examples/13-context_switch_monitor/kernel/src/drivers/gpio.cpp:97
}
    85b8:	e24bd004 	sub	sp, fp, #4
    85bc:	e8bd8800 	pop	{fp, pc}

000085c0 <_ZN13CGPIO_Handler9Get_InputEj>:
_ZN13CGPIO_Handler9Get_InputEj():
/home/silhavyj/School/ZeroMate/examples/13-context_switch_monitor/kernel/src/drivers/gpio.cpp:100

bool CGPIO_Handler::Get_Input(uint32_t pin)
{
    85c0:	e92d4800 	push	{fp, lr}
    85c4:	e28db004 	add	fp, sp, #4
    85c8:	e24dd010 	sub	sp, sp, #16
    85cc:	e50b0010 	str	r0, [fp, #-16]
    85d0:	e50b1014 	str	r1, [fp, #-20]	; 0xffffffec
/home/silhavyj/School/ZeroMate/examples/13-context_switch_monitor/kernel/src/drivers/gpio.cpp:102
    uint32_t reg, bit;
    if (!Get_GPLEV_Location(pin, reg, bit))
    85d4:	e24b300c 	sub	r3, fp, #12
    85d8:	e24b2008 	sub	r2, fp, #8
    85dc:	e51b1014 	ldr	r1, [fp, #-20]	; 0xffffffec
    85e0:	e51b0010 	ldr	r0, [fp, #-16]
    85e4:	ebffff53 	bl	8338 <_ZNK13CGPIO_Handler18Get_GPLEV_LocationEjRjS0_>
    85e8:	e1a03000 	mov	r3, r0
    85ec:	e2233001 	eor	r3, r3, #1
    85f0:	e6ef3073 	uxtb	r3, r3
    85f4:	e3530000 	cmp	r3, #0
    85f8:	0a000001 	beq	8604 <_ZN13CGPIO_Handler9Get_InputEj+0x44>
/home/silhavyj/School/ZeroMate/examples/13-context_switch_monitor/kernel/src/drivers/gpio.cpp:103
        return false;
    85fc:	e3a03000 	mov	r3, #0
    8600:	ea00000c 	b	8638 <_ZN13CGPIO_Handler9Get_InputEj+0x78>
/home/silhavyj/School/ZeroMate/examples/13-context_switch_monitor/kernel/src/drivers/gpio.cpp:105

    return (mGPIO[reg] >> bit) & 0x1;
    8604:	e51b3010 	ldr	r3, [fp, #-16]
    8608:	e5932000 	ldr	r2, [r3]
    860c:	e51b3008 	ldr	r3, [fp, #-8]
    8610:	e1a03103 	lsl	r3, r3, #2
    8614:	e0823003 	add	r3, r2, r3
    8618:	e5932000 	ldr	r2, [r3]
    861c:	e51b300c 	ldr	r3, [fp, #-12]
    8620:	e1a03332 	lsr	r3, r2, r3
    8624:	e2033001 	and	r3, r3, #1
    8628:	e3530000 	cmp	r3, #0
    862c:	13a03001 	movne	r3, #1
    8630:	03a03000 	moveq	r3, #0
    8634:	e6ef3073 	uxtb	r3, r3
/home/silhavyj/School/ZeroMate/examples/13-context_switch_monitor/kernel/src/drivers/gpio.cpp:106 (discriminator 1)
}
    8638:	e1a00003 	mov	r0, r3
    863c:	e24bd004 	sub	sp, fp, #4
    8640:	e8bd8800 	pop	{fp, pc}

00008644 <_Z41__static_initialization_and_destruction_0ii>:
_Z41__static_initialization_and_destruction_0ii():
/home/silhavyj/School/ZeroMate/examples/13-context_switch_monitor/kernel/src/drivers/gpio.cpp:106
    8644:	e92d4800 	push	{fp, lr}
    8648:	e28db004 	add	fp, sp, #4
    864c:	e24dd008 	sub	sp, sp, #8
    8650:	e50b0008 	str	r0, [fp, #-8]
    8654:	e50b100c 	str	r1, [fp, #-12]
    8658:	e51b3008 	ldr	r3, [fp, #-8]
    865c:	e3530001 	cmp	r3, #1
    8660:	1a000006 	bne	8680 <_Z41__static_initialization_and_destruction_0ii+0x3c>
/home/silhavyj/School/ZeroMate/examples/13-context_switch_monitor/kernel/src/drivers/gpio.cpp:106 (discriminator 1)
    8664:	e51b300c 	ldr	r3, [fp, #-12]
    8668:	e59f201c 	ldr	r2, [pc, #28]	; 868c <_Z41__static_initialization_and_destruction_0ii+0x48>
    866c:	e1530002 	cmp	r3, r2
    8670:	1a000002 	bne	8680 <_Z41__static_initialization_and_destruction_0ii+0x3c>
/home/silhavyj/School/ZeroMate/examples/13-context_switch_monitor/kernel/src/drivers/gpio.cpp:4
CGPIO_Handler sGPIO(hal::GPIO_Base);
    8674:	e59f1014 	ldr	r1, [pc, #20]	; 8690 <_Z41__static_initialization_and_destruction_0ii+0x4c>
    8678:	e59f0014 	ldr	r0, [pc, #20]	; 8694 <_Z41__static_initialization_and_destruction_0ii+0x50>
    867c:	ebfffec0 	bl	8184 <_ZN13CGPIO_HandlerC1Ej>
/home/silhavyj/School/ZeroMate/examples/13-context_switch_monitor/kernel/src/drivers/gpio.cpp:106
}
    8680:	e320f000 	nop	{0}
    8684:	e24bd004 	sub	sp, fp, #4
    8688:	e8bd8800 	pop	{fp, pc}
    868c:	0000ffff 	strdeq	pc, [r0], -pc	; <UNPREDICTABLE>
    8690:	20200000 	eorcs	r0, r0, r0
    8694:	0000ab14 	andeq	sl, r0, r4, lsl fp

00008698 <_GLOBAL__sub_I_sGPIO>:
_GLOBAL__sub_I_sGPIO():
/home/silhavyj/School/ZeroMate/examples/13-context_switch_monitor/kernel/src/drivers/gpio.cpp:106
    8698:	e92d4800 	push	{fp, lr}
    869c:	e28db004 	add	fp, sp, #4
    86a0:	e59f1008 	ldr	r1, [pc, #8]	; 86b0 <_GLOBAL__sub_I_sGPIO+0x18>
    86a4:	e3a00001 	mov	r0, #1
    86a8:	ebffffe5 	bl	8644 <_Z41__static_initialization_and_destruction_0ii>
    86ac:	e8bd8800 	pop	{fp, pc}
    86b0:	0000ffff 	strdeq	pc, [r0], -pc	; <UNPREDICTABLE>

000086b4 <_ZN8CMonitorC1Ejjj>:
_ZN8CMonitorC2Ejjj():
/home/silhavyj/School/ZeroMate/examples/13-context_switch_monitor/kernel/src/drivers/monitor.cpp:5
#include <drivers/monitor.h>

CMonitor sMonitor{ 0x30000000, 80, 25 };

CMonitor::CMonitor(unsigned int monitor_base_addr, unsigned int width, unsigned int height)
    86b4:	e52db004 	push	{fp}		; (str fp, [sp, #-4]!)
    86b8:	e28db000 	add	fp, sp, #0
    86bc:	e24dd014 	sub	sp, sp, #20
    86c0:	e50b0008 	str	r0, [fp, #-8]
    86c4:	e50b100c 	str	r1, [fp, #-12]
    86c8:	e50b2010 	str	r2, [fp, #-16]
    86cc:	e50b3014 	str	r3, [fp, #-20]	; 0xffffffec
/home/silhavyj/School/ZeroMate/examples/13-context_switch_monitor/kernel/src/drivers/monitor.cpp:6
: m_monitor{ reinterpret_cast<unsigned char*>(monitor_base_addr) }
    86d0:	e51b200c 	ldr	r2, [fp, #-12]
/home/silhavyj/School/ZeroMate/examples/13-context_switch_monitor/kernel/src/drivers/monitor.cpp:10
, m_width{ width }
, m_height{ height }
, m_cursor{ 0, 0 }
, m_number_base{ DEFAULT_NUMBER_BASE }
    86d4:	e51b3008 	ldr	r3, [fp, #-8]
    86d8:	e5832000 	str	r2, [r3]
    86dc:	e51b3008 	ldr	r3, [fp, #-8]
    86e0:	e51b2010 	ldr	r2, [fp, #-16]
    86e4:	e5832004 	str	r2, [r3, #4]
    86e8:	e51b3008 	ldr	r3, [fp, #-8]
    86ec:	e51b2014 	ldr	r2, [fp, #-20]	; 0xffffffec
    86f0:	e5832008 	str	r2, [r3, #8]
    86f4:	e51b3008 	ldr	r3, [fp, #-8]
    86f8:	e3a02000 	mov	r2, #0
    86fc:	e583200c 	str	r2, [r3, #12]
    8700:	e51b3008 	ldr	r3, [fp, #-8]
    8704:	e3a02000 	mov	r2, #0
    8708:	e5832010 	str	r2, [r3, #16]
    870c:	e51b3008 	ldr	r3, [fp, #-8]
    8710:	e3a0200a 	mov	r2, #10
    8714:	e5832014 	str	r2, [r3, #20]
/home/silhavyj/School/ZeroMate/examples/13-context_switch_monitor/kernel/src/drivers/monitor.cpp:12
{
}
    8718:	e51b3008 	ldr	r3, [fp, #-8]
    871c:	e1a00003 	mov	r0, r3
    8720:	e28bd000 	add	sp, fp, #0
    8724:	e49db004 	pop	{fp}		; (ldr fp, [sp], #4)
    8728:	e12fff1e 	bx	lr

0000872c <_ZN8CMonitor5ClearEv>:
_ZN8CMonitor5ClearEv():
/home/silhavyj/School/ZeroMate/examples/13-context_switch_monitor/kernel/src/drivers/monitor.cpp:21
    m_cursor.y = 0;
    m_cursor.y = 0;
}

void CMonitor::Clear()
{
    872c:	e92d4800 	push	{fp, lr}
    8730:	e28db004 	add	fp, sp, #4
    8734:	e24dd010 	sub	sp, sp, #16
    8738:	e50b0010 	str	r0, [fp, #-16]
/home/silhavyj/School/ZeroMate/examples/13-context_switch_monitor/kernel/src/drivers/monitor.cpp:22
    Reset_Cursor();
    873c:	e51b0010 	ldr	r0, [fp, #-16]
    8740:	eb00016d 	bl	8cfc <_ZN8CMonitor12Reset_CursorEv>
/home/silhavyj/School/ZeroMate/examples/13-context_switch_monitor/kernel/src/drivers/monitor.cpp:24

    for (unsigned int y = 0; y < m_height; ++y)
    8744:	e3a03000 	mov	r3, #0
    8748:	e50b3008 	str	r3, [fp, #-8]
/home/silhavyj/School/ZeroMate/examples/13-context_switch_monitor/kernel/src/drivers/monitor.cpp:24 (discriminator 1)
    874c:	e51b3010 	ldr	r3, [fp, #-16]
    8750:	e5933008 	ldr	r3, [r3, #8]
    8754:	e51b2008 	ldr	r2, [fp, #-8]
    8758:	e1520003 	cmp	r2, r3
    875c:	2a000019 	bcs	87c8 <_ZN8CMonitor5ClearEv+0x9c>
/home/silhavyj/School/ZeroMate/examples/13-context_switch_monitor/kernel/src/drivers/monitor.cpp:26
    {
        for (unsigned int x = 0; x < m_width; ++x)
    8760:	e3a03000 	mov	r3, #0
    8764:	e50b300c 	str	r3, [fp, #-12]
/home/silhavyj/School/ZeroMate/examples/13-context_switch_monitor/kernel/src/drivers/monitor.cpp:26 (discriminator 3)
    8768:	e51b3010 	ldr	r3, [fp, #-16]
    876c:	e5933004 	ldr	r3, [r3, #4]
    8770:	e51b200c 	ldr	r2, [fp, #-12]
    8774:	e1520003 	cmp	r2, r3
    8778:	2a00000e 	bcs	87b8 <_ZN8CMonitor5ClearEv+0x8c>
/home/silhavyj/School/ZeroMate/examples/13-context_switch_monitor/kernel/src/drivers/monitor.cpp:28 (discriminator 2)
        {
            m_monitor[(y * m_width) + x] = ' ';
    877c:	e51b3010 	ldr	r3, [fp, #-16]
    8780:	e5932000 	ldr	r2, [r3]
    8784:	e51b3010 	ldr	r3, [fp, #-16]
    8788:	e5933004 	ldr	r3, [r3, #4]
    878c:	e51b1008 	ldr	r1, [fp, #-8]
    8790:	e0010391 	mul	r1, r1, r3
    8794:	e51b300c 	ldr	r3, [fp, #-12]
    8798:	e0813003 	add	r3, r1, r3
    879c:	e0823003 	add	r3, r2, r3
    87a0:	e3a02020 	mov	r2, #32
    87a4:	e5c32000 	strb	r2, [r3]
/home/silhavyj/School/ZeroMate/examples/13-context_switch_monitor/kernel/src/drivers/monitor.cpp:26 (discriminator 2)
        for (unsigned int x = 0; x < m_width; ++x)
    87a8:	e51b300c 	ldr	r3, [fp, #-12]
    87ac:	e2833001 	add	r3, r3, #1
    87b0:	e50b300c 	str	r3, [fp, #-12]
    87b4:	eaffffeb 	b	8768 <_ZN8CMonitor5ClearEv+0x3c>
/home/silhavyj/School/ZeroMate/examples/13-context_switch_monitor/kernel/src/drivers/monitor.cpp:24 (discriminator 2)
    for (unsigned int y = 0; y < m_height; ++y)
    87b8:	e51b3008 	ldr	r3, [fp, #-8]
    87bc:	e2833001 	add	r3, r3, #1
    87c0:	e50b3008 	str	r3, [fp, #-8]
    87c4:	eaffffe0 	b	874c <_ZN8CMonitor5ClearEv+0x20>
/home/silhavyj/School/ZeroMate/examples/13-context_switch_monitor/kernel/src/drivers/monitor.cpp:31
        }
    }
}
    87c8:	e320f000 	nop	{0}
    87cc:	e24bd004 	sub	sp, fp, #4
    87d0:	e8bd8800 	pop	{fp, pc}

000087d4 <_ZN8CMonitor6ScrollEv>:
_ZN8CMonitor6ScrollEv():
/home/silhavyj/School/ZeroMate/examples/13-context_switch_monitor/kernel/src/drivers/monitor.cpp:49
        m_cursor.y = m_height - 1;
    }
}

void CMonitor::Scroll()
{
    87d4:	e52db004 	push	{fp}		; (str fp, [sp, #-4]!)
    87d8:	e28db000 	add	fp, sp, #0
    87dc:	e24dd01c 	sub	sp, sp, #28
    87e0:	e50b0018 	str	r0, [fp, #-24]	; 0xffffffe8
/home/silhavyj/School/ZeroMate/examples/13-context_switch_monitor/kernel/src/drivers/monitor.cpp:50
    for (unsigned int y = 1; y < m_height; ++y)
    87e4:	e3a03001 	mov	r3, #1
    87e8:	e50b3008 	str	r3, [fp, #-8]
/home/silhavyj/School/ZeroMate/examples/13-context_switch_monitor/kernel/src/drivers/monitor.cpp:50 (discriminator 1)
    87ec:	e51b3018 	ldr	r3, [fp, #-24]	; 0xffffffe8
    87f0:	e5933008 	ldr	r3, [r3, #8]
    87f4:	e51b2008 	ldr	r2, [fp, #-8]
    87f8:	e1520003 	cmp	r2, r3
    87fc:	2a000024 	bcs	8894 <_ZN8CMonitor6ScrollEv+0xc0>
/home/silhavyj/School/ZeroMate/examples/13-context_switch_monitor/kernel/src/drivers/monitor.cpp:52
    {
        for (unsigned int x = 0; x < m_width; ++x)
    8800:	e3a03000 	mov	r3, #0
    8804:	e50b300c 	str	r3, [fp, #-12]
/home/silhavyj/School/ZeroMate/examples/13-context_switch_monitor/kernel/src/drivers/monitor.cpp:52 (discriminator 3)
    8808:	e51b3018 	ldr	r3, [fp, #-24]	; 0xffffffe8
    880c:	e5933004 	ldr	r3, [r3, #4]
    8810:	e51b200c 	ldr	r2, [fp, #-12]
    8814:	e1520003 	cmp	r2, r3
    8818:	2a000019 	bcs	8884 <_ZN8CMonitor6ScrollEv+0xb0>
/home/silhavyj/School/ZeroMate/examples/13-context_switch_monitor/kernel/src/drivers/monitor.cpp:54 (discriminator 2)
        {
            m_monitor[((y - 1) * m_width) + x] = m_monitor[(y * m_width) + x];
    881c:	e51b3018 	ldr	r3, [fp, #-24]	; 0xffffffe8
    8820:	e5932000 	ldr	r2, [r3]
    8824:	e51b3018 	ldr	r3, [fp, #-24]	; 0xffffffe8
    8828:	e5933004 	ldr	r3, [r3, #4]
    882c:	e51b1008 	ldr	r1, [fp, #-8]
    8830:	e0010391 	mul	r1, r1, r3
    8834:	e51b300c 	ldr	r3, [fp, #-12]
    8838:	e0813003 	add	r3, r1, r3
    883c:	e0822003 	add	r2, r2, r3
    8840:	e51b3018 	ldr	r3, [fp, #-24]	; 0xffffffe8
    8844:	e5931000 	ldr	r1, [r3]
    8848:	e51b3008 	ldr	r3, [fp, #-8]
    884c:	e2433001 	sub	r3, r3, #1
    8850:	e51b0018 	ldr	r0, [fp, #-24]	; 0xffffffe8
    8854:	e5900004 	ldr	r0, [r0, #4]
    8858:	e0000390 	mul	r0, r0, r3
    885c:	e51b300c 	ldr	r3, [fp, #-12]
    8860:	e0803003 	add	r3, r0, r3
    8864:	e0813003 	add	r3, r1, r3
    8868:	e5d22000 	ldrb	r2, [r2]
    886c:	e6ef2072 	uxtb	r2, r2
    8870:	e5c32000 	strb	r2, [r3]
/home/silhavyj/School/ZeroMate/examples/13-context_switch_monitor/kernel/src/drivers/monitor.cpp:52 (discriminator 2)
        for (unsigned int x = 0; x < m_width; ++x)
    8874:	e51b300c 	ldr	r3, [fp, #-12]
    8878:	e2833001 	add	r3, r3, #1
    887c:	e50b300c 	str	r3, [fp, #-12]
    8880:	eaffffe0 	b	8808 <_ZN8CMonitor6ScrollEv+0x34>
/home/silhavyj/School/ZeroMate/examples/13-context_switch_monitor/kernel/src/drivers/monitor.cpp:50 (discriminator 2)
    for (unsigned int y = 1; y < m_height; ++y)
    8884:	e51b3008 	ldr	r3, [fp, #-8]
    8888:	e2833001 	add	r3, r3, #1
    888c:	e50b3008 	str	r3, [fp, #-8]
    8890:	eaffffd5 	b	87ec <_ZN8CMonitor6ScrollEv+0x18>
/home/silhavyj/School/ZeroMate/examples/13-context_switch_monitor/kernel/src/drivers/monitor.cpp:58
        }
    }

    for (unsigned int x = 0; x < m_width; ++x)
    8894:	e3a03000 	mov	r3, #0
    8898:	e50b3010 	str	r3, [fp, #-16]
/home/silhavyj/School/ZeroMate/examples/13-context_switch_monitor/kernel/src/drivers/monitor.cpp:58 (discriminator 3)
    889c:	e51b3018 	ldr	r3, [fp, #-24]	; 0xffffffe8
    88a0:	e5933004 	ldr	r3, [r3, #4]
    88a4:	e51b2010 	ldr	r2, [fp, #-16]
    88a8:	e1520003 	cmp	r2, r3
    88ac:	2a000010 	bcs	88f4 <_ZN8CMonitor6ScrollEv+0x120>
/home/silhavyj/School/ZeroMate/examples/13-context_switch_monitor/kernel/src/drivers/monitor.cpp:60 (discriminator 2)
    {
        m_monitor[((m_height - 1) * m_width) + x] = ' ';
    88b0:	e51b3018 	ldr	r3, [fp, #-24]	; 0xffffffe8
    88b4:	e5932000 	ldr	r2, [r3]
    88b8:	e51b3018 	ldr	r3, [fp, #-24]	; 0xffffffe8
    88bc:	e5933008 	ldr	r3, [r3, #8]
    88c0:	e2433001 	sub	r3, r3, #1
    88c4:	e51b1018 	ldr	r1, [fp, #-24]	; 0xffffffe8
    88c8:	e5911004 	ldr	r1, [r1, #4]
    88cc:	e0010391 	mul	r1, r1, r3
    88d0:	e51b3010 	ldr	r3, [fp, #-16]
    88d4:	e0813003 	add	r3, r1, r3
    88d8:	e0823003 	add	r3, r2, r3
    88dc:	e3a02020 	mov	r2, #32
    88e0:	e5c32000 	strb	r2, [r3]
/home/silhavyj/School/ZeroMate/examples/13-context_switch_monitor/kernel/src/drivers/monitor.cpp:58 (discriminator 2)
    for (unsigned int x = 0; x < m_width; ++x)
    88e4:	e51b3010 	ldr	r3, [fp, #-16]
    88e8:	e2833001 	add	r3, r3, #1
    88ec:	e50b3010 	str	r3, [fp, #-16]
    88f0:	eaffffe9 	b	889c <_ZN8CMonitor6ScrollEv+0xc8>
/home/silhavyj/School/ZeroMate/examples/13-context_switch_monitor/kernel/src/drivers/monitor.cpp:62
    }
}
    88f4:	e320f000 	nop	{0}
    88f8:	e28bd000 	add	sp, fp, #0
    88fc:	e49db004 	pop	{fp}		; (ldr fp, [sp], #4)
    8900:	e12fff1e 	bx	lr

00008904 <_ZN8CMonitorlsEc>:
_ZN8CMonitorlsEc():
/home/silhavyj/School/ZeroMate/examples/13-context_switch_monitor/kernel/src/drivers/monitor.cpp:70
{
    m_number_base = DEFAULT_NUMBER_BASE;
}

CMonitor& CMonitor::operator<<(char c)
{
    8904:	e92d4800 	push	{fp, lr}
    8908:	e28db004 	add	fp, sp, #4
    890c:	e24dd008 	sub	sp, sp, #8
    8910:	e50b0008 	str	r0, [fp, #-8]
    8914:	e1a03001 	mov	r3, r1
    8918:	e54b3009 	strb	r3, [fp, #-9]
/home/silhavyj/School/ZeroMate/examples/13-context_switch_monitor/kernel/src/drivers/monitor.cpp:71
    if (c != '\n')
    891c:	e55b3009 	ldrb	r3, [fp, #-9]
    8920:	e353000a 	cmp	r3, #10
    8924:	0a000012 	beq	8974 <_ZN8CMonitorlsEc+0x70>
/home/silhavyj/School/ZeroMate/examples/13-context_switch_monitor/kernel/src/drivers/monitor.cpp:73
    {
        m_monitor[(m_cursor.y * m_width) + m_cursor.x] = static_cast<unsigned char>(c);
    8928:	e51b3008 	ldr	r3, [fp, #-8]
    892c:	e5932000 	ldr	r2, [r3]
    8930:	e51b3008 	ldr	r3, [fp, #-8]
    8934:	e593300c 	ldr	r3, [r3, #12]
    8938:	e51b1008 	ldr	r1, [fp, #-8]
    893c:	e5911004 	ldr	r1, [r1, #4]
    8940:	e0010391 	mul	r1, r1, r3
    8944:	e51b3008 	ldr	r3, [fp, #-8]
    8948:	e5933010 	ldr	r3, [r3, #16]
    894c:	e0813003 	add	r3, r1, r3
    8950:	e0823003 	add	r3, r2, r3
    8954:	e55b2009 	ldrb	r2, [fp, #-9]
    8958:	e5c32000 	strb	r2, [r3]
/home/silhavyj/School/ZeroMate/examples/13-context_switch_monitor/kernel/src/drivers/monitor.cpp:74
        ++m_cursor.x;
    895c:	e51b3008 	ldr	r3, [fp, #-8]
    8960:	e5933010 	ldr	r3, [r3, #16]
    8964:	e2832001 	add	r2, r3, #1
    8968:	e51b3008 	ldr	r3, [fp, #-8]
    896c:	e5832010 	str	r2, [r3, #16]
    8970:	ea000007 	b	8994 <_ZN8CMonitorlsEc+0x90>
/home/silhavyj/School/ZeroMate/examples/13-context_switch_monitor/kernel/src/drivers/monitor.cpp:78
    }
    else
    {
        m_cursor.x = 0;
    8974:	e51b3008 	ldr	r3, [fp, #-8]
    8978:	e3a02000 	mov	r2, #0
    897c:	e5832010 	str	r2, [r3, #16]
/home/silhavyj/School/ZeroMate/examples/13-context_switch_monitor/kernel/src/drivers/monitor.cpp:79
        ++m_cursor.y;
    8980:	e51b3008 	ldr	r3, [fp, #-8]
    8984:	e593300c 	ldr	r3, [r3, #12]
    8988:	e2832001 	add	r2, r3, #1
    898c:	e51b3008 	ldr	r3, [fp, #-8]
    8990:	e583200c 	str	r2, [r3, #12]
/home/silhavyj/School/ZeroMate/examples/13-context_switch_monitor/kernel/src/drivers/monitor.cpp:82
    }

    Adjust_Cursor();
    8994:	e51b0008 	ldr	r0, [fp, #-8]
    8998:	eb0000e5 	bl	8d34 <_ZN8CMonitor13Adjust_CursorEv>
/home/silhavyj/School/ZeroMate/examples/13-context_switch_monitor/kernel/src/drivers/monitor.cpp:84

    return *this;
    899c:	e51b3008 	ldr	r3, [fp, #-8]
/home/silhavyj/School/ZeroMate/examples/13-context_switch_monitor/kernel/src/drivers/monitor.cpp:85
}
    89a0:	e1a00003 	mov	r0, r3
    89a4:	e24bd004 	sub	sp, fp, #4
    89a8:	e8bd8800 	pop	{fp, pc}

000089ac <_ZN8CMonitorlsEPKc>:
_ZN8CMonitorlsEPKc():
/home/silhavyj/School/ZeroMate/examples/13-context_switch_monitor/kernel/src/drivers/monitor.cpp:88

CMonitor& CMonitor::operator<<(const char* str)
{
    89ac:	e92d4800 	push	{fp, lr}
    89b0:	e28db004 	add	fp, sp, #4
    89b4:	e24dd010 	sub	sp, sp, #16
    89b8:	e50b0010 	str	r0, [fp, #-16]
    89bc:	e50b1014 	str	r1, [fp, #-20]	; 0xffffffec
/home/silhavyj/School/ZeroMate/examples/13-context_switch_monitor/kernel/src/drivers/monitor.cpp:89
    for (unsigned int i = 0; str[i] != '\0'; ++i)
    89c0:	e3a03000 	mov	r3, #0
    89c4:	e50b3008 	str	r3, [fp, #-8]
/home/silhavyj/School/ZeroMate/examples/13-context_switch_monitor/kernel/src/drivers/monitor.cpp:89 (discriminator 3)
    89c8:	e51b2014 	ldr	r2, [fp, #-20]	; 0xffffffec
    89cc:	e51b3008 	ldr	r3, [fp, #-8]
    89d0:	e0823003 	add	r3, r2, r3
    89d4:	e5d33000 	ldrb	r3, [r3]
    89d8:	e3530000 	cmp	r3, #0
    89dc:	0a00000a 	beq	8a0c <_ZN8CMonitorlsEPKc+0x60>
/home/silhavyj/School/ZeroMate/examples/13-context_switch_monitor/kernel/src/drivers/monitor.cpp:91 (discriminator 2)
    {
        *this << str[i];
    89e0:	e51b2014 	ldr	r2, [fp, #-20]	; 0xffffffec
    89e4:	e51b3008 	ldr	r3, [fp, #-8]
    89e8:	e0823003 	add	r3, r2, r3
    89ec:	e5d33000 	ldrb	r3, [r3]
    89f0:	e1a01003 	mov	r1, r3
    89f4:	e51b0010 	ldr	r0, [fp, #-16]
    89f8:	ebffffc1 	bl	8904 <_ZN8CMonitorlsEc>
/home/silhavyj/School/ZeroMate/examples/13-context_switch_monitor/kernel/src/drivers/monitor.cpp:89 (discriminator 2)
    for (unsigned int i = 0; str[i] != '\0'; ++i)
    89fc:	e51b3008 	ldr	r3, [fp, #-8]
    8a00:	e2833001 	add	r3, r3, #1
    8a04:	e50b3008 	str	r3, [fp, #-8]
    8a08:	eaffffee 	b	89c8 <_ZN8CMonitorlsEPKc+0x1c>
/home/silhavyj/School/ZeroMate/examples/13-context_switch_monitor/kernel/src/drivers/monitor.cpp:94
    }

    Reset_Number_Base();
    8a0c:	e51b0010 	ldr	r0, [fp, #-16]
    8a10:	eb0000e9 	bl	8dbc <_ZN8CMonitor17Reset_Number_BaseEv>
/home/silhavyj/School/ZeroMate/examples/13-context_switch_monitor/kernel/src/drivers/monitor.cpp:96

    return *this;
    8a14:	e51b3010 	ldr	r3, [fp, #-16]
/home/silhavyj/School/ZeroMate/examples/13-context_switch_monitor/kernel/src/drivers/monitor.cpp:97
}
    8a18:	e1a00003 	mov	r0, r3
    8a1c:	e24bd004 	sub	sp, fp, #4
    8a20:	e8bd8800 	pop	{fp, pc}

00008a24 <_ZN8CMonitorlsENS_12NNumber_BaseE>:
_ZN8CMonitorlsENS_12NNumber_BaseE():
/home/silhavyj/School/ZeroMate/examples/13-context_switch_monitor/kernel/src/drivers/monitor.cpp:100

CMonitor& CMonitor::operator<<(CMonitor::NNumber_Base number_base)
{
    8a24:	e52db004 	push	{fp}		; (str fp, [sp, #-4]!)
    8a28:	e28db000 	add	fp, sp, #0
    8a2c:	e24dd00c 	sub	sp, sp, #12
    8a30:	e50b0008 	str	r0, [fp, #-8]
    8a34:	e50b100c 	str	r1, [fp, #-12]
/home/silhavyj/School/ZeroMate/examples/13-context_switch_monitor/kernel/src/drivers/monitor.cpp:101
    m_number_base = number_base;
    8a38:	e51b3008 	ldr	r3, [fp, #-8]
    8a3c:	e51b200c 	ldr	r2, [fp, #-12]
    8a40:	e5832014 	str	r2, [r3, #20]
/home/silhavyj/School/ZeroMate/examples/13-context_switch_monitor/kernel/src/drivers/monitor.cpp:103

    return *this;
    8a44:	e51b3008 	ldr	r3, [fp, #-8]
/home/silhavyj/School/ZeroMate/examples/13-context_switch_monitor/kernel/src/drivers/monitor.cpp:104
}
    8a48:	e1a00003 	mov	r0, r3
    8a4c:	e28bd000 	add	sp, fp, #0
    8a50:	e49db004 	pop	{fp}		; (ldr fp, [sp], #4)
    8a54:	e12fff1e 	bx	lr

00008a58 <_ZN8CMonitorlsEj>:
_ZN8CMonitorlsEj():
/home/silhavyj/School/ZeroMate/examples/13-context_switch_monitor/kernel/src/drivers/monitor.cpp:107

CMonitor& CMonitor::operator<<(unsigned int num)
{
    8a58:	e92d4800 	push	{fp, lr}
    8a5c:	e28db004 	add	fp, sp, #4
    8a60:	e24dd008 	sub	sp, sp, #8
    8a64:	e50b0008 	str	r0, [fp, #-8]
    8a68:	e50b100c 	str	r1, [fp, #-12]
/home/silhavyj/School/ZeroMate/examples/13-context_switch_monitor/kernel/src/drivers/monitor.cpp:112
    static constexpr unsigned int BUFFER_SIZE = 16;

    static char s_buffer[BUFFER_SIZE];

    itoa(num, s_buffer, static_cast<unsigned int>(m_number_base));
    8a6c:	e51b3008 	ldr	r3, [fp, #-8]
    8a70:	e5933014 	ldr	r3, [r3, #20]
    8a74:	e59f202c 	ldr	r2, [pc, #44]	; 8aa8 <_ZN8CMonitorlsEj+0x50>
    8a78:	e51b100c 	ldr	r1, [fp, #-12]
    8a7c:	e51b0008 	ldr	r0, [fp, #-8]
    8a80:	eb000021 	bl	8b0c <_ZN8CMonitor4itoaEjPcj>
/home/silhavyj/School/ZeroMate/examples/13-context_switch_monitor/kernel/src/drivers/monitor.cpp:113
    *this << s_buffer;
    8a84:	e59f101c 	ldr	r1, [pc, #28]	; 8aa8 <_ZN8CMonitorlsEj+0x50>
    8a88:	e51b0008 	ldr	r0, [fp, #-8]
    8a8c:	ebffffc6 	bl	89ac <_ZN8CMonitorlsEPKc>
/home/silhavyj/School/ZeroMate/examples/13-context_switch_monitor/kernel/src/drivers/monitor.cpp:114
    Reset_Number_Base();
    8a90:	e51b0008 	ldr	r0, [fp, #-8]
    8a94:	eb0000c8 	bl	8dbc <_ZN8CMonitor17Reset_Number_BaseEv>
/home/silhavyj/School/ZeroMate/examples/13-context_switch_monitor/kernel/src/drivers/monitor.cpp:116

    return *this;
    8a98:	e51b3008 	ldr	r3, [fp, #-8]
/home/silhavyj/School/ZeroMate/examples/13-context_switch_monitor/kernel/src/drivers/monitor.cpp:117
}
    8a9c:	e1a00003 	mov	r0, r3
    8aa0:	e24bd004 	sub	sp, fp, #4
    8aa4:	e8bd8800 	pop	{fp, pc}
    8aa8:	0000ab30 	andeq	sl, r0, r0, lsr fp

00008aac <_ZN8CMonitorlsEb>:
_ZN8CMonitorlsEb():
/home/silhavyj/School/ZeroMate/examples/13-context_switch_monitor/kernel/src/drivers/monitor.cpp:120

CMonitor& CMonitor::operator<<(bool value)
{
    8aac:	e92d4800 	push	{fp, lr}
    8ab0:	e28db004 	add	fp, sp, #4
    8ab4:	e24dd008 	sub	sp, sp, #8
    8ab8:	e50b0008 	str	r0, [fp, #-8]
    8abc:	e1a03001 	mov	r3, r1
    8ac0:	e54b3009 	strb	r3, [fp, #-9]
/home/silhavyj/School/ZeroMate/examples/13-context_switch_monitor/kernel/src/drivers/monitor.cpp:121
    if (value)
    8ac4:	e55b3009 	ldrb	r3, [fp, #-9]
    8ac8:	e3530000 	cmp	r3, #0
    8acc:	0a000003 	beq	8ae0 <_ZN8CMonitorlsEb+0x34>
/home/silhavyj/School/ZeroMate/examples/13-context_switch_monitor/kernel/src/drivers/monitor.cpp:123
    {
        *this << "true";
    8ad0:	e59f102c 	ldr	r1, [pc, #44]	; 8b04 <_ZN8CMonitorlsEb+0x58>
    8ad4:	e51b0008 	ldr	r0, [fp, #-8]
    8ad8:	ebffffb3 	bl	89ac <_ZN8CMonitorlsEPKc>
    8adc:	ea000002 	b	8aec <_ZN8CMonitorlsEb+0x40>
/home/silhavyj/School/ZeroMate/examples/13-context_switch_monitor/kernel/src/drivers/monitor.cpp:127
    }
    else
    {
        *this << "false";
    8ae0:	e59f1020 	ldr	r1, [pc, #32]	; 8b08 <_ZN8CMonitorlsEb+0x5c>
    8ae4:	e51b0008 	ldr	r0, [fp, #-8]
    8ae8:	ebffffaf 	bl	89ac <_ZN8CMonitorlsEPKc>
/home/silhavyj/School/ZeroMate/examples/13-context_switch_monitor/kernel/src/drivers/monitor.cpp:130
    }

    Reset_Number_Base();
    8aec:	e51b0008 	ldr	r0, [fp, #-8]
    8af0:	eb0000b1 	bl	8dbc <_ZN8CMonitor17Reset_Number_BaseEv>
/home/silhavyj/School/ZeroMate/examples/13-context_switch_monitor/kernel/src/drivers/monitor.cpp:132

    return *this;
    8af4:	e51b3008 	ldr	r3, [fp, #-8]
/home/silhavyj/School/ZeroMate/examples/13-context_switch_monitor/kernel/src/drivers/monitor.cpp:133
}
    8af8:	e1a00003 	mov	r0, r3
    8afc:	e24bd004 	sub	sp, fp, #4
    8b00:	e8bd8800 	pop	{fp, pc}
    8b04:	0000a918 	andeq	sl, r0, r8, lsl r9
    8b08:	0000a920 	andeq	sl, r0, r0, lsr #18

00008b0c <_ZN8CMonitor4itoaEjPcj>:
_ZN8CMonitor4itoaEjPcj():
/home/silhavyj/School/ZeroMate/examples/13-context_switch_monitor/kernel/src/drivers/monitor.cpp:136

void CMonitor::itoa(unsigned int input, char* output, unsigned int base)
{
    8b0c:	e92d4800 	push	{fp, lr}
    8b10:	e28db004 	add	fp, sp, #4
    8b14:	e24dd020 	sub	sp, sp, #32
    8b18:	e50b0018 	str	r0, [fp, #-24]	; 0xffffffe8
    8b1c:	e50b101c 	str	r1, [fp, #-28]	; 0xffffffe4
    8b20:	e50b2020 	str	r2, [fp, #-32]	; 0xffffffe0
    8b24:	e50b3024 	str	r3, [fp, #-36]	; 0xffffffdc
/home/silhavyj/School/ZeroMate/examples/13-context_switch_monitor/kernel/src/drivers/monitor.cpp:137
    int i = 0;
    8b28:	e3a03000 	mov	r3, #0
    8b2c:	e50b3008 	str	r3, [fp, #-8]
/home/silhavyj/School/ZeroMate/examples/13-context_switch_monitor/kernel/src/drivers/monitor.cpp:139

    while (input > 0)
    8b30:	e51b301c 	ldr	r3, [fp, #-28]	; 0xffffffe4
    8b34:	e3530000 	cmp	r3, #0
    8b38:	0a000015 	beq	8b94 <_ZN8CMonitor4itoaEjPcj+0x88>
/home/silhavyj/School/ZeroMate/examples/13-context_switch_monitor/kernel/src/drivers/monitor.cpp:141
    {
        output[i] = CharConvArr[input % base];
    8b3c:	e51b301c 	ldr	r3, [fp, #-28]	; 0xffffffe4
    8b40:	e51b1024 	ldr	r1, [fp, #-36]	; 0xffffffdc
    8b44:	e1a00003 	mov	r0, r3
    8b48:	eb000705 	bl	a764 <__aeabi_uidivmod>
    8b4c:	e1a03001 	mov	r3, r1
    8b50:	e1a02003 	mov	r2, r3
    8b54:	e59f3128 	ldr	r3, [pc, #296]	; 8c84 <_ZN8CMonitor4itoaEjPcj+0x178>
    8b58:	e0822003 	add	r2, r2, r3
    8b5c:	e51b3008 	ldr	r3, [fp, #-8]
    8b60:	e51b1020 	ldr	r1, [fp, #-32]	; 0xffffffe0
    8b64:	e0813003 	add	r3, r1, r3
    8b68:	e5d22000 	ldrb	r2, [r2]
    8b6c:	e5c32000 	strb	r2, [r3]
/home/silhavyj/School/ZeroMate/examples/13-context_switch_monitor/kernel/src/drivers/monitor.cpp:142
        input /= base;
    8b70:	e51b1024 	ldr	r1, [fp, #-36]	; 0xffffffdc
    8b74:	e51b001c 	ldr	r0, [fp, #-28]	; 0xffffffe4
    8b78:	eb00067e 	bl	a578 <__udivsi3>
    8b7c:	e1a03000 	mov	r3, r0
    8b80:	e50b301c 	str	r3, [fp, #-28]	; 0xffffffe4
/home/silhavyj/School/ZeroMate/examples/13-context_switch_monitor/kernel/src/drivers/monitor.cpp:144

        i++;
    8b84:	e51b3008 	ldr	r3, [fp, #-8]
    8b88:	e2833001 	add	r3, r3, #1
    8b8c:	e50b3008 	str	r3, [fp, #-8]
/home/silhavyj/School/ZeroMate/examples/13-context_switch_monitor/kernel/src/drivers/monitor.cpp:139
    while (input > 0)
    8b90:	eaffffe6 	b	8b30 <_ZN8CMonitor4itoaEjPcj+0x24>
/home/silhavyj/School/ZeroMate/examples/13-context_switch_monitor/kernel/src/drivers/monitor.cpp:147
    }

    if (i == 0)
    8b94:	e51b3008 	ldr	r3, [fp, #-8]
    8b98:	e3530000 	cmp	r3, #0
    8b9c:	1a000007 	bne	8bc0 <_ZN8CMonitor4itoaEjPcj+0xb4>
/home/silhavyj/School/ZeroMate/examples/13-context_switch_monitor/kernel/src/drivers/monitor.cpp:149
    {
        output[i] = CharConvArr[0];
    8ba0:	e51b3008 	ldr	r3, [fp, #-8]
    8ba4:	e51b2020 	ldr	r2, [fp, #-32]	; 0xffffffe0
    8ba8:	e0823003 	add	r3, r2, r3
    8bac:	e3a02030 	mov	r2, #48	; 0x30
    8bb0:	e5c32000 	strb	r2, [r3]
/home/silhavyj/School/ZeroMate/examples/13-context_switch_monitor/kernel/src/drivers/monitor.cpp:150
        i++;
    8bb4:	e51b3008 	ldr	r3, [fp, #-8]
    8bb8:	e2833001 	add	r3, r3, #1
    8bbc:	e50b3008 	str	r3, [fp, #-8]
/home/silhavyj/School/ZeroMate/examples/13-context_switch_monitor/kernel/src/drivers/monitor.cpp:153
    }

    output[i] = '\0';
    8bc0:	e51b3008 	ldr	r3, [fp, #-8]
    8bc4:	e51b2020 	ldr	r2, [fp, #-32]	; 0xffffffe0
    8bc8:	e0823003 	add	r3, r2, r3
    8bcc:	e3a02000 	mov	r2, #0
    8bd0:	e5c32000 	strb	r2, [r3]
/home/silhavyj/School/ZeroMate/examples/13-context_switch_monitor/kernel/src/drivers/monitor.cpp:154
    i--;
    8bd4:	e51b3008 	ldr	r3, [fp, #-8]
    8bd8:	e2433001 	sub	r3, r3, #1
    8bdc:	e50b3008 	str	r3, [fp, #-8]
/home/silhavyj/School/ZeroMate/examples/13-context_switch_monitor/kernel/src/drivers/monitor.cpp:156

    for (int j = 0; j <= (i / 2); j++)
    8be0:	e3a03000 	mov	r3, #0
    8be4:	e50b300c 	str	r3, [fp, #-12]
/home/silhavyj/School/ZeroMate/examples/13-context_switch_monitor/kernel/src/drivers/monitor.cpp:156 (discriminator 3)
    8be8:	e51b3008 	ldr	r3, [fp, #-8]
    8bec:	e1a02fa3 	lsr	r2, r3, #31
    8bf0:	e0823003 	add	r3, r2, r3
    8bf4:	e1a030c3 	asr	r3, r3, #1
    8bf8:	e1a02003 	mov	r2, r3
    8bfc:	e51b300c 	ldr	r3, [fp, #-12]
    8c00:	e1530002 	cmp	r3, r2
    8c04:	ca00001b 	bgt	8c78 <_ZN8CMonitor4itoaEjPcj+0x16c>
/home/silhavyj/School/ZeroMate/examples/13-context_switch_monitor/kernel/src/drivers/monitor.cpp:158 (discriminator 2)
    {
        char c = output[i - j];
    8c08:	e51b2008 	ldr	r2, [fp, #-8]
    8c0c:	e51b300c 	ldr	r3, [fp, #-12]
    8c10:	e0423003 	sub	r3, r2, r3
    8c14:	e1a02003 	mov	r2, r3
    8c18:	e51b3020 	ldr	r3, [fp, #-32]	; 0xffffffe0
    8c1c:	e0833002 	add	r3, r3, r2
    8c20:	e5d33000 	ldrb	r3, [r3]
    8c24:	e54b300d 	strb	r3, [fp, #-13]
/home/silhavyj/School/ZeroMate/examples/13-context_switch_monitor/kernel/src/drivers/monitor.cpp:159 (discriminator 2)
        output[i - j] = output[j];
    8c28:	e51b300c 	ldr	r3, [fp, #-12]
    8c2c:	e51b2020 	ldr	r2, [fp, #-32]	; 0xffffffe0
    8c30:	e0822003 	add	r2, r2, r3
    8c34:	e51b1008 	ldr	r1, [fp, #-8]
    8c38:	e51b300c 	ldr	r3, [fp, #-12]
    8c3c:	e0413003 	sub	r3, r1, r3
    8c40:	e1a01003 	mov	r1, r3
    8c44:	e51b3020 	ldr	r3, [fp, #-32]	; 0xffffffe0
    8c48:	e0833001 	add	r3, r3, r1
    8c4c:	e5d22000 	ldrb	r2, [r2]
    8c50:	e5c32000 	strb	r2, [r3]
/home/silhavyj/School/ZeroMate/examples/13-context_switch_monitor/kernel/src/drivers/monitor.cpp:160 (discriminator 2)
        output[j] = c;
    8c54:	e51b300c 	ldr	r3, [fp, #-12]
    8c58:	e51b2020 	ldr	r2, [fp, #-32]	; 0xffffffe0
    8c5c:	e0823003 	add	r3, r2, r3
    8c60:	e55b200d 	ldrb	r2, [fp, #-13]
    8c64:	e5c32000 	strb	r2, [r3]
/home/silhavyj/School/ZeroMate/examples/13-context_switch_monitor/kernel/src/drivers/monitor.cpp:156 (discriminator 2)
    for (int j = 0; j <= (i / 2); j++)
    8c68:	e51b300c 	ldr	r3, [fp, #-12]
    8c6c:	e2833001 	add	r3, r3, #1
    8c70:	e50b300c 	str	r3, [fp, #-12]
    8c74:	eaffffdb 	b	8be8 <_ZN8CMonitor4itoaEjPcj+0xdc>
/home/silhavyj/School/ZeroMate/examples/13-context_switch_monitor/kernel/src/drivers/monitor.cpp:162
    }
}
    8c78:	e320f000 	nop	{0}
    8c7c:	e24bd004 	sub	sp, fp, #4
    8c80:	e8bd8800 	pop	{fp, pc}
    8c84:	0000a928 	andeq	sl, r0, r8, lsr #18

00008c88 <_Z41__static_initialization_and_destruction_0ii>:
_Z41__static_initialization_and_destruction_0ii():
/home/silhavyj/School/ZeroMate/examples/13-context_switch_monitor/kernel/src/drivers/monitor.cpp:162
    8c88:	e92d4800 	push	{fp, lr}
    8c8c:	e28db004 	add	fp, sp, #4
    8c90:	e24dd008 	sub	sp, sp, #8
    8c94:	e50b0008 	str	r0, [fp, #-8]
    8c98:	e50b100c 	str	r1, [fp, #-12]
    8c9c:	e51b3008 	ldr	r3, [fp, #-8]
    8ca0:	e3530001 	cmp	r3, #1
    8ca4:	1a000008 	bne	8ccc <_Z41__static_initialization_and_destruction_0ii+0x44>
/home/silhavyj/School/ZeroMate/examples/13-context_switch_monitor/kernel/src/drivers/monitor.cpp:162 (discriminator 1)
    8ca8:	e51b300c 	ldr	r3, [fp, #-12]
    8cac:	e59f2024 	ldr	r2, [pc, #36]	; 8cd8 <_Z41__static_initialization_and_destruction_0ii+0x50>
    8cb0:	e1530002 	cmp	r3, r2
    8cb4:	1a000004 	bne	8ccc <_Z41__static_initialization_and_destruction_0ii+0x44>
/home/silhavyj/School/ZeroMate/examples/13-context_switch_monitor/kernel/src/drivers/monitor.cpp:3
CMonitor sMonitor{ 0x30000000, 80, 25 };
    8cb8:	e3a03019 	mov	r3, #25
    8cbc:	e3a02050 	mov	r2, #80	; 0x50
    8cc0:	e3a01203 	mov	r1, #805306368	; 0x30000000
    8cc4:	e59f0010 	ldr	r0, [pc, #16]	; 8cdc <_Z41__static_initialization_and_destruction_0ii+0x54>
    8cc8:	ebfffe79 	bl	86b4 <_ZN8CMonitorC1Ejjj>
/home/silhavyj/School/ZeroMate/examples/13-context_switch_monitor/kernel/src/drivers/monitor.cpp:162
}
    8ccc:	e320f000 	nop	{0}
    8cd0:	e24bd004 	sub	sp, fp, #4
    8cd4:	e8bd8800 	pop	{fp, pc}
    8cd8:	0000ffff 	strdeq	pc, [r0], -pc	; <UNPREDICTABLE>
    8cdc:	0000ab18 	andeq	sl, r0, r8, lsl fp

00008ce0 <_GLOBAL__sub_I_sMonitor>:
_GLOBAL__sub_I_sMonitor():
/home/silhavyj/School/ZeroMate/examples/13-context_switch_monitor/kernel/src/drivers/monitor.cpp:162
    8ce0:	e92d4800 	push	{fp, lr}
    8ce4:	e28db004 	add	fp, sp, #4
    8ce8:	e59f1008 	ldr	r1, [pc, #8]	; 8cf8 <_GLOBAL__sub_I_sMonitor+0x18>
    8cec:	e3a00001 	mov	r0, #1
    8cf0:	ebffffe4 	bl	8c88 <_Z41__static_initialization_and_destruction_0ii>
    8cf4:	e8bd8800 	pop	{fp, pc}
    8cf8:	0000ffff 	strdeq	pc, [r0], -pc	; <UNPREDICTABLE>

00008cfc <_ZN8CMonitor12Reset_CursorEv>:
_ZN8CMonitor12Reset_CursorEv():
/home/silhavyj/School/ZeroMate/examples/13-context_switch_monitor/kernel/src/drivers/monitor.cpp:15
{
    8cfc:	e52db004 	push	{fp}		; (str fp, [sp, #-4]!)
    8d00:	e28db000 	add	fp, sp, #0
    8d04:	e24dd00c 	sub	sp, sp, #12
    8d08:	e50b0008 	str	r0, [fp, #-8]
/home/silhavyj/School/ZeroMate/examples/13-context_switch_monitor/kernel/src/drivers/monitor.cpp:16
    m_cursor.y = 0;
    8d0c:	e51b3008 	ldr	r3, [fp, #-8]
    8d10:	e3a02000 	mov	r2, #0
    8d14:	e583200c 	str	r2, [r3, #12]
/home/silhavyj/School/ZeroMate/examples/13-context_switch_monitor/kernel/src/drivers/monitor.cpp:17
    m_cursor.y = 0;
    8d18:	e51b3008 	ldr	r3, [fp, #-8]
    8d1c:	e3a02000 	mov	r2, #0
    8d20:	e583200c 	str	r2, [r3, #12]
/home/silhavyj/School/ZeroMate/examples/13-context_switch_monitor/kernel/src/drivers/monitor.cpp:18
}
    8d24:	e320f000 	nop	{0}
    8d28:	e28bd000 	add	sp, fp, #0
    8d2c:	e49db004 	pop	{fp}		; (ldr fp, [sp], #4)
    8d30:	e12fff1e 	bx	lr

00008d34 <_ZN8CMonitor13Adjust_CursorEv>:
_ZN8CMonitor13Adjust_CursorEv():
/home/silhavyj/School/ZeroMate/examples/13-context_switch_monitor/kernel/src/drivers/monitor.cpp:34
{
    8d34:	e92d4800 	push	{fp, lr}
    8d38:	e28db004 	add	fp, sp, #4
    8d3c:	e24dd008 	sub	sp, sp, #8
    8d40:	e50b0008 	str	r0, [fp, #-8]
/home/silhavyj/School/ZeroMate/examples/13-context_switch_monitor/kernel/src/drivers/monitor.cpp:35
    if (m_cursor.x >= m_width)
    8d44:	e51b3008 	ldr	r3, [fp, #-8]
    8d48:	e5932010 	ldr	r2, [r3, #16]
    8d4c:	e51b3008 	ldr	r3, [fp, #-8]
    8d50:	e5933004 	ldr	r3, [r3, #4]
    8d54:	e1520003 	cmp	r2, r3
    8d58:	3a000007 	bcc	8d7c <_ZN8CMonitor13Adjust_CursorEv+0x48>
/home/silhavyj/School/ZeroMate/examples/13-context_switch_monitor/kernel/src/drivers/monitor.cpp:37
        m_cursor.x = 0;
    8d5c:	e51b3008 	ldr	r3, [fp, #-8]
    8d60:	e3a02000 	mov	r2, #0
    8d64:	e5832010 	str	r2, [r3, #16]
/home/silhavyj/School/ZeroMate/examples/13-context_switch_monitor/kernel/src/drivers/monitor.cpp:38
        ++m_cursor.y;
    8d68:	e51b3008 	ldr	r3, [fp, #-8]
    8d6c:	e593300c 	ldr	r3, [r3, #12]
    8d70:	e2832001 	add	r2, r3, #1
    8d74:	e51b3008 	ldr	r3, [fp, #-8]
    8d78:	e583200c 	str	r2, [r3, #12]
/home/silhavyj/School/ZeroMate/examples/13-context_switch_monitor/kernel/src/drivers/monitor.cpp:41
    if (m_cursor.y >= m_height)
    8d7c:	e51b3008 	ldr	r3, [fp, #-8]
    8d80:	e593200c 	ldr	r2, [r3, #12]
    8d84:	e51b3008 	ldr	r3, [fp, #-8]
    8d88:	e5933008 	ldr	r3, [r3, #8]
    8d8c:	e1520003 	cmp	r2, r3
    8d90:	3a000006 	bcc	8db0 <_ZN8CMonitor13Adjust_CursorEv+0x7c>
/home/silhavyj/School/ZeroMate/examples/13-context_switch_monitor/kernel/src/drivers/monitor.cpp:43
        Scroll();
    8d94:	e51b0008 	ldr	r0, [fp, #-8]
    8d98:	ebfffe8d 	bl	87d4 <_ZN8CMonitor6ScrollEv>
/home/silhavyj/School/ZeroMate/examples/13-context_switch_monitor/kernel/src/drivers/monitor.cpp:44
        m_cursor.y = m_height - 1;
    8d9c:	e51b3008 	ldr	r3, [fp, #-8]
    8da0:	e5933008 	ldr	r3, [r3, #8]
    8da4:	e2432001 	sub	r2, r3, #1
    8da8:	e51b3008 	ldr	r3, [fp, #-8]
    8dac:	e583200c 	str	r2, [r3, #12]
/home/silhavyj/School/ZeroMate/examples/13-context_switch_monitor/kernel/src/drivers/monitor.cpp:46
}
    8db0:	e320f000 	nop	{0}
    8db4:	e24bd004 	sub	sp, fp, #4
    8db8:	e8bd8800 	pop	{fp, pc}

00008dbc <_ZN8CMonitor17Reset_Number_BaseEv>:
_ZN8CMonitor17Reset_Number_BaseEv():
/home/silhavyj/School/ZeroMate/examples/13-context_switch_monitor/kernel/src/drivers/monitor.cpp:65
{
    8dbc:	e52db004 	push	{fp}		; (str fp, [sp, #-4]!)
    8dc0:	e28db000 	add	fp, sp, #0
    8dc4:	e24dd00c 	sub	sp, sp, #12
    8dc8:	e50b0008 	str	r0, [fp, #-8]
/home/silhavyj/School/ZeroMate/examples/13-context_switch_monitor/kernel/src/drivers/monitor.cpp:66
    m_number_base = DEFAULT_NUMBER_BASE;
    8dcc:	e51b3008 	ldr	r3, [fp, #-8]
    8dd0:	e3a0200a 	mov	r2, #10
    8dd4:	e5832014 	str	r2, [r3, #20]
/home/silhavyj/School/ZeroMate/examples/13-context_switch_monitor/kernel/src/drivers/monitor.cpp:67
}
    8dd8:	e320f000 	nop	{0}
    8ddc:	e28bd000 	add	sp, fp, #0
    8de0:	e49db004 	pop	{fp}		; (ldr fp, [sp], #4)
    8de4:	e12fff1e 	bx	lr

00008de8 <_ZN6CTimerC1Em>:
_ZN6CTimerC2Em():
/home/silhavyj/School/ZeroMate/examples/13-context_switch_monitor/kernel/src/drivers/timer.cpp:26
    uint16_t unused_4 : 10;
};

#pragma pack(pop)

CTimer::CTimer(unsigned long timer_reg_base)
    8de8:	e52db004 	push	{fp}		; (str fp, [sp, #-4]!)
    8dec:	e28db000 	add	fp, sp, #0
    8df0:	e24dd00c 	sub	sp, sp, #12
    8df4:	e50b0008 	str	r0, [fp, #-8]
    8df8:	e50b100c 	str	r1, [fp, #-12]
/home/silhavyj/School/ZeroMate/examples/13-context_switch_monitor/kernel/src/drivers/timer.cpp:27
: mTimer_Regs(reinterpret_cast<unsigned int*>(timer_reg_base))
    8dfc:	e51b200c 	ldr	r2, [fp, #-12]
/home/silhavyj/School/ZeroMate/examples/13-context_switch_monitor/kernel/src/drivers/timer.cpp:28
, mCallback(nullptr)
    8e00:	e51b3008 	ldr	r3, [fp, #-8]
    8e04:	e5832000 	str	r2, [r3]
    8e08:	e51b3008 	ldr	r3, [fp, #-8]
    8e0c:	e3a02000 	mov	r2, #0
    8e10:	e5832004 	str	r2, [r3, #4]
/home/silhavyj/School/ZeroMate/examples/13-context_switch_monitor/kernel/src/drivers/timer.cpp:31
{
    //
}
    8e14:	e51b3008 	ldr	r3, [fp, #-8]
    8e18:	e1a00003 	mov	r0, r3
    8e1c:	e28bd000 	add	sp, fp, #0
    8e20:	e49db004 	pop	{fp}		; (ldr fp, [sp], #4)
    8e24:	e12fff1e 	bx	lr

00008e28 <_ZN6CTimer4RegsEN3hal9Timer_RegE>:
_ZN6CTimer4RegsEN3hal9Timer_RegE():
/home/silhavyj/School/ZeroMate/examples/13-context_switch_monitor/kernel/src/drivers/timer.cpp:34

volatile unsigned int& CTimer::Regs(hal::Timer_Reg reg)
{
    8e28:	e52db004 	push	{fp}		; (str fp, [sp, #-4]!)
    8e2c:	e28db000 	add	fp, sp, #0
    8e30:	e24dd00c 	sub	sp, sp, #12
    8e34:	e50b0008 	str	r0, [fp, #-8]
    8e38:	e50b100c 	str	r1, [fp, #-12]
/home/silhavyj/School/ZeroMate/examples/13-context_switch_monitor/kernel/src/drivers/timer.cpp:35
    return mTimer_Regs[static_cast<unsigned int>(reg)];
    8e3c:	e51b3008 	ldr	r3, [fp, #-8]
    8e40:	e5932000 	ldr	r2, [r3]
    8e44:	e51b300c 	ldr	r3, [fp, #-12]
    8e48:	e1a03103 	lsl	r3, r3, #2
    8e4c:	e0823003 	add	r3, r2, r3
/home/silhavyj/School/ZeroMate/examples/13-context_switch_monitor/kernel/src/drivers/timer.cpp:36
}
    8e50:	e1a00003 	mov	r0, r3
    8e54:	e28bd000 	add	sp, fp, #0
    8e58:	e49db004 	pop	{fp}		; (ldr fp, [sp], #4)
    8e5c:	e12fff1e 	bx	lr

00008e60 <_ZN6CTimer6EnableEPFvvEj16NTimer_Prescaler>:
_ZN6CTimer6EnableEPFvvEj16NTimer_Prescaler():
/home/silhavyj/School/ZeroMate/examples/13-context_switch_monitor/kernel/src/drivers/timer.cpp:39

void CTimer::Enable(TTimer_Callback callback, unsigned int delay, NTimer_Prescaler prescaler)
{
    8e60:	e92d4810 	push	{r4, fp, lr}
    8e64:	e28db008 	add	fp, sp, #8
    8e68:	e24dd01c 	sub	sp, sp, #28
    8e6c:	e50b0018 	str	r0, [fp, #-24]	; 0xffffffe8
    8e70:	e50b101c 	str	r1, [fp, #-28]	; 0xffffffe4
    8e74:	e50b2020 	str	r2, [fp, #-32]	; 0xffffffe0
    8e78:	e54b3021 	strb	r3, [fp, #-33]	; 0xffffffdf
/home/silhavyj/School/ZeroMate/examples/13-context_switch_monitor/kernel/src/drivers/timer.cpp:40
    Regs(hal::Timer_Reg::Load) = delay;
    8e7c:	e3a01000 	mov	r1, #0
    8e80:	e51b0018 	ldr	r0, [fp, #-24]	; 0xffffffe8
    8e84:	ebffffe7 	bl	8e28 <_ZN6CTimer4RegsEN3hal9Timer_RegE>
    8e88:	e1a02000 	mov	r2, r0
    8e8c:	e51b3020 	ldr	r3, [fp, #-32]	; 0xffffffe0
    8e90:	e5823000 	str	r3, [r2]
/home/silhavyj/School/ZeroMate/examples/13-context_switch_monitor/kernel/src/drivers/timer.cpp:43

    TTimer_Ctl_Flags reg;
    reg.counter_32b = 1;
    8e94:	e55b3014 	ldrb	r3, [fp, #-20]	; 0xffffffec
    8e98:	e3833002 	orr	r3, r3, #2
    8e9c:	e54b3014 	strb	r3, [fp, #-20]	; 0xffffffec
/home/silhavyj/School/ZeroMate/examples/13-context_switch_monitor/kernel/src/drivers/timer.cpp:44
    reg.interrupt_enabled = 1;
    8ea0:	e55b3014 	ldrb	r3, [fp, #-20]	; 0xffffffec
    8ea4:	e3833020 	orr	r3, r3, #32
    8ea8:	e54b3014 	strb	r3, [fp, #-20]	; 0xffffffec
/home/silhavyj/School/ZeroMate/examples/13-context_switch_monitor/kernel/src/drivers/timer.cpp:45
    reg.timer_enabled = 1;
    8eac:	e55b3014 	ldrb	r3, [fp, #-20]	; 0xffffffec
    8eb0:	e3833080 	orr	r3, r3, #128	; 0x80
    8eb4:	e54b3014 	strb	r3, [fp, #-20]	; 0xffffffec
/home/silhavyj/School/ZeroMate/examples/13-context_switch_monitor/kernel/src/drivers/timer.cpp:46
    reg.prescaler = static_cast<uint8_t>(prescaler);
    8eb8:	e55b3021 	ldrb	r3, [fp, #-33]	; 0xffffffdf
    8ebc:	e2033003 	and	r3, r3, #3
    8ec0:	e6ef3073 	uxtb	r3, r3
    8ec4:	e55b2014 	ldrb	r2, [fp, #-20]	; 0xffffffec
    8ec8:	e2033003 	and	r3, r3, #3
    8ecc:	e3c2200c 	bic	r2, r2, #12
    8ed0:	e1a03103 	lsl	r3, r3, #2
    8ed4:	e1833002 	orr	r3, r3, r2
    8ed8:	e1a02003 	mov	r2, r3
    8edc:	e54b2014 	strb	r2, [fp, #-20]	; 0xffffffec
/home/silhavyj/School/ZeroMate/examples/13-context_switch_monitor/kernel/src/drivers/timer.cpp:48

    Regs(hal::Timer_Reg::Control) = *reinterpret_cast<unsigned int*>(&reg);
    8ee0:	e24b4014 	sub	r4, fp, #20
    8ee4:	e3a01002 	mov	r1, #2
    8ee8:	e51b0018 	ldr	r0, [fp, #-24]	; 0xffffffe8
    8eec:	ebffffcd 	bl	8e28 <_ZN6CTimer4RegsEN3hal9Timer_RegE>
    8ef0:	e1a02000 	mov	r2, r0
    8ef4:	e5943000 	ldr	r3, [r4]
    8ef8:	e5823000 	str	r3, [r2]
/home/silhavyj/School/ZeroMate/examples/13-context_switch_monitor/kernel/src/drivers/timer.cpp:50

    Regs(hal::Timer_Reg::IRQ_Clear) = 1;
    8efc:	e3a01003 	mov	r1, #3
    8f00:	e51b0018 	ldr	r0, [fp, #-24]	; 0xffffffe8
    8f04:	ebffffc7 	bl	8e28 <_ZN6CTimer4RegsEN3hal9Timer_RegE>
    8f08:	e1a03000 	mov	r3, r0
    8f0c:	e3a02001 	mov	r2, #1
    8f10:	e5832000 	str	r2, [r3]
/home/silhavyj/School/ZeroMate/examples/13-context_switch_monitor/kernel/src/drivers/timer.cpp:52

    mCallback = callback;
    8f14:	e51b3018 	ldr	r3, [fp, #-24]	; 0xffffffe8
    8f18:	e51b201c 	ldr	r2, [fp, #-28]	; 0xffffffe4
    8f1c:	e5832004 	str	r2, [r3, #4]
/home/silhavyj/School/ZeroMate/examples/13-context_switch_monitor/kernel/src/drivers/timer.cpp:53
}
    8f20:	e320f000 	nop	{0}
    8f24:	e24bd008 	sub	sp, fp, #8
    8f28:	e8bd8810 	pop	{r4, fp, pc}

00008f2c <_ZN6CTimer7DisableEv>:
_ZN6CTimer7DisableEv():
/home/silhavyj/School/ZeroMate/examples/13-context_switch_monitor/kernel/src/drivers/timer.cpp:56

void CTimer::Disable()
{
    8f2c:	e92d4800 	push	{fp, lr}
    8f30:	e28db004 	add	fp, sp, #4
    8f34:	e24dd010 	sub	sp, sp, #16
    8f38:	e50b0010 	str	r0, [fp, #-16]
/home/silhavyj/School/ZeroMate/examples/13-context_switch_monitor/kernel/src/drivers/timer.cpp:57
    volatile TTimer_Ctl_Flags& reg = reinterpret_cast<volatile TTimer_Ctl_Flags&>(Regs(hal::Timer_Reg::Control));
    8f3c:	e3a01002 	mov	r1, #2
    8f40:	e51b0010 	ldr	r0, [fp, #-16]
    8f44:	ebffffb7 	bl	8e28 <_ZN6CTimer4RegsEN3hal9Timer_RegE>
    8f48:	e50b0008 	str	r0, [fp, #-8]
/home/silhavyj/School/ZeroMate/examples/13-context_switch_monitor/kernel/src/drivers/timer.cpp:59

    reg.interrupt_enabled = 0;
    8f4c:	e51b2008 	ldr	r2, [fp, #-8]
    8f50:	e5d23000 	ldrb	r3, [r2]
    8f54:	e3c33020 	bic	r3, r3, #32
    8f58:	e5c23000 	strb	r3, [r2]
/home/silhavyj/School/ZeroMate/examples/13-context_switch_monitor/kernel/src/drivers/timer.cpp:60
    reg.timer_enabled = 0;
    8f5c:	e51b2008 	ldr	r2, [fp, #-8]
    8f60:	e5d23000 	ldrb	r3, [r2]
    8f64:	e3c33080 	bic	r3, r3, #128	; 0x80
    8f68:	e5c23000 	strb	r3, [r2]
/home/silhavyj/School/ZeroMate/examples/13-context_switch_monitor/kernel/src/drivers/timer.cpp:61
}
    8f6c:	e320f000 	nop	{0}
    8f70:	e24bd004 	sub	sp, fp, #4
    8f74:	e8bd8800 	pop	{fp, pc}

00008f78 <_ZN6CTimer12IRQ_CallbackEv>:
_ZN6CTimer12IRQ_CallbackEv():
/home/silhavyj/School/ZeroMate/examples/13-context_switch_monitor/kernel/src/drivers/timer.cpp:64

void CTimer::IRQ_Callback()
{
    8f78:	e92d4800 	push	{fp, lr}
    8f7c:	e28db004 	add	fp, sp, #4
    8f80:	e24dd008 	sub	sp, sp, #8
    8f84:	e50b0008 	str	r0, [fp, #-8]
/home/silhavyj/School/ZeroMate/examples/13-context_switch_monitor/kernel/src/drivers/timer.cpp:65
    Regs(hal::Timer_Reg::IRQ_Clear) = 1;
    8f88:	e3a01003 	mov	r1, #3
    8f8c:	e51b0008 	ldr	r0, [fp, #-8]
    8f90:	ebffffa4 	bl	8e28 <_ZN6CTimer4RegsEN3hal9Timer_RegE>
    8f94:	e1a03000 	mov	r3, r0
    8f98:	e3a02001 	mov	r2, #1
    8f9c:	e5832000 	str	r2, [r3]
/home/silhavyj/School/ZeroMate/examples/13-context_switch_monitor/kernel/src/drivers/timer.cpp:67

    if (mCallback)
    8fa0:	e51b3008 	ldr	r3, [fp, #-8]
    8fa4:	e5933004 	ldr	r3, [r3, #4]
    8fa8:	e3530000 	cmp	r3, #0
    8fac:	0a000002 	beq	8fbc <_ZN6CTimer12IRQ_CallbackEv+0x44>
/home/silhavyj/School/ZeroMate/examples/13-context_switch_monitor/kernel/src/drivers/timer.cpp:68
        mCallback();
    8fb0:	e51b3008 	ldr	r3, [fp, #-8]
    8fb4:	e5933004 	ldr	r3, [r3, #4]
    8fb8:	e12fff33 	blx	r3
/home/silhavyj/School/ZeroMate/examples/13-context_switch_monitor/kernel/src/drivers/timer.cpp:69
}
    8fbc:	e320f000 	nop	{0}
    8fc0:	e24bd004 	sub	sp, fp, #4
    8fc4:	e8bd8800 	pop	{fp, pc}

00008fc8 <_ZN6CTimer20Is_Timer_IRQ_PendingEv>:
_ZN6CTimer20Is_Timer_IRQ_PendingEv():
/home/silhavyj/School/ZeroMate/examples/13-context_switch_monitor/kernel/src/drivers/timer.cpp:72

bool CTimer::Is_Timer_IRQ_Pending()
{
    8fc8:	e92d4800 	push	{fp, lr}
    8fcc:	e28db004 	add	fp, sp, #4
    8fd0:	e24dd008 	sub	sp, sp, #8
    8fd4:	e50b0008 	str	r0, [fp, #-8]
/home/silhavyj/School/ZeroMate/examples/13-context_switch_monitor/kernel/src/drivers/timer.cpp:73
    return Regs(hal::Timer_Reg::IRQ_Masked);
    8fd8:	e3a01005 	mov	r1, #5
    8fdc:	e51b0008 	ldr	r0, [fp, #-8]
    8fe0:	ebffff90 	bl	8e28 <_ZN6CTimer4RegsEN3hal9Timer_RegE>
    8fe4:	e1a03000 	mov	r3, r0
    8fe8:	e5933000 	ldr	r3, [r3]
    8fec:	e3530000 	cmp	r3, #0
    8ff0:	13a03001 	movne	r3, #1
    8ff4:	03a03000 	moveq	r3, #0
    8ff8:	e6ef3073 	uxtb	r3, r3
/home/silhavyj/School/ZeroMate/examples/13-context_switch_monitor/kernel/src/drivers/timer.cpp:74
}
    8ffc:	e1a00003 	mov	r0, r3
    9000:	e24bd004 	sub	sp, fp, #4
    9004:	e8bd8800 	pop	{fp, pc}

00009008 <_Z41__static_initialization_and_destruction_0ii>:
_Z41__static_initialization_and_destruction_0ii():
/home/silhavyj/School/ZeroMate/examples/13-context_switch_monitor/kernel/src/drivers/timer.cpp:74
    9008:	e92d4800 	push	{fp, lr}
    900c:	e28db004 	add	fp, sp, #4
    9010:	e24dd008 	sub	sp, sp, #8
    9014:	e50b0008 	str	r0, [fp, #-8]
    9018:	e50b100c 	str	r1, [fp, #-12]
    901c:	e51b3008 	ldr	r3, [fp, #-8]
    9020:	e3530001 	cmp	r3, #1
    9024:	1a000006 	bne	9044 <_Z41__static_initialization_and_destruction_0ii+0x3c>
/home/silhavyj/School/ZeroMate/examples/13-context_switch_monitor/kernel/src/drivers/timer.cpp:74 (discriminator 1)
    9028:	e51b300c 	ldr	r3, [fp, #-12]
    902c:	e59f201c 	ldr	r2, [pc, #28]	; 9050 <_Z41__static_initialization_and_destruction_0ii+0x48>
    9030:	e1530002 	cmp	r3, r2
    9034:	1a000002 	bne	9044 <_Z41__static_initialization_and_destruction_0ii+0x3c>
/home/silhavyj/School/ZeroMate/examples/13-context_switch_monitor/kernel/src/drivers/timer.cpp:4
CTimer sTimer(hal::Timer_Base);
    9038:	e59f1014 	ldr	r1, [pc, #20]	; 9054 <_Z41__static_initialization_and_destruction_0ii+0x4c>
    903c:	e59f0014 	ldr	r0, [pc, #20]	; 9058 <_Z41__static_initialization_and_destruction_0ii+0x50>
    9040:	ebffff68 	bl	8de8 <_ZN6CTimerC1Em>
/home/silhavyj/School/ZeroMate/examples/13-context_switch_monitor/kernel/src/drivers/timer.cpp:74
}
    9044:	e320f000 	nop	{0}
    9048:	e24bd004 	sub	sp, fp, #4
    904c:	e8bd8800 	pop	{fp, pc}
    9050:	0000ffff 	strdeq	pc, [r0], -pc	; <UNPREDICTABLE>
    9054:	2000b400 	andcs	fp, r0, r0, lsl #8
    9058:	0000ab40 	andeq	sl, r0, r0, asr #22

0000905c <_GLOBAL__sub_I_sTimer>:
_GLOBAL__sub_I_sTimer():
/home/silhavyj/School/ZeroMate/examples/13-context_switch_monitor/kernel/src/drivers/timer.cpp:74
    905c:	e92d4800 	push	{fp, lr}
    9060:	e28db004 	add	fp, sp, #4
    9064:	e59f1008 	ldr	r1, [pc, #8]	; 9074 <_GLOBAL__sub_I_sTimer+0x18>
    9068:	e3a00001 	mov	r0, #1
    906c:	ebffffe5 	bl	9008 <_Z41__static_initialization_and_destruction_0ii>
    9070:	e8bd8800 	pop	{fp, pc}
    9074:	0000ffff 	strdeq	pc, [r0], -pc	; <UNPREDICTABLE>

00009078 <software_interrupt_handler>:
software_interrupt_handler():
/home/silhavyj/School/ZeroMate/examples/13-context_switch_monitor/kernel/src/interrupt_controller.cpp:12
CInterrupt_Controller sInterruptCtl(hal::Interrupt_Controller_Base);

// handlery jednotlivych zdroju preruseni

extern "C" void __attribute__((interrupt("SWI"))) software_interrupt_handler()
{
    9078:	e52db004 	push	{fp}		; (str fp, [sp, #-4]!)
    907c:	e28db000 	add	fp, sp, #0
/home/silhavyj/School/ZeroMate/examples/13-context_switch_monitor/kernel/src/interrupt_controller.cpp:14
    // tady nekdy v budoucnu definujeme obsluhu volani sluzeb jadra z uzivatelskeho procesu
}
    9080:	e320f000 	nop	{0}
    9084:	e28bd000 	add	sp, fp, #0
    9088:	e49db004 	pop	{fp}		; (ldr fp, [sp], #4)
    908c:	e1b0f00e 	movs	pc, lr

00009090 <_internal_irq_handler>:
_internal_irq_handler():
/home/silhavyj/School/ZeroMate/examples/13-context_switch_monitor/kernel/src/interrupt_controller.cpp:17

extern "C" void _internal_irq_handler()
{
    9090:	e92d4800 	push	{fp, lr}
    9094:	e28db004 	add	fp, sp, #4
/home/silhavyj/School/ZeroMate/examples/13-context_switch_monitor/kernel/src/interrupt_controller.cpp:22
    // jelikoz ARM nerozlisuje zdroje IRQ implicitne, ani nezarucuje, ze se navzajen nemaskuji, musime
    // projit vsechny mozne zdroje a podivat se (poll), zda nebylo vyvolano preruseni

    // casovac
    if (sTimer.Is_Timer_IRQ_Pending())
    9098:	e59f001c 	ldr	r0, [pc, #28]	; 90bc <_internal_irq_handler+0x2c>
    909c:	ebffffc9 	bl	8fc8 <_ZN6CTimer20Is_Timer_IRQ_PendingEv>
    90a0:	e1a03000 	mov	r3, r0
    90a4:	e3530000 	cmp	r3, #0
    90a8:	0a000001 	beq	90b4 <_internal_irq_handler+0x24>
/home/silhavyj/School/ZeroMate/examples/13-context_switch_monitor/kernel/src/interrupt_controller.cpp:23
        sTimer.IRQ_Callback();
    90ac:	e59f0008 	ldr	r0, [pc, #8]	; 90bc <_internal_irq_handler+0x2c>
    90b0:	ebffffb0 	bl	8f78 <_ZN6CTimer12IRQ_CallbackEv>
/home/silhavyj/School/ZeroMate/examples/13-context_switch_monitor/kernel/src/interrupt_controller.cpp:24
}
    90b4:	e320f000 	nop	{0}
    90b8:	e8bd8800 	pop	{fp, pc}
    90bc:	0000ab40 	andeq	sl, r0, r0, asr #22

000090c0 <fast_interrupt_handler>:
fast_interrupt_handler():
/home/silhavyj/School/ZeroMate/examples/13-context_switch_monitor/kernel/src/interrupt_controller.cpp:27

extern "C" void __attribute__((interrupt("FIQ"))) fast_interrupt_handler()
{
    90c0:	e24db004 	sub	fp, sp, #4
/home/silhavyj/School/ZeroMate/examples/13-context_switch_monitor/kernel/src/interrupt_controller.cpp:29
    // zatim nepouzivame
}
    90c4:	e320f000 	nop	{0}
    90c8:	e28bd004 	add	sp, fp, #4
    90cc:	e25ef004 	subs	pc, lr, #4

000090d0 <_ZN21CInterrupt_ControllerC1Em>:
_ZN21CInterrupt_ControllerC2Em():
/home/silhavyj/School/ZeroMate/examples/13-context_switch_monitor/kernel/src/interrupt_controller.cpp:33

// implementace controlleru

CInterrupt_Controller::CInterrupt_Controller(unsigned long base)
    90d0:	e52db004 	push	{fp}		; (str fp, [sp, #-4]!)
    90d4:	e28db000 	add	fp, sp, #0
    90d8:	e24dd00c 	sub	sp, sp, #12
    90dc:	e50b0008 	str	r0, [fp, #-8]
    90e0:	e50b100c 	str	r1, [fp, #-12]
/home/silhavyj/School/ZeroMate/examples/13-context_switch_monitor/kernel/src/interrupt_controller.cpp:34
: mInterrupt_Regs(reinterpret_cast<unsigned int*>(base))
    90e4:	e51b200c 	ldr	r2, [fp, #-12]
    90e8:	e51b3008 	ldr	r3, [fp, #-8]
    90ec:	e5832000 	str	r2, [r3]
/home/silhavyj/School/ZeroMate/examples/13-context_switch_monitor/kernel/src/interrupt_controller.cpp:37
{
    //
}
    90f0:	e51b3008 	ldr	r3, [fp, #-8]
    90f4:	e1a00003 	mov	r0, r3
    90f8:	e28bd000 	add	sp, fp, #0
    90fc:	e49db004 	pop	{fp}		; (ldr fp, [sp], #4)
    9100:	e12fff1e 	bx	lr

00009104 <_ZN21CInterrupt_Controller4RegsEN3hal24Interrupt_Controller_RegE>:
_ZN21CInterrupt_Controller4RegsEN3hal24Interrupt_Controller_RegE():
/home/silhavyj/School/ZeroMate/examples/13-context_switch_monitor/kernel/src/interrupt_controller.cpp:40

volatile unsigned int& CInterrupt_Controller::Regs(hal::Interrupt_Controller_Reg reg)
{
    9104:	e52db004 	push	{fp}		; (str fp, [sp, #-4]!)
    9108:	e28db000 	add	fp, sp, #0
    910c:	e24dd00c 	sub	sp, sp, #12
    9110:	e50b0008 	str	r0, [fp, #-8]
    9114:	e50b100c 	str	r1, [fp, #-12]
/home/silhavyj/School/ZeroMate/examples/13-context_switch_monitor/kernel/src/interrupt_controller.cpp:41
    return mInterrupt_Regs[static_cast<unsigned int>(reg)];
    9118:	e51b3008 	ldr	r3, [fp, #-8]
    911c:	e5932000 	ldr	r2, [r3]
    9120:	e51b300c 	ldr	r3, [fp, #-12]
    9124:	e1a03103 	lsl	r3, r3, #2
    9128:	e0823003 	add	r3, r2, r3
/home/silhavyj/School/ZeroMate/examples/13-context_switch_monitor/kernel/src/interrupt_controller.cpp:42
}
    912c:	e1a00003 	mov	r0, r3
    9130:	e28bd000 	add	sp, fp, #0
    9134:	e49db004 	pop	{fp}		; (ldr fp, [sp], #4)
    9138:	e12fff1e 	bx	lr

0000913c <_ZN21CInterrupt_Controller16Enable_Basic_IRQEN3hal16IRQ_Basic_SourceE>:
_ZN21CInterrupt_Controller16Enable_Basic_IRQEN3hal16IRQ_Basic_SourceE():
/home/silhavyj/School/ZeroMate/examples/13-context_switch_monitor/kernel/src/interrupt_controller.cpp:45

void CInterrupt_Controller::Enable_Basic_IRQ(hal::IRQ_Basic_Source source_idx)
{
    913c:	e92d4810 	push	{r4, fp, lr}
    9140:	e28db008 	add	fp, sp, #8
    9144:	e24dd00c 	sub	sp, sp, #12
    9148:	e50b0010 	str	r0, [fp, #-16]
    914c:	e50b1014 	str	r1, [fp, #-20]	; 0xffffffec
/home/silhavyj/School/ZeroMate/examples/13-context_switch_monitor/kernel/src/interrupt_controller.cpp:46
    Regs(hal::Interrupt_Controller_Reg::IRQ_Basic_Enable) = (1 << static_cast<unsigned int>(source_idx));
    9150:	e51b3014 	ldr	r3, [fp, #-20]	; 0xffffffec
    9154:	e3a02001 	mov	r2, #1
    9158:	e1a04312 	lsl	r4, r2, r3
    915c:	e3a01006 	mov	r1, #6
    9160:	e51b0010 	ldr	r0, [fp, #-16]
    9164:	ebffffe6 	bl	9104 <_ZN21CInterrupt_Controller4RegsEN3hal24Interrupt_Controller_RegE>
    9168:	e1a03000 	mov	r3, r0
    916c:	e1a02004 	mov	r2, r4
    9170:	e5832000 	str	r2, [r3]
/home/silhavyj/School/ZeroMate/examples/13-context_switch_monitor/kernel/src/interrupt_controller.cpp:47
}
    9174:	e320f000 	nop	{0}
    9178:	e24bd008 	sub	sp, fp, #8
    917c:	e8bd8810 	pop	{r4, fp, pc}

00009180 <_ZN21CInterrupt_Controller17Disable_Basic_IRQEN3hal16IRQ_Basic_SourceE>:
_ZN21CInterrupt_Controller17Disable_Basic_IRQEN3hal16IRQ_Basic_SourceE():
/home/silhavyj/School/ZeroMate/examples/13-context_switch_monitor/kernel/src/interrupt_controller.cpp:50

void CInterrupt_Controller::Disable_Basic_IRQ(hal::IRQ_Basic_Source source_idx)
{
    9180:	e92d4810 	push	{r4, fp, lr}
    9184:	e28db008 	add	fp, sp, #8
    9188:	e24dd00c 	sub	sp, sp, #12
    918c:	e50b0010 	str	r0, [fp, #-16]
    9190:	e50b1014 	str	r1, [fp, #-20]	; 0xffffffec
/home/silhavyj/School/ZeroMate/examples/13-context_switch_monitor/kernel/src/interrupt_controller.cpp:51
    Regs(hal::Interrupt_Controller_Reg::IRQ_Basic_Disable) = (1 << static_cast<unsigned int>(source_idx));
    9194:	e51b3014 	ldr	r3, [fp, #-20]	; 0xffffffec
    9198:	e3a02001 	mov	r2, #1
    919c:	e1a04312 	lsl	r4, r2, r3
    91a0:	e3a01009 	mov	r1, #9
    91a4:	e51b0010 	ldr	r0, [fp, #-16]
    91a8:	ebffffd5 	bl	9104 <_ZN21CInterrupt_Controller4RegsEN3hal24Interrupt_Controller_RegE>
    91ac:	e1a03000 	mov	r3, r0
    91b0:	e1a02004 	mov	r2, r4
    91b4:	e5832000 	str	r2, [r3]
/home/silhavyj/School/ZeroMate/examples/13-context_switch_monitor/kernel/src/interrupt_controller.cpp:52
}
    91b8:	e320f000 	nop	{0}
    91bc:	e24bd008 	sub	sp, fp, #8
    91c0:	e8bd8810 	pop	{r4, fp, pc}

000091c4 <_ZN21CInterrupt_Controller10Enable_IRQEN3hal10IRQ_SourceE>:
_ZN21CInterrupt_Controller10Enable_IRQEN3hal10IRQ_SourceE():
/home/silhavyj/School/ZeroMate/examples/13-context_switch_monitor/kernel/src/interrupt_controller.cpp:55

void CInterrupt_Controller::Enable_IRQ(hal::IRQ_Source source_idx)
{
    91c4:	e92d4810 	push	{r4, fp, lr}
    91c8:	e28db008 	add	fp, sp, #8
    91cc:	e24dd014 	sub	sp, sp, #20
    91d0:	e50b0018 	str	r0, [fp, #-24]	; 0xffffffe8
    91d4:	e50b101c 	str	r1, [fp, #-28]	; 0xffffffe4
/home/silhavyj/School/ZeroMate/examples/13-context_switch_monitor/kernel/src/interrupt_controller.cpp:56
    const unsigned int idx_base = static_cast<unsigned int>(source_idx);
    91d8:	e51b301c 	ldr	r3, [fp, #-28]	; 0xffffffe4
    91dc:	e50b3010 	str	r3, [fp, #-16]
/home/silhavyj/School/ZeroMate/examples/13-context_switch_monitor/kernel/src/interrupt_controller.cpp:58

    Regs(idx_base < 32 ? hal::Interrupt_Controller_Reg::IRQ_Enable_1 : hal::Interrupt_Controller_Reg::IRQ_Enable_1) = (1 << (idx_base % 32));
    91e0:	e51b3010 	ldr	r3, [fp, #-16]
    91e4:	e203301f 	and	r3, r3, #31
    91e8:	e3a02001 	mov	r2, #1
    91ec:	e1a04312 	lsl	r4, r2, r3
    91f0:	e3a01004 	mov	r1, #4
    91f4:	e51b0018 	ldr	r0, [fp, #-24]	; 0xffffffe8
    91f8:	ebffffc1 	bl	9104 <_ZN21CInterrupt_Controller4RegsEN3hal24Interrupt_Controller_RegE>
    91fc:	e1a03000 	mov	r3, r0
    9200:	e1a02004 	mov	r2, r4
    9204:	e5832000 	str	r2, [r3]
/home/silhavyj/School/ZeroMate/examples/13-context_switch_monitor/kernel/src/interrupt_controller.cpp:59
}
    9208:	e320f000 	nop	{0}
    920c:	e24bd008 	sub	sp, fp, #8
    9210:	e8bd8810 	pop	{r4, fp, pc}

00009214 <_ZN21CInterrupt_Controller11Disable_IRQEN3hal10IRQ_SourceE>:
_ZN21CInterrupt_Controller11Disable_IRQEN3hal10IRQ_SourceE():
/home/silhavyj/School/ZeroMate/examples/13-context_switch_monitor/kernel/src/interrupt_controller.cpp:62

void CInterrupt_Controller::Disable_IRQ(hal::IRQ_Source source_idx)
{
    9214:	e92d4810 	push	{r4, fp, lr}
    9218:	e28db008 	add	fp, sp, #8
    921c:	e24dd014 	sub	sp, sp, #20
    9220:	e50b0018 	str	r0, [fp, #-24]	; 0xffffffe8
    9224:	e50b101c 	str	r1, [fp, #-28]	; 0xffffffe4
/home/silhavyj/School/ZeroMate/examples/13-context_switch_monitor/kernel/src/interrupt_controller.cpp:63
    const unsigned int idx_base = static_cast<unsigned int>(source_idx);
    9228:	e51b301c 	ldr	r3, [fp, #-28]	; 0xffffffe4
    922c:	e50b3010 	str	r3, [fp, #-16]
/home/silhavyj/School/ZeroMate/examples/13-context_switch_monitor/kernel/src/interrupt_controller.cpp:65

    Regs(idx_base < 32 ? hal::Interrupt_Controller_Reg::IRQ_Disable_1 : hal::Interrupt_Controller_Reg::IRQ_Disable_1) = (1 << (idx_base % 32));
    9230:	e51b3010 	ldr	r3, [fp, #-16]
    9234:	e203301f 	and	r3, r3, #31
    9238:	e3a02001 	mov	r2, #1
    923c:	e1a04312 	lsl	r4, r2, r3
    9240:	e3a01007 	mov	r1, #7
    9244:	e51b0018 	ldr	r0, [fp, #-24]	; 0xffffffe8
    9248:	ebffffad 	bl	9104 <_ZN21CInterrupt_Controller4RegsEN3hal24Interrupt_Controller_RegE>
    924c:	e1a03000 	mov	r3, r0
    9250:	e1a02004 	mov	r2, r4
    9254:	e5832000 	str	r2, [r3]
/home/silhavyj/School/ZeroMate/examples/13-context_switch_monitor/kernel/src/interrupt_controller.cpp:66
}
    9258:	e320f000 	nop	{0}
    925c:	e24bd008 	sub	sp, fp, #8
    9260:	e8bd8810 	pop	{r4, fp, pc}

00009264 <_Z41__static_initialization_and_destruction_0ii>:
_Z41__static_initialization_and_destruction_0ii():
/home/silhavyj/School/ZeroMate/examples/13-context_switch_monitor/kernel/src/interrupt_controller.cpp:66
    9264:	e92d4800 	push	{fp, lr}
    9268:	e28db004 	add	fp, sp, #4
    926c:	e24dd008 	sub	sp, sp, #8
    9270:	e50b0008 	str	r0, [fp, #-8]
    9274:	e50b100c 	str	r1, [fp, #-12]
    9278:	e51b3008 	ldr	r3, [fp, #-8]
    927c:	e3530001 	cmp	r3, #1
    9280:	1a000006 	bne	92a0 <_Z41__static_initialization_and_destruction_0ii+0x3c>
/home/silhavyj/School/ZeroMate/examples/13-context_switch_monitor/kernel/src/interrupt_controller.cpp:66 (discriminator 1)
    9284:	e51b300c 	ldr	r3, [fp, #-12]
    9288:	e59f201c 	ldr	r2, [pc, #28]	; 92ac <_Z41__static_initialization_and_destruction_0ii+0x48>
    928c:	e1530002 	cmp	r3, r2
    9290:	1a000002 	bne	92a0 <_Z41__static_initialization_and_destruction_0ii+0x3c>
/home/silhavyj/School/ZeroMate/examples/13-context_switch_monitor/kernel/src/interrupt_controller.cpp:7
CInterrupt_Controller sInterruptCtl(hal::Interrupt_Controller_Base);
    9294:	e59f1014 	ldr	r1, [pc, #20]	; 92b0 <_Z41__static_initialization_and_destruction_0ii+0x4c>
    9298:	e59f0014 	ldr	r0, [pc, #20]	; 92b4 <_Z41__static_initialization_and_destruction_0ii+0x50>
    929c:	ebffff8b 	bl	90d0 <_ZN21CInterrupt_ControllerC1Em>
/home/silhavyj/School/ZeroMate/examples/13-context_switch_monitor/kernel/src/interrupt_controller.cpp:66
}
    92a0:	e320f000 	nop	{0}
    92a4:	e24bd004 	sub	sp, fp, #4
    92a8:	e8bd8800 	pop	{fp, pc}
    92ac:	0000ffff 	strdeq	pc, [r0], -pc	; <UNPREDICTABLE>
    92b0:	2000b200 	andcs	fp, r0, r0, lsl #4
    92b4:	0000ab48 	andeq	sl, r0, r8, asr #22

000092b8 <_GLOBAL__sub_I_sInterruptCtl>:
_GLOBAL__sub_I_sInterruptCtl():
/home/silhavyj/School/ZeroMate/examples/13-context_switch_monitor/kernel/src/interrupt_controller.cpp:66
    92b8:	e92d4800 	push	{fp, lr}
    92bc:	e28db004 	add	fp, sp, #4
    92c0:	e59f1008 	ldr	r1, [pc, #8]	; 92d0 <_GLOBAL__sub_I_sInterruptCtl+0x18>
    92c4:	e3a00001 	mov	r0, #1
    92c8:	ebffffe5 	bl	9264 <_Z41__static_initialization_and_destruction_0ii>
    92cc:	e8bd8800 	pop	{fp, pc}
    92d0:	0000ffff 	strdeq	pc, [r0], -pc	; <UNPREDICTABLE>

000092d4 <Timer_Callback>:
Timer_Callback():
/home/silhavyj/School/ZeroMate/examples/13-context_switch_monitor/kernel/src/main.cpp:24
// externi funkce pro povoleni IRQ
extern "C" void enable_irq();
extern "C" void disable_irq();

extern "C" void Timer_Callback()
{
    92d4:	e92d4800 	push	{fp, lr}
    92d8:	e28db004 	add	fp, sp, #4
/home/silhavyj/School/ZeroMate/examples/13-context_switch_monitor/kernel/src/main.cpp:25
    sProcessMgr.Schedule();
    92dc:	e59f0040 	ldr	r0, [pc, #64]	; 9324 <Timer_Callback+0x50>
    92e0:	eb00030b 	bl	9f14 <_ZN16CProcess_Manager8ScheduleEv>
/home/silhavyj/School/ZeroMate/examples/13-context_switch_monitor/kernel/src/main.cpp:27

    sGPIO.Set_Output(ACT_Pin, LED_State);
    92e4:	e59f303c 	ldr	r3, [pc, #60]	; 9328 <Timer_Callback+0x54>
    92e8:	e5d33000 	ldrb	r3, [r3]
    92ec:	e6ef3073 	uxtb	r3, r3
    92f0:	e1a02003 	mov	r2, r3
    92f4:	e3a0102f 	mov	r1, #47	; 0x2f
    92f8:	e59f002c 	ldr	r0, [pc, #44]	; 932c <Timer_Callback+0x58>
    92fc:	ebfffc79 	bl	84e8 <_ZN13CGPIO_Handler10Set_OutputEjb>
/home/silhavyj/School/ZeroMate/examples/13-context_switch_monitor/kernel/src/main.cpp:28
    LED_State = !LED_State;
    9300:	e59f3020 	ldr	r3, [pc, #32]	; 9328 <Timer_Callback+0x54>
    9304:	e5d33000 	ldrb	r3, [r3]
    9308:	e6ef3073 	uxtb	r3, r3
    930c:	e2233001 	eor	r3, r3, #1
    9310:	e6ef2073 	uxtb	r2, r3
    9314:	e59f300c 	ldr	r3, [pc, #12]	; 9328 <Timer_Callback+0x54>
    9318:	e5c32000 	strb	r2, [r3]
/home/silhavyj/School/ZeroMate/examples/13-context_switch_monitor/kernel/src/main.cpp:29
}
    931c:	e320f000 	nop	{0}
    9320:	e8bd8800 	pop	{fp, pc}
    9324:	0000bb54 	andeq	fp, r0, r4, asr fp
    9328:	0000ab4c 	andeq	sl, r0, ip, asr #22
    932c:	0000ab14 	andeq	sl, r0, r4, lsl fp

00009330 <Process_1>:
Process_1():
/home/silhavyj/School/ZeroMate/examples/13-context_switch_monitor/kernel/src/main.cpp:32

extern "C" void Process_1()
{
    9330:	e92d4800 	push	{fp, lr}
    9334:	e28db004 	add	fp, sp, #4
    9338:	e24dd008 	sub	sp, sp, #8
/home/silhavyj/School/ZeroMate/examples/13-context_switch_monitor/kernel/src/main.cpp:35
    volatile int i;

    sMonitor << "Process 1\n";
    933c:	e59f1050 	ldr	r1, [pc, #80]	; 9394 <Process_1+0x64>
    9340:	e59f0050 	ldr	r0, [pc, #80]	; 9398 <Process_1+0x68>
    9344:	ebfffd98 	bl	89ac <_ZN8CMonitorlsEPKc>
/home/silhavyj/School/ZeroMate/examples/13-context_switch_monitor/kernel/src/main.cpp:39

    while (true)
    {
        for (i = 0; i < 0x200; i++)
    9348:	e3a03000 	mov	r3, #0
    934c:	e50b3008 	str	r3, [fp, #-8]
/home/silhavyj/School/ZeroMate/examples/13-context_switch_monitor/kernel/src/main.cpp:39 (discriminator 3)
    9350:	e51b3008 	ldr	r3, [fp, #-8]
    9354:	e3530c02 	cmp	r3, #512	; 0x200
    9358:	b3a03001 	movlt	r3, #1
    935c:	a3a03000 	movge	r3, #0
    9360:	e6ef3073 	uxtb	r3, r3
    9364:	e3530000 	cmp	r3, #0
    9368:	0a000003 	beq	937c <Process_1+0x4c>
/home/silhavyj/School/ZeroMate/examples/13-context_switch_monitor/kernel/src/main.cpp:39 (discriminator 2)
    936c:	e51b3008 	ldr	r3, [fp, #-8]
    9370:	e2833001 	add	r3, r3, #1
    9374:	e50b3008 	str	r3, [fp, #-8]
    9378:	eafffff4 	b	9350 <Process_1+0x20>
/home/silhavyj/School/ZeroMate/examples/13-context_switch_monitor/kernel/src/main.cpp:42
            ;
        
        disable_irq();
    937c:	eb0003cb 	bl	a2b0 <disable_irq>
/home/silhavyj/School/ZeroMate/examples/13-context_switch_monitor/kernel/src/main.cpp:43
        sMonitor << '1';
    9380:	e3a01031 	mov	r1, #49	; 0x31
    9384:	e59f000c 	ldr	r0, [pc, #12]	; 9398 <Process_1+0x68>
    9388:	ebfffd5d 	bl	8904 <_ZN8CMonitorlsEc>
/home/silhavyj/School/ZeroMate/examples/13-context_switch_monitor/kernel/src/main.cpp:44
        enable_irq();
    938c:	eb0003c2 	bl	a29c <enable_irq>
/home/silhavyj/School/ZeroMate/examples/13-context_switch_monitor/kernel/src/main.cpp:39
        for (i = 0; i < 0x200; i++)
    9390:	eaffffec 	b	9348 <Process_1+0x18>
    9394:	0000a9a8 	andeq	sl, r0, r8, lsr #19
    9398:	0000ab18 	andeq	sl, r0, r8, lsl fp

0000939c <Process_2>:
Process_2():
/home/silhavyj/School/ZeroMate/examples/13-context_switch_monitor/kernel/src/main.cpp:49
    }
}

extern "C" void Process_2()
{
    939c:	e92d4800 	push	{fp, lr}
    93a0:	e28db004 	add	fp, sp, #4
    93a4:	e24dd008 	sub	sp, sp, #8
/home/silhavyj/School/ZeroMate/examples/13-context_switch_monitor/kernel/src/main.cpp:52
    volatile int i;

    sMonitor << "Process 2\n";
    93a8:	e59f1050 	ldr	r1, [pc, #80]	; 9400 <Process_2+0x64>
    93ac:	e59f0050 	ldr	r0, [pc, #80]	; 9404 <Process_2+0x68>
    93b0:	ebfffd7d 	bl	89ac <_ZN8CMonitorlsEPKc>
/home/silhavyj/School/ZeroMate/examples/13-context_switch_monitor/kernel/src/main.cpp:56

    while (true)
    {
        for (i = 0; i < 0x200; i++)
    93b4:	e3a03000 	mov	r3, #0
    93b8:	e50b3008 	str	r3, [fp, #-8]
/home/silhavyj/School/ZeroMate/examples/13-context_switch_monitor/kernel/src/main.cpp:56 (discriminator 3)
    93bc:	e51b3008 	ldr	r3, [fp, #-8]
    93c0:	e3530c02 	cmp	r3, #512	; 0x200
    93c4:	b3a03001 	movlt	r3, #1
    93c8:	a3a03000 	movge	r3, #0
    93cc:	e6ef3073 	uxtb	r3, r3
    93d0:	e3530000 	cmp	r3, #0
    93d4:	0a000003 	beq	93e8 <Process_2+0x4c>
/home/silhavyj/School/ZeroMate/examples/13-context_switch_monitor/kernel/src/main.cpp:56 (discriminator 2)
    93d8:	e51b3008 	ldr	r3, [fp, #-8]
    93dc:	e2833001 	add	r3, r3, #1
    93e0:	e50b3008 	str	r3, [fp, #-8]
    93e4:	eafffff4 	b	93bc <Process_2+0x20>
/home/silhavyj/School/ZeroMate/examples/13-context_switch_monitor/kernel/src/main.cpp:59
            ;
        
        disable_irq();
    93e8:	eb0003b0 	bl	a2b0 <disable_irq>
/home/silhavyj/School/ZeroMate/examples/13-context_switch_monitor/kernel/src/main.cpp:60
        sMonitor << '2';
    93ec:	e3a01032 	mov	r1, #50	; 0x32
    93f0:	e59f000c 	ldr	r0, [pc, #12]	; 9404 <Process_2+0x68>
    93f4:	ebfffd42 	bl	8904 <_ZN8CMonitorlsEc>
/home/silhavyj/School/ZeroMate/examples/13-context_switch_monitor/kernel/src/main.cpp:61
        enable_irq();
    93f8:	eb0003a7 	bl	a29c <enable_irq>
/home/silhavyj/School/ZeroMate/examples/13-context_switch_monitor/kernel/src/main.cpp:56
        for (i = 0; i < 0x200; i++)
    93fc:	eaffffec 	b	93b4 <Process_2+0x18>
    9400:	0000a9b4 			; <UNDEFINED> instruction: 0x0000a9b4
    9404:	0000ab18 	andeq	sl, r0, r8, lsl fp

00009408 <Process_3>:
Process_3():
/home/silhavyj/School/ZeroMate/examples/13-context_switch_monitor/kernel/src/main.cpp:66
    }
}

extern "C" void Process_3()
{
    9408:	e92d4800 	push	{fp, lr}
    940c:	e28db004 	add	fp, sp, #4
    9410:	e24dd008 	sub	sp, sp, #8
/home/silhavyj/School/ZeroMate/examples/13-context_switch_monitor/kernel/src/main.cpp:69
    volatile int i;

    sMonitor << "Process 3\n";
    9414:	e59f1050 	ldr	r1, [pc, #80]	; 946c <Process_3+0x64>
    9418:	e59f0050 	ldr	r0, [pc, #80]	; 9470 <Process_3+0x68>
    941c:	ebfffd62 	bl	89ac <_ZN8CMonitorlsEPKc>
/home/silhavyj/School/ZeroMate/examples/13-context_switch_monitor/kernel/src/main.cpp:73

    while (true)
    {
        for (i = 0; i < 0x200; i++)
    9420:	e3a03000 	mov	r3, #0
    9424:	e50b3008 	str	r3, [fp, #-8]
/home/silhavyj/School/ZeroMate/examples/13-context_switch_monitor/kernel/src/main.cpp:73 (discriminator 3)
    9428:	e51b3008 	ldr	r3, [fp, #-8]
    942c:	e3530c02 	cmp	r3, #512	; 0x200
    9430:	b3a03001 	movlt	r3, #1
    9434:	a3a03000 	movge	r3, #0
    9438:	e6ef3073 	uxtb	r3, r3
    943c:	e3530000 	cmp	r3, #0
    9440:	0a000003 	beq	9454 <Process_3+0x4c>
/home/silhavyj/School/ZeroMate/examples/13-context_switch_monitor/kernel/src/main.cpp:73 (discriminator 2)
    9444:	e51b3008 	ldr	r3, [fp, #-8]
    9448:	e2833001 	add	r3, r3, #1
    944c:	e50b3008 	str	r3, [fp, #-8]
    9450:	eafffff4 	b	9428 <Process_3+0x20>
/home/silhavyj/School/ZeroMate/examples/13-context_switch_monitor/kernel/src/main.cpp:76
            ;
        
        disable_irq();
    9454:	eb000395 	bl	a2b0 <disable_irq>
/home/silhavyj/School/ZeroMate/examples/13-context_switch_monitor/kernel/src/main.cpp:77
        sMonitor << '3';
    9458:	e3a01033 	mov	r1, #51	; 0x33
    945c:	e59f000c 	ldr	r0, [pc, #12]	; 9470 <Process_3+0x68>
    9460:	ebfffd27 	bl	8904 <_ZN8CMonitorlsEc>
/home/silhavyj/School/ZeroMate/examples/13-context_switch_monitor/kernel/src/main.cpp:78
        enable_irq();
    9464:	eb00038c 	bl	a29c <enable_irq>
/home/silhavyj/School/ZeroMate/examples/13-context_switch_monitor/kernel/src/main.cpp:73
        for (i = 0; i < 0x200; i++)
    9468:	eaffffec 	b	9420 <Process_3+0x18>
    946c:	0000a9c0 	andeq	sl, r0, r0, asr #19
    9470:	0000ab18 	andeq	sl, r0, r8, lsl fp

00009474 <Process_4>:
Process_4():
/home/silhavyj/School/ZeroMate/examples/13-context_switch_monitor/kernel/src/main.cpp:83
    }
}

extern "C" void Process_4()
{
    9474:	e92d4800 	push	{fp, lr}
    9478:	e28db004 	add	fp, sp, #4
    947c:	e24dd008 	sub	sp, sp, #8
/home/silhavyj/School/ZeroMate/examples/13-context_switch_monitor/kernel/src/main.cpp:86
    volatile int i;

    sMonitor << "Process 4\n";
    9480:	e59f1050 	ldr	r1, [pc, #80]	; 94d8 <Process_4+0x64>
    9484:	e59f0050 	ldr	r0, [pc, #80]	; 94dc <Process_4+0x68>
    9488:	ebfffd47 	bl	89ac <_ZN8CMonitorlsEPKc>
/home/silhavyj/School/ZeroMate/examples/13-context_switch_monitor/kernel/src/main.cpp:90

    while (true)
    {
        for (i = 0; i < 0x200; i++)
    948c:	e3a03000 	mov	r3, #0
    9490:	e50b3008 	str	r3, [fp, #-8]
/home/silhavyj/School/ZeroMate/examples/13-context_switch_monitor/kernel/src/main.cpp:90 (discriminator 3)
    9494:	e51b3008 	ldr	r3, [fp, #-8]
    9498:	e3530c02 	cmp	r3, #512	; 0x200
    949c:	b3a03001 	movlt	r3, #1
    94a0:	a3a03000 	movge	r3, #0
    94a4:	e6ef3073 	uxtb	r3, r3
    94a8:	e3530000 	cmp	r3, #0
    94ac:	0a000003 	beq	94c0 <Process_4+0x4c>
/home/silhavyj/School/ZeroMate/examples/13-context_switch_monitor/kernel/src/main.cpp:90 (discriminator 2)
    94b0:	e51b3008 	ldr	r3, [fp, #-8]
    94b4:	e2833001 	add	r3, r3, #1
    94b8:	e50b3008 	str	r3, [fp, #-8]
    94bc:	eafffff4 	b	9494 <Process_4+0x20>
/home/silhavyj/School/ZeroMate/examples/13-context_switch_monitor/kernel/src/main.cpp:93
            ;
        
        disable_irq();
    94c0:	eb00037a 	bl	a2b0 <disable_irq>
/home/silhavyj/School/ZeroMate/examples/13-context_switch_monitor/kernel/src/main.cpp:94
        sMonitor << '4';
    94c4:	e3a01034 	mov	r1, #52	; 0x34
    94c8:	e59f000c 	ldr	r0, [pc, #12]	; 94dc <Process_4+0x68>
    94cc:	ebfffd0c 	bl	8904 <_ZN8CMonitorlsEc>
/home/silhavyj/School/ZeroMate/examples/13-context_switch_monitor/kernel/src/main.cpp:95
        enable_irq();
    94d0:	eb000371 	bl	a29c <enable_irq>
/home/silhavyj/School/ZeroMate/examples/13-context_switch_monitor/kernel/src/main.cpp:90
        for (i = 0; i < 0x200; i++)
    94d4:	eaffffec 	b	948c <Process_4+0x18>
    94d8:	0000a9cc 	andeq	sl, r0, ip, asr #19
    94dc:	0000ab18 	andeq	sl, r0, r8, lsl fp

000094e0 <_kernel_main>:
_kernel_main():
/home/silhavyj/School/ZeroMate/examples/13-context_switch_monitor/kernel/src/main.cpp:100
    }
}

extern "C" int _kernel_main(void)
{
    94e0:	e92d4800 	push	{fp, lr}
    94e4:	e28db004 	add	fp, sp, #4
/home/silhavyj/School/ZeroMate/examples/13-context_switch_monitor/kernel/src/main.cpp:102
    // nastavime ACT LED pin na vystupni
    sGPIO.Set_GPIO_Function(ACT_Pin, NGPIO_Function::Output);
    94e8:	e3a02001 	mov	r2, #1
    94ec:	e3a0102f 	mov	r1, #47	; 0x2f
    94f0:	e59f0098 	ldr	r0, [pc, #152]	; 9590 <_kernel_main+0xb0>
    94f4:	ebfffbac 	bl	83ac <_ZN13CGPIO_Handler17Set_GPIO_FunctionEj14NGPIO_Function>
/home/silhavyj/School/ZeroMate/examples/13-context_switch_monitor/kernel/src/main.cpp:103
    sGPIO.Set_Output(ACT_Pin, false);
    94f8:	e3a02000 	mov	r2, #0
    94fc:	e3a0102f 	mov	r1, #47	; 0x2f
    9500:	e59f0088 	ldr	r0, [pc, #136]	; 9590 <_kernel_main+0xb0>
    9504:	ebfffbf7 	bl	84e8 <_ZN13CGPIO_Handler10Set_OutputEjb>
/home/silhavyj/School/ZeroMate/examples/13-context_switch_monitor/kernel/src/main.cpp:106

    // vypiseme ladici hlasku
    sMonitor.Clear();
    9508:	e59f0084 	ldr	r0, [pc, #132]	; 9594 <_kernel_main+0xb4>
    950c:	ebfffc86 	bl	872c <_ZN8CMonitor5ClearEv>
/home/silhavyj/School/ZeroMate/examples/13-context_switch_monitor/kernel/src/main.cpp:107
    sMonitor << "Welcome to KIV/OS RPiOS kernel\n";
    9510:	e59f1080 	ldr	r1, [pc, #128]	; 9598 <_kernel_main+0xb8>
    9514:	e59f0078 	ldr	r0, [pc, #120]	; 9594 <_kernel_main+0xb4>
    9518:	ebfffd23 	bl	89ac <_ZN8CMonitorlsEPKc>
/home/silhavyj/School/ZeroMate/examples/13-context_switch_monitor/kernel/src/main.cpp:111

    // sProcessMgr.Create_Main_Process();

    sProcessMgr.Create_Process(reinterpret_cast<unsigned long>(&Process_1));
    951c:	e59f3078 	ldr	r3, [pc, #120]	; 959c <_kernel_main+0xbc>
    9520:	e1a01003 	mov	r1, r3
    9524:	e59f0074 	ldr	r0, [pc, #116]	; 95a0 <_kernel_main+0xc0>
    9528:	eb000208 	bl	9d50 <_ZN16CProcess_Manager14Create_ProcessEm>
/home/silhavyj/School/ZeroMate/examples/13-context_switch_monitor/kernel/src/main.cpp:112
    sProcessMgr.Create_Process(reinterpret_cast<unsigned long>(&Process_2));
    952c:	e59f3070 	ldr	r3, [pc, #112]	; 95a4 <_kernel_main+0xc4>
    9530:	e1a01003 	mov	r1, r3
    9534:	e59f0064 	ldr	r0, [pc, #100]	; 95a0 <_kernel_main+0xc0>
    9538:	eb000204 	bl	9d50 <_ZN16CProcess_Manager14Create_ProcessEm>
/home/silhavyj/School/ZeroMate/examples/13-context_switch_monitor/kernel/src/main.cpp:113
    sProcessMgr.Create_Process(reinterpret_cast<unsigned long>(&Process_3));
    953c:	e59f3064 	ldr	r3, [pc, #100]	; 95a8 <_kernel_main+0xc8>
    9540:	e1a01003 	mov	r1, r3
    9544:	e59f0054 	ldr	r0, [pc, #84]	; 95a0 <_kernel_main+0xc0>
    9548:	eb000200 	bl	9d50 <_ZN16CProcess_Manager14Create_ProcessEm>
/home/silhavyj/School/ZeroMate/examples/13-context_switch_monitor/kernel/src/main.cpp:114
    sProcessMgr.Create_Process(reinterpret_cast<unsigned long>(&Process_4));
    954c:	e59f3058 	ldr	r3, [pc, #88]	; 95ac <_kernel_main+0xcc>
    9550:	e1a01003 	mov	r1, r3
    9554:	e59f0044 	ldr	r0, [pc, #68]	; 95a0 <_kernel_main+0xc0>
    9558:	eb0001fc 	bl	9d50 <_ZN16CProcess_Manager14Create_ProcessEm>
/home/silhavyj/School/ZeroMate/examples/13-context_switch_monitor/kernel/src/main.cpp:117

    // zatim zakazeme IRQ casovace
    sInterruptCtl.Disable_Basic_IRQ(hal::IRQ_Basic_Source::Timer);
    955c:	e3a01000 	mov	r1, #0
    9560:	e59f0048 	ldr	r0, [pc, #72]	; 95b0 <_kernel_main+0xd0>
    9564:	ebffff05 	bl	9180 <_ZN21CInterrupt_Controller17Disable_Basic_IRQEN3hal16IRQ_Basic_SourceE>
/home/silhavyj/School/ZeroMate/examples/13-context_switch_monitor/kernel/src/main.cpp:120

    // nastavime casovac - v callbacku se provadi planovani procesu
    sTimer.Enable(Timer_Callback, 0x20, NTimer_Prescaler::Prescaler_256);
    9568:	e3a03002 	mov	r3, #2
    956c:	e3a02020 	mov	r2, #32
    9570:	e59f103c 	ldr	r1, [pc, #60]	; 95b4 <_kernel_main+0xd4>
    9574:	e59f003c 	ldr	r0, [pc, #60]	; 95b8 <_kernel_main+0xd8>
    9578:	ebfffe38 	bl	8e60 <_ZN6CTimer6EnableEPFvvEj16NTimer_Prescaler>
/home/silhavyj/School/ZeroMate/examples/13-context_switch_monitor/kernel/src/main.cpp:123

    // povolime IRQ casovace
    sInterruptCtl.Enable_Basic_IRQ(hal::IRQ_Basic_Source::Timer);
    957c:	e3a01000 	mov	r1, #0
    9580:	e59f0028 	ldr	r0, [pc, #40]	; 95b0 <_kernel_main+0xd0>
    9584:	ebfffeec 	bl	913c <_ZN21CInterrupt_Controller16Enable_Basic_IRQEN3hal16IRQ_Basic_SourceE>
/home/silhavyj/School/ZeroMate/examples/13-context_switch_monitor/kernel/src/main.cpp:125

    enable_irq();
    9588:	eb000343 	bl	a29c <enable_irq>
/home/silhavyj/School/ZeroMate/examples/13-context_switch_monitor/kernel/src/main.cpp:128 (discriminator 1)

    // nekonecna smycka - tadyodsud se CPU uz nedostane jinak, nez treba prerusenim
    while (1)
    958c:	eafffffe 	b	958c <_kernel_main+0xac>
    9590:	0000ab14 	andeq	sl, r0, r4, lsl fp
    9594:	0000ab18 	andeq	sl, r0, r8, lsl fp
    9598:	0000a9d8 	ldrdeq	sl, [r0], -r8
    959c:	00009330 	andeq	r9, r0, r0, lsr r3
    95a0:	0000bb54 	andeq	fp, r0, r4, asr fp
    95a4:	0000939c 	muleq	r0, ip, r3
    95a8:	00009408 	andeq	r9, r0, r8, lsl #8
    95ac:	00009474 	andeq	r9, r0, r4, ror r4
    95b0:	0000ab48 	andeq	sl, r0, r8, asr #22
    95b4:	000092d4 	ldrdeq	r9, [r0], -r4
    95b8:	0000ab40 	andeq	sl, r0, r0, asr #22

000095bc <_ZN20CKernel_Heap_ManagerC1Ev>:
_ZN20CKernel_Heap_ManagerC2Ev():
/home/silhavyj/School/ZeroMate/examples/13-context_switch_monitor/kernel/src/memory/kernel_heap.cpp:6
#include <memory/kernel_heap.h>
#include <memory/pages.h>

CKernel_Heap_Manager sKernelMem;

CKernel_Heap_Manager::CKernel_Heap_Manager()
    95bc:	e92d4800 	push	{fp, lr}
    95c0:	e28db004 	add	fp, sp, #4
    95c4:	e24dd008 	sub	sp, sp, #8
    95c8:	e50b0008 	str	r0, [fp, #-8]
/home/silhavyj/School/ZeroMate/examples/13-context_switch_monitor/kernel/src/memory/kernel_heap.cpp:9
{
    // na zacatku si alokujeme jednu stranku dopredu, protoze je temer jiste, ze budeme docela brzy potrebovat nejakou pamet
    mFirst = Alloc_Next_Page();
    95cc:	e51b0008 	ldr	r0, [fp, #-8]
    95d0:	eb000006 	bl	95f0 <_ZN20CKernel_Heap_Manager15Alloc_Next_PageEv>
    95d4:	e1a02000 	mov	r2, r0
    95d8:	e51b3008 	ldr	r3, [fp, #-8]
    95dc:	e5832000 	str	r2, [r3]
/home/silhavyj/School/ZeroMate/examples/13-context_switch_monitor/kernel/src/memory/kernel_heap.cpp:10
}
    95e0:	e51b3008 	ldr	r3, [fp, #-8]
    95e4:	e1a00003 	mov	r0, r3
    95e8:	e24bd004 	sub	sp, fp, #4
    95ec:	e8bd8800 	pop	{fp, pc}

000095f0 <_ZN20CKernel_Heap_Manager15Alloc_Next_PageEv>:
_ZN20CKernel_Heap_Manager15Alloc_Next_PageEv():
/home/silhavyj/School/ZeroMate/examples/13-context_switch_monitor/kernel/src/memory/kernel_heap.cpp:13

TKernel_Heap_Chunk_Header* CKernel_Heap_Manager::Alloc_Next_Page()
{
    95f0:	e92d4800 	push	{fp, lr}
    95f4:	e28db004 	add	fp, sp, #4
    95f8:	e24dd010 	sub	sp, sp, #16
    95fc:	e50b0010 	str	r0, [fp, #-16]
/home/silhavyj/School/ZeroMate/examples/13-context_switch_monitor/kernel/src/memory/kernel_heap.cpp:14
    TKernel_Heap_Chunk_Header* chunk = reinterpret_cast<TKernel_Heap_Chunk_Header*>(sPage_Manager.Alloc_Page());
    9600:	e59f0048 	ldr	r0, [pc, #72]	; 9650 <_ZN20CKernel_Heap_Manager15Alloc_Next_PageEv+0x60>
    9604:	eb00010f 	bl	9a48 <_ZN13CPage_Manager10Alloc_PageEv>
    9608:	e1a03000 	mov	r3, r0
    960c:	e50b3008 	str	r3, [fp, #-8]
/home/silhavyj/School/ZeroMate/examples/13-context_switch_monitor/kernel/src/memory/kernel_heap.cpp:15
    chunk->prev = nullptr;
    9610:	e51b3008 	ldr	r3, [fp, #-8]
    9614:	e3a02000 	mov	r2, #0
    9618:	e5832000 	str	r2, [r3]
/home/silhavyj/School/ZeroMate/examples/13-context_switch_monitor/kernel/src/memory/kernel_heap.cpp:16
    chunk->next = nullptr;
    961c:	e51b3008 	ldr	r3, [fp, #-8]
    9620:	e3a02000 	mov	r2, #0
    9624:	e5832004 	str	r2, [r3, #4]
/home/silhavyj/School/ZeroMate/examples/13-context_switch_monitor/kernel/src/memory/kernel_heap.cpp:17
    chunk->size = mem::PageSize - sizeof(TKernel_Heap_Chunk_Header); // z alokovane stranky musime ubrat velikost hlavicky
    9628:	e51b3008 	ldr	r3, [fp, #-8]
    962c:	e59f2020 	ldr	r2, [pc, #32]	; 9654 <_ZN20CKernel_Heap_Manager15Alloc_Next_PageEv+0x64>
    9630:	e5832008 	str	r2, [r3, #8]
/home/silhavyj/School/ZeroMate/examples/13-context_switch_monitor/kernel/src/memory/kernel_heap.cpp:18
    chunk->is_free = true;
    9634:	e51b3008 	ldr	r3, [fp, #-8]
    9638:	e3a02001 	mov	r2, #1
    963c:	e5c3200c 	strb	r2, [r3, #12]
/home/silhavyj/School/ZeroMate/examples/13-context_switch_monitor/kernel/src/memory/kernel_heap.cpp:20

    return chunk;
    9640:	e51b3008 	ldr	r3, [fp, #-8]
/home/silhavyj/School/ZeroMate/examples/13-context_switch_monitor/kernel/src/memory/kernel_heap.cpp:21
}
    9644:	e1a00003 	mov	r0, r3
    9648:	e24bd004 	sub	sp, fp, #4
    964c:	e8bd8800 	pop	{fp, pc}
    9650:	0000ab54 	andeq	sl, r0, r4, asr fp
    9654:	00003ff0 	strdeq	r3, [r0], -r0

00009658 <_ZN20CKernel_Heap_Manager5AllocEj>:
_ZN20CKernel_Heap_Manager5AllocEj():
/home/silhavyj/School/ZeroMate/examples/13-context_switch_monitor/kernel/src/memory/kernel_heap.cpp:24

void* CKernel_Heap_Manager::Alloc(uint32_t size)
{
    9658:	e52db004 	push	{fp}		; (str fp, [sp, #-4]!)
    965c:	e28db000 	add	fp, sp, #0
    9660:	e24dd014 	sub	sp, sp, #20
    9664:	e50b0010 	str	r0, [fp, #-16]
    9668:	e50b1014 	str	r1, [fp, #-20]	; 0xffffffec
/home/silhavyj/School/ZeroMate/examples/13-context_switch_monitor/kernel/src/memory/kernel_heap.cpp:25
    TKernel_Heap_Chunk_Header* chunk = mFirst;
    966c:	e51b3010 	ldr	r3, [fp, #-16]
    9670:	e5933000 	ldr	r3, [r3]
    9674:	e50b3008 	str	r3, [fp, #-8]
/home/silhavyj/School/ZeroMate/examples/13-context_switch_monitor/kernel/src/memory/kernel_heap.cpp:28

    // potrebujeme najit prvni blok, ktery je volny a zaroven alespon tak velky, jak potrebujeme (pro ted pouzivame proste first-fit)
    while (chunk != nullptr && (!chunk->is_free || chunk->size < size))
    9678:	e51b3008 	ldr	r3, [fp, #-8]
    967c:	e3530000 	cmp	r3, #0
    9680:	0a00000c 	beq	96b8 <_ZN20CKernel_Heap_Manager5AllocEj+0x60>
/home/silhavyj/School/ZeroMate/examples/13-context_switch_monitor/kernel/src/memory/kernel_heap.cpp:28 (discriminator 1)
    9684:	e51b3008 	ldr	r3, [fp, #-8]
    9688:	e5d3300c 	ldrb	r3, [r3, #12]
    968c:	e3530000 	cmp	r3, #0
    9690:	0a000004 	beq	96a8 <_ZN20CKernel_Heap_Manager5AllocEj+0x50>
/home/silhavyj/School/ZeroMate/examples/13-context_switch_monitor/kernel/src/memory/kernel_heap.cpp:28 (discriminator 2)
    9694:	e51b3008 	ldr	r3, [fp, #-8]
    9698:	e5933008 	ldr	r3, [r3, #8]
    969c:	e51b2014 	ldr	r2, [fp, #-20]	; 0xffffffec
    96a0:	e1520003 	cmp	r2, r3
    96a4:	9a000003 	bls	96b8 <_ZN20CKernel_Heap_Manager5AllocEj+0x60>
/home/silhavyj/School/ZeroMate/examples/13-context_switch_monitor/kernel/src/memory/kernel_heap.cpp:30
    {
        chunk = chunk->next;
    96a8:	e51b3008 	ldr	r3, [fp, #-8]
    96ac:	e5933004 	ldr	r3, [r3, #4]
    96b0:	e50b3008 	str	r3, [fp, #-8]
/home/silhavyj/School/ZeroMate/examples/13-context_switch_monitor/kernel/src/memory/kernel_heap.cpp:28
    while (chunk != nullptr && (!chunk->is_free || chunk->size < size))
    96b4:	eaffffef 	b	9678 <_ZN20CKernel_Heap_Manager5AllocEj+0x20>
/home/silhavyj/School/ZeroMate/examples/13-context_switch_monitor/kernel/src/memory/kernel_heap.cpp:33
    }

    if (!chunk)
    96b8:	e51b3008 	ldr	r3, [fp, #-8]
    96bc:	e3530000 	cmp	r3, #0
    96c0:	1a000001 	bne	96cc <_ZN20CKernel_Heap_Manager5AllocEj+0x74>
/home/silhavyj/School/ZeroMate/examples/13-context_switch_monitor/kernel/src/memory/kernel_heap.cpp:37
    {
        // TODO: tady by se hodila alokace dalsi stranky (Alloc_Next_Page) a navazani na predchozi chunk
        // pro ted nechme byt, vic jak 4kB snad v tomto prikladu potrebovat nebudeme
        return nullptr;
    96c4:	e3a03000 	mov	r3, #0
    96c8:	ea000031 	b	9794 <_ZN20CKernel_Heap_Manager5AllocEj+0x13c>
/home/silhavyj/School/ZeroMate/examples/13-context_switch_monitor/kernel/src/memory/kernel_heap.cpp:42
    }

    // pokud je pozadovane misto uz tak velke, jak potrebujeme, tak je to snadne - jen ho oznacime za alokovane a vratime
    // vzdy zarovname tak, aby se do dalsiho potencialniho bloku vesla alespon hlavicka dalsiho bloku a nejaky overlap (alespon jeden bajt)
    if (chunk->size >= size && chunk->size <= size + sizeof(TKernel_Heap_Chunk_Header) + 1)
    96cc:	e51b3008 	ldr	r3, [fp, #-8]
    96d0:	e5933008 	ldr	r3, [r3, #8]
    96d4:	e51b2014 	ldr	r2, [fp, #-20]	; 0xffffffec
    96d8:	e1520003 	cmp	r2, r3
    96dc:	8a00000b 	bhi	9710 <_ZN20CKernel_Heap_Manager5AllocEj+0xb8>
/home/silhavyj/School/ZeroMate/examples/13-context_switch_monitor/kernel/src/memory/kernel_heap.cpp:42 (discriminator 1)
    96e0:	e51b3008 	ldr	r3, [fp, #-8]
    96e4:	e5932008 	ldr	r2, [r3, #8]
    96e8:	e51b3014 	ldr	r3, [fp, #-20]	; 0xffffffec
    96ec:	e2833011 	add	r3, r3, #17
    96f0:	e1520003 	cmp	r2, r3
    96f4:	8a000005 	bhi	9710 <_ZN20CKernel_Heap_Manager5AllocEj+0xb8>
/home/silhavyj/School/ZeroMate/examples/13-context_switch_monitor/kernel/src/memory/kernel_heap.cpp:44
    {
        chunk->is_free = false;
    96f8:	e51b3008 	ldr	r3, [fp, #-8]
    96fc:	e3a02000 	mov	r2, #0
    9700:	e5c3200c 	strb	r2, [r3, #12]
/home/silhavyj/School/ZeroMate/examples/13-context_switch_monitor/kernel/src/memory/kernel_heap.cpp:45
        return reinterpret_cast<uint8_t*>(chunk) + sizeof(TKernel_Heap_Chunk_Header); // vracime az pouzitelnou pamet, tedy to co nasleduje po hlavicce
    9704:	e51b3008 	ldr	r3, [fp, #-8]
    9708:	e2833010 	add	r3, r3, #16
    970c:	ea000020 	b	9794 <_ZN20CKernel_Heap_Manager5AllocEj+0x13c>
/home/silhavyj/School/ZeroMate/examples/13-context_switch_monitor/kernel/src/memory/kernel_heap.cpp:51
    }

    // pokud je vetsi, musime blok rozdelit
    // to, ze se tam vejde dalsi hlavicka jsme garantovali prekryvem, viz vyse

    TKernel_Heap_Chunk_Header* hdr2 = reinterpret_cast<TKernel_Heap_Chunk_Header*>(reinterpret_cast<uint8_t*>(chunk) + sizeof(TKernel_Heap_Chunk_Header) + size);
    9710:	e51b3014 	ldr	r3, [fp, #-20]	; 0xffffffec
    9714:	e2833010 	add	r3, r3, #16
    9718:	e51b2008 	ldr	r2, [fp, #-8]
    971c:	e0823003 	add	r3, r2, r3
    9720:	e50b300c 	str	r3, [fp, #-12]
/home/silhavyj/School/ZeroMate/examples/13-context_switch_monitor/kernel/src/memory/kernel_heap.cpp:53

    hdr2->size = chunk->size - size - sizeof(TKernel_Heap_Chunk_Header);
    9724:	e51b3008 	ldr	r3, [fp, #-8]
    9728:	e5932008 	ldr	r2, [r3, #8]
    972c:	e51b3014 	ldr	r3, [fp, #-20]	; 0xffffffec
    9730:	e0423003 	sub	r3, r2, r3
    9734:	e2432010 	sub	r2, r3, #16
    9738:	e51b300c 	ldr	r3, [fp, #-12]
    973c:	e5832008 	str	r2, [r3, #8]
/home/silhavyj/School/ZeroMate/examples/13-context_switch_monitor/kernel/src/memory/kernel_heap.cpp:55

    hdr2->prev = chunk;
    9740:	e51b300c 	ldr	r3, [fp, #-12]
    9744:	e51b2008 	ldr	r2, [fp, #-8]
    9748:	e5832000 	str	r2, [r3]
/home/silhavyj/School/ZeroMate/examples/13-context_switch_monitor/kernel/src/memory/kernel_heap.cpp:56
    hdr2->next = chunk->next;
    974c:	e51b3008 	ldr	r3, [fp, #-8]
    9750:	e5932004 	ldr	r2, [r3, #4]
    9754:	e51b300c 	ldr	r3, [fp, #-12]
    9758:	e5832004 	str	r2, [r3, #4]
/home/silhavyj/School/ZeroMate/examples/13-context_switch_monitor/kernel/src/memory/kernel_heap.cpp:57
    hdr2->is_free = true;
    975c:	e51b300c 	ldr	r3, [fp, #-12]
    9760:	e3a02001 	mov	r2, #1
    9764:	e5c3200c 	strb	r2, [r3, #12]
/home/silhavyj/School/ZeroMate/examples/13-context_switch_monitor/kernel/src/memory/kernel_heap.cpp:58
    chunk->next = hdr2;
    9768:	e51b3008 	ldr	r3, [fp, #-8]
    976c:	e51b200c 	ldr	r2, [fp, #-12]
    9770:	e5832004 	str	r2, [r3, #4]
/home/silhavyj/School/ZeroMate/examples/13-context_switch_monitor/kernel/src/memory/kernel_heap.cpp:60

    chunk->size = size;
    9774:	e51b3008 	ldr	r3, [fp, #-8]
    9778:	e51b2014 	ldr	r2, [fp, #-20]	; 0xffffffec
    977c:	e5832008 	str	r2, [r3, #8]
/home/silhavyj/School/ZeroMate/examples/13-context_switch_monitor/kernel/src/memory/kernel_heap.cpp:61
    chunk->is_free = false;
    9780:	e51b3008 	ldr	r3, [fp, #-8]
    9784:	e3a02000 	mov	r2, #0
    9788:	e5c3200c 	strb	r2, [r3, #12]
/home/silhavyj/School/ZeroMate/examples/13-context_switch_monitor/kernel/src/memory/kernel_heap.cpp:63

    return reinterpret_cast<uint8_t*>(chunk) + sizeof(TKernel_Heap_Chunk_Header); // vracime az pouzitelnou pamet, tedy to co nasleduje po hlavicce
    978c:	e51b3008 	ldr	r3, [fp, #-8]
    9790:	e2833010 	add	r3, r3, #16
/home/silhavyj/School/ZeroMate/examples/13-context_switch_monitor/kernel/src/memory/kernel_heap.cpp:64
}
    9794:	e1a00003 	mov	r0, r3
    9798:	e28bd000 	add	sp, fp, #0
    979c:	e49db004 	pop	{fp}		; (ldr fp, [sp], #4)
    97a0:	e12fff1e 	bx	lr

000097a4 <_ZN20CKernel_Heap_Manager4FreeEPv>:
_ZN20CKernel_Heap_Manager4FreeEPv():
/home/silhavyj/School/ZeroMate/examples/13-context_switch_monitor/kernel/src/memory/kernel_heap.cpp:67

void CKernel_Heap_Manager::Free(void* mem)
{
    97a4:	e52db004 	push	{fp}		; (str fp, [sp, #-4]!)
    97a8:	e28db000 	add	fp, sp, #0
    97ac:	e24dd014 	sub	sp, sp, #20
    97b0:	e50b0010 	str	r0, [fp, #-16]
    97b4:	e50b1014 	str	r1, [fp, #-20]	; 0xffffffec
/home/silhavyj/School/ZeroMate/examples/13-context_switch_monitor/kernel/src/memory/kernel_heap.cpp:68
    TKernel_Heap_Chunk_Header* chunk = reinterpret_cast<TKernel_Heap_Chunk_Header*>(reinterpret_cast<uint8_t*>(mem) - sizeof(TKernel_Heap_Chunk_Header));
    97b8:	e51b3014 	ldr	r3, [fp, #-20]	; 0xffffffec
    97bc:	e2433010 	sub	r3, r3, #16
    97c0:	e50b3008 	str	r3, [fp, #-8]
/home/silhavyj/School/ZeroMate/examples/13-context_switch_monitor/kernel/src/memory/kernel_heap.cpp:70

    chunk->is_free = true;
    97c4:	e51b3008 	ldr	r3, [fp, #-8]
    97c8:	e3a02001 	mov	r2, #1
    97cc:	e5c3200c 	strb	r2, [r3, #12]
/home/silhavyj/School/ZeroMate/examples/13-context_switch_monitor/kernel/src/memory/kernel_heap.cpp:73

    // pokud je dalsi blok volny, spojme tento a dalsi blok do jednoho
    if (chunk->next && chunk->next->is_free)
    97d0:	e51b3008 	ldr	r3, [fp, #-8]
    97d4:	e5933004 	ldr	r3, [r3, #4]
    97d8:	e3530000 	cmp	r3, #0
    97dc:	0a000016 	beq	983c <_ZN20CKernel_Heap_Manager4FreeEPv+0x98>
/home/silhavyj/School/ZeroMate/examples/13-context_switch_monitor/kernel/src/memory/kernel_heap.cpp:73 (discriminator 1)
    97e0:	e51b3008 	ldr	r3, [fp, #-8]
    97e4:	e5933004 	ldr	r3, [r3, #4]
    97e8:	e5d3300c 	ldrb	r3, [r3, #12]
    97ec:	e3530000 	cmp	r3, #0
    97f0:	0a000011 	beq	983c <_ZN20CKernel_Heap_Manager4FreeEPv+0x98>
/home/silhavyj/School/ZeroMate/examples/13-context_switch_monitor/kernel/src/memory/kernel_heap.cpp:75
    {
        chunk->size += chunk->next->size + sizeof(TKernel_Heap_Chunk_Header); // zvetsit soucasny
    97f4:	e51b3008 	ldr	r3, [fp, #-8]
    97f8:	e5932008 	ldr	r2, [r3, #8]
    97fc:	e51b3008 	ldr	r3, [fp, #-8]
    9800:	e5933004 	ldr	r3, [r3, #4]
    9804:	e5933008 	ldr	r3, [r3, #8]
    9808:	e0823003 	add	r3, r2, r3
    980c:	e2832010 	add	r2, r3, #16
    9810:	e51b3008 	ldr	r3, [fp, #-8]
    9814:	e5832008 	str	r2, [r3, #8]
/home/silhavyj/School/ZeroMate/examples/13-context_switch_monitor/kernel/src/memory/kernel_heap.cpp:76
        chunk->next = chunk->next->next;                                      // navazat nasledujici nasledujiciho jako dalsi
    9818:	e51b3008 	ldr	r3, [fp, #-8]
    981c:	e5933004 	ldr	r3, [r3, #4]
    9820:	e5932004 	ldr	r2, [r3, #4]
    9824:	e51b3008 	ldr	r3, [fp, #-8]
    9828:	e5832004 	str	r2, [r3, #4]
/home/silhavyj/School/ZeroMate/examples/13-context_switch_monitor/kernel/src/memory/kernel_heap.cpp:77
        chunk->next->prev = chunk;                                            // nasledujicimu nastavit predchozi na sebe
    982c:	e51b3008 	ldr	r3, [fp, #-8]
    9830:	e5933004 	ldr	r3, [r3, #4]
    9834:	e51b2008 	ldr	r2, [fp, #-8]
    9838:	e5832000 	str	r2, [r3]
/home/silhavyj/School/ZeroMate/examples/13-context_switch_monitor/kernel/src/memory/kernel_heap.cpp:81
    }

    // pokud je predchozi blok volny, spojme predchozi a tento blok do jednoho
    if (chunk->prev && chunk->prev->is_free)
    983c:	e51b3008 	ldr	r3, [fp, #-8]
    9840:	e5933000 	ldr	r3, [r3]
    9844:	e3530000 	cmp	r3, #0
    9848:	0a000018 	beq	98b0 <_ZN20CKernel_Heap_Manager4FreeEPv+0x10c>
/home/silhavyj/School/ZeroMate/examples/13-context_switch_monitor/kernel/src/memory/kernel_heap.cpp:81 (discriminator 1)
    984c:	e51b3008 	ldr	r3, [fp, #-8]
    9850:	e5933000 	ldr	r3, [r3]
    9854:	e5d3300c 	ldrb	r3, [r3, #12]
    9858:	e3530000 	cmp	r3, #0
    985c:	0a000013 	beq	98b0 <_ZN20CKernel_Heap_Manager4FreeEPv+0x10c>
/home/silhavyj/School/ZeroMate/examples/13-context_switch_monitor/kernel/src/memory/kernel_heap.cpp:83
    {
        chunk->prev->size += chunk->size + sizeof(TKernel_Heap_Chunk_Header);
    9860:	e51b3008 	ldr	r3, [fp, #-8]
    9864:	e5933000 	ldr	r3, [r3]
    9868:	e5932008 	ldr	r2, [r3, #8]
    986c:	e51b3008 	ldr	r3, [fp, #-8]
    9870:	e5933008 	ldr	r3, [r3, #8]
    9874:	e0822003 	add	r2, r2, r3
    9878:	e51b3008 	ldr	r3, [fp, #-8]
    987c:	e5933000 	ldr	r3, [r3]
    9880:	e2822010 	add	r2, r2, #16
    9884:	e5832008 	str	r2, [r3, #8]
/home/silhavyj/School/ZeroMate/examples/13-context_switch_monitor/kernel/src/memory/kernel_heap.cpp:84
        chunk->prev->next = chunk->next;
    9888:	e51b3008 	ldr	r3, [fp, #-8]
    988c:	e5933000 	ldr	r3, [r3]
    9890:	e51b2008 	ldr	r2, [fp, #-8]
    9894:	e5922004 	ldr	r2, [r2, #4]
    9898:	e5832004 	str	r2, [r3, #4]
/home/silhavyj/School/ZeroMate/examples/13-context_switch_monitor/kernel/src/memory/kernel_heap.cpp:85
        chunk->next->prev = chunk->prev;
    989c:	e51b3008 	ldr	r3, [fp, #-8]
    98a0:	e5933004 	ldr	r3, [r3, #4]
    98a4:	e51b2008 	ldr	r2, [fp, #-8]
    98a8:	e5922000 	ldr	r2, [r2]
    98ac:	e5832000 	str	r2, [r3]
/home/silhavyj/School/ZeroMate/examples/13-context_switch_monitor/kernel/src/memory/kernel_heap.cpp:87
    }
    98b0:	e320f000 	nop	{0}
    98b4:	e28bd000 	add	sp, fp, #0
    98b8:	e49db004 	pop	{fp}		; (ldr fp, [sp], #4)
    98bc:	e12fff1e 	bx	lr

000098c0 <_Z41__static_initialization_and_destruction_0ii>:
_Z41__static_initialization_and_destruction_0ii():
/home/silhavyj/School/ZeroMate/examples/13-context_switch_monitor/kernel/src/memory/kernel_heap.cpp:87
    98c0:	e92d4800 	push	{fp, lr}
    98c4:	e28db004 	add	fp, sp, #4
    98c8:	e24dd008 	sub	sp, sp, #8
    98cc:	e50b0008 	str	r0, [fp, #-8]
    98d0:	e50b100c 	str	r1, [fp, #-12]
    98d4:	e51b3008 	ldr	r3, [fp, #-8]
    98d8:	e3530001 	cmp	r3, #1
    98dc:	1a000005 	bne	98f8 <_Z41__static_initialization_and_destruction_0ii+0x38>
/home/silhavyj/School/ZeroMate/examples/13-context_switch_monitor/kernel/src/memory/kernel_heap.cpp:87 (discriminator 1)
    98e0:	e51b300c 	ldr	r3, [fp, #-12]
    98e4:	e59f2018 	ldr	r2, [pc, #24]	; 9904 <_Z41__static_initialization_and_destruction_0ii+0x44>
    98e8:	e1530002 	cmp	r3, r2
    98ec:	1a000001 	bne	98f8 <_Z41__static_initialization_and_destruction_0ii+0x38>
/home/silhavyj/School/ZeroMate/examples/13-context_switch_monitor/kernel/src/memory/kernel_heap.cpp:4
CKernel_Heap_Manager sKernelMem;
    98f0:	e59f0010 	ldr	r0, [pc, #16]	; 9908 <_Z41__static_initialization_and_destruction_0ii+0x48>
    98f4:	ebffff30 	bl	95bc <_ZN20CKernel_Heap_ManagerC1Ev>
/home/silhavyj/School/ZeroMate/examples/13-context_switch_monitor/kernel/src/memory/kernel_heap.cpp:87
    98f8:	e320f000 	nop	{0}
    98fc:	e24bd004 	sub	sp, fp, #4
    9900:	e8bd8800 	pop	{fp, pc}
    9904:	0000ffff 	strdeq	pc, [r0], -pc	; <UNPREDICTABLE>
    9908:	0000ab50 	andeq	sl, r0, r0, asr fp

0000990c <_GLOBAL__sub_I_sKernelMem>:
_GLOBAL__sub_I_sKernelMem():
/home/silhavyj/School/ZeroMate/examples/13-context_switch_monitor/kernel/src/memory/kernel_heap.cpp:87
    990c:	e92d4800 	push	{fp, lr}
    9910:	e28db004 	add	fp, sp, #4
    9914:	e59f1008 	ldr	r1, [pc, #8]	; 9924 <_GLOBAL__sub_I_sKernelMem+0x18>
    9918:	e3a00001 	mov	r0, #1
    991c:	ebffffe7 	bl	98c0 <_Z41__static_initialization_and_destruction_0ii>
    9920:	e8bd8800 	pop	{fp, pc}
    9924:	0000ffff 	strdeq	pc, [r0], -pc	; <UNPREDICTABLE>

00009928 <_ZN13CPage_ManagerC1Ev>:
_ZN13CPage_ManagerC2Ev():
/home/silhavyj/School/ZeroMate/examples/13-context_switch_monitor/kernel/src/memory/pages.cpp:5
#include <memory/pages.h>

CPage_Manager sPage_Manager;

CPage_Manager::CPage_Manager()
    9928:	e52db004 	push	{fp}		; (str fp, [sp, #-4]!)
    992c:	e28db000 	add	fp, sp, #0
    9930:	e24dd014 	sub	sp, sp, #20
    9934:	e50b0010 	str	r0, [fp, #-16]
/home/silhavyj/School/ZeroMate/examples/13-context_switch_monitor/kernel/src/memory/pages.cpp:8
{
    // zadna stranka neni alokovana
    for (int i = 0; i < sizeof(mPage_Bitmap); i++)
    9938:	e3a03000 	mov	r3, #0
    993c:	e50b3008 	str	r3, [fp, #-8]
/home/silhavyj/School/ZeroMate/examples/13-context_switch_monitor/kernel/src/memory/pages.cpp:8 (discriminator 3)
    9940:	e51b3008 	ldr	r3, [fp, #-8]
    9944:	e59f203c 	ldr	r2, [pc, #60]	; 9988 <_ZN13CPage_ManagerC1Ev+0x60>
    9948:	e1530002 	cmp	r3, r2
    994c:	8a000008 	bhi	9974 <_ZN13CPage_ManagerC1Ev+0x4c>
/home/silhavyj/School/ZeroMate/examples/13-context_switch_monitor/kernel/src/memory/pages.cpp:9 (discriminator 2)
        mPage_Bitmap[i] = 0;
    9950:	e51b2010 	ldr	r2, [fp, #-16]
    9954:	e51b3008 	ldr	r3, [fp, #-8]
    9958:	e0823003 	add	r3, r2, r3
    995c:	e3a02000 	mov	r2, #0
    9960:	e5c32000 	strb	r2, [r3]
/home/silhavyj/School/ZeroMate/examples/13-context_switch_monitor/kernel/src/memory/pages.cpp:8 (discriminator 2)
    for (int i = 0; i < sizeof(mPage_Bitmap); i++)
    9964:	e51b3008 	ldr	r3, [fp, #-8]
    9968:	e2833001 	add	r3, r3, #1
    996c:	e50b3008 	str	r3, [fp, #-8]
    9970:	eafffff2 	b	9940 <_ZN13CPage_ManagerC1Ev+0x18>
/home/silhavyj/School/ZeroMate/examples/13-context_switch_monitor/kernel/src/memory/pages.cpp:12

    // nutno dodat, ze strankovatelna pamet implicitne nezahrnuje pamet, kam se nahralo jadro
}
    9974:	e51b3010 	ldr	r3, [fp, #-16]
    9978:	e1a00003 	mov	r0, r3
    997c:	e28bd000 	add	sp, fp, #0
    9980:	e49db004 	pop	{fp}		; (ldr fp, [sp], #4)
    9984:	e12fff1e 	bx	lr
    9988:	00000ffe 	strdeq	r0, [r0], -lr

0000998c <_ZN13CPage_Manager4MarkEjb>:
_ZN13CPage_Manager4MarkEjb():
/home/silhavyj/School/ZeroMate/examples/13-context_switch_monitor/kernel/src/memory/pages.cpp:15

void CPage_Manager::Mark(uint32_t page_idx, bool used)
{
    998c:	e52db004 	push	{fp}		; (str fp, [sp, #-4]!)
    9990:	e28db000 	add	fp, sp, #0
    9994:	e24dd014 	sub	sp, sp, #20
    9998:	e50b0008 	str	r0, [fp, #-8]
    999c:	e50b100c 	str	r1, [fp, #-12]
    99a0:	e1a03002 	mov	r3, r2
    99a4:	e54b300d 	strb	r3, [fp, #-13]
/home/silhavyj/School/ZeroMate/examples/13-context_switch_monitor/kernel/src/memory/pages.cpp:16
    if (used)
    99a8:	e55b300d 	ldrb	r3, [fp, #-13]
    99ac:	e3530000 	cmp	r3, #0
    99b0:	0a00000f 	beq	99f4 <_ZN13CPage_Manager4MarkEjb+0x68>
/home/silhavyj/School/ZeroMate/examples/13-context_switch_monitor/kernel/src/memory/pages.cpp:17
        mPage_Bitmap[page_idx / 8] |= 1 << (page_idx % 8);
    99b4:	e51b300c 	ldr	r3, [fp, #-12]
    99b8:	e1a031a3 	lsr	r3, r3, #3
    99bc:	e51b2008 	ldr	r2, [fp, #-8]
    99c0:	e7d22003 	ldrb	r2, [r2, r3]
    99c4:	e6af1072 	sxtb	r1, r2
    99c8:	e51b200c 	ldr	r2, [fp, #-12]
    99cc:	e2022007 	and	r2, r2, #7
    99d0:	e3a00001 	mov	r0, #1
    99d4:	e1a02210 	lsl	r2, r0, r2
    99d8:	e6af2072 	sxtb	r2, r2
    99dc:	e1812002 	orr	r2, r1, r2
    99e0:	e6af2072 	sxtb	r2, r2
    99e4:	e6ef1072 	uxtb	r1, r2
    99e8:	e51b2008 	ldr	r2, [fp, #-8]
    99ec:	e7c21003 	strb	r1, [r2, r3]
/home/silhavyj/School/ZeroMate/examples/13-context_switch_monitor/kernel/src/memory/pages.cpp:20
    else
        mPage_Bitmap[page_idx / 8] &= ~(1 << (page_idx % 8));
}
    99f0:	ea000010 	b	9a38 <_ZN13CPage_Manager4MarkEjb+0xac>
/home/silhavyj/School/ZeroMate/examples/13-context_switch_monitor/kernel/src/memory/pages.cpp:19
        mPage_Bitmap[page_idx / 8] &= ~(1 << (page_idx % 8));
    99f4:	e51b300c 	ldr	r3, [fp, #-12]
    99f8:	e1a031a3 	lsr	r3, r3, #3
    99fc:	e51b2008 	ldr	r2, [fp, #-8]
    9a00:	e7d22003 	ldrb	r2, [r2, r3]
    9a04:	e6af1072 	sxtb	r1, r2
    9a08:	e51b200c 	ldr	r2, [fp, #-12]
    9a0c:	e2022007 	and	r2, r2, #7
    9a10:	e3a00001 	mov	r0, #1
    9a14:	e1a02210 	lsl	r2, r0, r2
    9a18:	e6af2072 	sxtb	r2, r2
    9a1c:	e1e02002 	mvn	r2, r2
    9a20:	e6af2072 	sxtb	r2, r2
    9a24:	e0022001 	and	r2, r2, r1
    9a28:	e6af2072 	sxtb	r2, r2
    9a2c:	e6ef1072 	uxtb	r1, r2
    9a30:	e51b2008 	ldr	r2, [fp, #-8]
    9a34:	e7c21003 	strb	r1, [r2, r3]
/home/silhavyj/School/ZeroMate/examples/13-context_switch_monitor/kernel/src/memory/pages.cpp:20
}
    9a38:	e320f000 	nop	{0}
    9a3c:	e28bd000 	add	sp, fp, #0
    9a40:	e49db004 	pop	{fp}		; (ldr fp, [sp], #4)
    9a44:	e12fff1e 	bx	lr

00009a48 <_ZN13CPage_Manager10Alloc_PageEv>:
_ZN13CPage_Manager10Alloc_PageEv():
/home/silhavyj/School/ZeroMate/examples/13-context_switch_monitor/kernel/src/memory/pages.cpp:23

uint32_t CPage_Manager::Alloc_Page()
{
    9a48:	e92d4800 	push	{fp, lr}
    9a4c:	e28db004 	add	fp, sp, #4
    9a50:	e24dd018 	sub	sp, sp, #24
    9a54:	e50b0018 	str	r0, [fp, #-24]	; 0xffffffe8
/home/silhavyj/School/ZeroMate/examples/13-context_switch_monitor/kernel/src/memory/pages.cpp:30
    // to je samozrejme O(n) a pro prakticke pouziti ne uplne dobre, ale k tomuto problemu az jindy

    uint32_t i, j;

    // projdeme vsechny stranky
    for (i = 0; i < mem::PageCount; i++)
    9a58:	e3a03000 	mov	r3, #0
    9a5c:	e50b3008 	str	r3, [fp, #-8]
/home/silhavyj/School/ZeroMate/examples/13-context_switch_monitor/kernel/src/memory/pages.cpp:30 (discriminator 1)
    9a60:	e51b3008 	ldr	r3, [fp, #-8]
    9a64:	e59f20bc 	ldr	r2, [pc, #188]	; 9b28 <_ZN13CPage_Manager10Alloc_PageEv+0xe0>
    9a68:	e1530002 	cmp	r3, r2
    9a6c:	8a000029 	bhi	9b18 <_ZN13CPage_Manager10Alloc_PageEv+0xd0>
/home/silhavyj/School/ZeroMate/examples/13-context_switch_monitor/kernel/src/memory/pages.cpp:33
    {
        // je v dane osmici volna nejaka stranka? (0xFF = vse obsazeno)
        if (mPage_Bitmap[i] != 0xFF)
    9a70:	e51b2018 	ldr	r2, [fp, #-24]	; 0xffffffe8
    9a74:	e51b3008 	ldr	r3, [fp, #-8]
    9a78:	e0823003 	add	r3, r2, r3
    9a7c:	e5d33000 	ldrb	r3, [r3]
    9a80:	e35300ff 	cmp	r3, #255	; 0xff
    9a84:	0a00001f 	beq	9b08 <_ZN13CPage_Manager10Alloc_PageEv+0xc0>
/home/silhavyj/School/ZeroMate/examples/13-context_switch_monitor/kernel/src/memory/pages.cpp:36
        {
            // projdeme vsechny bity a najdeme ten co je volny
            for (j = 0; j < 8; j++)
    9a88:	e3a03000 	mov	r3, #0
    9a8c:	e50b300c 	str	r3, [fp, #-12]
/home/silhavyj/School/ZeroMate/examples/13-context_switch_monitor/kernel/src/memory/pages.cpp:36 (discriminator 1)
    9a90:	e51b300c 	ldr	r3, [fp, #-12]
    9a94:	e3530007 	cmp	r3, #7
    9a98:	8a00001a 	bhi	9b08 <_ZN13CPage_Manager10Alloc_PageEv+0xc0>
/home/silhavyj/School/ZeroMate/examples/13-context_switch_monitor/kernel/src/memory/pages.cpp:38
            {
                if ((mPage_Bitmap[i] & (1 << j)) == 0)
    9a9c:	e51b2018 	ldr	r2, [fp, #-24]	; 0xffffffe8
    9aa0:	e51b3008 	ldr	r3, [fp, #-8]
    9aa4:	e0823003 	add	r3, r2, r3
    9aa8:	e5d33000 	ldrb	r3, [r3]
    9aac:	e1a02003 	mov	r2, r3
    9ab0:	e51b300c 	ldr	r3, [fp, #-12]
    9ab4:	e1a03352 	asr	r3, r2, r3
    9ab8:	e2033001 	and	r3, r3, #1
    9abc:	e3530000 	cmp	r3, #0
    9ac0:	1a00000c 	bne	9af8 <_ZN13CPage_Manager10Alloc_PageEv+0xb0>
/home/silhavyj/School/ZeroMate/examples/13-context_switch_monitor/kernel/src/memory/pages.cpp:41
                {
                    // oznacime
                    const uint32_t page_idx = i * 8 + j;
    9ac4:	e51b3008 	ldr	r3, [fp, #-8]
    9ac8:	e1a03183 	lsl	r3, r3, #3
    9acc:	e51b200c 	ldr	r2, [fp, #-12]
    9ad0:	e0823003 	add	r3, r2, r3
    9ad4:	e50b3010 	str	r3, [fp, #-16]
/home/silhavyj/School/ZeroMate/examples/13-context_switch_monitor/kernel/src/memory/pages.cpp:42
                    Mark(page_idx, true);
    9ad8:	e3a02001 	mov	r2, #1
    9adc:	e51b1010 	ldr	r1, [fp, #-16]
    9ae0:	e51b0018 	ldr	r0, [fp, #-24]	; 0xffffffe8
    9ae4:	ebffffa8 	bl	998c <_ZN13CPage_Manager4MarkEjb>
/home/silhavyj/School/ZeroMate/examples/13-context_switch_monitor/kernel/src/memory/pages.cpp:43
                    return mem::LowMemory + page_idx * mem::PageSize;
    9ae8:	e51b3010 	ldr	r3, [fp, #-16]
    9aec:	e2833008 	add	r3, r3, #8
    9af0:	e1a03703 	lsl	r3, r3, #14
    9af4:	ea000008 	b	9b1c <_ZN13CPage_Manager10Alloc_PageEv+0xd4>
/home/silhavyj/School/ZeroMate/examples/13-context_switch_monitor/kernel/src/memory/pages.cpp:36 (discriminator 2)
            for (j = 0; j < 8; j++)
    9af8:	e51b300c 	ldr	r3, [fp, #-12]
    9afc:	e2833001 	add	r3, r3, #1
    9b00:	e50b300c 	str	r3, [fp, #-12]
    9b04:	eaffffe1 	b	9a90 <_ZN13CPage_Manager10Alloc_PageEv+0x48>
/home/silhavyj/School/ZeroMate/examples/13-context_switch_monitor/kernel/src/memory/pages.cpp:30 (discriminator 2)
    for (i = 0; i < mem::PageCount; i++)
    9b08:	e51b3008 	ldr	r3, [fp, #-8]
    9b0c:	e2833001 	add	r3, r3, #1
    9b10:	e50b3008 	str	r3, [fp, #-8]
    9b14:	eaffffd1 	b	9a60 <_ZN13CPage_Manager10Alloc_PageEv+0x18>
/home/silhavyj/School/ZeroMate/examples/13-context_switch_monitor/kernel/src/memory/pages.cpp:49
                }
            }
        }
    }

    return 0;
    9b18:	e3a03000 	mov	r3, #0
/home/silhavyj/School/ZeroMate/examples/13-context_switch_monitor/kernel/src/memory/pages.cpp:50
}
    9b1c:	e1a00003 	mov	r0, r3
    9b20:	e24bd004 	sub	sp, fp, #4
    9b24:	e8bd8800 	pop	{fp, pc}
    9b28:	00007ff7 	strdeq	r7, [r0], -r7	; <UNPREDICTABLE>

00009b2c <_ZN13CPage_Manager9Free_PageEj>:
_ZN13CPage_Manager9Free_PageEj():
/home/silhavyj/School/ZeroMate/examples/13-context_switch_monitor/kernel/src/memory/pages.cpp:53

void CPage_Manager::Free_Page(uint32_t fa)
{
    9b2c:	e92d4800 	push	{fp, lr}
    9b30:	e28db004 	add	fp, sp, #4
    9b34:	e24dd008 	sub	sp, sp, #8
    9b38:	e50b0008 	str	r0, [fp, #-8]
    9b3c:	e50b100c 	str	r1, [fp, #-12]
/home/silhavyj/School/ZeroMate/examples/13-context_switch_monitor/kernel/src/memory/pages.cpp:56
    // pro vyssi bezpecnost v nejakych safe systemech lze tady data stranky premazavat napr. nulami po dealokaci

    Mark(fa / mem::PageSize, false);
    9b40:	e51b300c 	ldr	r3, [fp, #-12]
    9b44:	e1a03723 	lsr	r3, r3, #14
    9b48:	e3a02000 	mov	r2, #0
    9b4c:	e1a01003 	mov	r1, r3
    9b50:	e51b0008 	ldr	r0, [fp, #-8]
    9b54:	ebffff8c 	bl	998c <_ZN13CPage_Manager4MarkEjb>
/home/silhavyj/School/ZeroMate/examples/13-context_switch_monitor/kernel/src/memory/pages.cpp:57
}
    9b58:	e320f000 	nop	{0}
    9b5c:	e24bd004 	sub	sp, fp, #4
    9b60:	e8bd8800 	pop	{fp, pc}

00009b64 <_Z41__static_initialization_and_destruction_0ii>:
_Z41__static_initialization_and_destruction_0ii():
/home/silhavyj/School/ZeroMate/examples/13-context_switch_monitor/kernel/src/memory/pages.cpp:57
    9b64:	e92d4800 	push	{fp, lr}
    9b68:	e28db004 	add	fp, sp, #4
    9b6c:	e24dd008 	sub	sp, sp, #8
    9b70:	e50b0008 	str	r0, [fp, #-8]
    9b74:	e50b100c 	str	r1, [fp, #-12]
    9b78:	e51b3008 	ldr	r3, [fp, #-8]
    9b7c:	e3530001 	cmp	r3, #1
    9b80:	1a000005 	bne	9b9c <_Z41__static_initialization_and_destruction_0ii+0x38>
/home/silhavyj/School/ZeroMate/examples/13-context_switch_monitor/kernel/src/memory/pages.cpp:57 (discriminator 1)
    9b84:	e51b300c 	ldr	r3, [fp, #-12]
    9b88:	e59f2018 	ldr	r2, [pc, #24]	; 9ba8 <_Z41__static_initialization_and_destruction_0ii+0x44>
    9b8c:	e1530002 	cmp	r3, r2
    9b90:	1a000001 	bne	9b9c <_Z41__static_initialization_and_destruction_0ii+0x38>
/home/silhavyj/School/ZeroMate/examples/13-context_switch_monitor/kernel/src/memory/pages.cpp:3
CPage_Manager sPage_Manager;
    9b94:	e59f0010 	ldr	r0, [pc, #16]	; 9bac <_Z41__static_initialization_and_destruction_0ii+0x48>
    9b98:	ebffff62 	bl	9928 <_ZN13CPage_ManagerC1Ev>
/home/silhavyj/School/ZeroMate/examples/13-context_switch_monitor/kernel/src/memory/pages.cpp:57
}
    9b9c:	e320f000 	nop	{0}
    9ba0:	e24bd004 	sub	sp, fp, #4
    9ba4:	e8bd8800 	pop	{fp, pc}
    9ba8:	0000ffff 	strdeq	pc, [r0], -pc	; <UNPREDICTABLE>
    9bac:	0000ab54 	andeq	sl, r0, r4, asr fp

00009bb0 <_GLOBAL__sub_I_sPage_Manager>:
_GLOBAL__sub_I_sPage_Manager():
/home/silhavyj/School/ZeroMate/examples/13-context_switch_monitor/kernel/src/memory/pages.cpp:57
    9bb0:	e92d4800 	push	{fp, lr}
    9bb4:	e28db004 	add	fp, sp, #4
    9bb8:	e59f1008 	ldr	r1, [pc, #8]	; 9bc8 <_GLOBAL__sub_I_sPage_Manager+0x18>
    9bbc:	e3a00001 	mov	r0, #1
    9bc0:	ebffffe7 	bl	9b64 <_Z41__static_initialization_and_destruction_0ii>
    9bc4:	e8bd8800 	pop	{fp, pc}
    9bc8:	0000ffff 	strdeq	pc, [r0], -pc	; <UNPREDICTABLE>

00009bcc <_ZN16CProcess_ManagerC1Ev>:
_ZN16CProcess_ManagerC2Ev():
/home/silhavyj/School/ZeroMate/examples/13-context_switch_monitor/kernel/src/process/process_manager.cpp:17
void context_switch_first(TCPU_Context* ctx_to, TCPU_Context* ctx_from);
};

CProcess_Manager sProcessMgr;

CProcess_Manager::CProcess_Manager()
    9bcc:	e52db004 	push	{fp}		; (str fp, [sp, #-4]!)
    9bd0:	e28db000 	add	fp, sp, #0
    9bd4:	e24dd00c 	sub	sp, sp, #12
    9bd8:	e50b0008 	str	r0, [fp, #-8]
/home/silhavyj/School/ZeroMate/examples/13-context_switch_monitor/kernel/src/process/process_manager.cpp:20
: mLast_PID(0)
, mProcess_List_Head(nullptr)
, mCurrent_Task_Node(nullptr)
    9bdc:	e51b3008 	ldr	r3, [fp, #-8]
    9be0:	e3a02000 	mov	r2, #0
    9be4:	e5832000 	str	r2, [r3]
    9be8:	e51b3008 	ldr	r3, [fp, #-8]
    9bec:	e3a02000 	mov	r2, #0
    9bf0:	e5832004 	str	r2, [r3, #4]
    9bf4:	e51b3008 	ldr	r3, [fp, #-8]
    9bf8:	e3a02000 	mov	r2, #0
    9bfc:	e5832008 	str	r2, [r3, #8]
/home/silhavyj/School/ZeroMate/examples/13-context_switch_monitor/kernel/src/process/process_manager.cpp:23
{
    //
}
    9c00:	e51b3008 	ldr	r3, [fp, #-8]
    9c04:	e1a00003 	mov	r0, r3
    9c08:	e28bd000 	add	sp, fp, #0
    9c0c:	e49db004 	pop	{fp}		; (ldr fp, [sp], #4)
    9c10:	e12fff1e 	bx	lr

00009c14 <_ZNK16CProcess_Manager19Get_Current_ProcessEv>:
_ZNK16CProcess_Manager19Get_Current_ProcessEv():
/home/silhavyj/School/ZeroMate/examples/13-context_switch_monitor/kernel/src/process/process_manager.cpp:26

TTask_Struct* CProcess_Manager::Get_Current_Process() const
{
    9c14:	e52db004 	push	{fp}		; (str fp, [sp, #-4]!)
    9c18:	e28db000 	add	fp, sp, #0
    9c1c:	e24dd00c 	sub	sp, sp, #12
    9c20:	e50b0008 	str	r0, [fp, #-8]
/home/silhavyj/School/ZeroMate/examples/13-context_switch_monitor/kernel/src/process/process_manager.cpp:27
    return mCurrent_Task_Node ? mCurrent_Task_Node->task : nullptr;
    9c24:	e51b3008 	ldr	r3, [fp, #-8]
    9c28:	e5933008 	ldr	r3, [r3, #8]
    9c2c:	e3530000 	cmp	r3, #0
    9c30:	0a000003 	beq	9c44 <_ZNK16CProcess_Manager19Get_Current_ProcessEv+0x30>
/home/silhavyj/School/ZeroMate/examples/13-context_switch_monitor/kernel/src/process/process_manager.cpp:27 (discriminator 1)
    9c34:	e51b3008 	ldr	r3, [fp, #-8]
    9c38:	e5933008 	ldr	r3, [r3, #8]
    9c3c:	e5933008 	ldr	r3, [r3, #8]
    9c40:	ea000000 	b	9c48 <_ZNK16CProcess_Manager19Get_Current_ProcessEv+0x34>
/home/silhavyj/School/ZeroMate/examples/13-context_switch_monitor/kernel/src/process/process_manager.cpp:27 (discriminator 2)
    9c44:	e3a03000 	mov	r3, #0
/home/silhavyj/School/ZeroMate/examples/13-context_switch_monitor/kernel/src/process/process_manager.cpp:28 (discriminator 5)
}
    9c48:	e1a00003 	mov	r0, r3
    9c4c:	e28bd000 	add	sp, fp, #0
    9c50:	e49db004 	pop	{fp}		; (ldr fp, [sp], #4)
    9c54:	e12fff1e 	bx	lr

00009c58 <_ZN16CProcess_Manager19Create_Main_ProcessEv>:
_ZN16CProcess_Manager19Create_Main_ProcessEv():
/home/silhavyj/School/ZeroMate/examples/13-context_switch_monitor/kernel/src/process/process_manager.cpp:31

void CProcess_Manager::Create_Main_Process()
{
    9c58:	e92d4800 	push	{fp, lr}
    9c5c:	e28db004 	add	fp, sp, #4
    9c60:	e24dd010 	sub	sp, sp, #16
    9c64:	e50b0010 	str	r0, [fp, #-16]
/home/silhavyj/School/ZeroMate/examples/13-context_switch_monitor/kernel/src/process/process_manager.cpp:32
    CProcess_List_Node* procnode = sKernelMem.Alloc<CProcess_List_Node>();
    9c68:	e59f00dc 	ldr	r0, [pc, #220]	; 9d4c <_ZN16CProcess_Manager19Create_Main_ProcessEv+0xf4>
    9c6c:	eb00015d 	bl	a1e8 <_ZN20CKernel_Heap_Manager5AllocI18CProcess_List_NodeEEPT_v>
    9c70:	e1a03000 	mov	r3, r0
    9c74:	e50b3008 	str	r3, [fp, #-8]
/home/silhavyj/School/ZeroMate/examples/13-context_switch_monitor/kernel/src/process/process_manager.cpp:34

    procnode->next = mProcess_List_Head;
    9c78:	e51b3010 	ldr	r3, [fp, #-16]
    9c7c:	e5932004 	ldr	r2, [r3, #4]
    9c80:	e51b3008 	ldr	r3, [fp, #-8]
    9c84:	e5832004 	str	r2, [r3, #4]
/home/silhavyj/School/ZeroMate/examples/13-context_switch_monitor/kernel/src/process/process_manager.cpp:35
    procnode->prev = nullptr;
    9c88:	e51b3008 	ldr	r3, [fp, #-8]
    9c8c:	e3a02000 	mov	r2, #0
    9c90:	e5832000 	str	r2, [r3]
/home/silhavyj/School/ZeroMate/examples/13-context_switch_monitor/kernel/src/process/process_manager.cpp:36
    if (mProcess_List_Head != nullptr)
    9c94:	e51b3010 	ldr	r3, [fp, #-16]
    9c98:	e5933004 	ldr	r3, [r3, #4]
    9c9c:	e3530000 	cmp	r3, #0
    9ca0:	0a000004 	beq	9cb8 <_ZN16CProcess_Manager19Create_Main_ProcessEv+0x60>
/home/silhavyj/School/ZeroMate/examples/13-context_switch_monitor/kernel/src/process/process_manager.cpp:38
    {
        mProcess_List_Head->prev = procnode;
    9ca4:	e51b3010 	ldr	r3, [fp, #-16]
    9ca8:	e5933004 	ldr	r3, [r3, #4]
    9cac:	e51b2008 	ldr	r2, [fp, #-8]
    9cb0:	e5832000 	str	r2, [r3]
    9cb4:	ea000002 	b	9cc4 <_ZN16CProcess_Manager19Create_Main_ProcessEv+0x6c>
/home/silhavyj/School/ZeroMate/examples/13-context_switch_monitor/kernel/src/process/process_manager.cpp:42
    }
    else
    {
        mProcess_List_Head = procnode;
    9cb8:	e51b3010 	ldr	r3, [fp, #-16]
    9cbc:	e51b2008 	ldr	r2, [fp, #-8]
    9cc0:	e5832004 	str	r2, [r3, #4]
/home/silhavyj/School/ZeroMate/examples/13-context_switch_monitor/kernel/src/process/process_manager.cpp:45
    }

    procnode->task = sKernelMem.Alloc<TTask_Struct>();
    9cc4:	e59f0080 	ldr	r0, [pc, #128]	; 9d4c <_ZN16CProcess_Manager19Create_Main_ProcessEv+0xf4>
    9cc8:	eb000151 	bl	a214 <_ZN20CKernel_Heap_Manager5AllocI12TTask_StructEEPT_v>
    9ccc:	e1a02000 	mov	r2, r0
    9cd0:	e51b3008 	ldr	r3, [fp, #-8]
    9cd4:	e5832008 	str	r2, [r3, #8]
/home/silhavyj/School/ZeroMate/examples/13-context_switch_monitor/kernel/src/process/process_manager.cpp:47

    auto* task = procnode->task;
    9cd8:	e51b3008 	ldr	r3, [fp, #-8]
    9cdc:	e5933008 	ldr	r3, [r3, #8]
    9ce0:	e50b300c 	str	r3, [fp, #-12]
/home/silhavyj/School/ZeroMate/examples/13-context_switch_monitor/kernel/src/process/process_manager.cpp:49

    task->pid = ++mLast_PID;
    9ce4:	e51b3010 	ldr	r3, [fp, #-16]
    9ce8:	e5933000 	ldr	r3, [r3]
    9cec:	e2832001 	add	r2, r3, #1
    9cf0:	e51b3010 	ldr	r3, [fp, #-16]
    9cf4:	e5832000 	str	r2, [r3]
    9cf8:	e51b3010 	ldr	r3, [fp, #-16]
    9cfc:	e5932000 	ldr	r2, [r3]
    9d00:	e51b300c 	ldr	r3, [fp, #-12]
    9d04:	e583200c 	str	r2, [r3, #12]
/home/silhavyj/School/ZeroMate/examples/13-context_switch_monitor/kernel/src/process/process_manager.cpp:50
    task->sched_static_priority = 5; // TODO: pro ted je to jen hardcoded hodnota, do budoucna urcite bude nutne dovolit specifikovat
    9d08:	e51b300c 	ldr	r3, [fp, #-12]
    9d0c:	e3a02005 	mov	r2, #5
    9d10:	e5832018 	str	r2, [r3, #24]
/home/silhavyj/School/ZeroMate/examples/13-context_switch_monitor/kernel/src/process/process_manager.cpp:51
    task->sched_counter = task->sched_static_priority;
    9d14:	e51b300c 	ldr	r3, [fp, #-12]
    9d18:	e5932018 	ldr	r2, [r3, #24]
    9d1c:	e51b300c 	ldr	r3, [fp, #-12]
    9d20:	e5832014 	str	r2, [r3, #20]
/home/silhavyj/School/ZeroMate/examples/13-context_switch_monitor/kernel/src/process/process_manager.cpp:52
    task->state = NTask_State::Running;
    9d24:	e51b300c 	ldr	r3, [fp, #-12]
    9d28:	e3a02002 	mov	r2, #2
    9d2c:	e5832010 	str	r2, [r3, #16]
/home/silhavyj/School/ZeroMate/examples/13-context_switch_monitor/kernel/src/process/process_manager.cpp:54

    mCurrent_Task_Node = mProcess_List_Head;
    9d30:	e51b3010 	ldr	r3, [fp, #-16]
    9d34:	e5932004 	ldr	r2, [r3, #4]
    9d38:	e51b3010 	ldr	r3, [fp, #-16]
    9d3c:	e5832008 	str	r2, [r3, #8]
/home/silhavyj/School/ZeroMate/examples/13-context_switch_monitor/kernel/src/process/process_manager.cpp:55
}
    9d40:	e320f000 	nop	{0}
    9d44:	e24bd004 	sub	sp, fp, #4
    9d48:	e8bd8800 	pop	{fp, pc}
    9d4c:	0000ab50 	andeq	sl, r0, r0, asr fp

00009d50 <_ZN16CProcess_Manager14Create_ProcessEm>:
_ZN16CProcess_Manager14Create_ProcessEm():
/home/silhavyj/School/ZeroMate/examples/13-context_switch_monitor/kernel/src/process/process_manager.cpp:58

uint32_t CProcess_Manager::Create_Process(unsigned long funcptr)
{
    9d50:	e92d4800 	push	{fp, lr}
    9d54:	e28db004 	add	fp, sp, #4
    9d58:	e24dd010 	sub	sp, sp, #16
    9d5c:	e50b0010 	str	r0, [fp, #-16]
    9d60:	e50b1014 	str	r1, [fp, #-20]	; 0xffffffec
/home/silhavyj/School/ZeroMate/examples/13-context_switch_monitor/kernel/src/process/process_manager.cpp:59
    CProcess_List_Node* procnode = sKernelMem.Alloc<CProcess_List_Node>();
    9d64:	e59f0188 	ldr	r0, [pc, #392]	; 9ef4 <_ZN16CProcess_Manager14Create_ProcessEm+0x1a4>
    9d68:	eb00011e 	bl	a1e8 <_ZN20CKernel_Heap_Manager5AllocI18CProcess_List_NodeEEPT_v>
    9d6c:	e1a03000 	mov	r3, r0
    9d70:	e50b3008 	str	r3, [fp, #-8]
/home/silhavyj/School/ZeroMate/examples/13-context_switch_monitor/kernel/src/process/process_manager.cpp:61

    procnode->next = mProcess_List_Head;
    9d74:	e51b3010 	ldr	r3, [fp, #-16]
    9d78:	e5932004 	ldr	r2, [r3, #4]
    9d7c:	e51b3008 	ldr	r3, [fp, #-8]
    9d80:	e5832004 	str	r2, [r3, #4]
/home/silhavyj/School/ZeroMate/examples/13-context_switch_monitor/kernel/src/process/process_manager.cpp:62
    procnode->prev = nullptr;
    9d84:	e51b3008 	ldr	r3, [fp, #-8]
    9d88:	e3a02000 	mov	r2, #0
    9d8c:	e5832000 	str	r2, [r3]
/home/silhavyj/School/ZeroMate/examples/13-context_switch_monitor/kernel/src/process/process_manager.cpp:63
    mProcess_List_Head->prev = procnode;
    9d90:	e51b3010 	ldr	r3, [fp, #-16]
    9d94:	e5933004 	ldr	r3, [r3, #4]
    9d98:	e51b2008 	ldr	r2, [fp, #-8]
    9d9c:	e5832000 	str	r2, [r3]
/home/silhavyj/School/ZeroMate/examples/13-context_switch_monitor/kernel/src/process/process_manager.cpp:64
    mProcess_List_Head = procnode;
    9da0:	e51b3010 	ldr	r3, [fp, #-16]
    9da4:	e51b2008 	ldr	r2, [fp, #-8]
    9da8:	e5832004 	str	r2, [r3, #4]
/home/silhavyj/School/ZeroMate/examples/13-context_switch_monitor/kernel/src/process/process_manager.cpp:66

    if (mCurrent_Task_Node == nullptr)
    9dac:	e51b3010 	ldr	r3, [fp, #-16]
    9db0:	e5933008 	ldr	r3, [r3, #8]
    9db4:	e3530000 	cmp	r3, #0
    9db8:	1a000002 	bne	9dc8 <_ZN16CProcess_Manager14Create_ProcessEm+0x78>
/home/silhavyj/School/ZeroMate/examples/13-context_switch_monitor/kernel/src/process/process_manager.cpp:68
    {
        mCurrent_Task_Node = procnode;
    9dbc:	e51b3010 	ldr	r3, [fp, #-16]
    9dc0:	e51b2008 	ldr	r2, [fp, #-8]
    9dc4:	e5832008 	str	r2, [r3, #8]
/home/silhavyj/School/ZeroMate/examples/13-context_switch_monitor/kernel/src/process/process_manager.cpp:71
    }

    procnode->task = sKernelMem.Alloc<TTask_Struct>();
    9dc8:	e59f0124 	ldr	r0, [pc, #292]	; 9ef4 <_ZN16CProcess_Manager14Create_ProcessEm+0x1a4>
    9dcc:	eb000110 	bl	a214 <_ZN20CKernel_Heap_Manager5AllocI12TTask_StructEEPT_v>
    9dd0:	e1a02000 	mov	r2, r0
    9dd4:	e51b3008 	ldr	r3, [fp, #-8]
    9dd8:	e5832008 	str	r2, [r3, #8]
/home/silhavyj/School/ZeroMate/examples/13-context_switch_monitor/kernel/src/process/process_manager.cpp:73

    auto* task = procnode->task;
    9ddc:	e51b3008 	ldr	r3, [fp, #-8]
    9de0:	e5933008 	ldr	r3, [r3, #8]
    9de4:	e50b300c 	str	r3, [fp, #-12]
/home/silhavyj/School/ZeroMate/examples/13-context_switch_monitor/kernel/src/process/process_manager.cpp:75

    task->pid = ++mLast_PID;
    9de8:	e51b3010 	ldr	r3, [fp, #-16]
    9dec:	e5933000 	ldr	r3, [r3]
    9df0:	e2832001 	add	r2, r3, #1
    9df4:	e51b3010 	ldr	r3, [fp, #-16]
    9df8:	e5832000 	str	r2, [r3]
    9dfc:	e51b3010 	ldr	r3, [fp, #-16]
    9e00:	e5932000 	ldr	r2, [r3]
    9e04:	e51b300c 	ldr	r3, [fp, #-12]
    9e08:	e583200c 	str	r2, [r3, #12]
/home/silhavyj/School/ZeroMate/examples/13-context_switch_monitor/kernel/src/process/process_manager.cpp:76
    task->sched_static_priority = 5; // TODO: pro ted je to jen hardcoded hodnota, do budoucna urcite bude nutne dovolit specifikovat
    9e0c:	e51b300c 	ldr	r3, [fp, #-12]
    9e10:	e3a02005 	mov	r2, #5
    9e14:	e5832018 	str	r2, [r3, #24]
/home/silhavyj/School/ZeroMate/examples/13-context_switch_monitor/kernel/src/process/process_manager.cpp:77
    task->sched_counter = task->sched_static_priority;
    9e18:	e51b300c 	ldr	r3, [fp, #-12]
    9e1c:	e5932018 	ldr	r2, [r3, #24]
    9e20:	e51b300c 	ldr	r3, [fp, #-12]
    9e24:	e5832014 	str	r2, [r3, #20]
/home/silhavyj/School/ZeroMate/examples/13-context_switch_monitor/kernel/src/process/process_manager.cpp:78
    task->state = NTask_State::New;
    9e28:	e51b300c 	ldr	r3, [fp, #-12]
    9e2c:	e3a02000 	mov	r2, #0
    9e30:	e5832010 	str	r2, [r3, #16]
/home/silhavyj/School/ZeroMate/examples/13-context_switch_monitor/kernel/src/process/process_manager.cpp:80

    task->cpu_context.lr = funcptr;
    9e34:	e51b300c 	ldr	r3, [fp, #-12]
    9e38:	e51b2014 	ldr	r2, [fp, #-20]	; 0xffffffec
    9e3c:	e5832000 	str	r2, [r3]
/home/silhavyj/School/ZeroMate/examples/13-context_switch_monitor/kernel/src/process/process_manager.cpp:81
    task->cpu_context.pc = reinterpret_cast<unsigned long>(&process_bootstrap);
    9e40:	e59f20b0 	ldr	r2, [pc, #176]	; 9ef8 <_ZN16CProcess_Manager14Create_ProcessEm+0x1a8>
    9e44:	e51b300c 	ldr	r3, [fp, #-12]
    9e48:	e5832008 	str	r2, [r3, #8]
/home/silhavyj/School/ZeroMate/examples/13-context_switch_monitor/kernel/src/process/process_manager.cpp:82
    task->cpu_context.sp = static_cast<unsigned long>(sPage_Manager.Alloc_Page()) + mem::PageSize;
    9e4c:	e59f00a8 	ldr	r0, [pc, #168]	; 9efc <_ZN16CProcess_Manager14Create_ProcessEm+0x1ac>
    9e50:	ebfffefc 	bl	9a48 <_ZN13CPage_Manager10Alloc_PageEv>
    9e54:	e1a03000 	mov	r3, r0
    9e58:	e2832901 	add	r2, r3, #16384	; 0x4000
    9e5c:	e51b300c 	ldr	r3, [fp, #-12]
    9e60:	e5832004 	str	r2, [r3, #4]
/home/silhavyj/School/ZeroMate/examples/13-context_switch_monitor/kernel/src/process/process_manager.cpp:84

    sMonitor << "Created process with pid " << (unsigned int)task->pid << " ("
    9e64:	e59f1094 	ldr	r1, [pc, #148]	; 9f00 <_ZN16CProcess_Manager14Create_ProcessEm+0x1b0>
    9e68:	e59f0094 	ldr	r0, [pc, #148]	; 9f04 <_ZN16CProcess_Manager14Create_ProcessEm+0x1b4>
    9e6c:	ebffface 	bl	89ac <_ZN8CMonitorlsEPKc>
    9e70:	e1a02000 	mov	r2, r0
    9e74:	e51b300c 	ldr	r3, [fp, #-12]
    9e78:	e593300c 	ldr	r3, [r3, #12]
    9e7c:	e1a01003 	mov	r1, r3
    9e80:	e1a00002 	mov	r0, r2
    9e84:	ebfffaf3 	bl	8a58 <_ZN8CMonitorlsEj>
    9e88:	e1a03000 	mov	r3, r0
    9e8c:	e59f1074 	ldr	r1, [pc, #116]	; 9f08 <_ZN16CProcess_Manager14Create_ProcessEm+0x1b8>
    9e90:	e1a00003 	mov	r0, r3
    9e94:	ebfffac4 	bl	89ac <_ZN8CMonitorlsEPKc>
    9e98:	e1a03000 	mov	r3, r0
/home/silhavyj/School/ZeroMate/examples/13-context_switch_monitor/kernel/src/process/process_manager.cpp:85
             << "SP = 0x" << CMonitor::NNumber_Base::HEX << (unsigned int)task->cpu_context.sp << ")\n";
    9e9c:	e59f1068 	ldr	r1, [pc, #104]	; 9f0c <_ZN16CProcess_Manager14Create_ProcessEm+0x1bc>
    9ea0:	e1a00003 	mov	r0, r3
    9ea4:	ebfffac0 	bl	89ac <_ZN8CMonitorlsEPKc>
    9ea8:	e1a03000 	mov	r3, r0
    9eac:	e3a01010 	mov	r1, #16
    9eb0:	e1a00003 	mov	r0, r3
    9eb4:	ebfffada 	bl	8a24 <_ZN8CMonitorlsENS_12NNumber_BaseE>
    9eb8:	e1a02000 	mov	r2, r0
    9ebc:	e51b300c 	ldr	r3, [fp, #-12]
    9ec0:	e5933004 	ldr	r3, [r3, #4]
    9ec4:	e1a01003 	mov	r1, r3
    9ec8:	e1a00002 	mov	r0, r2
    9ecc:	ebfffae1 	bl	8a58 <_ZN8CMonitorlsEj>
    9ed0:	e1a03000 	mov	r3, r0
    9ed4:	e59f1034 	ldr	r1, [pc, #52]	; 9f10 <_ZN16CProcess_Manager14Create_ProcessEm+0x1c0>
    9ed8:	e1a00003 	mov	r0, r3
    9edc:	ebfffab2 	bl	89ac <_ZN8CMonitorlsEPKc>
/home/silhavyj/School/ZeroMate/examples/13-context_switch_monitor/kernel/src/process/process_manager.cpp:87

    return task->pid;
    9ee0:	e51b300c 	ldr	r3, [fp, #-12]
    9ee4:	e593300c 	ldr	r3, [r3, #12]
/home/silhavyj/School/ZeroMate/examples/13-context_switch_monitor/kernel/src/process/process_manager.cpp:88
}
    9ee8:	e1a00003 	mov	r0, r3
    9eec:	e24bd004 	sub	sp, fp, #4
    9ef0:	e8bd8800 	pop	{fp, pc}
    9ef4:	0000ab50 	andeq	sl, r0, r0, asr fp
    9ef8:	0000a240 	andeq	sl, r0, r0, asr #4
    9efc:	0000ab54 	andeq	sl, r0, r4, asr fp
    9f00:	0000aa88 	andeq	sl, r0, r8, lsl #21
    9f04:	0000ab18 	andeq	sl, r0, r8, lsl fp
    9f08:	0000aaa4 	andeq	sl, r0, r4, lsr #21
    9f0c:	0000aaa8 	andeq	sl, r0, r8, lsr #21
    9f10:	0000aab0 			; <UNDEFINED> instruction: 0x0000aab0

00009f14 <_ZN16CProcess_Manager8ScheduleEv>:
_ZN16CProcess_Manager8ScheduleEv():
/home/silhavyj/School/ZeroMate/examples/13-context_switch_monitor/kernel/src/process/process_manager.cpp:91

void CProcess_Manager::Schedule()
{
    9f14:	e92d4800 	push	{fp, lr}
    9f18:	e28db004 	add	fp, sp, #4
    9f1c:	e24dd010 	sub	sp, sp, #16
    9f20:	e50b0010 	str	r0, [fp, #-16]
/home/silhavyj/School/ZeroMate/examples/13-context_switch_monitor/kernel/src/process/process_manager.cpp:93
    // je nejaky proces naplanovany?
    if (mCurrent_Task_Node)
    9f24:	e51b3010 	ldr	r3, [fp, #-16]
    9f28:	e5933008 	ldr	r3, [r3, #8]
    9f2c:	e3530000 	cmp	r3, #0
    9f30:	0a000011 	beq	9f7c <_ZN16CProcess_Manager8ScheduleEv+0x68>
/home/silhavyj/School/ZeroMate/examples/13-context_switch_monitor/kernel/src/process/process_manager.cpp:96
    {
        // snizime citac planovace
        mCurrent_Task_Node->task->sched_counter--;
    9f34:	e51b3010 	ldr	r3, [fp, #-16]
    9f38:	e5933008 	ldr	r3, [r3, #8]
    9f3c:	e5933008 	ldr	r3, [r3, #8]
    9f40:	e5932014 	ldr	r2, [r3, #20]
    9f44:	e2422001 	sub	r2, r2, #1
    9f48:	e5832014 	str	r2, [r3, #20]
/home/silhavyj/School/ZeroMate/examples/13-context_switch_monitor/kernel/src/process/process_manager.cpp:98
        // pokud je citac vetsi nez 0, zatim nebudeme preplanovavat (a zaroven je proces stale ve stavu Running - nezablokoval se nad necim)
        if (mCurrent_Task_Node->task->sched_counter > 0 && mCurrent_Task_Node->task->state == NTask_State::Running)
    9f4c:	e51b3010 	ldr	r3, [fp, #-16]
    9f50:	e5933008 	ldr	r3, [r3, #8]
    9f54:	e5933008 	ldr	r3, [r3, #8]
    9f58:	e5933014 	ldr	r3, [r3, #20]
    9f5c:	e3530000 	cmp	r3, #0
    9f60:	0a000005 	beq	9f7c <_ZN16CProcess_Manager8ScheduleEv+0x68>
/home/silhavyj/School/ZeroMate/examples/13-context_switch_monitor/kernel/src/process/process_manager.cpp:98 (discriminator 1)
    9f64:	e51b3010 	ldr	r3, [fp, #-16]
    9f68:	e5933008 	ldr	r3, [r3, #8]
    9f6c:	e5933008 	ldr	r3, [r3, #8]
    9f70:	e5933010 	ldr	r3, [r3, #16]
    9f74:	e3530002 	cmp	r3, #2
    9f78:	0a00003c 	beq	a070 <_ZN16CProcess_Manager8ScheduleEv+0x15c>
/home/silhavyj/School/ZeroMate/examples/13-context_switch_monitor/kernel/src/process/process_manager.cpp:105
    }

    // najdeme dalsi proces na planovani

    // vybereme dalsi proces v rade
    CProcess_List_Node* next = mCurrent_Task_Node ? mCurrent_Task_Node->next : mProcess_List_Head;
    9f7c:	e51b3010 	ldr	r3, [fp, #-16]
    9f80:	e5933008 	ldr	r3, [r3, #8]
    9f84:	e3530000 	cmp	r3, #0
    9f88:	0a000003 	beq	9f9c <_ZN16CProcess_Manager8ScheduleEv+0x88>
/home/silhavyj/School/ZeroMate/examples/13-context_switch_monitor/kernel/src/process/process_manager.cpp:105 (discriminator 1)
    9f8c:	e51b3010 	ldr	r3, [fp, #-16]
    9f90:	e5933008 	ldr	r3, [r3, #8]
    9f94:	e5933004 	ldr	r3, [r3, #4]
    9f98:	ea000001 	b	9fa4 <_ZN16CProcess_Manager8ScheduleEv+0x90>
/home/silhavyj/School/ZeroMate/examples/13-context_switch_monitor/kernel/src/process/process_manager.cpp:105 (discriminator 2)
    9f9c:	e51b3010 	ldr	r3, [fp, #-16]
    9fa0:	e5933004 	ldr	r3, [r3, #4]
/home/silhavyj/School/ZeroMate/examples/13-context_switch_monitor/kernel/src/process/process_manager.cpp:105 (discriminator 4)
    9fa4:	e50b3008 	str	r3, [fp, #-8]
/home/silhavyj/School/ZeroMate/examples/13-context_switch_monitor/kernel/src/process/process_manager.cpp:106 (discriminator 4)
    if (!next)
    9fa8:	e51b3008 	ldr	r3, [fp, #-8]
    9fac:	e3530000 	cmp	r3, #0
    9fb0:	1a000002 	bne	9fc0 <_ZN16CProcess_Manager8ScheduleEv+0xac>
/home/silhavyj/School/ZeroMate/examples/13-context_switch_monitor/kernel/src/process/process_manager.cpp:107
        next = mProcess_List_Head;
    9fb4:	e51b3010 	ldr	r3, [fp, #-16]
    9fb8:	e5933004 	ldr	r3, [r3, #4]
    9fbc:	e50b3008 	str	r3, [fp, #-8]
/home/silhavyj/School/ZeroMate/examples/13-context_switch_monitor/kernel/src/process/process_manager.cpp:111

    // proces k naplanovani musi bud byt ve stavu runnable (jiz nekdy bezel a muze bezet znovu) nebo running (pak jde o stavajici proces)
    // a nebo new (novy proces, ktery jeste nebyl planovany)
    while (next->task->state != NTask_State::Runnable && next->task->state != NTask_State::Running && next->task->state != NTask_State::New)
    9fc0:	e51b3008 	ldr	r3, [fp, #-8]
    9fc4:	e5933008 	ldr	r3, [r3, #8]
    9fc8:	e5933010 	ldr	r3, [r3, #16]
    9fcc:	e3530001 	cmp	r3, #1
    9fd0:	0a000014 	beq	a028 <_ZN16CProcess_Manager8ScheduleEv+0x114>
/home/silhavyj/School/ZeroMate/examples/13-context_switch_monitor/kernel/src/process/process_manager.cpp:111 (discriminator 1)
    9fd4:	e51b3008 	ldr	r3, [fp, #-8]
    9fd8:	e5933008 	ldr	r3, [r3, #8]
    9fdc:	e5933010 	ldr	r3, [r3, #16]
    9fe0:	e3530002 	cmp	r3, #2
    9fe4:	0a00000f 	beq	a028 <_ZN16CProcess_Manager8ScheduleEv+0x114>
/home/silhavyj/School/ZeroMate/examples/13-context_switch_monitor/kernel/src/process/process_manager.cpp:111 (discriminator 2)
    9fe8:	e51b3008 	ldr	r3, [fp, #-8]
    9fec:	e5933008 	ldr	r3, [r3, #8]
    9ff0:	e5933010 	ldr	r3, [r3, #16]
    9ff4:	e3530000 	cmp	r3, #0
    9ff8:	0a00000a 	beq	a028 <_ZN16CProcess_Manager8ScheduleEv+0x114>
/home/silhavyj/School/ZeroMate/examples/13-context_switch_monitor/kernel/src/process/process_manager.cpp:113
    {
        if (!next)
    9ffc:	e51b3008 	ldr	r3, [fp, #-8]
    a000:	e3530000 	cmp	r3, #0
    a004:	1a000003 	bne	a018 <_ZN16CProcess_Manager8ScheduleEv+0x104>
/home/silhavyj/School/ZeroMate/examples/13-context_switch_monitor/kernel/src/process/process_manager.cpp:115
        {
            next = mCurrent_Task_Node;
    a008:	e51b3010 	ldr	r3, [fp, #-16]
    a00c:	e5933008 	ldr	r3, [r3, #8]
    a010:	e50b3008 	str	r3, [fp, #-8]
/home/silhavyj/School/ZeroMate/examples/13-context_switch_monitor/kernel/src/process/process_manager.cpp:116
            break;
    a014:	ea000003 	b	a028 <_ZN16CProcess_Manager8ScheduleEv+0x114>
/home/silhavyj/School/ZeroMate/examples/13-context_switch_monitor/kernel/src/process/process_manager.cpp:119
        }
        else
            next = next->next;
    a018:	e51b3008 	ldr	r3, [fp, #-8]
    a01c:	e5933004 	ldr	r3, [r3, #4]
    a020:	e50b3008 	str	r3, [fp, #-8]
/home/silhavyj/School/ZeroMate/examples/13-context_switch_monitor/kernel/src/process/process_manager.cpp:111
    while (next->task->state != NTask_State::Runnable && next->task->state != NTask_State::Running && next->task->state != NTask_State::New)
    a024:	eaffffe5 	b	9fc0 <_ZN16CProcess_Manager8ScheduleEv+0xac>
/home/silhavyj/School/ZeroMate/examples/13-context_switch_monitor/kernel/src/process/process_manager.cpp:123
    }

    // stavajici proces je jediny planovatelny - nemusime nic preplanovavat
    if (next == mCurrent_Task_Node)
    a028:	e51b3010 	ldr	r3, [fp, #-16]
    a02c:	e5933008 	ldr	r3, [r3, #8]
    a030:	e51b2008 	ldr	r2, [fp, #-8]
    a034:	e1520003 	cmp	r2, r3
    a038:	1a000008 	bne	a060 <_ZN16CProcess_Manager8ScheduleEv+0x14c>
/home/silhavyj/School/ZeroMate/examples/13-context_switch_monitor/kernel/src/process/process_manager.cpp:126
    {
        // nastavime mu zase zpatky jeho pridel casovych kvant a vracime se
        mCurrent_Task_Node->task->sched_counter = mCurrent_Task_Node->task->sched_static_priority;
    a03c:	e51b3010 	ldr	r3, [fp, #-16]
    a040:	e5933008 	ldr	r3, [r3, #8]
    a044:	e5932008 	ldr	r2, [r3, #8]
    a048:	e51b3010 	ldr	r3, [fp, #-16]
    a04c:	e5933008 	ldr	r3, [r3, #8]
    a050:	e5933008 	ldr	r3, [r3, #8]
    a054:	e5922018 	ldr	r2, [r2, #24]
    a058:	e5832014 	str	r2, [r3, #20]
/home/silhavyj/School/ZeroMate/examples/13-context_switch_monitor/kernel/src/process/process_manager.cpp:127
        return;
    a05c:	ea000004 	b	a074 <_ZN16CProcess_Manager8ScheduleEv+0x160>
/home/silhavyj/School/ZeroMate/examples/13-context_switch_monitor/kernel/src/process/process_manager.cpp:131
    }

    // sMonitor << "Next = " << mCurrent_Task_Node->task->pid << '\n';
    Switch_To(next);
    a060:	e51b1008 	ldr	r1, [fp, #-8]
    a064:	e51b0010 	ldr	r0, [fp, #-16]
    a068:	eb000003 	bl	a07c <_ZN16CProcess_Manager9Switch_ToEP18CProcess_List_Node>
    a06c:	ea000000 	b	a074 <_ZN16CProcess_Manager8ScheduleEv+0x160>
/home/silhavyj/School/ZeroMate/examples/13-context_switch_monitor/kernel/src/process/process_manager.cpp:99
            return;
    a070:	e320f000 	nop	{0}
/home/silhavyj/School/ZeroMate/examples/13-context_switch_monitor/kernel/src/process/process_manager.cpp:132
}
    a074:	e24bd004 	sub	sp, fp, #4
    a078:	e8bd8800 	pop	{fp, pc}

0000a07c <_ZN16CProcess_Manager9Switch_ToEP18CProcess_List_Node>:
_ZN16CProcess_Manager9Switch_ToEP18CProcess_List_Node():
/home/silhavyj/School/ZeroMate/examples/13-context_switch_monitor/kernel/src/process/process_manager.cpp:135

void CProcess_Manager::Switch_To(CProcess_List_Node* node)
{
    a07c:	e92d4800 	push	{fp, lr}
    a080:	e28db004 	add	fp, sp, #4
    a084:	e24dd010 	sub	sp, sp, #16
    a088:	e50b0010 	str	r0, [fp, #-16]
    a08c:	e50b1014 	str	r1, [fp, #-20]	; 0xffffffec
/home/silhavyj/School/ZeroMate/examples/13-context_switch_monitor/kernel/src/process/process_manager.cpp:138
    // pokud je stavajici proces ve stavu Running (muze teoreticky byt jeste Blocked), vratime ho do stavu Runnable
    // Blocked prehazovat nebudeme ze zjevnych duvodu
    if (mCurrent_Task_Node->task->state == NTask_State::Running)
    a090:	e51b3010 	ldr	r3, [fp, #-16]
    a094:	e5933008 	ldr	r3, [r3, #8]
    a098:	e5933008 	ldr	r3, [r3, #8]
    a09c:	e5933010 	ldr	r3, [r3, #16]
    a0a0:	e3530002 	cmp	r3, #2
    a0a4:	1a000004 	bne	a0bc <_ZN16CProcess_Manager9Switch_ToEP18CProcess_List_Node+0x40>
/home/silhavyj/School/ZeroMate/examples/13-context_switch_monitor/kernel/src/process/process_manager.cpp:139
        mCurrent_Task_Node->task->state = NTask_State::Runnable;
    a0a8:	e51b3010 	ldr	r3, [fp, #-16]
    a0ac:	e5933008 	ldr	r3, [r3, #8]
    a0b0:	e5933008 	ldr	r3, [r3, #8]
    a0b4:	e3a02001 	mov	r2, #1
    a0b8:	e5832010 	str	r2, [r3, #16]
/home/silhavyj/School/ZeroMate/examples/13-context_switch_monitor/kernel/src/process/process_manager.cpp:142

    // projistotu vynulujeme prideleny pocet casovych kvant
    mCurrent_Task_Node->task->sched_counter = 0;
    a0bc:	e51b3010 	ldr	r3, [fp, #-16]
    a0c0:	e5933008 	ldr	r3, [r3, #8]
    a0c4:	e5933008 	ldr	r3, [r3, #8]
    a0c8:	e3a02000 	mov	r2, #0
    a0cc:	e5832014 	str	r2, [r3, #20]
/home/silhavyj/School/ZeroMate/examples/13-context_switch_monitor/kernel/src/process/process_manager.cpp:144

    TCPU_Context* old = &mCurrent_Task_Node->task->cpu_context;
    a0d0:	e51b3010 	ldr	r3, [fp, #-16]
    a0d4:	e5933008 	ldr	r3, [r3, #8]
    a0d8:	e5933008 	ldr	r3, [r3, #8]
    a0dc:	e50b3008 	str	r3, [fp, #-8]
/home/silhavyj/School/ZeroMate/examples/13-context_switch_monitor/kernel/src/process/process_manager.cpp:145
    bool is_first_time = (node->task->state == NTask_State::New);
    a0e0:	e51b3014 	ldr	r3, [fp, #-20]	; 0xffffffec
    a0e4:	e5933008 	ldr	r3, [r3, #8]
    a0e8:	e5933010 	ldr	r3, [r3, #16]
    a0ec:	e3530000 	cmp	r3, #0
    a0f0:	03a03001 	moveq	r3, #1
    a0f4:	13a03000 	movne	r3, #0
    a0f8:	e54b3009 	strb	r3, [fp, #-9]
/home/silhavyj/School/ZeroMate/examples/13-context_switch_monitor/kernel/src/process/process_manager.cpp:148

    // prehodime na novy proces, pridelime casova kvanta a nastavime proces do stavu Running
    mCurrent_Task_Node = node;
    a0fc:	e51b3010 	ldr	r3, [fp, #-16]
    a100:	e51b2014 	ldr	r2, [fp, #-20]	; 0xffffffec
    a104:	e5832008 	str	r2, [r3, #8]
/home/silhavyj/School/ZeroMate/examples/13-context_switch_monitor/kernel/src/process/process_manager.cpp:149
    mCurrent_Task_Node->task->sched_counter = mCurrent_Task_Node->task->sched_static_priority;
    a108:	e51b3010 	ldr	r3, [fp, #-16]
    a10c:	e5933008 	ldr	r3, [r3, #8]
    a110:	e5932008 	ldr	r2, [r3, #8]
    a114:	e51b3010 	ldr	r3, [fp, #-16]
    a118:	e5933008 	ldr	r3, [r3, #8]
    a11c:	e5933008 	ldr	r3, [r3, #8]
    a120:	e5922018 	ldr	r2, [r2, #24]
    a124:	e5832014 	str	r2, [r3, #20]
/home/silhavyj/School/ZeroMate/examples/13-context_switch_monitor/kernel/src/process/process_manager.cpp:150
    mCurrent_Task_Node->task->state = NTask_State::Running;
    a128:	e51b3010 	ldr	r3, [fp, #-16]
    a12c:	e5933008 	ldr	r3, [r3, #8]
    a130:	e5933008 	ldr	r3, [r3, #8]
    a134:	e3a02002 	mov	r2, #2
    a138:	e5832010 	str	r2, [r3, #16]
/home/silhavyj/School/ZeroMate/examples/13-context_switch_monitor/kernel/src/process/process_manager.cpp:153

    // pokud je to poprve, co je proces planovany, musime to vzit jeste pres malou odbocku ("bootstrap")
    if (is_first_time)
    a13c:	e55b3009 	ldrb	r3, [fp, #-9]
    a140:	e3530000 	cmp	r3, #0
    a144:	0a000005 	beq	a160 <_ZN16CProcess_Manager9Switch_ToEP18CProcess_List_Node+0xe4>
/home/silhavyj/School/ZeroMate/examples/13-context_switch_monitor/kernel/src/process/process_manager.cpp:154
        context_switch_first(&node->task->cpu_context, old);
    a148:	e51b3014 	ldr	r3, [fp, #-20]	; 0xffffffec
    a14c:	e5933008 	ldr	r3, [r3, #8]
    a150:	e51b1008 	ldr	r1, [fp, #-8]
    a154:	e1a00003 	mov	r0, r3
    a158:	eb000043 	bl	a26c <context_switch_first>
/home/silhavyj/School/ZeroMate/examples/13-context_switch_monitor/kernel/src/process/process_manager.cpp:157
    else
        context_switch(&node->task->cpu_context, old);
}
    a15c:	ea000004 	b	a174 <_ZN16CProcess_Manager9Switch_ToEP18CProcess_List_Node+0xf8>
/home/silhavyj/School/ZeroMate/examples/13-context_switch_monitor/kernel/src/process/process_manager.cpp:156
        context_switch(&node->task->cpu_context, old);
    a160:	e51b3014 	ldr	r3, [fp, #-20]	; 0xffffffec
    a164:	e5933008 	ldr	r3, [r3, #8]
    a168:	e51b1008 	ldr	r1, [fp, #-8]
    a16c:	e1a00003 	mov	r0, r3
    a170:	eb000034 	bl	a248 <context_switch>
/home/silhavyj/School/ZeroMate/examples/13-context_switch_monitor/kernel/src/process/process_manager.cpp:157
}
    a174:	e320f000 	nop	{0}
    a178:	e24bd004 	sub	sp, fp, #4
    a17c:	e8bd8800 	pop	{fp, pc}

0000a180 <_Z41__static_initialization_and_destruction_0ii>:
_Z41__static_initialization_and_destruction_0ii():
/home/silhavyj/School/ZeroMate/examples/13-context_switch_monitor/kernel/src/process/process_manager.cpp:157
    a180:	e92d4800 	push	{fp, lr}
    a184:	e28db004 	add	fp, sp, #4
    a188:	e24dd008 	sub	sp, sp, #8
    a18c:	e50b0008 	str	r0, [fp, #-8]
    a190:	e50b100c 	str	r1, [fp, #-12]
    a194:	e51b3008 	ldr	r3, [fp, #-8]
    a198:	e3530001 	cmp	r3, #1
    a19c:	1a000005 	bne	a1b8 <_Z41__static_initialization_and_destruction_0ii+0x38>
/home/silhavyj/School/ZeroMate/examples/13-context_switch_monitor/kernel/src/process/process_manager.cpp:157 (discriminator 1)
    a1a0:	e51b300c 	ldr	r3, [fp, #-12]
    a1a4:	e59f2018 	ldr	r2, [pc, #24]	; a1c4 <_Z41__static_initialization_and_destruction_0ii+0x44>
    a1a8:	e1530002 	cmp	r3, r2
    a1ac:	1a000001 	bne	a1b8 <_Z41__static_initialization_and_destruction_0ii+0x38>
/home/silhavyj/School/ZeroMate/examples/13-context_switch_monitor/kernel/src/process/process_manager.cpp:15
CProcess_Manager sProcessMgr;
    a1b0:	e59f0010 	ldr	r0, [pc, #16]	; a1c8 <_Z41__static_initialization_and_destruction_0ii+0x48>
    a1b4:	ebfffe84 	bl	9bcc <_ZN16CProcess_ManagerC1Ev>
/home/silhavyj/School/ZeroMate/examples/13-context_switch_monitor/kernel/src/process/process_manager.cpp:157
}
    a1b8:	e320f000 	nop	{0}
    a1bc:	e24bd004 	sub	sp, fp, #4
    a1c0:	e8bd8800 	pop	{fp, pc}
    a1c4:	0000ffff 	strdeq	pc, [r0], -pc	; <UNPREDICTABLE>
    a1c8:	0000bb54 	andeq	fp, r0, r4, asr fp

0000a1cc <_GLOBAL__sub_I_sProcessMgr>:
_GLOBAL__sub_I_sProcessMgr():
/home/silhavyj/School/ZeroMate/examples/13-context_switch_monitor/kernel/src/process/process_manager.cpp:157
    a1cc:	e92d4800 	push	{fp, lr}
    a1d0:	e28db004 	add	fp, sp, #4
    a1d4:	e59f1008 	ldr	r1, [pc, #8]	; a1e4 <_GLOBAL__sub_I_sProcessMgr+0x18>
    a1d8:	e3a00001 	mov	r0, #1
    a1dc:	ebffffe7 	bl	a180 <_Z41__static_initialization_and_destruction_0ii>
    a1e0:	e8bd8800 	pop	{fp, pc}
    a1e4:	0000ffff 	strdeq	pc, [r0], -pc	; <UNPREDICTABLE>

0000a1e8 <_ZN20CKernel_Heap_Manager5AllocI18CProcess_List_NodeEEPT_v>:
_ZN20CKernel_Heap_Manager5AllocI18CProcess_List_NodeEEPT_v():
/home/silhavyj/School/ZeroMate/examples/13-context_switch_monitor/kernel/include/memory/kernel_heap.h:30

    void* Alloc(uint32_t size);
    void Free(void* mem);

    template<class T>
    T* Alloc()
    a1e8:	e92d4800 	push	{fp, lr}
    a1ec:	e28db004 	add	fp, sp, #4
    a1f0:	e24dd008 	sub	sp, sp, #8
    a1f4:	e50b0008 	str	r0, [fp, #-8]
/home/silhavyj/School/ZeroMate/examples/13-context_switch_monitor/kernel/include/memory/kernel_heap.h:32
    {
        return reinterpret_cast<T*>(Alloc(sizeof(T)));
    a1f8:	e3a0100c 	mov	r1, #12
    a1fc:	e51b0008 	ldr	r0, [fp, #-8]
    a200:	ebfffd14 	bl	9658 <_ZN20CKernel_Heap_Manager5AllocEj>
    a204:	e1a03000 	mov	r3, r0
/home/silhavyj/School/ZeroMate/examples/13-context_switch_monitor/kernel/include/memory/kernel_heap.h:33
    }
    a208:	e1a00003 	mov	r0, r3
    a20c:	e24bd004 	sub	sp, fp, #4
    a210:	e8bd8800 	pop	{fp, pc}

0000a214 <_ZN20CKernel_Heap_Manager5AllocI12TTask_StructEEPT_v>:
_ZN20CKernel_Heap_Manager5AllocI12TTask_StructEEPT_v():
/home/silhavyj/School/ZeroMate/examples/13-context_switch_monitor/kernel/include/memory/kernel_heap.h:30
    T* Alloc()
    a214:	e92d4800 	push	{fp, lr}
    a218:	e28db004 	add	fp, sp, #4
    a21c:	e24dd008 	sub	sp, sp, #8
    a220:	e50b0008 	str	r0, [fp, #-8]
/home/silhavyj/School/ZeroMate/examples/13-context_switch_monitor/kernel/include/memory/kernel_heap.h:32
        return reinterpret_cast<T*>(Alloc(sizeof(T)));
    a224:	e3a0101c 	mov	r1, #28
    a228:	e51b0008 	ldr	r0, [fp, #-8]
    a22c:	ebfffd09 	bl	9658 <_ZN20CKernel_Heap_Manager5AllocEj>
    a230:	e1a03000 	mov	r3, r0
/home/silhavyj/School/ZeroMate/examples/13-context_switch_monitor/kernel/include/memory/kernel_heap.h:33
    }
    a234:	e1a00003 	mov	r0, r3
    a238:	e24bd004 	sub	sp, fp, #4
    a23c:	e8bd8800 	pop	{fp, pc}

0000a240 <process_bootstrap>:
process_bootstrap():
/home/silhavyj/School/ZeroMate/examples/13-context_switch_monitor/kernel/src/process/switch.s:5
.global process_bootstrap
;@ Process bootstrapping - kernelovy "obal" procesu
;@ Vyzaduje na zasobniku pushnutou hodnotu vstupniho bodu procesu
process_bootstrap:
    add lr, pc, #8      ;@ ulozime do lr hodnotu PC+8, abychom se korektne vratili na instrukci po nasledujici
    a240:	e28fe008 	add	lr, pc, #8
/home/silhavyj/School/ZeroMate/examples/13-context_switch_monitor/kernel/src/process/switch.s:6
    pop {pc}            ;@ vyzvedneme si ulozenou hodnotu cile
    a244:	e49df004 	pop	{pc}		; (ldr pc, [sp], #4)

0000a248 <context_switch>:
context_switch():
/home/silhavyj/School/ZeroMate/examples/13-context_switch_monitor/kernel/src/process/switch.s:14
.global context_switch
;@ Prepnuti procesu ze soucasneho na jiny, ktery jiz byl planovany
;@ r0 - novy proces
;@ r1 - stary proces
context_switch:
	mrs r12, cpsr           ;@ ulozit CPU state do r12
    a248:	e10fc000 	mrs	ip, CPSR
/home/silhavyj/School/ZeroMate/examples/13-context_switch_monitor/kernel/src/process/switch.s:15
	push {r14}              ;@ push LR
    a24c:	e52de004 	push	{lr}		; (str lr, [sp, #-4]!)
/home/silhavyj/School/ZeroMate/examples/13-context_switch_monitor/kernel/src/process/switch.s:16
	push {r0}               ;@ push SP
    a250:	e52d0004 	push	{r0}		; (str r0, [sp, #-4]!)
/home/silhavyj/School/ZeroMate/examples/13-context_switch_monitor/kernel/src/process/switch.s:17
	push {r0-r12}           ;@ push registru
    a254:	e92d1fff 	push	{r0, r1, r2, r3, r4, r5, r6, r7, r8, r9, sl, fp, ip}
/home/silhavyj/School/ZeroMate/examples/13-context_switch_monitor/kernel/src/process/switch.s:18
	str sp, [r1, #4]        ;@ ulozit SP stareho procesu
    a258:	e581d004 	str	sp, [r1, #4]
/home/silhavyj/School/ZeroMate/examples/13-context_switch_monitor/kernel/src/process/switch.s:20

	ldr sp, [r0, #4]        ;@ nacist SP noveho procesu
    a25c:	e590d004 	ldr	sp, [r0, #4]
/home/silhavyj/School/ZeroMate/examples/13-context_switch_monitor/kernel/src/process/switch.s:21
	pop {r0-r12}            ;@ obnovit registry noveho procesu
    a260:	e8bd1fff 	pop	{r0, r1, r2, r3, r4, r5, r6, r7, r8, r9, sl, fp, ip}
/home/silhavyj/School/ZeroMate/examples/13-context_switch_monitor/kernel/src/process/switch.s:22
	msr cpsr_c, r12         ;@ obnovit CPU state
    a264:	e121f00c 	msr	CPSR_c, ip
/home/silhavyj/School/ZeroMate/examples/13-context_switch_monitor/kernel/src/process/switch.s:23
	pop {lr, pc}            ;@ navrat do kontextu provadeni noveho procesu
    a268:	e8bdc000 	pop	{lr, pc}

0000a26c <context_switch_first>:
context_switch_first():
/home/silhavyj/School/ZeroMate/examples/13-context_switch_monitor/kernel/src/process/switch.s:30
.global context_switch_first
;@ Prepnuti procesu ze soucasneho na jiny, ktery jeste nebyl planovany
;@ r0 - novy proces
;@ r1 - stary proces
context_switch_first:
	mrs r12, cpsr           ;@ ulozit CPU state do r12
    a26c:	e10fc000 	mrs	ip, CPSR
/home/silhavyj/School/ZeroMate/examples/13-context_switch_monitor/kernel/src/process/switch.s:31
	push {r14}              ;@ push LR
    a270:	e52de004 	push	{lr}		; (str lr, [sp, #-4]!)
/home/silhavyj/School/ZeroMate/examples/13-context_switch_monitor/kernel/src/process/switch.s:32
	push {r13}              ;@ push SP
    a274:	e92d2000 	stmfd	sp!, {sp}
/home/silhavyj/School/ZeroMate/examples/13-context_switch_monitor/kernel/src/process/switch.s:33
	push {r0-r12}           ;@ push registru
    a278:	e92d1fff 	push	{r0, r1, r2, r3, r4, r5, r6, r7, r8, r9, sl, fp, ip}
/home/silhavyj/School/ZeroMate/examples/13-context_switch_monitor/kernel/src/process/switch.s:34
	str sp, [r1, #4]        ;@ ulozit SP stareho procesu
    a27c:	e581d004 	str	sp, [r1, #4]
/home/silhavyj/School/ZeroMate/examples/13-context_switch_monitor/kernel/src/process/switch.s:36

    ldr r3, [r0, #0]        ;@ "budouci" PC do r3 (entry point procesu)
    a280:	e5903000 	ldr	r3, [r0]
/home/silhavyj/School/ZeroMate/examples/13-context_switch_monitor/kernel/src/process/switch.s:37
    ldr r2, [r0, #8]        ;@ "vstupni" PC do r2 (bootstrap procesu v kernelu)
    a284:	e5902008 	ldr	r2, [r0, #8]
/home/silhavyj/School/ZeroMate/examples/13-context_switch_monitor/kernel/src/process/switch.s:38
    ldr sp, [r0, #4]        ;@ nacteme stack pointer procesu
    a288:	e590d004 	ldr	sp, [r0, #4]
/home/silhavyj/School/ZeroMate/examples/13-context_switch_monitor/kernel/src/process/switch.s:39
    push {r3}               ;@ budouci navratova adresa -> do zasobniku, bootstrap si ji tamodsud vyzvedne
    a28c:	e52d3004 	push	{r3}		; (str r3, [sp, #-4]!)
/home/silhavyj/School/ZeroMate/examples/13-context_switch_monitor/kernel/src/process/switch.s:40
    push {r2}               ;@ pushneme si i bootstrap adresu, abychom ji mohli obnovit do PC
    a290:	e52d2004 	push	{r2}		; (str r2, [sp, #-4]!)
/home/silhavyj/School/ZeroMate/examples/13-context_switch_monitor/kernel/src/process/switch.s:41
    cpsie i                 ;@ povolime preruseni (v budoucich switchich uz bude flaga ulozena v cpsr/spsr)
    a294:	f1080080 	cpsie	i
/home/silhavyj/School/ZeroMate/examples/13-context_switch_monitor/kernel/src/process/switch.s:42
    pop {pc}                ;@ vybereme ze zasobniku novou hodnotu PC (PC procesu)
    a298:	e49df004 	pop	{pc}		; (ldr pc, [sp], #4)

0000a29c <enable_irq>:
enable_irq():
/home/silhavyj/School/ZeroMate/examples/13-context_switch_monitor/kernel/src/start.s:102
;@ tady budou ostatni symboly, ktere nevyzaduji zadne specialni misto
.section .text

.global enable_irq
enable_irq:
    mrs r0, cpsr		;@ presun ridiciho registru (CPSR) do general purpose registru (R0)
    a29c:	e10f0000 	mrs	r0, CPSR
/home/silhavyj/School/ZeroMate/examples/13-context_switch_monitor/kernel/src/start.s:103
    bic r0, r0, #0x80	;@ vypne bit 7 v registru r0 ("IRQ mask bit")
    a2a0:	e3c00080 	bic	r0, r0, #128	; 0x80
/home/silhavyj/School/ZeroMate/examples/13-context_switch_monitor/kernel/src/start.s:104
    msr cpsr_c, r0		;@ nacteme upraveny general purpose (R0) registr do ridiciho (CPSR)
    a2a4:	e121f000 	msr	CPSR_c, r0
/home/silhavyj/School/ZeroMate/examples/13-context_switch_monitor/kernel/src/start.s:105
    cpsie i				;@ povoli preruseni
    a2a8:	f1080080 	cpsie	i
/home/silhavyj/School/ZeroMate/examples/13-context_switch_monitor/kernel/src/start.s:106
    bx lr
    a2ac:	e12fff1e 	bx	lr

0000a2b0 <disable_irq>:
disable_irq():
/home/silhavyj/School/ZeroMate/examples/13-context_switch_monitor/kernel/src/start.s:110

.global disable_irq
disable_irq:
    cpsid i
    a2b0:	f10c0080 	cpsid	i
/home/silhavyj/School/ZeroMate/examples/13-context_switch_monitor/kernel/src/start.s:111
    bx lr
    a2b4:	e12fff1e 	bx	lr

0000a2b8 <undefined_instruction_handler>:
undefined_instruction_handler():
/home/silhavyj/School/ZeroMate/examples/13-context_switch_monitor/kernel/src/start.s:114

undefined_instruction_handler:
	b hang
    a2b8:	eafff77a 	b	80a8 <hang>

0000a2bc <irq_handler>:
irq_handler():
/home/silhavyj/School/ZeroMate/examples/13-context_switch_monitor/kernel/src/start.s:118

.global _internal_irq_handler
irq_handler:
	sub lr, lr, #4
    a2bc:	e24ee004 	sub	lr, lr, #4
/home/silhavyj/School/ZeroMate/examples/13-context_switch_monitor/kernel/src/start.s:119
	srsdb #CPSR_MODE_SYS!		;@ ekvivalent k push lr a msr+push spsr
    a2c0:	f96d051f 	srsdb	sp!, #31
/home/silhavyj/School/ZeroMate/examples/13-context_switch_monitor/kernel/src/start.s:120
	cpsid if, #CPSR_MODE_SYS	;@ prechod do SYS modu + zakazeme preruseni
    a2c4:	f10e00df 	cpsid	if,#31
/home/silhavyj/School/ZeroMate/examples/13-context_switch_monitor/kernel/src/start.s:121
	push {r0-r4, r12, lr}		;@ ulozime callee-saved registry
    a2c8:	e92d501f 	push	{r0, r1, r2, r3, r4, ip, lr}
/home/silhavyj/School/ZeroMate/examples/13-context_switch_monitor/kernel/src/start.s:123

	and r4, sp, #7
    a2cc:	e20d4007 	and	r4, sp, #7
/home/silhavyj/School/ZeroMate/examples/13-context_switch_monitor/kernel/src/start.s:124
	sub sp, sp, r4
    a2d0:	e04dd004 	sub	sp, sp, r4
/home/silhavyj/School/ZeroMate/examples/13-context_switch_monitor/kernel/src/start.s:126

	bl _internal_irq_handler	;@ zavolame handler IRQ
    a2d4:	ebfffb6d 	bl	9090 <_internal_irq_handler>
/home/silhavyj/School/ZeroMate/examples/13-context_switch_monitor/kernel/src/start.s:128

	add sp, sp, r4
    a2d8:	e08dd004 	add	sp, sp, r4
/home/silhavyj/School/ZeroMate/examples/13-context_switch_monitor/kernel/src/start.s:130

	pop {r0-r4, r12, lr}		;@ obnovime callee-saved registry
    a2dc:	e8bd501f 	pop	{r0, r1, r2, r3, r4, ip, lr}
/home/silhavyj/School/ZeroMate/examples/13-context_switch_monitor/kernel/src/start.s:131
	rfeia sp!					;@ vracime se do puvodniho stavu (ktery ulozila instrukce srsdb)
    a2e0:	f8bd0a00 	rfeia	sp!

0000a2e4 <prefetch_abort_handler>:
prefetch_abort_handler():
/home/silhavyj/School/ZeroMate/examples/13-context_switch_monitor/kernel/src/start.s:136

prefetch_abort_handler:
	;@ tady pak muzeme osetrit, kdyz program zasahne do mista, ktere nema mapovane ve svem virtualnim adr. prostoru
	;@ a treba vyvolat nasi obdobu segfaultu
	b hang
    a2e4:	eafff76f 	b	80a8 <hang>

0000a2e8 <data_abort_handler>:
data_abort_handler():
/home/silhavyj/School/ZeroMate/examples/13-context_switch_monitor/kernel/src/start.s:141

data_abort_handler:
	;@ tady pak muzeme osetrit, kdyz program zasahne do mista, ktere nema mapovane ve svem virtualnim adr. prostoru
	;@ a treba vyvolat nasi obdobu segfaultu
	b hang
    a2e8:	eafff76e 	b	80a8 <hang>

0000a2ec <_c_startup>:
_c_startup():
/home/silhavyj/School/ZeroMate/examples/13-context_switch_monitor/kernel/src/startup.cpp:21
extern "C" dtor_ptr __DTOR_LIST__[0];
// konec pole destruktoru
extern "C" dtor_ptr __DTOR_END__[0];

extern "C" int _c_startup(void)
{
    a2ec:	e52db004 	push	{fp}		; (str fp, [sp, #-4]!)
    a2f0:	e28db000 	add	fp, sp, #0
    a2f4:	e24dd00c 	sub	sp, sp, #12
/home/silhavyj/School/ZeroMate/examples/13-context_switch_monitor/kernel/src/startup.cpp:25
    int* i;

    // vynulujeme .bss sekci
    for (i = (int*)_bss_start; i < (int*)_bss_end; i++)
    a2f8:	e59f304c 	ldr	r3, [pc, #76]	; a34c <_c_startup+0x60>
    a2fc:	e5933000 	ldr	r3, [r3]
    a300:	e50b3008 	str	r3, [fp, #-8]
/home/silhavyj/School/ZeroMate/examples/13-context_switch_monitor/kernel/src/startup.cpp:25 (discriminator 3)
    a304:	e59f3044 	ldr	r3, [pc, #68]	; a350 <_c_startup+0x64>
    a308:	e5933000 	ldr	r3, [r3]
    a30c:	e1a02003 	mov	r2, r3
    a310:	e51b3008 	ldr	r3, [fp, #-8]
    a314:	e1530002 	cmp	r3, r2
    a318:	2a000006 	bcs	a338 <_c_startup+0x4c>
/home/silhavyj/School/ZeroMate/examples/13-context_switch_monitor/kernel/src/startup.cpp:26 (discriminator 2)
        *i = 0;
    a31c:	e51b3008 	ldr	r3, [fp, #-8]
    a320:	e3a02000 	mov	r2, #0
    a324:	e5832000 	str	r2, [r3]
/home/silhavyj/School/ZeroMate/examples/13-context_switch_monitor/kernel/src/startup.cpp:25 (discriminator 2)
    for (i = (int*)_bss_start; i < (int*)_bss_end; i++)
    a328:	e51b3008 	ldr	r3, [fp, #-8]
    a32c:	e2833004 	add	r3, r3, #4
    a330:	e50b3008 	str	r3, [fp, #-8]
    a334:	eafffff2 	b	a304 <_c_startup+0x18>
/home/silhavyj/School/ZeroMate/examples/13-context_switch_monitor/kernel/src/startup.cpp:28

    return 0;
    a338:	e3a03000 	mov	r3, #0
/home/silhavyj/School/ZeroMate/examples/13-context_switch_monitor/kernel/src/startup.cpp:29
}
    a33c:	e1a00003 	mov	r0, r3
    a340:	e28bd000 	add	sp, fp, #0
    a344:	e49db004 	pop	{fp}		; (ldr fp, [sp], #4)
    a348:	e12fff1e 	bx	lr
    a34c:	0000ab14 	andeq	sl, r0, r4, lsl fp
    a350:	0000bb70 	andeq	fp, r0, r0, ror fp

0000a354 <_cpp_startup>:
_cpp_startup():
/home/silhavyj/School/ZeroMate/examples/13-context_switch_monitor/kernel/src/startup.cpp:32

extern "C" int _cpp_startup(void)
{
    a354:	e92d4800 	push	{fp, lr}
    a358:	e28db004 	add	fp, sp, #4
    a35c:	e24dd008 	sub	sp, sp, #8
/home/silhavyj/School/ZeroMate/examples/13-context_switch_monitor/kernel/src/startup.cpp:37
    ctor_ptr* fnptr;

    // zavolame konstruktory globalnich C++ trid
    // v poli __CTOR_LIST__ jsou ukazatele na vygenerovane stuby volani konstruktoru
    for (fnptr = __CTOR_LIST__; fnptr < __CTOR_END__; fnptr++)
    a360:	e59f303c 	ldr	r3, [pc, #60]	; a3a4 <_cpp_startup+0x50>
    a364:	e50b3008 	str	r3, [fp, #-8]
/home/silhavyj/School/ZeroMate/examples/13-context_switch_monitor/kernel/src/startup.cpp:37 (discriminator 3)
    a368:	e51b3008 	ldr	r3, [fp, #-8]
    a36c:	e59f2034 	ldr	r2, [pc, #52]	; a3a8 <_cpp_startup+0x54>
    a370:	e1530002 	cmp	r3, r2
    a374:	2a000006 	bcs	a394 <_cpp_startup+0x40>
/home/silhavyj/School/ZeroMate/examples/13-context_switch_monitor/kernel/src/startup.cpp:38 (discriminator 2)
        (*fnptr)();
    a378:	e51b3008 	ldr	r3, [fp, #-8]
    a37c:	e5933000 	ldr	r3, [r3]
    a380:	e12fff33 	blx	r3
/home/silhavyj/School/ZeroMate/examples/13-context_switch_monitor/kernel/src/startup.cpp:37 (discriminator 2)
    for (fnptr = __CTOR_LIST__; fnptr < __CTOR_END__; fnptr++)
    a384:	e51b3008 	ldr	r3, [fp, #-8]
    a388:	e2833004 	add	r3, r3, #4
    a38c:	e50b3008 	str	r3, [fp, #-8]
    a390:	eafffff4 	b	a368 <_cpp_startup+0x14>
/home/silhavyj/School/ZeroMate/examples/13-context_switch_monitor/kernel/src/startup.cpp:40

    return 0;
    a394:	e3a03000 	mov	r3, #0
/home/silhavyj/School/ZeroMate/examples/13-context_switch_monitor/kernel/src/startup.cpp:41
}
    a398:	e1a00003 	mov	r0, r3
    a39c:	e24bd004 	sub	sp, fp, #4
    a3a0:	e8bd8800 	pop	{fp, pc}
    a3a4:	0000aaf8 	strdeq	sl, [r0], -r8
    a3a8:	0000ab14 	andeq	sl, r0, r4, lsl fp

0000a3ac <_cpp_shutdown>:
_cpp_shutdown():
/home/silhavyj/School/ZeroMate/examples/13-context_switch_monitor/kernel/src/startup.cpp:44

extern "C" int _cpp_shutdown(void)
{
    a3ac:	e92d4800 	push	{fp, lr}
    a3b0:	e28db004 	add	fp, sp, #4
    a3b4:	e24dd008 	sub	sp, sp, #8
/home/silhavyj/School/ZeroMate/examples/13-context_switch_monitor/kernel/src/startup.cpp:48
    dtor_ptr* fnptr;

    // zavolame destruktory globalnich C++ trid
    for (fnptr = __DTOR_LIST__; fnptr < __DTOR_END__; fnptr++)
    a3b8:	e59f303c 	ldr	r3, [pc, #60]	; a3fc <_cpp_shutdown+0x50>
    a3bc:	e50b3008 	str	r3, [fp, #-8]
/home/silhavyj/School/ZeroMate/examples/13-context_switch_monitor/kernel/src/startup.cpp:48 (discriminator 3)
    a3c0:	e51b3008 	ldr	r3, [fp, #-8]
    a3c4:	e59f2034 	ldr	r2, [pc, #52]	; a400 <_cpp_shutdown+0x54>
    a3c8:	e1530002 	cmp	r3, r2
    a3cc:	2a000006 	bcs	a3ec <_cpp_shutdown+0x40>
/home/silhavyj/School/ZeroMate/examples/13-context_switch_monitor/kernel/src/startup.cpp:49 (discriminator 2)
        (*fnptr)();
    a3d0:	e51b3008 	ldr	r3, [fp, #-8]
    a3d4:	e5933000 	ldr	r3, [r3]
    a3d8:	e12fff33 	blx	r3
/home/silhavyj/School/ZeroMate/examples/13-context_switch_monitor/kernel/src/startup.cpp:48 (discriminator 2)
    for (fnptr = __DTOR_LIST__; fnptr < __DTOR_END__; fnptr++)
    a3dc:	e51b3008 	ldr	r3, [fp, #-8]
    a3e0:	e2833004 	add	r3, r3, #4
    a3e4:	e50b3008 	str	r3, [fp, #-8]
    a3e8:	eafffff4 	b	a3c0 <_cpp_shutdown+0x14>
/home/silhavyj/School/ZeroMate/examples/13-context_switch_monitor/kernel/src/startup.cpp:51

    return 0;
    a3ec:	e3a03000 	mov	r3, #0
/home/silhavyj/School/ZeroMate/examples/13-context_switch_monitor/kernel/src/startup.cpp:52
}
    a3f0:	e1a00003 	mov	r0, r3
    a3f4:	e24bd004 	sub	sp, fp, #4
    a3f8:	e8bd8800 	pop	{fp, pc}
    a3fc:	0000ab14 	andeq	sl, r0, r4, lsl fp
    a400:	0000ab14 	andeq	sl, r0, r4, lsl fp

0000a404 <_Z4itoajPcj>:
_Z4itoajPcj():
/home/silhavyj/School/ZeroMate/examples/13-context_switch_monitor/stdlib/src/stdstring.cpp:9
{
    const char CharConvArr[] = "0123456789ABCDEF";
}

void itoa(unsigned int input, char* output, unsigned int base)
{
    a404:	e92d4800 	push	{fp, lr}
    a408:	e28db004 	add	fp, sp, #4
    a40c:	e24dd020 	sub	sp, sp, #32
    a410:	e50b0018 	str	r0, [fp, #-24]	; 0xffffffe8
    a414:	e50b101c 	str	r1, [fp, #-28]	; 0xffffffe4
    a418:	e50b2020 	str	r2, [fp, #-32]	; 0xffffffe0
/home/silhavyj/School/ZeroMate/examples/13-context_switch_monitor/stdlib/src/stdstring.cpp:10
    int i = 0;
    a41c:	e3a03000 	mov	r3, #0
    a420:	e50b3008 	str	r3, [fp, #-8]
/home/silhavyj/School/ZeroMate/examples/13-context_switch_monitor/stdlib/src/stdstring.cpp:12

    while (input > 0)
    a424:	e51b3018 	ldr	r3, [fp, #-24]	; 0xffffffe8
    a428:	e3530000 	cmp	r3, #0
    a42c:	0a000014 	beq	a484 <_Z4itoajPcj+0x80>
/home/silhavyj/School/ZeroMate/examples/13-context_switch_monitor/stdlib/src/stdstring.cpp:14
    {
        output[i] = CharConvArr[input % base];
    a430:	e51b3018 	ldr	r3, [fp, #-24]	; 0xffffffe8
    a434:	e51b1020 	ldr	r1, [fp, #-32]	; 0xffffffe0
    a438:	e1a00003 	mov	r0, r3
    a43c:	eb0000c8 	bl	a764 <__aeabi_uidivmod>
    a440:	e1a03001 	mov	r3, r1
    a444:	e1a01003 	mov	r1, r3
    a448:	e51b3008 	ldr	r3, [fp, #-8]
    a44c:	e51b201c 	ldr	r2, [fp, #-28]	; 0xffffffe4
    a450:	e0823003 	add	r3, r2, r3
    a454:	e59f2118 	ldr	r2, [pc, #280]	; a574 <_Z4itoajPcj+0x170>
    a458:	e7d22001 	ldrb	r2, [r2, r1]
    a45c:	e5c32000 	strb	r2, [r3]
/home/silhavyj/School/ZeroMate/examples/13-context_switch_monitor/stdlib/src/stdstring.cpp:15
        input /= base;
    a460:	e51b1020 	ldr	r1, [fp, #-32]	; 0xffffffe0
    a464:	e51b0018 	ldr	r0, [fp, #-24]	; 0xffffffe8
    a468:	eb000042 	bl	a578 <__udivsi3>
    a46c:	e1a03000 	mov	r3, r0
    a470:	e50b3018 	str	r3, [fp, #-24]	; 0xffffffe8
/home/silhavyj/School/ZeroMate/examples/13-context_switch_monitor/stdlib/src/stdstring.cpp:16
        i++;
    a474:	e51b3008 	ldr	r3, [fp, #-8]
    a478:	e2833001 	add	r3, r3, #1
    a47c:	e50b3008 	str	r3, [fp, #-8]
/home/silhavyj/School/ZeroMate/examples/13-context_switch_monitor/stdlib/src/stdstring.cpp:12
    while (input > 0)
    a480:	eaffffe7 	b	a424 <_Z4itoajPcj+0x20>
/home/silhavyj/School/ZeroMate/examples/13-context_switch_monitor/stdlib/src/stdstring.cpp:19
    }

    if (i == 0)
    a484:	e51b3008 	ldr	r3, [fp, #-8]
    a488:	e3530000 	cmp	r3, #0
    a48c:	1a000007 	bne	a4b0 <_Z4itoajPcj+0xac>
/home/silhavyj/School/ZeroMate/examples/13-context_switch_monitor/stdlib/src/stdstring.cpp:21
    {
        output[i] = CharConvArr[0];
    a490:	e51b3008 	ldr	r3, [fp, #-8]
    a494:	e51b201c 	ldr	r2, [fp, #-28]	; 0xffffffe4
    a498:	e0823003 	add	r3, r2, r3
    a49c:	e3a02030 	mov	r2, #48	; 0x30
    a4a0:	e5c32000 	strb	r2, [r3]
/home/silhavyj/School/ZeroMate/examples/13-context_switch_monitor/stdlib/src/stdstring.cpp:22
        i++;
    a4a4:	e51b3008 	ldr	r3, [fp, #-8]
    a4a8:	e2833001 	add	r3, r3, #1
    a4ac:	e50b3008 	str	r3, [fp, #-8]
/home/silhavyj/School/ZeroMate/examples/13-context_switch_monitor/stdlib/src/stdstring.cpp:25
    }

    output[i] = '\0';
    a4b0:	e51b3008 	ldr	r3, [fp, #-8]
    a4b4:	e51b201c 	ldr	r2, [fp, #-28]	; 0xffffffe4
    a4b8:	e0823003 	add	r3, r2, r3
    a4bc:	e3a02000 	mov	r2, #0
    a4c0:	e5c32000 	strb	r2, [r3]
/home/silhavyj/School/ZeroMate/examples/13-context_switch_monitor/stdlib/src/stdstring.cpp:26
    i--;
    a4c4:	e51b3008 	ldr	r3, [fp, #-8]
    a4c8:	e2433001 	sub	r3, r3, #1
    a4cc:	e50b3008 	str	r3, [fp, #-8]
/home/silhavyj/School/ZeroMate/examples/13-context_switch_monitor/stdlib/src/stdstring.cpp:28

    for (int j = 0; j <= i / 2; j++)
    a4d0:	e3a03000 	mov	r3, #0
    a4d4:	e50b300c 	str	r3, [fp, #-12]
/home/silhavyj/School/ZeroMate/examples/13-context_switch_monitor/stdlib/src/stdstring.cpp:28 (discriminator 3)
    a4d8:	e51b3008 	ldr	r3, [fp, #-8]
    a4dc:	e1a02fa3 	lsr	r2, r3, #31
    a4e0:	e0823003 	add	r3, r2, r3
    a4e4:	e1a030c3 	asr	r3, r3, #1
    a4e8:	e1a02003 	mov	r2, r3
    a4ec:	e51b300c 	ldr	r3, [fp, #-12]
    a4f0:	e1530002 	cmp	r3, r2
    a4f4:	ca00001b 	bgt	a568 <_Z4itoajPcj+0x164>
/home/silhavyj/School/ZeroMate/examples/13-context_switch_monitor/stdlib/src/stdstring.cpp:30 (discriminator 2)
    {
        char c = output[i - j];
    a4f8:	e51b2008 	ldr	r2, [fp, #-8]
    a4fc:	e51b300c 	ldr	r3, [fp, #-12]
    a500:	e0423003 	sub	r3, r2, r3
    a504:	e1a02003 	mov	r2, r3
    a508:	e51b301c 	ldr	r3, [fp, #-28]	; 0xffffffe4
    a50c:	e0833002 	add	r3, r3, r2
    a510:	e5d33000 	ldrb	r3, [r3]
    a514:	e54b300d 	strb	r3, [fp, #-13]
/home/silhavyj/School/ZeroMate/examples/13-context_switch_monitor/stdlib/src/stdstring.cpp:31 (discriminator 2)
        output[i - j] = output[j];
    a518:	e51b300c 	ldr	r3, [fp, #-12]
    a51c:	e51b201c 	ldr	r2, [fp, #-28]	; 0xffffffe4
    a520:	e0822003 	add	r2, r2, r3
    a524:	e51b1008 	ldr	r1, [fp, #-8]
    a528:	e51b300c 	ldr	r3, [fp, #-12]
    a52c:	e0413003 	sub	r3, r1, r3
    a530:	e1a01003 	mov	r1, r3
    a534:	e51b301c 	ldr	r3, [fp, #-28]	; 0xffffffe4
    a538:	e0833001 	add	r3, r3, r1
    a53c:	e5d22000 	ldrb	r2, [r2]
    a540:	e5c32000 	strb	r2, [r3]
/home/silhavyj/School/ZeroMate/examples/13-context_switch_monitor/stdlib/src/stdstring.cpp:32 (discriminator 2)
        output[j] = c;
    a544:	e51b300c 	ldr	r3, [fp, #-12]
    a548:	e51b201c 	ldr	r2, [fp, #-28]	; 0xffffffe4
    a54c:	e0823003 	add	r3, r2, r3
    a550:	e55b200d 	ldrb	r2, [fp, #-13]
    a554:	e5c32000 	strb	r2, [r3]
/home/silhavyj/School/ZeroMate/examples/13-context_switch_monitor/stdlib/src/stdstring.cpp:28 (discriminator 2)
    for (int j = 0; j <= i / 2; j++)
    a558:	e51b300c 	ldr	r3, [fp, #-12]
    a55c:	e2833001 	add	r3, r3, #1
    a560:	e50b300c 	str	r3, [fp, #-12]
    a564:	eaffffdb 	b	a4d8 <_Z4itoajPcj+0xd4>
/home/silhavyj/School/ZeroMate/examples/13-context_switch_monitor/stdlib/src/stdstring.cpp:34
    }
}
    a568:	e320f000 	nop	{0}
    a56c:	e24bd004 	sub	sp, fp, #4
    a570:	e8bd8800 	pop	{fp, pc}
    a574:	0000aab4 			; <UNDEFINED> instruction: 0x0000aab4

0000a578 <__udivsi3>:
__udivsi3():
/build/gcc-arm-none-eabi-Gl9kT9/gcc-arm-none-eabi-9-2019-q4/build/arm-none-eabi/arm/v5te/hard/libgcc/../../../../../../libgcc/config/arm/lib1funcs.S:1099
    a578:	e2512001 	subs	r2, r1, #1
/build/gcc-arm-none-eabi-Gl9kT9/gcc-arm-none-eabi-9-2019-q4/build/arm-none-eabi/arm/v5te/hard/libgcc/../../../../../../libgcc/config/arm/lib1funcs.S:1101
    a57c:	012fff1e 	bxeq	lr
/build/gcc-arm-none-eabi-Gl9kT9/gcc-arm-none-eabi-9-2019-q4/build/arm-none-eabi/arm/v5te/hard/libgcc/../../../../../../libgcc/config/arm/lib1funcs.S:1102
    a580:	3a000074 	bcc	a758 <__udivsi3+0x1e0>
/build/gcc-arm-none-eabi-Gl9kT9/gcc-arm-none-eabi-9-2019-q4/build/arm-none-eabi/arm/v5te/hard/libgcc/../../../../../../libgcc/config/arm/lib1funcs.S:1103
    a584:	e1500001 	cmp	r0, r1
/build/gcc-arm-none-eabi-Gl9kT9/gcc-arm-none-eabi-9-2019-q4/build/arm-none-eabi/arm/v5te/hard/libgcc/../../../../../../libgcc/config/arm/lib1funcs.S:1104
    a588:	9a00006b 	bls	a73c <__udivsi3+0x1c4>
/build/gcc-arm-none-eabi-Gl9kT9/gcc-arm-none-eabi-9-2019-q4/build/arm-none-eabi/arm/v5te/hard/libgcc/../../../../../../libgcc/config/arm/lib1funcs.S:1105
    a58c:	e1110002 	tst	r1, r2
/build/gcc-arm-none-eabi-Gl9kT9/gcc-arm-none-eabi-9-2019-q4/build/arm-none-eabi/arm/v5te/hard/libgcc/../../../../../../libgcc/config/arm/lib1funcs.S:1106
    a590:	0a00006c 	beq	a748 <__udivsi3+0x1d0>
/build/gcc-arm-none-eabi-Gl9kT9/gcc-arm-none-eabi-9-2019-q4/build/arm-none-eabi/arm/v5te/hard/libgcc/../../../../../../libgcc/config/arm/lib1funcs.S:1108
    a594:	e16f3f10 	clz	r3, r0
    a598:	e16f2f11 	clz	r2, r1
    a59c:	e0423003 	sub	r3, r2, r3
    a5a0:	e273301f 	rsbs	r3, r3, #31
    a5a4:	10833083 	addne	r3, r3, r3, lsl #1
    a5a8:	e3a02000 	mov	r2, #0
    a5ac:	108ff103 	addne	pc, pc, r3, lsl #2
    a5b0:	e1a00000 	nop			; (mov r0, r0)
    a5b4:	e1500f81 	cmp	r0, r1, lsl #31
    a5b8:	e0a22002 	adc	r2, r2, r2
    a5bc:	20400f81 	subcs	r0, r0, r1, lsl #31
    a5c0:	e1500f01 	cmp	r0, r1, lsl #30
    a5c4:	e0a22002 	adc	r2, r2, r2
    a5c8:	20400f01 	subcs	r0, r0, r1, lsl #30
    a5cc:	e1500e81 	cmp	r0, r1, lsl #29
    a5d0:	e0a22002 	adc	r2, r2, r2
    a5d4:	20400e81 	subcs	r0, r0, r1, lsl #29
    a5d8:	e1500e01 	cmp	r0, r1, lsl #28
    a5dc:	e0a22002 	adc	r2, r2, r2
    a5e0:	20400e01 	subcs	r0, r0, r1, lsl #28
    a5e4:	e1500d81 	cmp	r0, r1, lsl #27
    a5e8:	e0a22002 	adc	r2, r2, r2
    a5ec:	20400d81 	subcs	r0, r0, r1, lsl #27
    a5f0:	e1500d01 	cmp	r0, r1, lsl #26
    a5f4:	e0a22002 	adc	r2, r2, r2
    a5f8:	20400d01 	subcs	r0, r0, r1, lsl #26
    a5fc:	e1500c81 	cmp	r0, r1, lsl #25
    a600:	e0a22002 	adc	r2, r2, r2
    a604:	20400c81 	subcs	r0, r0, r1, lsl #25
    a608:	e1500c01 	cmp	r0, r1, lsl #24
    a60c:	e0a22002 	adc	r2, r2, r2
    a610:	20400c01 	subcs	r0, r0, r1, lsl #24
    a614:	e1500b81 	cmp	r0, r1, lsl #23
    a618:	e0a22002 	adc	r2, r2, r2
    a61c:	20400b81 	subcs	r0, r0, r1, lsl #23
    a620:	e1500b01 	cmp	r0, r1, lsl #22
    a624:	e0a22002 	adc	r2, r2, r2
    a628:	20400b01 	subcs	r0, r0, r1, lsl #22
    a62c:	e1500a81 	cmp	r0, r1, lsl #21
    a630:	e0a22002 	adc	r2, r2, r2
    a634:	20400a81 	subcs	r0, r0, r1, lsl #21
    a638:	e1500a01 	cmp	r0, r1, lsl #20
    a63c:	e0a22002 	adc	r2, r2, r2
    a640:	20400a01 	subcs	r0, r0, r1, lsl #20
    a644:	e1500981 	cmp	r0, r1, lsl #19
    a648:	e0a22002 	adc	r2, r2, r2
    a64c:	20400981 	subcs	r0, r0, r1, lsl #19
    a650:	e1500901 	cmp	r0, r1, lsl #18
    a654:	e0a22002 	adc	r2, r2, r2
    a658:	20400901 	subcs	r0, r0, r1, lsl #18
    a65c:	e1500881 	cmp	r0, r1, lsl #17
    a660:	e0a22002 	adc	r2, r2, r2
    a664:	20400881 	subcs	r0, r0, r1, lsl #17
    a668:	e1500801 	cmp	r0, r1, lsl #16
    a66c:	e0a22002 	adc	r2, r2, r2
    a670:	20400801 	subcs	r0, r0, r1, lsl #16
    a674:	e1500781 	cmp	r0, r1, lsl #15
    a678:	e0a22002 	adc	r2, r2, r2
    a67c:	20400781 	subcs	r0, r0, r1, lsl #15
    a680:	e1500701 	cmp	r0, r1, lsl #14
    a684:	e0a22002 	adc	r2, r2, r2
    a688:	20400701 	subcs	r0, r0, r1, lsl #14
    a68c:	e1500681 	cmp	r0, r1, lsl #13
    a690:	e0a22002 	adc	r2, r2, r2
    a694:	20400681 	subcs	r0, r0, r1, lsl #13
    a698:	e1500601 	cmp	r0, r1, lsl #12
    a69c:	e0a22002 	adc	r2, r2, r2
    a6a0:	20400601 	subcs	r0, r0, r1, lsl #12
    a6a4:	e1500581 	cmp	r0, r1, lsl #11
    a6a8:	e0a22002 	adc	r2, r2, r2
    a6ac:	20400581 	subcs	r0, r0, r1, lsl #11
    a6b0:	e1500501 	cmp	r0, r1, lsl #10
    a6b4:	e0a22002 	adc	r2, r2, r2
    a6b8:	20400501 	subcs	r0, r0, r1, lsl #10
    a6bc:	e1500481 	cmp	r0, r1, lsl #9
    a6c0:	e0a22002 	adc	r2, r2, r2
    a6c4:	20400481 	subcs	r0, r0, r1, lsl #9
    a6c8:	e1500401 	cmp	r0, r1, lsl #8
    a6cc:	e0a22002 	adc	r2, r2, r2
    a6d0:	20400401 	subcs	r0, r0, r1, lsl #8
    a6d4:	e1500381 	cmp	r0, r1, lsl #7
    a6d8:	e0a22002 	adc	r2, r2, r2
    a6dc:	20400381 	subcs	r0, r0, r1, lsl #7
    a6e0:	e1500301 	cmp	r0, r1, lsl #6
    a6e4:	e0a22002 	adc	r2, r2, r2
    a6e8:	20400301 	subcs	r0, r0, r1, lsl #6
    a6ec:	e1500281 	cmp	r0, r1, lsl #5
    a6f0:	e0a22002 	adc	r2, r2, r2
    a6f4:	20400281 	subcs	r0, r0, r1, lsl #5
    a6f8:	e1500201 	cmp	r0, r1, lsl #4
    a6fc:	e0a22002 	adc	r2, r2, r2
    a700:	20400201 	subcs	r0, r0, r1, lsl #4
    a704:	e1500181 	cmp	r0, r1, lsl #3
    a708:	e0a22002 	adc	r2, r2, r2
    a70c:	20400181 	subcs	r0, r0, r1, lsl #3
    a710:	e1500101 	cmp	r0, r1, lsl #2
    a714:	e0a22002 	adc	r2, r2, r2
    a718:	20400101 	subcs	r0, r0, r1, lsl #2
    a71c:	e1500081 	cmp	r0, r1, lsl #1
    a720:	e0a22002 	adc	r2, r2, r2
    a724:	20400081 	subcs	r0, r0, r1, lsl #1
    a728:	e1500001 	cmp	r0, r1
    a72c:	e0a22002 	adc	r2, r2, r2
    a730:	20400001 	subcs	r0, r0, r1
/build/gcc-arm-none-eabi-Gl9kT9/gcc-arm-none-eabi-9-2019-q4/build/arm-none-eabi/arm/v5te/hard/libgcc/../../../../../../libgcc/config/arm/lib1funcs.S:1110
    a734:	e1a00002 	mov	r0, r2
/build/gcc-arm-none-eabi-Gl9kT9/gcc-arm-none-eabi-9-2019-q4/build/arm-none-eabi/arm/v5te/hard/libgcc/../../../../../../libgcc/config/arm/lib1funcs.S:1111
    a738:	e12fff1e 	bx	lr
/build/gcc-arm-none-eabi-Gl9kT9/gcc-arm-none-eabi-9-2019-q4/build/arm-none-eabi/arm/v5te/hard/libgcc/../../../../../../libgcc/config/arm/lib1funcs.S:1114
    a73c:	03a00001 	moveq	r0, #1
/build/gcc-arm-none-eabi-Gl9kT9/gcc-arm-none-eabi-9-2019-q4/build/arm-none-eabi/arm/v5te/hard/libgcc/../../../../../../libgcc/config/arm/lib1funcs.S:1115
    a740:	13a00000 	movne	r0, #0
/build/gcc-arm-none-eabi-Gl9kT9/gcc-arm-none-eabi-9-2019-q4/build/arm-none-eabi/arm/v5te/hard/libgcc/../../../../../../libgcc/config/arm/lib1funcs.S:1116
    a744:	e12fff1e 	bx	lr
/build/gcc-arm-none-eabi-Gl9kT9/gcc-arm-none-eabi-9-2019-q4/build/arm-none-eabi/arm/v5te/hard/libgcc/../../../../../../libgcc/config/arm/lib1funcs.S:1118
    a748:	e16f2f11 	clz	r2, r1
    a74c:	e262201f 	rsb	r2, r2, #31
/build/gcc-arm-none-eabi-Gl9kT9/gcc-arm-none-eabi-9-2019-q4/build/arm-none-eabi/arm/v5te/hard/libgcc/../../../../../../libgcc/config/arm/lib1funcs.S:1120
    a750:	e1a00230 	lsr	r0, r0, r2
/build/gcc-arm-none-eabi-Gl9kT9/gcc-arm-none-eabi-9-2019-q4/build/arm-none-eabi/arm/v5te/hard/libgcc/../../../../../../libgcc/config/arm/lib1funcs.S:1121
    a754:	e12fff1e 	bx	lr
/build/gcc-arm-none-eabi-Gl9kT9/gcc-arm-none-eabi-9-2019-q4/build/arm-none-eabi/arm/v5te/hard/libgcc/../../../../../../libgcc/config/arm/lib1funcs.S:1125
    a758:	e3500000 	cmp	r0, #0
    a75c:	13e00000 	mvnne	r0, #0
    a760:	ea000007 	b	a784 <__aeabi_idiv0>

0000a764 <__aeabi_uidivmod>:
__aeabi_uidivmod():
/build/gcc-arm-none-eabi-Gl9kT9/gcc-arm-none-eabi-9-2019-q4/build/arm-none-eabi/arm/v5te/hard/libgcc/../../../../../../libgcc/config/arm/lib1funcs.S:1156
    a764:	e3510000 	cmp	r1, #0
/build/gcc-arm-none-eabi-Gl9kT9/gcc-arm-none-eabi-9-2019-q4/build/arm-none-eabi/arm/v5te/hard/libgcc/../../../../../../libgcc/config/arm/lib1funcs.S:1157
    a768:	0afffffa 	beq	a758 <__udivsi3+0x1e0>
/build/gcc-arm-none-eabi-Gl9kT9/gcc-arm-none-eabi-9-2019-q4/build/arm-none-eabi/arm/v5te/hard/libgcc/../../../../../../libgcc/config/arm/lib1funcs.S:1158
    a76c:	e92d4003 	push	{r0, r1, lr}
/build/gcc-arm-none-eabi-Gl9kT9/gcc-arm-none-eabi-9-2019-q4/build/arm-none-eabi/arm/v5te/hard/libgcc/../../../../../../libgcc/config/arm/lib1funcs.S:1159
    a770:	ebffff80 	bl	a578 <__udivsi3>
/build/gcc-arm-none-eabi-Gl9kT9/gcc-arm-none-eabi-9-2019-q4/build/arm-none-eabi/arm/v5te/hard/libgcc/../../../../../../libgcc/config/arm/lib1funcs.S:1160
    a774:	e8bd4006 	pop	{r1, r2, lr}
/build/gcc-arm-none-eabi-Gl9kT9/gcc-arm-none-eabi-9-2019-q4/build/arm-none-eabi/arm/v5te/hard/libgcc/../../../../../../libgcc/config/arm/lib1funcs.S:1161
    a778:	e0030092 	mul	r3, r2, r0
/build/gcc-arm-none-eabi-Gl9kT9/gcc-arm-none-eabi-9-2019-q4/build/arm-none-eabi/arm/v5te/hard/libgcc/../../../../../../libgcc/config/arm/lib1funcs.S:1162
    a77c:	e0411003 	sub	r1, r1, r3
/build/gcc-arm-none-eabi-Gl9kT9/gcc-arm-none-eabi-9-2019-q4/build/arm-none-eabi/arm/v5te/hard/libgcc/../../../../../../libgcc/config/arm/lib1funcs.S:1163
    a780:	e12fff1e 	bx	lr

0000a784 <__aeabi_idiv0>:
__aeabi_ldiv0():
/build/gcc-arm-none-eabi-Gl9kT9/gcc-arm-none-eabi-9-2019-q4/build/arm-none-eabi/arm/v5te/hard/libgcc/../../../../../../libgcc/config/arm/lib1funcs.S:1461
    a784:	e12fff1e 	bx	lr
