
./kernel:     file format elf32-littlearm


Disassembly of section .text:

00008000 <_start>:
_start():
/home/silhavyj/School/ZeroMate/examples/08-software_interrupt/kernel/src/start.s:6
.global _start

.section .text.start

_start:
	ldr pc, _reset_ptr
    8000:	e59ff018 	ldr	pc, [pc, #24]	; 8020 <_reset_ptr>
/home/silhavyj/School/ZeroMate/examples/08-software_interrupt/kernel/src/start.s:7
	ldr pc, _undefined_instruction_ptr
    8004:	e59ff018 	ldr	pc, [pc, #24]	; 8024 <_undefined_instruction_ptr>
/home/silhavyj/School/ZeroMate/examples/08-software_interrupt/kernel/src/start.s:8
	ldr pc, _software_interrupt_ptr
    8008:	e59ff018 	ldr	pc, [pc, #24]	; 8028 <_software_interrupt_ptr>
/home/silhavyj/School/ZeroMate/examples/08-software_interrupt/kernel/src/start.s:9
	ldr pc, _prefetch_abort_ptr
    800c:	e59ff018 	ldr	pc, [pc, #24]	; 802c <_prefetch_abort_ptr>
/home/silhavyj/School/ZeroMate/examples/08-software_interrupt/kernel/src/start.s:10
	ldr pc, _data_abort_ptr
    8010:	e59ff018 	ldr	pc, [pc, #24]	; 8030 <_data_abort_ptr>
/home/silhavyj/School/ZeroMate/examples/08-software_interrupt/kernel/src/start.s:11
	ldr pc, _unused_handler_ptr
    8014:	e59ff018 	ldr	pc, [pc, #24]	; 8034 <_unused_handler_ptr>
/home/silhavyj/School/ZeroMate/examples/08-software_interrupt/kernel/src/start.s:12
	ldr pc, _irq_ptr
    8018:	e59ff018 	ldr	pc, [pc, #24]	; 8038 <_irq_ptr>
/home/silhavyj/School/ZeroMate/examples/08-software_interrupt/kernel/src/start.s:13
	ldr pc, _fast_interrupt_ptr
    801c:	e59ff018 	ldr	pc, [pc, #24]	; 803c <_fast_interrupt_ptr>

00008020 <_reset_ptr>:
_reset_ptr():
/home/silhavyj/School/ZeroMate/examples/08-software_interrupt/kernel/src/start.s:13
    8020:	00008040 	andeq	r8, r0, r0, asr #32

00008024 <_undefined_instruction_ptr>:
_undefined_instruction_ptr():
/home/silhavyj/School/ZeroMate/examples/08-software_interrupt/kernel/src/start.s:13
    8024:	000080f8 	strdeq	r8, [r0], -r8	; <UNPREDICTABLE>

00008028 <_software_interrupt_ptr>:
_software_interrupt_ptr():
/home/silhavyj/School/ZeroMate/examples/08-software_interrupt/kernel/src/start.s:13
    8028:	000080a4 	andeq	r8, r0, r4, lsr #1

0000802c <_prefetch_abort_ptr>:
_prefetch_abort_ptr():
/home/silhavyj/School/ZeroMate/examples/08-software_interrupt/kernel/src/start.s:13
    802c:	000080fc 	strdeq	r8, [r0], -ip

00008030 <_data_abort_ptr>:
_data_abort_ptr():
/home/silhavyj/School/ZeroMate/examples/08-software_interrupt/kernel/src/start.s:13
    8030:	00008100 	andeq	r8, r0, r0, lsl #2

00008034 <_unused_handler_ptr>:
_unused_handler_ptr():
/home/silhavyj/School/ZeroMate/examples/08-software_interrupt/kernel/src/start.s:13
    8034:	00008040 	andeq	r8, r0, r0, asr #32

00008038 <_irq_ptr>:
_irq_ptr():
/home/silhavyj/School/ZeroMate/examples/08-software_interrupt/kernel/src/start.s:13
    8038:	00008104 	andeq	r8, r0, r4, lsl #2

0000803c <_fast_interrupt_ptr>:
_fast_interrupt_ptr():
/home/silhavyj/School/ZeroMate/examples/08-software_interrupt/kernel/src/start.s:13
    803c:	00008108 	andeq	r8, r0, r8, lsl #2

00008040 <_reset>:
_reset():
/home/silhavyj/School/ZeroMate/examples/08-software_interrupt/kernel/src/start.s:45
.equ    C_FLAG,  0x20000000
.equ    V_FLAG,  0x10000000


_reset:
	mov sp, #0x8000
    8040:	e3a0d902 	mov	sp, #32768	; 0x8000
/home/silhavyj/School/ZeroMate/examples/08-software_interrupt/kernel/src/start.s:47

	mov r0, #0x8000
    8044:	e3a00902 	mov	r0, #32768	; 0x8000
/home/silhavyj/School/ZeroMate/examples/08-software_interrupt/kernel/src/start.s:48
    mov r1, #0x0000
    8048:	e3a01000 	mov	r1, #0
/home/silhavyj/School/ZeroMate/examples/08-software_interrupt/kernel/src/start.s:50

    ldmia r0!,{r2, r3, r4, r5, r6, r7, r8, r9}
    804c:	e8b003fc 	ldm	r0!, {r2, r3, r4, r5, r6, r7, r8, r9}
/home/silhavyj/School/ZeroMate/examples/08-software_interrupt/kernel/src/start.s:51
    stmia r1!,{r2, r3, r4, r5, r6, r7, r8, r9}
    8050:	e8a103fc 	stmia	r1!, {r2, r3, r4, r5, r6, r7, r8, r9}
/home/silhavyj/School/ZeroMate/examples/08-software_interrupt/kernel/src/start.s:52
    ldmia r0!,{r2, r3, r4, r5, r6, r7, r8, r9}
    8054:	e8b003fc 	ldm	r0!, {r2, r3, r4, r5, r6, r7, r8, r9}
/home/silhavyj/School/ZeroMate/examples/08-software_interrupt/kernel/src/start.s:53
    stmia r1!,{r2, r3, r4, r5, r6, r7, r8, r9}
    8058:	e8a103fc 	stmia	r1!, {r2, r3, r4, r5, r6, r7, r8, r9}
/home/silhavyj/School/ZeroMate/examples/08-software_interrupt/kernel/src/start.s:55

    mov r0, #(CPSR_MODE_USER | CPSR_IRQ_INHIBIT | CPSR_FIQ_INHIBIT)
    805c:	e3a000d0 	mov	r0, #208	; 0xd0
/home/silhavyj/School/ZeroMate/examples/08-software_interrupt/kernel/src/start.s:56
	orr r0, #N_FLAG
    8060:	e3800102 	orr	r0, r0, #-2147483648	; 0x80000000
/home/silhavyj/School/ZeroMate/examples/08-software_interrupt/kernel/src/start.s:57
	orr r0, #Z_FLAG
    8064:	e3800101 	orr	r0, r0, #1073741824	; 0x40000000
/home/silhavyj/School/ZeroMate/examples/08-software_interrupt/kernel/src/start.s:58
	orr r0, #C_FLAG
    8068:	e3800202 	orr	r0, r0, #536870912	; 0x20000000
/home/silhavyj/School/ZeroMate/examples/08-software_interrupt/kernel/src/start.s:59
	orr r0, #V_FLAG
    806c:	e3800201 	orr	r0, r0, #268435456	; 0x10000000
/home/silhavyj/School/ZeroMate/examples/08-software_interrupt/kernel/src/start.s:61

    msr cpsr_cf, r0
    8070:	e129f000 	msr	CPSR_fc, r0
/home/silhavyj/School/ZeroMate/examples/08-software_interrupt/kernel/src/start.s:62
    mov sp, #0x8000
    8074:	e3a0d902 	mov	sp, #32768	; 0x8000
/home/silhavyj/School/ZeroMate/examples/08-software_interrupt/kernel/src/start.s:64

	mov r0, #0x0
    8078:	e3a00000 	mov	r0, #0
/home/silhavyj/School/ZeroMate/examples/08-software_interrupt/kernel/src/start.s:65
	mov r1, #0x1
    807c:	e3a01001 	mov	r1, #1
/home/silhavyj/School/ZeroMate/examples/08-software_interrupt/kernel/src/start.s:66
	mov r2, #0x2
    8080:	e3a02002 	mov	r2, #2
/home/silhavyj/School/ZeroMate/examples/08-software_interrupt/kernel/src/start.s:67
	mov r3, #0x3
    8084:	e3a03003 	mov	r3, #3
/home/silhavyj/School/ZeroMate/examples/08-software_interrupt/kernel/src/start.s:68
	mov r4, #0x4
    8088:	e3a04004 	mov	r4, #4
/home/silhavyj/School/ZeroMate/examples/08-software_interrupt/kernel/src/start.s:69
	mov r5, #0x5
    808c:	e3a05005 	mov	r5, #5
/home/silhavyj/School/ZeroMate/examples/08-software_interrupt/kernel/src/start.s:70
	mov r6, #0x6
    8090:	e3a06006 	mov	r6, #6
/home/silhavyj/School/ZeroMate/examples/08-software_interrupt/kernel/src/start.s:71
	mov r7, #0x7
    8094:	e3a07007 	mov	r7, #7
/home/silhavyj/School/ZeroMate/examples/08-software_interrupt/kernel/src/start.s:72
	mov r8, #0x8
    8098:	e3a08008 	mov	r8, #8
/home/silhavyj/School/ZeroMate/examples/08-software_interrupt/kernel/src/start.s:74
	
	svc 0
    809c:	ef000000 	svc	0x00000000

000080a0 <hang>:
hang():
/home/silhavyj/School/ZeroMate/examples/08-software_interrupt/kernel/src/start.s:77

hang:
	b hang
    80a0:	eafffffe 	b	80a0 <hang>

000080a4 <software_interrupt_handler>:
software_interrupt_handler():
/home/silhavyj/School/ZeroMate/examples/08-software_interrupt/kernel/src/interrupts.cpp:2
extern "C" void __attribute__((interrupt("SWI"))) software_interrupt_handler()
{
    80a4:	e92d0808 	push	{r3, fp}
    80a8:	e28db004 	add	fp, sp, #4
    80ac:	e24dd008 	sub	sp, sp, #8
/home/silhavyj/School/ZeroMate/examples/08-software_interrupt/kernel/src/interrupts.cpp:3
    int count = 0;
    80b0:	e3a03000 	mov	r3, #0
    80b4:	e50b3008 	str	r3, [fp, #-8]
/home/silhavyj/School/ZeroMate/examples/08-software_interrupt/kernel/src/interrupts.cpp:4
    for (int i = 0; i < 10; ++i)
    80b8:	e3a03000 	mov	r3, #0
    80bc:	e50b300c 	str	r3, [fp, #-12]
/home/silhavyj/School/ZeroMate/examples/08-software_interrupt/kernel/src/interrupts.cpp:4 (discriminator 3)
    80c0:	e51b300c 	ldr	r3, [fp, #-12]
    80c4:	e3530009 	cmp	r3, #9
    80c8:	ca000006 	bgt	80e8 <software_interrupt_handler+0x44>
/home/silhavyj/School/ZeroMate/examples/08-software_interrupt/kernel/src/interrupts.cpp:5 (discriminator 2)
        count++;
    80cc:	e51b3008 	ldr	r3, [fp, #-8]
    80d0:	e2833001 	add	r3, r3, #1
    80d4:	e50b3008 	str	r3, [fp, #-8]
/home/silhavyj/School/ZeroMate/examples/08-software_interrupt/kernel/src/interrupts.cpp:4 (discriminator 2)
    for (int i = 0; i < 10; ++i)
    80d8:	e51b300c 	ldr	r3, [fp, #-12]
    80dc:	e2833001 	add	r3, r3, #1
    80e0:	e50b300c 	str	r3, [fp, #-12]
    80e4:	eafffff5 	b	80c0 <software_interrupt_handler+0x1c>
/home/silhavyj/School/ZeroMate/examples/08-software_interrupt/kernel/src/interrupts.cpp:6
}
    80e8:	e320f000 	nop	{0}
    80ec:	e24bd004 	sub	sp, fp, #4
    80f0:	e8bd0808 	pop	{r3, fp}
    80f4:	e1b0f00e 	movs	pc, lr

000080f8 <undefined_instruction_handler>:
undefined_instruction_handler():
/home/silhavyj/School/ZeroMate/examples/08-software_interrupt/kernel/src/start.s:82

.section .text

undefined_instruction_handler:
	b hang
    80f8:	eaffffe8 	b	80a0 <hang>

000080fc <prefetch_abort_handler>:
prefetch_abort_handler():
/home/silhavyj/School/ZeroMate/examples/08-software_interrupt/kernel/src/start.s:85

prefetch_abort_handler:
	b hang
    80fc:	eaffffe7 	b	80a0 <hang>

00008100 <data_abort_handler>:
data_abort_handler():
/home/silhavyj/School/ZeroMate/examples/08-software_interrupt/kernel/src/start.s:88

data_abort_handler:
	b hang
    8100:	eaffffe6 	b	80a0 <hang>

00008104 <irq_handler>:
irq_handler():
/home/silhavyj/School/ZeroMate/examples/08-software_interrupt/kernel/src/start.s:91

irq_handler:
	b hang
    8104:	eaffffe5 	b	80a0 <hang>

00008108 <fast_interrupt_handler>:
fast_interrupt_handler():
/home/silhavyj/School/ZeroMate/examples/08-software_interrupt/kernel/src/start.s:94

fast_interrupt_handler:
    8108:	eaffffe4 	b	80a0 <hang>
