
./kernel:     file format elf32-littlearm


Disassembly of section .text:

00008000 <_start>:
_start():
/home/silhavyj/School/ZeroMate/examples/14-filesystem_monitor/kernel/src/start.s:14
	;@	- sem skoci bootloader, prvni na co narazi je "ldr pc, _reset_ptr" -> tedy se chova jako kdyby slo o reset a skoci na zacatek provadeni
	;@	- v cele svoji krase (vsechny "ldr" instrukce) slouzi jako predloha skutecne tabulce vektoru preruseni
	;@ na dany offset procesor skoci, kdyz je vyvolano libovolne preruseni
	;@ ARM nastavuje rovnou registr PC na tuto adresu, tzn. na teto adrese musi byt kodovana 4B instrukce skoku nekam jinam
	;@ oproti tomu napr. x86 (x86_64) obsahuje v tabulce rovnou adresu a procesor nastavuje PC (CS:IP) na adresu kterou najde v tabulce
	ldr pc, _reset_ptr						;@ 0x00 - reset - vyvolano pri resetu procesoru
    8000:	e59ff018 	ldr	pc, [pc, #24]	; 8020 <_reset_ptr>
/home/silhavyj/School/ZeroMate/examples/14-filesystem_monitor/kernel/src/start.s:15
	ldr pc, _undefined_instruction_ptr		;@ 0x04 - undefined instruction - vyjimka, vyvolana pri dekodovani nezname instrukce
    8004:	e59ff018 	ldr	pc, [pc, #24]	; 8024 <_undefined_instruction_ptr>
/home/silhavyj/School/ZeroMate/examples/14-filesystem_monitor/kernel/src/start.s:16
	ldr pc, _software_interrupt_ptr			;@ 0x08 - software interrupt - vyvolano, kdyz procesor provede instrukci swi
    8008:	e59ff018 	ldr	pc, [pc, #24]	; 8028 <_software_interrupt_ptr>
/home/silhavyj/School/ZeroMate/examples/14-filesystem_monitor/kernel/src/start.s:17
	ldr pc, _prefetch_abort_ptr				;@ 0x0C - prefetch abort - vyvolano, kdyz se procesor snazi napr. nacist instrukci z mista, odkud nacist nejde
    800c:	e59ff018 	ldr	pc, [pc, #24]	; 802c <_prefetch_abort_ptr>
/home/silhavyj/School/ZeroMate/examples/14-filesystem_monitor/kernel/src/start.s:18
	ldr pc, _data_abort_ptr					;@ 0x10 - data abort - vyvolano, kdyz se procesor snazi napr. nacist data z mista, odkud nacist nejdou
    8010:	e59ff018 	ldr	pc, [pc, #24]	; 8030 <_data_abort_ptr>
/home/silhavyj/School/ZeroMate/examples/14-filesystem_monitor/kernel/src/start.s:19
	ldr pc, _unused_handler_ptr				;@ 0x14 - unused - ve specifikaci ARM neni uvedeno zadne vyuziti
    8014:	e59ff018 	ldr	pc, [pc, #24]	; 8034 <_unused_handler_ptr>
/home/silhavyj/School/ZeroMate/examples/14-filesystem_monitor/kernel/src/start.s:20
	ldr pc, _irq_ptr						;@ 0x18 - IRQ - hardwarove preruseni (general purpose)
    8018:	e59ff018 	ldr	pc, [pc, #24]	; 8038 <_irq_ptr>
/home/silhavyj/School/ZeroMate/examples/14-filesystem_monitor/kernel/src/start.s:21
	ldr pc, _fast_interrupt_ptr				;@ 0x1C - fast interrupt request - prioritni IRQ pro vysokorychlostni zalezitosti
    801c:	e59ff018 	ldr	pc, [pc, #24]	; 803c <_fast_interrupt_ptr>

00008020 <_reset_ptr>:
_reset_ptr():
/home/silhavyj/School/ZeroMate/examples/14-filesystem_monitor/kernel/src/start.s:21
    8020:	00008040 	andeq	r8, r0, r0, asr #32

00008024 <_undefined_instruction_ptr>:
_undefined_instruction_ptr():
/home/silhavyj/School/ZeroMate/examples/14-filesystem_monitor/kernel/src/start.s:21
    8024:	0000b9a0 	andeq	fp, r0, r0, lsr #19

00008028 <_software_interrupt_ptr>:
_software_interrupt_ptr():
/home/silhavyj/School/ZeroMate/examples/14-filesystem_monitor/kernel/src/start.s:21
    8028:	0000b9a4 	andeq	fp, r0, r4, lsr #19

0000802c <_prefetch_abort_ptr>:
_prefetch_abort_ptr():
/home/silhavyj/School/ZeroMate/examples/14-filesystem_monitor/kernel/src/start.s:21
    802c:	0000b9ec 	andeq	fp, r0, ip, ror #19

00008030 <_data_abort_ptr>:
_data_abort_ptr():
/home/silhavyj/School/ZeroMate/examples/14-filesystem_monitor/kernel/src/start.s:21
    8030:	0000b9f0 	strdeq	fp, [r0], -r0

00008034 <_unused_handler_ptr>:
_unused_handler_ptr():
/home/silhavyj/School/ZeroMate/examples/14-filesystem_monitor/kernel/src/start.s:21
    8034:	00008040 	andeq	r8, r0, r0, asr #32

00008038 <_irq_ptr>:
_irq_ptr():
/home/silhavyj/School/ZeroMate/examples/14-filesystem_monitor/kernel/src/start.s:21
    8038:	0000b9c4 	andeq	fp, r0, r4, asr #19

0000803c <_fast_interrupt_ptr>:
_fast_interrupt_ptr():
/home/silhavyj/School/ZeroMate/examples/14-filesystem_monitor/kernel/src/start.s:21
    803c:	0000a41c 	andeq	sl, r0, ip, lsl r4

00008040 <_reset>:
_reset():
/home/silhavyj/School/ZeroMate/examples/14-filesystem_monitor/kernel/src/start.s:52


;@ kernel reset vektor - tento kod se vykona pri kazdem resetu zarizeni (i prvnim spusteni)
_reset:
	;@ nacteni tabulky vektoru preruseni do pameti
	mov r0, #0x8000			;@ adresa 0x8000 (_start) do r0
    8040:	e3a00902 	mov	r0, #32768	; 0x8000
/home/silhavyj/School/ZeroMate/examples/14-filesystem_monitor/kernel/src/start.s:53
    mov r1, #0x0000			;@ adresa 0x0000 (pocatek RAM) do r1 - tam budeme vkladat tabulku vektoru preruseni
    8044:	e3a01000 	mov	r1, #0
/home/silhavyj/School/ZeroMate/examples/14-filesystem_monitor/kernel/src/start.s:57

	;@ Thumb instrukce - nacteni 4B slov z pameti ulozene v r0 (0x8000) do registru r2, 3, ... 9
	;@                 - ulozeni obsahu registru r2, 3, ... 9 do pameti ulozene v registru r1 (0x0000)
    ldmia r0!,{r2, r3, r4, r5, r6, r7, r8, r9}
    8048:	e8b003fc 	ldm	r0!, {r2, r3, r4, r5, r6, r7, r8, r9}
/home/silhavyj/School/ZeroMate/examples/14-filesystem_monitor/kernel/src/start.s:58
    stmia r1!,{r2, r3, r4, r5, r6, r7, r8, r9}
    804c:	e8a103fc 	stmia	r1!, {r2, r3, r4, r5, r6, r7, r8, r9}
/home/silhavyj/School/ZeroMate/examples/14-filesystem_monitor/kernel/src/start.s:59
    ldmia r0!,{r2, r3, r4, r5, r6, r7, r8, r9}
    8050:	e8b003fc 	ldm	r0!, {r2, r3, r4, r5, r6, r7, r8, r9}
/home/silhavyj/School/ZeroMate/examples/14-filesystem_monitor/kernel/src/start.s:60
    stmia r1!,{r2, r3, r4, r5, r6, r7, r8, r9}
    8054:	e8a103fc 	stmia	r1!, {r2, r3, r4, r5, r6, r7, r8, r9}
/home/silhavyj/School/ZeroMate/examples/14-filesystem_monitor/kernel/src/start.s:63

	;@ baze pro systemove zasobniky
	mov r4, #0x0
    8058:	e3a04000 	mov	r4, #0
/home/silhavyj/School/ZeroMate/examples/14-filesystem_monitor/kernel/src/start.s:66

	;@ nejdrive supervisor mod a jeho stack
    mov r0, #(CPSR_MODE_SVR | CPSR_IRQ_INHIBIT | CPSR_FIQ_INHIBIT)
    805c:	e3a000d3 	mov	r0, #211	; 0xd3
/home/silhavyj/School/ZeroMate/examples/14-filesystem_monitor/kernel/src/start.s:67
    msr cpsr_c, r0
    8060:	e121f000 	msr	CPSR_c, r0
/home/silhavyj/School/ZeroMate/examples/14-filesystem_monitor/kernel/src/start.s:68
	add sp, r4, #0x8000
    8064:	e284d902 	add	sp, r4, #32768	; 0x8000
/home/silhavyj/School/ZeroMate/examples/14-filesystem_monitor/kernel/src/start.s:71

	;@ na moment se prepneme do IRQ rezimu, nastavime mu stack pointer
	mov r0, #(CPSR_MODE_IRQ | CPSR_IRQ_INHIBIT | CPSR_FIQ_INHIBIT)
    8068:	e3a000d2 	mov	r0, #210	; 0xd2
/home/silhavyj/School/ZeroMate/examples/14-filesystem_monitor/kernel/src/start.s:72
    msr cpsr_c, r0
    806c:	e121f000 	msr	CPSR_c, r0
/home/silhavyj/School/ZeroMate/examples/14-filesystem_monitor/kernel/src/start.s:73
	add sp, r4, #0x7000
    8070:	e284da07 	add	sp, r4, #28672	; 0x7000
/home/silhavyj/School/ZeroMate/examples/14-filesystem_monitor/kernel/src/start.s:76

	;@ na moment se prepneme do FIQ rezimu, nastavime mu stack pointer
	mov r0, #(CPSR_MODE_FIQ | CPSR_IRQ_INHIBIT | CPSR_FIQ_INHIBIT)
    8074:	e3a000d1 	mov	r0, #209	; 0xd1
/home/silhavyj/School/ZeroMate/examples/14-filesystem_monitor/kernel/src/start.s:77
    msr cpsr_c, r0
    8078:	e121f000 	msr	CPSR_c, r0
/home/silhavyj/School/ZeroMate/examples/14-filesystem_monitor/kernel/src/start.s:78
	add sp, r4, #0x6000
    807c:	e284da06 	add	sp, r4, #24576	; 0x6000
/home/silhavyj/School/ZeroMate/examples/14-filesystem_monitor/kernel/src/start.s:81

	;@ nakonec system mod a stack
    mov r0, #(CPSR_MODE_SYS | CPSR_IRQ_INHIBIT | CPSR_FIQ_INHIBIT)
    8080:	e3a000df 	mov	r0, #223	; 0xdf
/home/silhavyj/School/ZeroMate/examples/14-filesystem_monitor/kernel/src/start.s:82
    msr cpsr_c, r0
    8084:	e121f000 	msr	CPSR_c, r0
/home/silhavyj/School/ZeroMate/examples/14-filesystem_monitor/kernel/src/start.s:83
	add sp, r4, #0x5000
    8088:	e284da05 	add	sp, r4, #20480	; 0x5000
/home/silhavyj/School/ZeroMate/examples/14-filesystem_monitor/kernel/src/start.s:86

	;@ zapneme nezarovnany pristup do pameti (nemusi byt zadouci, ale pro nase potreby je to v poradku)
	mrc p15, #0, r4, c1, c0, #0
    808c:	ee114f10 	mrc	15, 0, r4, cr1, cr0, {0}
/home/silhavyj/School/ZeroMate/examples/14-filesystem_monitor/kernel/src/start.s:87
	orr r4, #0x400000
    8090:	e3844501 	orr	r4, r4, #4194304	; 0x400000
/home/silhavyj/School/ZeroMate/examples/14-filesystem_monitor/kernel/src/start.s:88
	mcr p15, #0, r4, c1, c0, #0
    8094:	ee014f10 	mcr	15, 0, r4, cr1, cr0, {0}
/home/silhavyj/School/ZeroMate/examples/14-filesystem_monitor/kernel/src/start.s:90

	bl _c_startup			;@ C startup kod (inicializace prostredi)
    8098:	eb000e55 	bl	b9f4 <_c_startup>
/home/silhavyj/School/ZeroMate/examples/14-filesystem_monitor/kernel/src/start.s:91
	bl _cpp_startup			;@ C++ startup kod (volani globalnich konstruktoru, ...)
    809c:	eb000e6e 	bl	ba5c <_cpp_startup>
/home/silhavyj/School/ZeroMate/examples/14-filesystem_monitor/kernel/src/start.s:92
	bl _kernel_main			;@ skocime do hlavniho kodu jadra (v C)
    80a0:	eb000969 	bl	a64c <_kernel_main>
/home/silhavyj/School/ZeroMate/examples/14-filesystem_monitor/kernel/src/start.s:93
	bl _cpp_shutdown		;@ C++ shutdown kod (volani globalnich destruktoru, ...)
    80a4:	eb000e82 	bl	bab4 <_cpp_shutdown>

000080a8 <hang>:
hang():
/home/silhavyj/School/ZeroMate/examples/14-filesystem_monitor/kernel/src/start.s:95
hang:
	b hang
    80a8:	eafffffe 	b	80a8 <hang>

000080ac <__cxa_guard_acquire>:
__cxa_guard_acquire():
/home/silhavyj/School/ZeroMate/examples/14-filesystem_monitor/kernel/src/cxx.cpp:11
	extern "C" int __cxa_guard_acquire (__guard *);
	extern "C" void __cxa_guard_release (__guard *);
	extern "C" void __cxa_guard_abort (__guard *);

	extern "C" int __cxa_guard_acquire (__guard *g)
	{
    80ac:	e52db004 	push	{fp}		; (str fp, [sp, #-4]!)
    80b0:	e28db000 	add	fp, sp, #0
    80b4:	e24dd00c 	sub	sp, sp, #12
    80b8:	e50b0008 	str	r0, [fp, #-8]
/home/silhavyj/School/ZeroMate/examples/14-filesystem_monitor/kernel/src/cxx.cpp:12
		return !*(char *)(g);
    80bc:	e51b3008 	ldr	r3, [fp, #-8]
    80c0:	e5d33000 	ldrb	r3, [r3]
    80c4:	e3530000 	cmp	r3, #0
    80c8:	03a03001 	moveq	r3, #1
    80cc:	13a03000 	movne	r3, #0
    80d0:	e6ef3073 	uxtb	r3, r3
/home/silhavyj/School/ZeroMate/examples/14-filesystem_monitor/kernel/src/cxx.cpp:13
	}
    80d4:	e1a00003 	mov	r0, r3
    80d8:	e28bd000 	add	sp, fp, #0
    80dc:	e49db004 	pop	{fp}		; (ldr fp, [sp], #4)
    80e0:	e12fff1e 	bx	lr

000080e4 <__cxa_guard_release>:
__cxa_guard_release():
/home/silhavyj/School/ZeroMate/examples/14-filesystem_monitor/kernel/src/cxx.cpp:16

	extern "C" void __cxa_guard_release (__guard *g)
	{
    80e4:	e52db004 	push	{fp}		; (str fp, [sp, #-4]!)
    80e8:	e28db000 	add	fp, sp, #0
    80ec:	e24dd00c 	sub	sp, sp, #12
    80f0:	e50b0008 	str	r0, [fp, #-8]
/home/silhavyj/School/ZeroMate/examples/14-filesystem_monitor/kernel/src/cxx.cpp:17
		*(char *)g = 1;
    80f4:	e51b3008 	ldr	r3, [fp, #-8]
    80f8:	e3a02001 	mov	r2, #1
    80fc:	e5c32000 	strb	r2, [r3]
/home/silhavyj/School/ZeroMate/examples/14-filesystem_monitor/kernel/src/cxx.cpp:18
	}
    8100:	e320f000 	nop	{0}
    8104:	e28bd000 	add	sp, fp, #0
    8108:	e49db004 	pop	{fp}		; (ldr fp, [sp], #4)
    810c:	e12fff1e 	bx	lr

00008110 <__cxa_guard_abort>:
__cxa_guard_abort():
/home/silhavyj/School/ZeroMate/examples/14-filesystem_monitor/kernel/src/cxx.cpp:21

	extern "C" void __cxa_guard_abort (__guard *)
	{
    8110:	e52db004 	push	{fp}		; (str fp, [sp, #-4]!)
    8114:	e28db000 	add	fp, sp, #0
    8118:	e24dd00c 	sub	sp, sp, #12
    811c:	e50b0008 	str	r0, [fp, #-8]
/home/silhavyj/School/ZeroMate/examples/14-filesystem_monitor/kernel/src/cxx.cpp:23

	}
    8120:	e320f000 	nop	{0}
    8124:	e28bd000 	add	sp, fp, #0
    8128:	e49db004 	pop	{fp}		; (ldr fp, [sp], #4)
    812c:	e12fff1e 	bx	lr

00008130 <__dso_handle>:
__dso_handle():
/home/silhavyj/School/ZeroMate/examples/14-filesystem_monitor/kernel/src/cxx.cpp:27
}

extern "C" void __dso_handle()
{
    8130:	e52db004 	push	{fp}		; (str fp, [sp, #-4]!)
    8134:	e28db000 	add	fp, sp, #0
/home/silhavyj/School/ZeroMate/examples/14-filesystem_monitor/kernel/src/cxx.cpp:29
    // ignore dtors for now
}
    8138:	e320f000 	nop	{0}
    813c:	e28bd000 	add	sp, fp, #0
    8140:	e49db004 	pop	{fp}		; (ldr fp, [sp], #4)
    8144:	e12fff1e 	bx	lr

00008148 <__cxa_atexit>:
__cxa_atexit():
/home/silhavyj/School/ZeroMate/examples/14-filesystem_monitor/kernel/src/cxx.cpp:32

extern "C" void __cxa_atexit()
{
    8148:	e52db004 	push	{fp}		; (str fp, [sp, #-4]!)
    814c:	e28db000 	add	fp, sp, #0
/home/silhavyj/School/ZeroMate/examples/14-filesystem_monitor/kernel/src/cxx.cpp:34
    // ignore dtors for now
}
    8150:	e320f000 	nop	{0}
    8154:	e28bd000 	add	sp, fp, #0
    8158:	e49db004 	pop	{fp}		; (ldr fp, [sp], #4)
    815c:	e12fff1e 	bx	lr

00008160 <__cxa_pure_virtual>:
__cxa_pure_virtual():
/home/silhavyj/School/ZeroMate/examples/14-filesystem_monitor/kernel/src/cxx.cpp:37

extern "C" void __cxa_pure_virtual()
{
    8160:	e52db004 	push	{fp}		; (str fp, [sp, #-4]!)
    8164:	e28db000 	add	fp, sp, #0
/home/silhavyj/School/ZeroMate/examples/14-filesystem_monitor/kernel/src/cxx.cpp:39
    // pure virtual method called
}
    8168:	e320f000 	nop	{0}
    816c:	e28bd000 	add	sp, fp, #0
    8170:	e49db004 	pop	{fp}		; (ldr fp, [sp], #4)
    8174:	e12fff1e 	bx	lr

00008178 <__aeabi_unwind_cpp_pr1>:
__aeabi_unwind_cpp_pr1():
/home/silhavyj/School/ZeroMate/examples/14-filesystem_monitor/kernel/src/cxx.cpp:42

extern "C" void __aeabi_unwind_cpp_pr1()
{
    8178:	e52db004 	push	{fp}		; (str fp, [sp, #-4]!)
    817c:	e28db000 	add	fp, sp, #0
/home/silhavyj/School/ZeroMate/examples/14-filesystem_monitor/kernel/src/cxx.cpp:43 (discriminator 1)
	while (true)
    8180:	eafffffe 	b	8180 <__aeabi_unwind_cpp_pr1+0x8>

00008184 <_ZN13CGPIO_HandlerC1Ej>:
_ZN13CGPIO_HandlerC2Ej():
/home/silhavyj/School/ZeroMate/examples/14-filesystem_monitor/kernel/src/drivers/gpio.cpp:8

#include <stdstring.h>

CGPIO_Handler sGPIO(hal::GPIO_Base);

CGPIO_Handler::CGPIO_Handler(unsigned int gpio_base_addr)
    8184:	e92d4800 	push	{fp, lr}
    8188:	e28db004 	add	fp, sp, #4
    818c:	e24dd008 	sub	sp, sp, #8
    8190:	e50b0008 	str	r0, [fp, #-8]
    8194:	e50b100c 	str	r1, [fp, #-12]
/home/silhavyj/School/ZeroMate/examples/14-filesystem_monitor/kernel/src/drivers/gpio.cpp:9
	: mGPIO(reinterpret_cast<unsigned int*>(gpio_base_addr))
    8198:	e51b200c 	ldr	r2, [fp, #-12]
    819c:	e51b3008 	ldr	r3, [fp, #-8]
    81a0:	e5832000 	str	r2, [r3]
/home/silhavyj/School/ZeroMate/examples/14-filesystem_monitor/kernel/src/drivers/gpio.cpp:11
{
	bzero(&mPin_Reservations_Read, sizeof(mPin_Reservations_Read));
    81a4:	e51b3008 	ldr	r3, [fp, #-8]
    81a8:	e2833004 	add	r3, r3, #4
    81ac:	e3a01008 	mov	r1, #8
    81b0:	e1a00003 	mov	r0, r3
    81b4:	eb00108e 	bl	c3f4 <_Z5bzeroPvi>
/home/silhavyj/School/ZeroMate/examples/14-filesystem_monitor/kernel/src/drivers/gpio.cpp:12
	bzero(&mPin_Reservations_Write, sizeof(mPin_Reservations_Write));
    81b8:	e51b3008 	ldr	r3, [fp, #-8]
    81bc:	e283300c 	add	r3, r3, #12
    81c0:	e3a01008 	mov	r1, #8
    81c4:	e1a00003 	mov	r0, r3
    81c8:	eb001089 	bl	c3f4 <_Z5bzeroPvi>
/home/silhavyj/School/ZeroMate/examples/14-filesystem_monitor/kernel/src/drivers/gpio.cpp:13
}
    81cc:	e51b3008 	ldr	r3, [fp, #-8]
    81d0:	e1a00003 	mov	r0, r3
    81d4:	e24bd004 	sub	sp, fp, #4
    81d8:	e8bd8800 	pop	{fp, pc}

000081dc <_ZNK13CGPIO_Handler19Get_GPFSEL_LocationEjRjS0_>:
_ZNK13CGPIO_Handler19Get_GPFSEL_LocationEjRjS0_():
/home/silhavyj/School/ZeroMate/examples/14-filesystem_monitor/kernel/src/drivers/gpio.cpp:16

bool CGPIO_Handler::Get_GPFSEL_Location(uint32_t pin, uint32_t& reg, uint32_t& bit_idx) const
{
    81dc:	e52db004 	push	{fp}		; (str fp, [sp, #-4]!)
    81e0:	e28db000 	add	fp, sp, #0
    81e4:	e24dd014 	sub	sp, sp, #20
    81e8:	e50b0008 	str	r0, [fp, #-8]
    81ec:	e50b100c 	str	r1, [fp, #-12]
    81f0:	e50b2010 	str	r2, [fp, #-16]
    81f4:	e50b3014 	str	r3, [fp, #-20]	; 0xffffffec
/home/silhavyj/School/ZeroMate/examples/14-filesystem_monitor/kernel/src/drivers/gpio.cpp:17
	if (pin > hal::GPIO_Pin_Count)
    81f8:	e51b300c 	ldr	r3, [fp, #-12]
    81fc:	e3530036 	cmp	r3, #54	; 0x36
    8200:	9a000001 	bls	820c <_ZNK13CGPIO_Handler19Get_GPFSEL_LocationEjRjS0_+0x30>
/home/silhavyj/School/ZeroMate/examples/14-filesystem_monitor/kernel/src/drivers/gpio.cpp:18
		return false;
    8204:	e3a03000 	mov	r3, #0
    8208:	ea000014 	b	8260 <_ZNK13CGPIO_Handler19Get_GPFSEL_LocationEjRjS0_+0x84>
/home/silhavyj/School/ZeroMate/examples/14-filesystem_monitor/kernel/src/drivers/gpio.cpp:20
	
	reg = pin / 10;
    820c:	e51b300c 	ldr	r3, [fp, #-12]
    8210:	e59f2058 	ldr	r2, [pc, #88]	; 8270 <_ZNK13CGPIO_Handler19Get_GPFSEL_LocationEjRjS0_+0x94>
    8214:	e0832392 	umull	r2, r3, r2, r3
    8218:	e1a021a3 	lsr	r2, r3, #3
    821c:	e51b3010 	ldr	r3, [fp, #-16]
    8220:	e5832000 	str	r2, [r3]
/home/silhavyj/School/ZeroMate/examples/14-filesystem_monitor/kernel/src/drivers/gpio.cpp:31
		case 3: reg = static_cast<uint32_t>(hal::GPIO_Reg::GPFSEL3); break;
		case 4: reg = static_cast<uint32_t>(hal::GPIO_Reg::GPFSEL4); break;
		case 5: reg = static_cast<uint32_t>(hal::GPIO_Reg::GPFSEL5); break;
	}*/
	
	bit_idx = (pin % 10) * 3;
    8224:	e51b100c 	ldr	r1, [fp, #-12]
    8228:	e59f3040 	ldr	r3, [pc, #64]	; 8270 <_ZNK13CGPIO_Handler19Get_GPFSEL_LocationEjRjS0_+0x94>
    822c:	e0832193 	umull	r2, r3, r3, r1
    8230:	e1a021a3 	lsr	r2, r3, #3
    8234:	e1a03002 	mov	r3, r2
    8238:	e1a03103 	lsl	r3, r3, #2
    823c:	e0833002 	add	r3, r3, r2
    8240:	e1a03083 	lsl	r3, r3, #1
    8244:	e0412003 	sub	r2, r1, r3
    8248:	e1a03002 	mov	r3, r2
    824c:	e1a03083 	lsl	r3, r3, #1
    8250:	e0832002 	add	r2, r3, r2
    8254:	e51b3014 	ldr	r3, [fp, #-20]	; 0xffffffec
    8258:	e5832000 	str	r2, [r3]
/home/silhavyj/School/ZeroMate/examples/14-filesystem_monitor/kernel/src/drivers/gpio.cpp:33
	
	return true;
    825c:	e3a03001 	mov	r3, #1
/home/silhavyj/School/ZeroMate/examples/14-filesystem_monitor/kernel/src/drivers/gpio.cpp:34
}
    8260:	e1a00003 	mov	r0, r3
    8264:	e28bd000 	add	sp, fp, #0
    8268:	e49db004 	pop	{fp}		; (ldr fp, [sp], #4)
    826c:	e12fff1e 	bx	lr
    8270:	cccccccd 	stclgt	12, cr12, [ip], {205}	; 0xcd

00008274 <_ZNK13CGPIO_Handler18Get_GPCLR_LocationEjRjS0_>:
_ZNK13CGPIO_Handler18Get_GPCLR_LocationEjRjS0_():
/home/silhavyj/School/ZeroMate/examples/14-filesystem_monitor/kernel/src/drivers/gpio.cpp:37

bool CGPIO_Handler::Get_GPCLR_Location(uint32_t pin, uint32_t& reg, uint32_t& bit_idx) const
{
    8274:	e52db004 	push	{fp}		; (str fp, [sp, #-4]!)
    8278:	e28db000 	add	fp, sp, #0
    827c:	e24dd014 	sub	sp, sp, #20
    8280:	e50b0008 	str	r0, [fp, #-8]
    8284:	e50b100c 	str	r1, [fp, #-12]
    8288:	e50b2010 	str	r2, [fp, #-16]
    828c:	e50b3014 	str	r3, [fp, #-20]	; 0xffffffec
/home/silhavyj/School/ZeroMate/examples/14-filesystem_monitor/kernel/src/drivers/gpio.cpp:38
	if (pin > hal::GPIO_Pin_Count)
    8290:	e51b300c 	ldr	r3, [fp, #-12]
    8294:	e3530036 	cmp	r3, #54	; 0x36
    8298:	9a000001 	bls	82a4 <_ZNK13CGPIO_Handler18Get_GPCLR_LocationEjRjS0_+0x30>
/home/silhavyj/School/ZeroMate/examples/14-filesystem_monitor/kernel/src/drivers/gpio.cpp:39
		return false;
    829c:	e3a03000 	mov	r3, #0
    82a0:	ea00000c 	b	82d8 <_ZNK13CGPIO_Handler18Get_GPCLR_LocationEjRjS0_+0x64>
/home/silhavyj/School/ZeroMate/examples/14-filesystem_monitor/kernel/src/drivers/gpio.cpp:41
	
	reg = static_cast<uint32_t>((pin < 32) ? hal::GPIO_Reg::GPCLR0 : hal::GPIO_Reg::GPCLR1);
    82a4:	e51b300c 	ldr	r3, [fp, #-12]
    82a8:	e353001f 	cmp	r3, #31
    82ac:	8a000001 	bhi	82b8 <_ZNK13CGPIO_Handler18Get_GPCLR_LocationEjRjS0_+0x44>
/home/silhavyj/School/ZeroMate/examples/14-filesystem_monitor/kernel/src/drivers/gpio.cpp:41 (discriminator 1)
    82b0:	e3a0200a 	mov	r2, #10
    82b4:	ea000000 	b	82bc <_ZNK13CGPIO_Handler18Get_GPCLR_LocationEjRjS0_+0x48>
/home/silhavyj/School/ZeroMate/examples/14-filesystem_monitor/kernel/src/drivers/gpio.cpp:41 (discriminator 2)
    82b8:	e3a0200b 	mov	r2, #11
/home/silhavyj/School/ZeroMate/examples/14-filesystem_monitor/kernel/src/drivers/gpio.cpp:41 (discriminator 4)
    82bc:	e51b3010 	ldr	r3, [fp, #-16]
    82c0:	e5832000 	str	r2, [r3]
/home/silhavyj/School/ZeroMate/examples/14-filesystem_monitor/kernel/src/drivers/gpio.cpp:42 (discriminator 4)
	bit_idx = pin % 32;
    82c4:	e51b300c 	ldr	r3, [fp, #-12]
    82c8:	e203201f 	and	r2, r3, #31
    82cc:	e51b3014 	ldr	r3, [fp, #-20]	; 0xffffffec
    82d0:	e5832000 	str	r2, [r3]
/home/silhavyj/School/ZeroMate/examples/14-filesystem_monitor/kernel/src/drivers/gpio.cpp:44 (discriminator 4)
	
	return true;
    82d4:	e3a03001 	mov	r3, #1
/home/silhavyj/School/ZeroMate/examples/14-filesystem_monitor/kernel/src/drivers/gpio.cpp:45
}
    82d8:	e1a00003 	mov	r0, r3
    82dc:	e28bd000 	add	sp, fp, #0
    82e0:	e49db004 	pop	{fp}		; (ldr fp, [sp], #4)
    82e4:	e12fff1e 	bx	lr

000082e8 <_ZNK13CGPIO_Handler18Get_GPSET_LocationEjRjS0_>:
_ZNK13CGPIO_Handler18Get_GPSET_LocationEjRjS0_():
/home/silhavyj/School/ZeroMate/examples/14-filesystem_monitor/kernel/src/drivers/gpio.cpp:48

bool CGPIO_Handler::Get_GPSET_Location(uint32_t pin, uint32_t& reg, uint32_t& bit_idx) const
{
    82e8:	e52db004 	push	{fp}		; (str fp, [sp, #-4]!)
    82ec:	e28db000 	add	fp, sp, #0
    82f0:	e24dd014 	sub	sp, sp, #20
    82f4:	e50b0008 	str	r0, [fp, #-8]
    82f8:	e50b100c 	str	r1, [fp, #-12]
    82fc:	e50b2010 	str	r2, [fp, #-16]
    8300:	e50b3014 	str	r3, [fp, #-20]	; 0xffffffec
/home/silhavyj/School/ZeroMate/examples/14-filesystem_monitor/kernel/src/drivers/gpio.cpp:49
	if (pin > hal::GPIO_Pin_Count)
    8304:	e51b300c 	ldr	r3, [fp, #-12]
    8308:	e3530036 	cmp	r3, #54	; 0x36
    830c:	9a000001 	bls	8318 <_ZNK13CGPIO_Handler18Get_GPSET_LocationEjRjS0_+0x30>
/home/silhavyj/School/ZeroMate/examples/14-filesystem_monitor/kernel/src/drivers/gpio.cpp:50
		return false;
    8310:	e3a03000 	mov	r3, #0
    8314:	ea00000c 	b	834c <_ZNK13CGPIO_Handler18Get_GPSET_LocationEjRjS0_+0x64>
/home/silhavyj/School/ZeroMate/examples/14-filesystem_monitor/kernel/src/drivers/gpio.cpp:52
	
	reg = static_cast<uint32_t>((pin < 32) ? hal::GPIO_Reg::GPSET0 : hal::GPIO_Reg::GPSET1);
    8318:	e51b300c 	ldr	r3, [fp, #-12]
    831c:	e353001f 	cmp	r3, #31
    8320:	8a000001 	bhi	832c <_ZNK13CGPIO_Handler18Get_GPSET_LocationEjRjS0_+0x44>
/home/silhavyj/School/ZeroMate/examples/14-filesystem_monitor/kernel/src/drivers/gpio.cpp:52 (discriminator 1)
    8324:	e3a02007 	mov	r2, #7
    8328:	ea000000 	b	8330 <_ZNK13CGPIO_Handler18Get_GPSET_LocationEjRjS0_+0x48>
/home/silhavyj/School/ZeroMate/examples/14-filesystem_monitor/kernel/src/drivers/gpio.cpp:52 (discriminator 2)
    832c:	e3a02008 	mov	r2, #8
/home/silhavyj/School/ZeroMate/examples/14-filesystem_monitor/kernel/src/drivers/gpio.cpp:52 (discriminator 4)
    8330:	e51b3010 	ldr	r3, [fp, #-16]
    8334:	e5832000 	str	r2, [r3]
/home/silhavyj/School/ZeroMate/examples/14-filesystem_monitor/kernel/src/drivers/gpio.cpp:53 (discriminator 4)
	bit_idx = pin % 32;
    8338:	e51b300c 	ldr	r3, [fp, #-12]
    833c:	e203201f 	and	r2, r3, #31
    8340:	e51b3014 	ldr	r3, [fp, #-20]	; 0xffffffec
    8344:	e5832000 	str	r2, [r3]
/home/silhavyj/School/ZeroMate/examples/14-filesystem_monitor/kernel/src/drivers/gpio.cpp:55 (discriminator 4)
	
	return true;
    8348:	e3a03001 	mov	r3, #1
/home/silhavyj/School/ZeroMate/examples/14-filesystem_monitor/kernel/src/drivers/gpio.cpp:56
}
    834c:	e1a00003 	mov	r0, r3
    8350:	e28bd000 	add	sp, fp, #0
    8354:	e49db004 	pop	{fp}		; (ldr fp, [sp], #4)
    8358:	e12fff1e 	bx	lr

0000835c <_ZNK13CGPIO_Handler18Get_GPLEV_LocationEjRjS0_>:
_ZNK13CGPIO_Handler18Get_GPLEV_LocationEjRjS0_():
/home/silhavyj/School/ZeroMate/examples/14-filesystem_monitor/kernel/src/drivers/gpio.cpp:59

bool CGPIO_Handler::Get_GPLEV_Location(uint32_t pin, uint32_t& reg, uint32_t& bit_idx) const
{
    835c:	e52db004 	push	{fp}		; (str fp, [sp, #-4]!)
    8360:	e28db000 	add	fp, sp, #0
    8364:	e24dd014 	sub	sp, sp, #20
    8368:	e50b0008 	str	r0, [fp, #-8]
    836c:	e50b100c 	str	r1, [fp, #-12]
    8370:	e50b2010 	str	r2, [fp, #-16]
    8374:	e50b3014 	str	r3, [fp, #-20]	; 0xffffffec
/home/silhavyj/School/ZeroMate/examples/14-filesystem_monitor/kernel/src/drivers/gpio.cpp:60
	if (pin > hal::GPIO_Pin_Count)
    8378:	e51b300c 	ldr	r3, [fp, #-12]
    837c:	e3530036 	cmp	r3, #54	; 0x36
    8380:	9a000001 	bls	838c <_ZNK13CGPIO_Handler18Get_GPLEV_LocationEjRjS0_+0x30>
/home/silhavyj/School/ZeroMate/examples/14-filesystem_monitor/kernel/src/drivers/gpio.cpp:61
		return false;
    8384:	e3a03000 	mov	r3, #0
    8388:	ea00000c 	b	83c0 <_ZNK13CGPIO_Handler18Get_GPLEV_LocationEjRjS0_+0x64>
/home/silhavyj/School/ZeroMate/examples/14-filesystem_monitor/kernel/src/drivers/gpio.cpp:63
	
	reg = static_cast<uint32_t>((pin < 32) ? hal::GPIO_Reg::GPLEV0 : hal::GPIO_Reg::GPLEV1);
    838c:	e51b300c 	ldr	r3, [fp, #-12]
    8390:	e353001f 	cmp	r3, #31
    8394:	8a000001 	bhi	83a0 <_ZNK13CGPIO_Handler18Get_GPLEV_LocationEjRjS0_+0x44>
/home/silhavyj/School/ZeroMate/examples/14-filesystem_monitor/kernel/src/drivers/gpio.cpp:63 (discriminator 1)
    8398:	e3a0200d 	mov	r2, #13
    839c:	ea000000 	b	83a4 <_ZNK13CGPIO_Handler18Get_GPLEV_LocationEjRjS0_+0x48>
/home/silhavyj/School/ZeroMate/examples/14-filesystem_monitor/kernel/src/drivers/gpio.cpp:63 (discriminator 2)
    83a0:	e3a0200e 	mov	r2, #14
/home/silhavyj/School/ZeroMate/examples/14-filesystem_monitor/kernel/src/drivers/gpio.cpp:63 (discriminator 4)
    83a4:	e51b3010 	ldr	r3, [fp, #-16]
    83a8:	e5832000 	str	r2, [r3]
/home/silhavyj/School/ZeroMate/examples/14-filesystem_monitor/kernel/src/drivers/gpio.cpp:64 (discriminator 4)
	bit_idx = pin % 32;
    83ac:	e51b300c 	ldr	r3, [fp, #-12]
    83b0:	e203201f 	and	r2, r3, #31
    83b4:	e51b3014 	ldr	r3, [fp, #-20]	; 0xffffffec
    83b8:	e5832000 	str	r2, [r3]
/home/silhavyj/School/ZeroMate/examples/14-filesystem_monitor/kernel/src/drivers/gpio.cpp:66 (discriminator 4)
	
	return true;
    83bc:	e3a03001 	mov	r3, #1
/home/silhavyj/School/ZeroMate/examples/14-filesystem_monitor/kernel/src/drivers/gpio.cpp:67
}
    83c0:	e1a00003 	mov	r0, r3
    83c4:	e28bd000 	add	sp, fp, #0
    83c8:	e49db004 	pop	{fp}		; (ldr fp, [sp], #4)
    83cc:	e12fff1e 	bx	lr

000083d0 <_ZN13CGPIO_Handler17Set_GPIO_FunctionEj14NGPIO_Function>:
_ZN13CGPIO_Handler17Set_GPIO_FunctionEj14NGPIO_Function():
/home/silhavyj/School/ZeroMate/examples/14-filesystem_monitor/kernel/src/drivers/gpio.cpp:70
		
void CGPIO_Handler::Set_GPIO_Function(uint32_t pin, NGPIO_Function func)
{
    83d0:	e92d4800 	push	{fp, lr}
    83d4:	e28db004 	add	fp, sp, #4
    83d8:	e24dd020 	sub	sp, sp, #32
    83dc:	e50b0018 	str	r0, [fp, #-24]	; 0xffffffe8
    83e0:	e50b101c 	str	r1, [fp, #-28]	; 0xffffffe4
    83e4:	e50b2020 	str	r2, [fp, #-32]	; 0xffffffe0
/home/silhavyj/School/ZeroMate/examples/14-filesystem_monitor/kernel/src/drivers/gpio.cpp:72
	uint32_t reg, bit;
	if (!Get_GPFSEL_Location(pin, reg, bit))
    83e8:	e24b3014 	sub	r3, fp, #20
    83ec:	e24b2010 	sub	r2, fp, #16
    83f0:	e51b101c 	ldr	r1, [fp, #-28]	; 0xffffffe4
    83f4:	e51b0018 	ldr	r0, [fp, #-24]	; 0xffffffe8
    83f8:	ebffff77 	bl	81dc <_ZNK13CGPIO_Handler19Get_GPFSEL_LocationEjRjS0_>
    83fc:	e1a03000 	mov	r3, r0
    8400:	e2233001 	eor	r3, r3, #1
    8404:	e6ef3073 	uxtb	r3, r3
    8408:	e3530000 	cmp	r3, #0
    840c:	1a00001e 	bne	848c <_ZN13CGPIO_Handler17Set_GPIO_FunctionEj14NGPIO_Function+0xbc>
/home/silhavyj/School/ZeroMate/examples/14-filesystem_monitor/kernel/src/drivers/gpio.cpp:75
		return;

	unsigned int mode = static_cast<unsigned int>(func);
    8410:	e51b3020 	ldr	r3, [fp, #-32]	; 0xffffffe0
    8414:	e50b3008 	str	r3, [fp, #-8]
/home/silhavyj/School/ZeroMate/examples/14-filesystem_monitor/kernel/src/drivers/gpio.cpp:77

	unsigned int rd = mGPIO[reg];
    8418:	e51b3018 	ldr	r3, [fp, #-24]	; 0xffffffe8
    841c:	e5932000 	ldr	r2, [r3]
    8420:	e51b3010 	ldr	r3, [fp, #-16]
    8424:	e1a03103 	lsl	r3, r3, #2
    8428:	e0823003 	add	r3, r2, r3
    842c:	e5933000 	ldr	r3, [r3]
    8430:	e50b300c 	str	r3, [fp, #-12]
/home/silhavyj/School/ZeroMate/examples/14-filesystem_monitor/kernel/src/drivers/gpio.cpp:78
	rd &= ~(7 << bit);
    8434:	e51b3014 	ldr	r3, [fp, #-20]	; 0xffffffec
    8438:	e3a02007 	mov	r2, #7
    843c:	e1a03312 	lsl	r3, r2, r3
    8440:	e1e03003 	mvn	r3, r3
    8444:	e1a02003 	mov	r2, r3
    8448:	e51b300c 	ldr	r3, [fp, #-12]
    844c:	e0033002 	and	r3, r3, r2
    8450:	e50b300c 	str	r3, [fp, #-12]
/home/silhavyj/School/ZeroMate/examples/14-filesystem_monitor/kernel/src/drivers/gpio.cpp:79
	rd |= (mode << bit);
    8454:	e51b3014 	ldr	r3, [fp, #-20]	; 0xffffffec
    8458:	e51b2008 	ldr	r2, [fp, #-8]
    845c:	e1a03312 	lsl	r3, r2, r3
    8460:	e51b200c 	ldr	r2, [fp, #-12]
    8464:	e1823003 	orr	r3, r2, r3
    8468:	e50b300c 	str	r3, [fp, #-12]
/home/silhavyj/School/ZeroMate/examples/14-filesystem_monitor/kernel/src/drivers/gpio.cpp:81
	
	mGPIO[reg] = rd;
    846c:	e51b3018 	ldr	r3, [fp, #-24]	; 0xffffffe8
    8470:	e5932000 	ldr	r2, [r3]
    8474:	e51b3010 	ldr	r3, [fp, #-16]
    8478:	e1a03103 	lsl	r3, r3, #2
    847c:	e0823003 	add	r3, r2, r3
    8480:	e51b200c 	ldr	r2, [fp, #-12]
    8484:	e5832000 	str	r2, [r3]
    8488:	ea000000 	b	8490 <_ZN13CGPIO_Handler17Set_GPIO_FunctionEj14NGPIO_Function+0xc0>
/home/silhavyj/School/ZeroMate/examples/14-filesystem_monitor/kernel/src/drivers/gpio.cpp:73
		return;
    848c:	e320f000 	nop	{0}
/home/silhavyj/School/ZeroMate/examples/14-filesystem_monitor/kernel/src/drivers/gpio.cpp:82
}
    8490:	e24bd004 	sub	sp, fp, #4
    8494:	e8bd8800 	pop	{fp, pc}

00008498 <_ZNK13CGPIO_Handler17Get_GPIO_FunctionEj>:
_ZNK13CGPIO_Handler17Get_GPIO_FunctionEj():
/home/silhavyj/School/ZeroMate/examples/14-filesystem_monitor/kernel/src/drivers/gpio.cpp:85

NGPIO_Function CGPIO_Handler::Get_GPIO_Function(uint32_t pin) const
{
    8498:	e92d4800 	push	{fp, lr}
    849c:	e28db004 	add	fp, sp, #4
    84a0:	e24dd010 	sub	sp, sp, #16
    84a4:	e50b0010 	str	r0, [fp, #-16]
    84a8:	e50b1014 	str	r1, [fp, #-20]	; 0xffffffec
/home/silhavyj/School/ZeroMate/examples/14-filesystem_monitor/kernel/src/drivers/gpio.cpp:87
	uint32_t reg, bit;
	if (!Get_GPFSEL_Location(pin, reg, bit))
    84ac:	e24b300c 	sub	r3, fp, #12
    84b0:	e24b2008 	sub	r2, fp, #8
    84b4:	e51b1014 	ldr	r1, [fp, #-20]	; 0xffffffec
    84b8:	e51b0010 	ldr	r0, [fp, #-16]
    84bc:	ebffff46 	bl	81dc <_ZNK13CGPIO_Handler19Get_GPFSEL_LocationEjRjS0_>
    84c0:	e1a03000 	mov	r3, r0
    84c4:	e2233001 	eor	r3, r3, #1
    84c8:	e6ef3073 	uxtb	r3, r3
    84cc:	e3530000 	cmp	r3, #0
    84d0:	0a000001 	beq	84dc <_ZNK13CGPIO_Handler17Get_GPIO_FunctionEj+0x44>
/home/silhavyj/School/ZeroMate/examples/14-filesystem_monitor/kernel/src/drivers/gpio.cpp:88
		return NGPIO_Function::Unspecified;
    84d4:	e3a03008 	mov	r3, #8
    84d8:	ea000008 	b	8500 <_ZNK13CGPIO_Handler17Get_GPIO_FunctionEj+0x68>
/home/silhavyj/School/ZeroMate/examples/14-filesystem_monitor/kernel/src/drivers/gpio.cpp:90
	
	return static_cast<NGPIO_Function>((mGPIO[reg] >> bit) & 7);
    84dc:	e51b3010 	ldr	r3, [fp, #-16]
    84e0:	e5932000 	ldr	r2, [r3]
    84e4:	e51b3008 	ldr	r3, [fp, #-8]
    84e8:	e1a03103 	lsl	r3, r3, #2
    84ec:	e0823003 	add	r3, r2, r3
    84f0:	e5932000 	ldr	r2, [r3]
    84f4:	e51b300c 	ldr	r3, [fp, #-12]
    84f8:	e1a03332 	lsr	r3, r2, r3
    84fc:	e2033007 	and	r3, r3, #7
/home/silhavyj/School/ZeroMate/examples/14-filesystem_monitor/kernel/src/drivers/gpio.cpp:91 (discriminator 1)
}
    8500:	e1a00003 	mov	r0, r3
    8504:	e24bd004 	sub	sp, fp, #4
    8508:	e8bd8800 	pop	{fp, pc}

0000850c <_ZN13CGPIO_Handler10Set_OutputEjb>:
_ZN13CGPIO_Handler10Set_OutputEjb():
/home/silhavyj/School/ZeroMate/examples/14-filesystem_monitor/kernel/src/drivers/gpio.cpp:94

void CGPIO_Handler::Set_Output(uint32_t pin, bool set)
{
    850c:	e92d4800 	push	{fp, lr}
    8510:	e28db004 	add	fp, sp, #4
    8514:	e24dd018 	sub	sp, sp, #24
    8518:	e50b0010 	str	r0, [fp, #-16]
    851c:	e50b1014 	str	r1, [fp, #-20]	; 0xffffffec
    8520:	e1a03002 	mov	r3, r2
    8524:	e54b3015 	strb	r3, [fp, #-21]	; 0xffffffeb
/home/silhavyj/School/ZeroMate/examples/14-filesystem_monitor/kernel/src/drivers/gpio.cpp:96
	uint32_t reg, bit;
	if (!(set && Get_GPSET_Location(pin, reg, bit)) && !(!set && Get_GPCLR_Location(pin, reg, bit)))
    8528:	e55b3015 	ldrb	r3, [fp, #-21]	; 0xffffffeb
    852c:	e2233001 	eor	r3, r3, #1
    8530:	e6ef3073 	uxtb	r3, r3
    8534:	e3530000 	cmp	r3, #0
    8538:	1a000009 	bne	8564 <_ZN13CGPIO_Handler10Set_OutputEjb+0x58>
/home/silhavyj/School/ZeroMate/examples/14-filesystem_monitor/kernel/src/drivers/gpio.cpp:96 (discriminator 2)
    853c:	e24b300c 	sub	r3, fp, #12
    8540:	e24b2008 	sub	r2, fp, #8
    8544:	e51b1014 	ldr	r1, [fp, #-20]	; 0xffffffec
    8548:	e51b0010 	ldr	r0, [fp, #-16]
    854c:	ebffff65 	bl	82e8 <_ZNK13CGPIO_Handler18Get_GPSET_LocationEjRjS0_>
    8550:	e1a03000 	mov	r3, r0
    8554:	e2233001 	eor	r3, r3, #1
    8558:	e6ef3073 	uxtb	r3, r3
    855c:	e3530000 	cmp	r3, #0
    8560:	0a00000e 	beq	85a0 <_ZN13CGPIO_Handler10Set_OutputEjb+0x94>
/home/silhavyj/School/ZeroMate/examples/14-filesystem_monitor/kernel/src/drivers/gpio.cpp:96 (discriminator 3)
    8564:	e55b3015 	ldrb	r3, [fp, #-21]	; 0xffffffeb
    8568:	e3530000 	cmp	r3, #0
    856c:	1a000009 	bne	8598 <_ZN13CGPIO_Handler10Set_OutputEjb+0x8c>
/home/silhavyj/School/ZeroMate/examples/14-filesystem_monitor/kernel/src/drivers/gpio.cpp:96 (discriminator 6)
    8570:	e24b300c 	sub	r3, fp, #12
    8574:	e24b2008 	sub	r2, fp, #8
    8578:	e51b1014 	ldr	r1, [fp, #-20]	; 0xffffffec
    857c:	e51b0010 	ldr	r0, [fp, #-16]
    8580:	ebffff3b 	bl	8274 <_ZNK13CGPIO_Handler18Get_GPCLR_LocationEjRjS0_>
    8584:	e1a03000 	mov	r3, r0
    8588:	e2233001 	eor	r3, r3, #1
    858c:	e6ef3073 	uxtb	r3, r3
    8590:	e3530000 	cmp	r3, #0
    8594:	0a000001 	beq	85a0 <_ZN13CGPIO_Handler10Set_OutputEjb+0x94>
/home/silhavyj/School/ZeroMate/examples/14-filesystem_monitor/kernel/src/drivers/gpio.cpp:96 (discriminator 7)
    8598:	e3a03001 	mov	r3, #1
    859c:	ea000000 	b	85a4 <_ZN13CGPIO_Handler10Set_OutputEjb+0x98>
/home/silhavyj/School/ZeroMate/examples/14-filesystem_monitor/kernel/src/drivers/gpio.cpp:96 (discriminator 8)
    85a0:	e3a03000 	mov	r3, #0
/home/silhavyj/School/ZeroMate/examples/14-filesystem_monitor/kernel/src/drivers/gpio.cpp:96 (discriminator 10)
    85a4:	e3530000 	cmp	r3, #0
    85a8:	1a00000a 	bne	85d8 <_ZN13CGPIO_Handler10Set_OutputEjb+0xcc>
/home/silhavyj/School/ZeroMate/examples/14-filesystem_monitor/kernel/src/drivers/gpio.cpp:99
		return;
	
	mGPIO[reg] = (1 << bit);
    85ac:	e51b300c 	ldr	r3, [fp, #-12]
    85b0:	e3a02001 	mov	r2, #1
    85b4:	e1a01312 	lsl	r1, r2, r3
    85b8:	e51b3010 	ldr	r3, [fp, #-16]
    85bc:	e5932000 	ldr	r2, [r3]
    85c0:	e51b3008 	ldr	r3, [fp, #-8]
    85c4:	e1a03103 	lsl	r3, r3, #2
    85c8:	e0823003 	add	r3, r2, r3
    85cc:	e1a02001 	mov	r2, r1
    85d0:	e5832000 	str	r2, [r3]
    85d4:	ea000000 	b	85dc <_ZN13CGPIO_Handler10Set_OutputEjb+0xd0>
/home/silhavyj/School/ZeroMate/examples/14-filesystem_monitor/kernel/src/drivers/gpio.cpp:97
		return;
    85d8:	e320f000 	nop	{0}
/home/silhavyj/School/ZeroMate/examples/14-filesystem_monitor/kernel/src/drivers/gpio.cpp:100
}
    85dc:	e24bd004 	sub	sp, fp, #4
    85e0:	e8bd8800 	pop	{fp, pc}

000085e4 <_ZN13CGPIO_Handler9Get_InputEj>:
_ZN13CGPIO_Handler9Get_InputEj():
/home/silhavyj/School/ZeroMate/examples/14-filesystem_monitor/kernel/src/drivers/gpio.cpp:103

bool CGPIO_Handler::Get_Input(uint32_t pin)
{
    85e4:	e92d4800 	push	{fp, lr}
    85e8:	e28db004 	add	fp, sp, #4
    85ec:	e24dd010 	sub	sp, sp, #16
    85f0:	e50b0010 	str	r0, [fp, #-16]
    85f4:	e50b1014 	str	r1, [fp, #-20]	; 0xffffffec
/home/silhavyj/School/ZeroMate/examples/14-filesystem_monitor/kernel/src/drivers/gpio.cpp:105
	uint32_t reg, bit;
	if (!Get_GPLEV_Location(pin, reg, bit))
    85f8:	e24b300c 	sub	r3, fp, #12
    85fc:	e24b2008 	sub	r2, fp, #8
    8600:	e51b1014 	ldr	r1, [fp, #-20]	; 0xffffffec
    8604:	e51b0010 	ldr	r0, [fp, #-16]
    8608:	ebffff53 	bl	835c <_ZNK13CGPIO_Handler18Get_GPLEV_LocationEjRjS0_>
    860c:	e1a03000 	mov	r3, r0
    8610:	e2233001 	eor	r3, r3, #1
    8614:	e6ef3073 	uxtb	r3, r3
    8618:	e3530000 	cmp	r3, #0
    861c:	0a000001 	beq	8628 <_ZN13CGPIO_Handler9Get_InputEj+0x44>
/home/silhavyj/School/ZeroMate/examples/14-filesystem_monitor/kernel/src/drivers/gpio.cpp:106
		return false;
    8620:	e3a03000 	mov	r3, #0
    8624:	ea00000c 	b	865c <_ZN13CGPIO_Handler9Get_InputEj+0x78>
/home/silhavyj/School/ZeroMate/examples/14-filesystem_monitor/kernel/src/drivers/gpio.cpp:108
	
	return (mGPIO[reg] >> bit) & 0x1;
    8628:	e51b3010 	ldr	r3, [fp, #-16]
    862c:	e5932000 	ldr	r2, [r3]
    8630:	e51b3008 	ldr	r3, [fp, #-8]
    8634:	e1a03103 	lsl	r3, r3, #2
    8638:	e0823003 	add	r3, r2, r3
    863c:	e5932000 	ldr	r2, [r3]
    8640:	e51b300c 	ldr	r3, [fp, #-12]
    8644:	e1a03332 	lsr	r3, r2, r3
    8648:	e2033001 	and	r3, r3, #1
    864c:	e3530000 	cmp	r3, #0
    8650:	13a03001 	movne	r3, #1
    8654:	03a03000 	moveq	r3, #0
    8658:	e6ef3073 	uxtb	r3, r3
/home/silhavyj/School/ZeroMate/examples/14-filesystem_monitor/kernel/src/drivers/gpio.cpp:109 (discriminator 1)
}
    865c:	e1a00003 	mov	r0, r3
    8660:	e24bd004 	sub	sp, fp, #4
    8664:	e8bd8800 	pop	{fp, pc}

00008668 <_ZN13CGPIO_Handler11Reserve_PinEjbb>:
_ZN13CGPIO_Handler11Reserve_PinEjbb():
/home/silhavyj/School/ZeroMate/examples/14-filesystem_monitor/kernel/src/drivers/gpio.cpp:112

bool CGPIO_Handler::Reserve_Pin(uint32_t pin, bool read, bool write)
{
    8668:	e92d48f0 	push	{r4, r5, r6, r7, fp, lr}
    866c:	e28db014 	add	fp, sp, #20
    8670:	e24dd018 	sub	sp, sp, #24
    8674:	e50b0020 	str	r0, [fp, #-32]	; 0xffffffe0
    8678:	e50b1024 	str	r1, [fp, #-36]	; 0xffffffdc
    867c:	e1a01002 	mov	r1, r2
    8680:	e1a02003 	mov	r2, r3
    8684:	e1a03001 	mov	r3, r1
    8688:	e54b3025 	strb	r3, [fp, #-37]	; 0xffffffdb
    868c:	e1a03002 	mov	r3, r2
    8690:	e54b3026 	strb	r3, [fp, #-38]	; 0xffffffda
/home/silhavyj/School/ZeroMate/examples/14-filesystem_monitor/kernel/src/drivers/gpio.cpp:115
	// TODO: zamek, tady by se neco mohlo sejit

	uint32_t bank_idx = pin / 32;
    8694:	e51b3024 	ldr	r3, [fp, #-36]	; 0xffffffdc
    8698:	e1a032a3 	lsr	r3, r3, #5
    869c:	e50b3018 	str	r3, [fp, #-24]	; 0xffffffe8
/home/silhavyj/School/ZeroMate/examples/14-filesystem_monitor/kernel/src/drivers/gpio.cpp:116
	uint32_t bit_idx = pin % 32;
    86a0:	e51b3024 	ldr	r3, [fp, #-36]	; 0xffffffdc
    86a4:	e203301f 	and	r3, r3, #31
    86a8:	e50b301c 	str	r3, [fp, #-28]	; 0xffffffe4
/home/silhavyj/School/ZeroMate/examples/14-filesystem_monitor/kernel/src/drivers/gpio.cpp:118

	if (read && (mPin_Reservations_Read[bank_idx] >> bit_idx) & 0x1)
    86ac:	e55b3025 	ldrb	r3, [fp, #-37]	; 0xffffffdb
    86b0:	e3530000 	cmp	r3, #0
    86b4:	0a00000b 	beq	86e8 <_ZN13CGPIO_Handler11Reserve_PinEjbb+0x80>
/home/silhavyj/School/ZeroMate/examples/14-filesystem_monitor/kernel/src/drivers/gpio.cpp:118 (discriminator 1)
    86b8:	e51b2020 	ldr	r2, [fp, #-32]	; 0xffffffe0
    86bc:	e51b3018 	ldr	r3, [fp, #-24]	; 0xffffffe8
    86c0:	e1a03103 	lsl	r3, r3, #2
    86c4:	e0823003 	add	r3, r2, r3
    86c8:	e5932004 	ldr	r2, [r3, #4]
    86cc:	e51b301c 	ldr	r3, [fp, #-28]	; 0xffffffe4
    86d0:	e1a03332 	lsr	r3, r2, r3
    86d4:	e2033001 	and	r3, r3, #1
    86d8:	e3530000 	cmp	r3, #0
    86dc:	0a000001 	beq	86e8 <_ZN13CGPIO_Handler11Reserve_PinEjbb+0x80>
/home/silhavyj/School/ZeroMate/examples/14-filesystem_monitor/kernel/src/drivers/gpio.cpp:119
		return false;
    86e0:	e3a03000 	mov	r3, #0
    86e4:	ea000042 	b	87f4 <_ZN13CGPIO_Handler11Reserve_PinEjbb+0x18c>
/home/silhavyj/School/ZeroMate/examples/14-filesystem_monitor/kernel/src/drivers/gpio.cpp:121

	if (write && (mPin_Reservations_Write[bank_idx] >> bit_idx) & 0x1)
    86e8:	e55b3026 	ldrb	r3, [fp, #-38]	; 0xffffffda
    86ec:	e3530000 	cmp	r3, #0
    86f0:	0a00000c 	beq	8728 <_ZN13CGPIO_Handler11Reserve_PinEjbb+0xc0>
/home/silhavyj/School/ZeroMate/examples/14-filesystem_monitor/kernel/src/drivers/gpio.cpp:121 (discriminator 1)
    86f4:	e51b2020 	ldr	r2, [fp, #-32]	; 0xffffffe0
    86f8:	e51b3018 	ldr	r3, [fp, #-24]	; 0xffffffe8
    86fc:	e2833002 	add	r3, r3, #2
    8700:	e1a03103 	lsl	r3, r3, #2
    8704:	e0823003 	add	r3, r2, r3
    8708:	e5932004 	ldr	r2, [r3, #4]
    870c:	e51b301c 	ldr	r3, [fp, #-28]	; 0xffffffe4
    8710:	e1a03332 	lsr	r3, r2, r3
    8714:	e2033001 	and	r3, r3, #1
    8718:	e3530000 	cmp	r3, #0
    871c:	0a000001 	beq	8728 <_ZN13CGPIO_Handler11Reserve_PinEjbb+0xc0>
/home/silhavyj/School/ZeroMate/examples/14-filesystem_monitor/kernel/src/drivers/gpio.cpp:122
		return false;
    8720:	e3a03000 	mov	r3, #0
    8724:	ea000032 	b	87f4 <_ZN13CGPIO_Handler11Reserve_PinEjbb+0x18c>
/home/silhavyj/School/ZeroMate/examples/14-filesystem_monitor/kernel/src/drivers/gpio.cpp:124

	if (read)
    8728:	e55b3025 	ldrb	r3, [fp, #-37]	; 0xffffffdb
    872c:	e3530000 	cmp	r3, #0
    8730:	0a000014 	beq	8788 <_ZN13CGPIO_Handler11Reserve_PinEjbb+0x120>
/home/silhavyj/School/ZeroMate/examples/14-filesystem_monitor/kernel/src/drivers/gpio.cpp:125
		mPin_Reservations_Read[bank_idx] |= 1ULL << bit_idx;
    8734:	e51b2020 	ldr	r2, [fp, #-32]	; 0xffffffe0
    8738:	e51b3018 	ldr	r3, [fp, #-24]	; 0xffffffe8
    873c:	e1a03103 	lsl	r3, r3, #2
    8740:	e0823003 	add	r3, r2, r3
    8744:	e5930004 	ldr	r0, [r3, #4]
    8748:	e3a02001 	mov	r2, #1
    874c:	e3a03000 	mov	r3, #0
    8750:	e51b101c 	ldr	r1, [fp, #-28]	; 0xffffffe4
    8754:	e241e020 	sub	lr, r1, #32
    8758:	e261c020 	rsb	ip, r1, #32
    875c:	e1a07113 	lsl	r7, r3, r1
    8760:	e1877e12 	orr	r7, r7, r2, lsl lr
    8764:	e1877c32 	orr	r7, r7, r2, lsr ip
    8768:	e1a06112 	lsl	r6, r2, r1
    876c:	e1a03006 	mov	r3, r6
    8770:	e1802003 	orr	r2, r0, r3
    8774:	e51b1020 	ldr	r1, [fp, #-32]	; 0xffffffe0
    8778:	e51b3018 	ldr	r3, [fp, #-24]	; 0xffffffe8
    877c:	e1a03103 	lsl	r3, r3, #2
    8780:	e0813003 	add	r3, r1, r3
    8784:	e5832004 	str	r2, [r3, #4]
/home/silhavyj/School/ZeroMate/examples/14-filesystem_monitor/kernel/src/drivers/gpio.cpp:127

	if (write)
    8788:	e55b3026 	ldrb	r3, [fp, #-38]	; 0xffffffda
    878c:	e3530000 	cmp	r3, #0
    8790:	0a000016 	beq	87f0 <_ZN13CGPIO_Handler11Reserve_PinEjbb+0x188>
/home/silhavyj/School/ZeroMate/examples/14-filesystem_monitor/kernel/src/drivers/gpio.cpp:128
		mPin_Reservations_Write[bank_idx] |= 1ULL << bit_idx;
    8794:	e51b2020 	ldr	r2, [fp, #-32]	; 0xffffffe0
    8798:	e51b3018 	ldr	r3, [fp, #-24]	; 0xffffffe8
    879c:	e2833002 	add	r3, r3, #2
    87a0:	e1a03103 	lsl	r3, r3, #2
    87a4:	e0823003 	add	r3, r2, r3
    87a8:	e5930004 	ldr	r0, [r3, #4]
    87ac:	e3a02001 	mov	r2, #1
    87b0:	e3a03000 	mov	r3, #0
    87b4:	e51b101c 	ldr	r1, [fp, #-28]	; 0xffffffe4
    87b8:	e241e020 	sub	lr, r1, #32
    87bc:	e261c020 	rsb	ip, r1, #32
    87c0:	e1a05113 	lsl	r5, r3, r1
    87c4:	e1855e12 	orr	r5, r5, r2, lsl lr
    87c8:	e1855c32 	orr	r5, r5, r2, lsr ip
    87cc:	e1a04112 	lsl	r4, r2, r1
    87d0:	e1a03004 	mov	r3, r4
    87d4:	e1802003 	orr	r2, r0, r3
    87d8:	e51b1020 	ldr	r1, [fp, #-32]	; 0xffffffe0
    87dc:	e51b3018 	ldr	r3, [fp, #-24]	; 0xffffffe8
    87e0:	e2833002 	add	r3, r3, #2
    87e4:	e1a03103 	lsl	r3, r3, #2
    87e8:	e0813003 	add	r3, r1, r3
    87ec:	e5832004 	str	r2, [r3, #4]
/home/silhavyj/School/ZeroMate/examples/14-filesystem_monitor/kernel/src/drivers/gpio.cpp:130

	return true;
    87f0:	e3a03001 	mov	r3, #1
/home/silhavyj/School/ZeroMate/examples/14-filesystem_monitor/kernel/src/drivers/gpio.cpp:131
}
    87f4:	e1a00003 	mov	r0, r3
    87f8:	e24bd014 	sub	sp, fp, #20
    87fc:	e8bd88f0 	pop	{r4, r5, r6, r7, fp, pc}

00008800 <_ZN13CGPIO_Handler8Free_PinEjbb>:
_ZN13CGPIO_Handler8Free_PinEjbb():
/home/silhavyj/School/ZeroMate/examples/14-filesystem_monitor/kernel/src/drivers/gpio.cpp:134

bool CGPIO_Handler::Free_Pin(uint32_t pin, bool read, bool write)
{
    8800:	e92d48f0 	push	{r4, r5, r6, r7, fp, lr}
    8804:	e28db014 	add	fp, sp, #20
    8808:	e24dd018 	sub	sp, sp, #24
    880c:	e50b0020 	str	r0, [fp, #-32]	; 0xffffffe0
    8810:	e50b1024 	str	r1, [fp, #-36]	; 0xffffffdc
    8814:	e1a01002 	mov	r1, r2
    8818:	e1a02003 	mov	r2, r3
    881c:	e1a03001 	mov	r3, r1
    8820:	e54b3025 	strb	r3, [fp, #-37]	; 0xffffffdb
    8824:	e1a03002 	mov	r3, r2
    8828:	e54b3026 	strb	r3, [fp, #-38]	; 0xffffffda
/home/silhavyj/School/ZeroMate/examples/14-filesystem_monitor/kernel/src/drivers/gpio.cpp:135
	uint32_t bank_idx = pin / 32;
    882c:	e51b3024 	ldr	r3, [fp, #-36]	; 0xffffffdc
    8830:	e1a032a3 	lsr	r3, r3, #5
    8834:	e50b3018 	str	r3, [fp, #-24]	; 0xffffffe8
/home/silhavyj/School/ZeroMate/examples/14-filesystem_monitor/kernel/src/drivers/gpio.cpp:136
	uint32_t bit_idx = pin % 32;
    8838:	e51b3024 	ldr	r3, [fp, #-36]	; 0xffffffdc
    883c:	e203301f 	and	r3, r3, #31
    8840:	e50b301c 	str	r3, [fp, #-28]	; 0xffffffe4
/home/silhavyj/School/ZeroMate/examples/14-filesystem_monitor/kernel/src/drivers/gpio.cpp:138

	if (read && !((mPin_Reservations_Read[bank_idx] >> bit_idx) & 0x1))
    8844:	e55b3025 	ldrb	r3, [fp, #-37]	; 0xffffffdb
    8848:	e3530000 	cmp	r3, #0
    884c:	0a00000b 	beq	8880 <_ZN13CGPIO_Handler8Free_PinEjbb+0x80>
/home/silhavyj/School/ZeroMate/examples/14-filesystem_monitor/kernel/src/drivers/gpio.cpp:138 (discriminator 1)
    8850:	e51b2020 	ldr	r2, [fp, #-32]	; 0xffffffe0
    8854:	e51b3018 	ldr	r3, [fp, #-24]	; 0xffffffe8
    8858:	e1a03103 	lsl	r3, r3, #2
    885c:	e0823003 	add	r3, r2, r3
    8860:	e5932004 	ldr	r2, [r3, #4]
    8864:	e51b301c 	ldr	r3, [fp, #-28]	; 0xffffffe4
    8868:	e1a03332 	lsr	r3, r2, r3
    886c:	e2033001 	and	r3, r3, #1
    8870:	e3530000 	cmp	r3, #0
    8874:	1a000001 	bne	8880 <_ZN13CGPIO_Handler8Free_PinEjbb+0x80>
/home/silhavyj/School/ZeroMate/examples/14-filesystem_monitor/kernel/src/drivers/gpio.cpp:139
		return false;
    8878:	e3a03000 	mov	r3, #0
    887c:	ea000044 	b	8994 <_ZN13CGPIO_Handler8Free_PinEjbb+0x194>
/home/silhavyj/School/ZeroMate/examples/14-filesystem_monitor/kernel/src/drivers/gpio.cpp:141

	if (write && !((mPin_Reservations_Write[bank_idx] >> bit_idx) & 0x1))
    8880:	e55b3026 	ldrb	r3, [fp, #-38]	; 0xffffffda
    8884:	e3530000 	cmp	r3, #0
    8888:	0a00000c 	beq	88c0 <_ZN13CGPIO_Handler8Free_PinEjbb+0xc0>
/home/silhavyj/School/ZeroMate/examples/14-filesystem_monitor/kernel/src/drivers/gpio.cpp:141 (discriminator 1)
    888c:	e51b2020 	ldr	r2, [fp, #-32]	; 0xffffffe0
    8890:	e51b3018 	ldr	r3, [fp, #-24]	; 0xffffffe8
    8894:	e2833002 	add	r3, r3, #2
    8898:	e1a03103 	lsl	r3, r3, #2
    889c:	e0823003 	add	r3, r2, r3
    88a0:	e5932004 	ldr	r2, [r3, #4]
    88a4:	e51b301c 	ldr	r3, [fp, #-28]	; 0xffffffe4
    88a8:	e1a03332 	lsr	r3, r2, r3
    88ac:	e2033001 	and	r3, r3, #1
    88b0:	e3530000 	cmp	r3, #0
    88b4:	1a000001 	bne	88c0 <_ZN13CGPIO_Handler8Free_PinEjbb+0xc0>
/home/silhavyj/School/ZeroMate/examples/14-filesystem_monitor/kernel/src/drivers/gpio.cpp:142
		return false;
    88b8:	e3a03000 	mov	r3, #0
    88bc:	ea000034 	b	8994 <_ZN13CGPIO_Handler8Free_PinEjbb+0x194>
/home/silhavyj/School/ZeroMate/examples/14-filesystem_monitor/kernel/src/drivers/gpio.cpp:144

	if (read)
    88c0:	e55b3025 	ldrb	r3, [fp, #-37]	; 0xffffffdb
    88c4:	e3530000 	cmp	r3, #0
    88c8:	0a000015 	beq	8924 <_ZN13CGPIO_Handler8Free_PinEjbb+0x124>
/home/silhavyj/School/ZeroMate/examples/14-filesystem_monitor/kernel/src/drivers/gpio.cpp:145
		mPin_Reservations_Read[bank_idx] &= ~(1ULL << bit_idx);
    88cc:	e51b2020 	ldr	r2, [fp, #-32]	; 0xffffffe0
    88d0:	e51b3018 	ldr	r3, [fp, #-24]	; 0xffffffe8
    88d4:	e1a03103 	lsl	r3, r3, #2
    88d8:	e0823003 	add	r3, r2, r3
    88dc:	e5930004 	ldr	r0, [r3, #4]
    88e0:	e3a02001 	mov	r2, #1
    88e4:	e3a03000 	mov	r3, #0
    88e8:	e51b101c 	ldr	r1, [fp, #-28]	; 0xffffffe4
    88ec:	e241e020 	sub	lr, r1, #32
    88f0:	e261c020 	rsb	ip, r1, #32
    88f4:	e1a07113 	lsl	r7, r3, r1
    88f8:	e1877e12 	orr	r7, r7, r2, lsl lr
    88fc:	e1877c32 	orr	r7, r7, r2, lsr ip
    8900:	e1a06112 	lsl	r6, r2, r1
    8904:	e1a03006 	mov	r3, r6
    8908:	e1e03003 	mvn	r3, r3
    890c:	e0002003 	and	r2, r0, r3
    8910:	e51b1020 	ldr	r1, [fp, #-32]	; 0xffffffe0
    8914:	e51b3018 	ldr	r3, [fp, #-24]	; 0xffffffe8
    8918:	e1a03103 	lsl	r3, r3, #2
    891c:	e0813003 	add	r3, r1, r3
    8920:	e5832004 	str	r2, [r3, #4]
/home/silhavyj/School/ZeroMate/examples/14-filesystem_monitor/kernel/src/drivers/gpio.cpp:147

	if (write)
    8924:	e55b3026 	ldrb	r3, [fp, #-38]	; 0xffffffda
    8928:	e3530000 	cmp	r3, #0
    892c:	0a000017 	beq	8990 <_ZN13CGPIO_Handler8Free_PinEjbb+0x190>
/home/silhavyj/School/ZeroMate/examples/14-filesystem_monitor/kernel/src/drivers/gpio.cpp:148
		mPin_Reservations_Write[bank_idx] &= ~(1ULL << bit_idx);
    8930:	e51b2020 	ldr	r2, [fp, #-32]	; 0xffffffe0
    8934:	e51b3018 	ldr	r3, [fp, #-24]	; 0xffffffe8
    8938:	e2833002 	add	r3, r3, #2
    893c:	e1a03103 	lsl	r3, r3, #2
    8940:	e0823003 	add	r3, r2, r3
    8944:	e5930004 	ldr	r0, [r3, #4]
    8948:	e3a02001 	mov	r2, #1
    894c:	e3a03000 	mov	r3, #0
    8950:	e51b101c 	ldr	r1, [fp, #-28]	; 0xffffffe4
    8954:	e241e020 	sub	lr, r1, #32
    8958:	e261c020 	rsb	ip, r1, #32
    895c:	e1a05113 	lsl	r5, r3, r1
    8960:	e1855e12 	orr	r5, r5, r2, lsl lr
    8964:	e1855c32 	orr	r5, r5, r2, lsr ip
    8968:	e1a04112 	lsl	r4, r2, r1
    896c:	e1a03004 	mov	r3, r4
    8970:	e1e03003 	mvn	r3, r3
    8974:	e0002003 	and	r2, r0, r3
    8978:	e51b1020 	ldr	r1, [fp, #-32]	; 0xffffffe0
    897c:	e51b3018 	ldr	r3, [fp, #-24]	; 0xffffffe8
    8980:	e2833002 	add	r3, r3, #2
    8984:	e1a03103 	lsl	r3, r3, #2
    8988:	e0813003 	add	r3, r1, r3
    898c:	e5832004 	str	r2, [r3, #4]
/home/silhavyj/School/ZeroMate/examples/14-filesystem_monitor/kernel/src/drivers/gpio.cpp:150

	return true;
    8990:	e3a03001 	mov	r3, #1
/home/silhavyj/School/ZeroMate/examples/14-filesystem_monitor/kernel/src/drivers/gpio.cpp:151
}
    8994:	e1a00003 	mov	r0, r3
    8998:	e24bd014 	sub	sp, fp, #20
    899c:	e8bd88f0 	pop	{r4, r5, r6, r7, fp, pc}

000089a0 <_Z41__static_initialization_and_destruction_0ii>:
_Z41__static_initialization_and_destruction_0ii():
/home/silhavyj/School/ZeroMate/examples/14-filesystem_monitor/kernel/src/drivers/gpio.cpp:151
    89a0:	e92d4800 	push	{fp, lr}
    89a4:	e28db004 	add	fp, sp, #4
    89a8:	e24dd008 	sub	sp, sp, #8
    89ac:	e50b0008 	str	r0, [fp, #-8]
    89b0:	e50b100c 	str	r1, [fp, #-12]
    89b4:	e51b3008 	ldr	r3, [fp, #-8]
    89b8:	e3530001 	cmp	r3, #1
    89bc:	1a000006 	bne	89dc <_Z41__static_initialization_and_destruction_0ii+0x3c>
/home/silhavyj/School/ZeroMate/examples/14-filesystem_monitor/kernel/src/drivers/gpio.cpp:151 (discriminator 1)
    89c0:	e51b300c 	ldr	r3, [fp, #-12]
    89c4:	e59f201c 	ldr	r2, [pc, #28]	; 89e8 <_Z41__static_initialization_and_destruction_0ii+0x48>
    89c8:	e1530002 	cmp	r3, r2
    89cc:	1a000002 	bne	89dc <_Z41__static_initialization_and_destruction_0ii+0x3c>
/home/silhavyj/School/ZeroMate/examples/14-filesystem_monitor/kernel/src/drivers/gpio.cpp:6
CGPIO_Handler sGPIO(hal::GPIO_Base);
    89d0:	e59f1014 	ldr	r1, [pc, #20]	; 89ec <_Z41__static_initialization_and_destruction_0ii+0x4c>
    89d4:	e59f0014 	ldr	r0, [pc, #20]	; 89f0 <_Z41__static_initialization_and_destruction_0ii+0x50>
    89d8:	ebfffde9 	bl	8184 <_ZN13CGPIO_HandlerC1Ej>
/home/silhavyj/School/ZeroMate/examples/14-filesystem_monitor/kernel/src/drivers/gpio.cpp:151
}
    89dc:	e320f000 	nop	{0}
    89e0:	e24bd004 	sub	sp, fp, #4
    89e4:	e8bd8800 	pop	{fp, pc}
    89e8:	0000ffff 	strdeq	pc, [r0], -pc	; <UNPREDICTABLE>
    89ec:	20200000 	eorcs	r0, r0, r0
    89f0:	0000ca50 	andeq	ip, r0, r0, asr sl

000089f4 <_GLOBAL__sub_I_sGPIO>:
_GLOBAL__sub_I_sGPIO():
/home/silhavyj/School/ZeroMate/examples/14-filesystem_monitor/kernel/src/drivers/gpio.cpp:151
    89f4:	e92d4800 	push	{fp, lr}
    89f8:	e28db004 	add	fp, sp, #4
    89fc:	e59f1008 	ldr	r1, [pc, #8]	; 8a0c <_GLOBAL__sub_I_sGPIO+0x18>
    8a00:	e3a00001 	mov	r0, #1
    8a04:	ebffffe5 	bl	89a0 <_Z41__static_initialization_and_destruction_0ii>
    8a08:	e8bd8800 	pop	{fp, pc}
    8a0c:	0000ffff 	strdeq	pc, [r0], -pc	; <UNPREDICTABLE>

00008a10 <_ZN8CMonitorC1Ejjj>:
_ZN8CMonitorC2Ejjj():
/home/silhavyj/School/ZeroMate/examples/14-filesystem_monitor/kernel/src/drivers/monitor.cpp:5
#include <drivers/monitor.h>

CMonitor sMonitor{ 0x30000000, 80, 25 };

CMonitor::CMonitor(unsigned int monitor_base_addr, unsigned int width, unsigned int height)
    8a10:	e52db004 	push	{fp}		; (str fp, [sp, #-4]!)
    8a14:	e28db000 	add	fp, sp, #0
    8a18:	e24dd014 	sub	sp, sp, #20
    8a1c:	e50b0008 	str	r0, [fp, #-8]
    8a20:	e50b100c 	str	r1, [fp, #-12]
    8a24:	e50b2010 	str	r2, [fp, #-16]
    8a28:	e50b3014 	str	r3, [fp, #-20]	; 0xffffffec
/home/silhavyj/School/ZeroMate/examples/14-filesystem_monitor/kernel/src/drivers/monitor.cpp:6
: m_monitor{ reinterpret_cast<unsigned char*>(monitor_base_addr) }
    8a2c:	e51b200c 	ldr	r2, [fp, #-12]
/home/silhavyj/School/ZeroMate/examples/14-filesystem_monitor/kernel/src/drivers/monitor.cpp:10
, m_width{ width }
, m_height{ height }
, m_cursor{ 0, 0 }
, m_number_base{ DEFAULT_NUMBER_BASE }
    8a30:	e51b3008 	ldr	r3, [fp, #-8]
    8a34:	e5832000 	str	r2, [r3]
    8a38:	e51b3008 	ldr	r3, [fp, #-8]
    8a3c:	e51b2010 	ldr	r2, [fp, #-16]
    8a40:	e5832004 	str	r2, [r3, #4]
    8a44:	e51b3008 	ldr	r3, [fp, #-8]
    8a48:	e51b2014 	ldr	r2, [fp, #-20]	; 0xffffffec
    8a4c:	e5832008 	str	r2, [r3, #8]
    8a50:	e51b3008 	ldr	r3, [fp, #-8]
    8a54:	e3a02000 	mov	r2, #0
    8a58:	e583200c 	str	r2, [r3, #12]
    8a5c:	e51b3008 	ldr	r3, [fp, #-8]
    8a60:	e3a02000 	mov	r2, #0
    8a64:	e5832010 	str	r2, [r3, #16]
    8a68:	e51b3008 	ldr	r3, [fp, #-8]
    8a6c:	e3a0200a 	mov	r2, #10
    8a70:	e5832014 	str	r2, [r3, #20]
/home/silhavyj/School/ZeroMate/examples/14-filesystem_monitor/kernel/src/drivers/monitor.cpp:12
{
}
    8a74:	e51b3008 	ldr	r3, [fp, #-8]
    8a78:	e1a00003 	mov	r0, r3
    8a7c:	e28bd000 	add	sp, fp, #0
    8a80:	e49db004 	pop	{fp}		; (ldr fp, [sp], #4)
    8a84:	e12fff1e 	bx	lr

00008a88 <_ZN8CMonitor5ClearEv>:
_ZN8CMonitor5ClearEv():
/home/silhavyj/School/ZeroMate/examples/14-filesystem_monitor/kernel/src/drivers/monitor.cpp:21
    m_cursor.y = 0;
    m_cursor.y = 0;
}

void CMonitor::Clear()
{
    8a88:	e92d4800 	push	{fp, lr}
    8a8c:	e28db004 	add	fp, sp, #4
    8a90:	e24dd010 	sub	sp, sp, #16
    8a94:	e50b0010 	str	r0, [fp, #-16]
/home/silhavyj/School/ZeroMate/examples/14-filesystem_monitor/kernel/src/drivers/monitor.cpp:22
    Reset_Cursor();
    8a98:	e51b0010 	ldr	r0, [fp, #-16]
    8a9c:	eb00016d 	bl	9058 <_ZN8CMonitor12Reset_CursorEv>
/home/silhavyj/School/ZeroMate/examples/14-filesystem_monitor/kernel/src/drivers/monitor.cpp:24

    for (unsigned int y = 0; y < m_height; ++y)
    8aa0:	e3a03000 	mov	r3, #0
    8aa4:	e50b3008 	str	r3, [fp, #-8]
/home/silhavyj/School/ZeroMate/examples/14-filesystem_monitor/kernel/src/drivers/monitor.cpp:24 (discriminator 1)
    8aa8:	e51b3010 	ldr	r3, [fp, #-16]
    8aac:	e5933008 	ldr	r3, [r3, #8]
    8ab0:	e51b2008 	ldr	r2, [fp, #-8]
    8ab4:	e1520003 	cmp	r2, r3
    8ab8:	2a000019 	bcs	8b24 <_ZN8CMonitor5ClearEv+0x9c>
/home/silhavyj/School/ZeroMate/examples/14-filesystem_monitor/kernel/src/drivers/monitor.cpp:26
    {
        for (unsigned int x = 0; x < m_width; ++x)
    8abc:	e3a03000 	mov	r3, #0
    8ac0:	e50b300c 	str	r3, [fp, #-12]
/home/silhavyj/School/ZeroMate/examples/14-filesystem_monitor/kernel/src/drivers/monitor.cpp:26 (discriminator 3)
    8ac4:	e51b3010 	ldr	r3, [fp, #-16]
    8ac8:	e5933004 	ldr	r3, [r3, #4]
    8acc:	e51b200c 	ldr	r2, [fp, #-12]
    8ad0:	e1520003 	cmp	r2, r3
    8ad4:	2a00000e 	bcs	8b14 <_ZN8CMonitor5ClearEv+0x8c>
/home/silhavyj/School/ZeroMate/examples/14-filesystem_monitor/kernel/src/drivers/monitor.cpp:28 (discriminator 2)
        {
            m_monitor[(y * m_width) + x] = ' ';
    8ad8:	e51b3010 	ldr	r3, [fp, #-16]
    8adc:	e5932000 	ldr	r2, [r3]
    8ae0:	e51b3010 	ldr	r3, [fp, #-16]
    8ae4:	e5933004 	ldr	r3, [r3, #4]
    8ae8:	e51b1008 	ldr	r1, [fp, #-8]
    8aec:	e0010391 	mul	r1, r1, r3
    8af0:	e51b300c 	ldr	r3, [fp, #-12]
    8af4:	e0813003 	add	r3, r1, r3
    8af8:	e0823003 	add	r3, r2, r3
    8afc:	e3a02020 	mov	r2, #32
    8b00:	e5c32000 	strb	r2, [r3]
/home/silhavyj/School/ZeroMate/examples/14-filesystem_monitor/kernel/src/drivers/monitor.cpp:26 (discriminator 2)
        for (unsigned int x = 0; x < m_width; ++x)
    8b04:	e51b300c 	ldr	r3, [fp, #-12]
    8b08:	e2833001 	add	r3, r3, #1
    8b0c:	e50b300c 	str	r3, [fp, #-12]
    8b10:	eaffffeb 	b	8ac4 <_ZN8CMonitor5ClearEv+0x3c>
/home/silhavyj/School/ZeroMate/examples/14-filesystem_monitor/kernel/src/drivers/monitor.cpp:24 (discriminator 2)
    for (unsigned int y = 0; y < m_height; ++y)
    8b14:	e51b3008 	ldr	r3, [fp, #-8]
    8b18:	e2833001 	add	r3, r3, #1
    8b1c:	e50b3008 	str	r3, [fp, #-8]
    8b20:	eaffffe0 	b	8aa8 <_ZN8CMonitor5ClearEv+0x20>
/home/silhavyj/School/ZeroMate/examples/14-filesystem_monitor/kernel/src/drivers/monitor.cpp:31
        }
    }
}
    8b24:	e320f000 	nop	{0}
    8b28:	e24bd004 	sub	sp, fp, #4
    8b2c:	e8bd8800 	pop	{fp, pc}

00008b30 <_ZN8CMonitor6ScrollEv>:
_ZN8CMonitor6ScrollEv():
/home/silhavyj/School/ZeroMate/examples/14-filesystem_monitor/kernel/src/drivers/monitor.cpp:49
        m_cursor.y = m_height - 1;
    }
}

void CMonitor::Scroll()
{
    8b30:	e52db004 	push	{fp}		; (str fp, [sp, #-4]!)
    8b34:	e28db000 	add	fp, sp, #0
    8b38:	e24dd01c 	sub	sp, sp, #28
    8b3c:	e50b0018 	str	r0, [fp, #-24]	; 0xffffffe8
/home/silhavyj/School/ZeroMate/examples/14-filesystem_monitor/kernel/src/drivers/monitor.cpp:50
    for (unsigned int y = 1; y < m_height; ++y)
    8b40:	e3a03001 	mov	r3, #1
    8b44:	e50b3008 	str	r3, [fp, #-8]
/home/silhavyj/School/ZeroMate/examples/14-filesystem_monitor/kernel/src/drivers/monitor.cpp:50 (discriminator 1)
    8b48:	e51b3018 	ldr	r3, [fp, #-24]	; 0xffffffe8
    8b4c:	e5933008 	ldr	r3, [r3, #8]
    8b50:	e51b2008 	ldr	r2, [fp, #-8]
    8b54:	e1520003 	cmp	r2, r3
    8b58:	2a000024 	bcs	8bf0 <_ZN8CMonitor6ScrollEv+0xc0>
/home/silhavyj/School/ZeroMate/examples/14-filesystem_monitor/kernel/src/drivers/monitor.cpp:52
    {
        for (unsigned int x = 0; x < m_width; ++x)
    8b5c:	e3a03000 	mov	r3, #0
    8b60:	e50b300c 	str	r3, [fp, #-12]
/home/silhavyj/School/ZeroMate/examples/14-filesystem_monitor/kernel/src/drivers/monitor.cpp:52 (discriminator 3)
    8b64:	e51b3018 	ldr	r3, [fp, #-24]	; 0xffffffe8
    8b68:	e5933004 	ldr	r3, [r3, #4]
    8b6c:	e51b200c 	ldr	r2, [fp, #-12]
    8b70:	e1520003 	cmp	r2, r3
    8b74:	2a000019 	bcs	8be0 <_ZN8CMonitor6ScrollEv+0xb0>
/home/silhavyj/School/ZeroMate/examples/14-filesystem_monitor/kernel/src/drivers/monitor.cpp:54 (discriminator 2)
        {
            m_monitor[((y - 1) * m_width) + x] = m_monitor[(y * m_width) + x];
    8b78:	e51b3018 	ldr	r3, [fp, #-24]	; 0xffffffe8
    8b7c:	e5932000 	ldr	r2, [r3]
    8b80:	e51b3018 	ldr	r3, [fp, #-24]	; 0xffffffe8
    8b84:	e5933004 	ldr	r3, [r3, #4]
    8b88:	e51b1008 	ldr	r1, [fp, #-8]
    8b8c:	e0010391 	mul	r1, r1, r3
    8b90:	e51b300c 	ldr	r3, [fp, #-12]
    8b94:	e0813003 	add	r3, r1, r3
    8b98:	e0822003 	add	r2, r2, r3
    8b9c:	e51b3018 	ldr	r3, [fp, #-24]	; 0xffffffe8
    8ba0:	e5931000 	ldr	r1, [r3]
    8ba4:	e51b3008 	ldr	r3, [fp, #-8]
    8ba8:	e2433001 	sub	r3, r3, #1
    8bac:	e51b0018 	ldr	r0, [fp, #-24]	; 0xffffffe8
    8bb0:	e5900004 	ldr	r0, [r0, #4]
    8bb4:	e0000390 	mul	r0, r0, r3
    8bb8:	e51b300c 	ldr	r3, [fp, #-12]
    8bbc:	e0803003 	add	r3, r0, r3
    8bc0:	e0813003 	add	r3, r1, r3
    8bc4:	e5d22000 	ldrb	r2, [r2]
    8bc8:	e6ef2072 	uxtb	r2, r2
    8bcc:	e5c32000 	strb	r2, [r3]
/home/silhavyj/School/ZeroMate/examples/14-filesystem_monitor/kernel/src/drivers/monitor.cpp:52 (discriminator 2)
        for (unsigned int x = 0; x < m_width; ++x)
    8bd0:	e51b300c 	ldr	r3, [fp, #-12]
    8bd4:	e2833001 	add	r3, r3, #1
    8bd8:	e50b300c 	str	r3, [fp, #-12]
    8bdc:	eaffffe0 	b	8b64 <_ZN8CMonitor6ScrollEv+0x34>
/home/silhavyj/School/ZeroMate/examples/14-filesystem_monitor/kernel/src/drivers/monitor.cpp:50 (discriminator 2)
    for (unsigned int y = 1; y < m_height; ++y)
    8be0:	e51b3008 	ldr	r3, [fp, #-8]
    8be4:	e2833001 	add	r3, r3, #1
    8be8:	e50b3008 	str	r3, [fp, #-8]
    8bec:	eaffffd5 	b	8b48 <_ZN8CMonitor6ScrollEv+0x18>
/home/silhavyj/School/ZeroMate/examples/14-filesystem_monitor/kernel/src/drivers/monitor.cpp:58
        }
    }

    for (unsigned int x = 0; x < m_width; ++x)
    8bf0:	e3a03000 	mov	r3, #0
    8bf4:	e50b3010 	str	r3, [fp, #-16]
/home/silhavyj/School/ZeroMate/examples/14-filesystem_monitor/kernel/src/drivers/monitor.cpp:58 (discriminator 3)
    8bf8:	e51b3018 	ldr	r3, [fp, #-24]	; 0xffffffe8
    8bfc:	e5933004 	ldr	r3, [r3, #4]
    8c00:	e51b2010 	ldr	r2, [fp, #-16]
    8c04:	e1520003 	cmp	r2, r3
    8c08:	2a000010 	bcs	8c50 <_ZN8CMonitor6ScrollEv+0x120>
/home/silhavyj/School/ZeroMate/examples/14-filesystem_monitor/kernel/src/drivers/monitor.cpp:60 (discriminator 2)
    {
        m_monitor[((m_height - 1) * m_width) + x] = ' ';
    8c0c:	e51b3018 	ldr	r3, [fp, #-24]	; 0xffffffe8
    8c10:	e5932000 	ldr	r2, [r3]
    8c14:	e51b3018 	ldr	r3, [fp, #-24]	; 0xffffffe8
    8c18:	e5933008 	ldr	r3, [r3, #8]
    8c1c:	e2433001 	sub	r3, r3, #1
    8c20:	e51b1018 	ldr	r1, [fp, #-24]	; 0xffffffe8
    8c24:	e5911004 	ldr	r1, [r1, #4]
    8c28:	e0010391 	mul	r1, r1, r3
    8c2c:	e51b3010 	ldr	r3, [fp, #-16]
    8c30:	e0813003 	add	r3, r1, r3
    8c34:	e0823003 	add	r3, r2, r3
    8c38:	e3a02020 	mov	r2, #32
    8c3c:	e5c32000 	strb	r2, [r3]
/home/silhavyj/School/ZeroMate/examples/14-filesystem_monitor/kernel/src/drivers/monitor.cpp:58 (discriminator 2)
    for (unsigned int x = 0; x < m_width; ++x)
    8c40:	e51b3010 	ldr	r3, [fp, #-16]
    8c44:	e2833001 	add	r3, r3, #1
    8c48:	e50b3010 	str	r3, [fp, #-16]
    8c4c:	eaffffe9 	b	8bf8 <_ZN8CMonitor6ScrollEv+0xc8>
/home/silhavyj/School/ZeroMate/examples/14-filesystem_monitor/kernel/src/drivers/monitor.cpp:62
    }
}
    8c50:	e320f000 	nop	{0}
    8c54:	e28bd000 	add	sp, fp, #0
    8c58:	e49db004 	pop	{fp}		; (ldr fp, [sp], #4)
    8c5c:	e12fff1e 	bx	lr

00008c60 <_ZN8CMonitorlsEc>:
_ZN8CMonitorlsEc():
/home/silhavyj/School/ZeroMate/examples/14-filesystem_monitor/kernel/src/drivers/monitor.cpp:70
{
    m_number_base = DEFAULT_NUMBER_BASE;
}

CMonitor& CMonitor::operator<<(char c)
{
    8c60:	e92d4800 	push	{fp, lr}
    8c64:	e28db004 	add	fp, sp, #4
    8c68:	e24dd008 	sub	sp, sp, #8
    8c6c:	e50b0008 	str	r0, [fp, #-8]
    8c70:	e1a03001 	mov	r3, r1
    8c74:	e54b3009 	strb	r3, [fp, #-9]
/home/silhavyj/School/ZeroMate/examples/14-filesystem_monitor/kernel/src/drivers/monitor.cpp:71
    if (c != '\n')
    8c78:	e55b3009 	ldrb	r3, [fp, #-9]
    8c7c:	e353000a 	cmp	r3, #10
    8c80:	0a000012 	beq	8cd0 <_ZN8CMonitorlsEc+0x70>
/home/silhavyj/School/ZeroMate/examples/14-filesystem_monitor/kernel/src/drivers/monitor.cpp:73
    {
        m_monitor[(m_cursor.y * m_width) + m_cursor.x] = static_cast<unsigned char>(c);
    8c84:	e51b3008 	ldr	r3, [fp, #-8]
    8c88:	e5932000 	ldr	r2, [r3]
    8c8c:	e51b3008 	ldr	r3, [fp, #-8]
    8c90:	e593300c 	ldr	r3, [r3, #12]
    8c94:	e51b1008 	ldr	r1, [fp, #-8]
    8c98:	e5911004 	ldr	r1, [r1, #4]
    8c9c:	e0010391 	mul	r1, r1, r3
    8ca0:	e51b3008 	ldr	r3, [fp, #-8]
    8ca4:	e5933010 	ldr	r3, [r3, #16]
    8ca8:	e0813003 	add	r3, r1, r3
    8cac:	e0823003 	add	r3, r2, r3
    8cb0:	e55b2009 	ldrb	r2, [fp, #-9]
    8cb4:	e5c32000 	strb	r2, [r3]
/home/silhavyj/School/ZeroMate/examples/14-filesystem_monitor/kernel/src/drivers/monitor.cpp:74
        ++m_cursor.x;
    8cb8:	e51b3008 	ldr	r3, [fp, #-8]
    8cbc:	e5933010 	ldr	r3, [r3, #16]
    8cc0:	e2832001 	add	r2, r3, #1
    8cc4:	e51b3008 	ldr	r3, [fp, #-8]
    8cc8:	e5832010 	str	r2, [r3, #16]
    8ccc:	ea000007 	b	8cf0 <_ZN8CMonitorlsEc+0x90>
/home/silhavyj/School/ZeroMate/examples/14-filesystem_monitor/kernel/src/drivers/monitor.cpp:78
    }
    else
    {
        m_cursor.x = 0;
    8cd0:	e51b3008 	ldr	r3, [fp, #-8]
    8cd4:	e3a02000 	mov	r2, #0
    8cd8:	e5832010 	str	r2, [r3, #16]
/home/silhavyj/School/ZeroMate/examples/14-filesystem_monitor/kernel/src/drivers/monitor.cpp:79
        ++m_cursor.y;
    8cdc:	e51b3008 	ldr	r3, [fp, #-8]
    8ce0:	e593300c 	ldr	r3, [r3, #12]
    8ce4:	e2832001 	add	r2, r3, #1
    8ce8:	e51b3008 	ldr	r3, [fp, #-8]
    8cec:	e583200c 	str	r2, [r3, #12]
/home/silhavyj/School/ZeroMate/examples/14-filesystem_monitor/kernel/src/drivers/monitor.cpp:82
    }

    Adjust_Cursor();
    8cf0:	e51b0008 	ldr	r0, [fp, #-8]
    8cf4:	eb0000e5 	bl	9090 <_ZN8CMonitor13Adjust_CursorEv>
/home/silhavyj/School/ZeroMate/examples/14-filesystem_monitor/kernel/src/drivers/monitor.cpp:84

    return *this;
    8cf8:	e51b3008 	ldr	r3, [fp, #-8]
/home/silhavyj/School/ZeroMate/examples/14-filesystem_monitor/kernel/src/drivers/monitor.cpp:85
}
    8cfc:	e1a00003 	mov	r0, r3
    8d00:	e24bd004 	sub	sp, fp, #4
    8d04:	e8bd8800 	pop	{fp, pc}

00008d08 <_ZN8CMonitorlsEPKc>:
_ZN8CMonitorlsEPKc():
/home/silhavyj/School/ZeroMate/examples/14-filesystem_monitor/kernel/src/drivers/monitor.cpp:88

CMonitor& CMonitor::operator<<(const char* str)
{
    8d08:	e92d4800 	push	{fp, lr}
    8d0c:	e28db004 	add	fp, sp, #4
    8d10:	e24dd010 	sub	sp, sp, #16
    8d14:	e50b0010 	str	r0, [fp, #-16]
    8d18:	e50b1014 	str	r1, [fp, #-20]	; 0xffffffec
/home/silhavyj/School/ZeroMate/examples/14-filesystem_monitor/kernel/src/drivers/monitor.cpp:89
    for (unsigned int i = 0; str[i] != '\0'; ++i)
    8d1c:	e3a03000 	mov	r3, #0
    8d20:	e50b3008 	str	r3, [fp, #-8]
/home/silhavyj/School/ZeroMate/examples/14-filesystem_monitor/kernel/src/drivers/monitor.cpp:89 (discriminator 3)
    8d24:	e51b2014 	ldr	r2, [fp, #-20]	; 0xffffffec
    8d28:	e51b3008 	ldr	r3, [fp, #-8]
    8d2c:	e0823003 	add	r3, r2, r3
    8d30:	e5d33000 	ldrb	r3, [r3]
    8d34:	e3530000 	cmp	r3, #0
    8d38:	0a00000a 	beq	8d68 <_ZN8CMonitorlsEPKc+0x60>
/home/silhavyj/School/ZeroMate/examples/14-filesystem_monitor/kernel/src/drivers/monitor.cpp:91 (discriminator 2)
    {
        *this << str[i];
    8d3c:	e51b2014 	ldr	r2, [fp, #-20]	; 0xffffffec
    8d40:	e51b3008 	ldr	r3, [fp, #-8]
    8d44:	e0823003 	add	r3, r2, r3
    8d48:	e5d33000 	ldrb	r3, [r3]
    8d4c:	e1a01003 	mov	r1, r3
    8d50:	e51b0010 	ldr	r0, [fp, #-16]
    8d54:	ebffffc1 	bl	8c60 <_ZN8CMonitorlsEc>
/home/silhavyj/School/ZeroMate/examples/14-filesystem_monitor/kernel/src/drivers/monitor.cpp:89 (discriminator 2)
    for (unsigned int i = 0; str[i] != '\0'; ++i)
    8d58:	e51b3008 	ldr	r3, [fp, #-8]
    8d5c:	e2833001 	add	r3, r3, #1
    8d60:	e50b3008 	str	r3, [fp, #-8]
    8d64:	eaffffee 	b	8d24 <_ZN8CMonitorlsEPKc+0x1c>
/home/silhavyj/School/ZeroMate/examples/14-filesystem_monitor/kernel/src/drivers/monitor.cpp:94
    }

    Reset_Number_Base();
    8d68:	e51b0010 	ldr	r0, [fp, #-16]
    8d6c:	eb0000e9 	bl	9118 <_ZN8CMonitor17Reset_Number_BaseEv>
/home/silhavyj/School/ZeroMate/examples/14-filesystem_monitor/kernel/src/drivers/monitor.cpp:96

    return *this;
    8d70:	e51b3010 	ldr	r3, [fp, #-16]
/home/silhavyj/School/ZeroMate/examples/14-filesystem_monitor/kernel/src/drivers/monitor.cpp:97
}
    8d74:	e1a00003 	mov	r0, r3
    8d78:	e24bd004 	sub	sp, fp, #4
    8d7c:	e8bd8800 	pop	{fp, pc}

00008d80 <_ZN8CMonitorlsENS_12NNumber_BaseE>:
_ZN8CMonitorlsENS_12NNumber_BaseE():
/home/silhavyj/School/ZeroMate/examples/14-filesystem_monitor/kernel/src/drivers/monitor.cpp:100

CMonitor& CMonitor::operator<<(CMonitor::NNumber_Base number_base)
{
    8d80:	e52db004 	push	{fp}		; (str fp, [sp, #-4]!)
    8d84:	e28db000 	add	fp, sp, #0
    8d88:	e24dd00c 	sub	sp, sp, #12
    8d8c:	e50b0008 	str	r0, [fp, #-8]
    8d90:	e50b100c 	str	r1, [fp, #-12]
/home/silhavyj/School/ZeroMate/examples/14-filesystem_monitor/kernel/src/drivers/monitor.cpp:101
    m_number_base = number_base;
    8d94:	e51b3008 	ldr	r3, [fp, #-8]
    8d98:	e51b200c 	ldr	r2, [fp, #-12]
    8d9c:	e5832014 	str	r2, [r3, #20]
/home/silhavyj/School/ZeroMate/examples/14-filesystem_monitor/kernel/src/drivers/monitor.cpp:103

    return *this;
    8da0:	e51b3008 	ldr	r3, [fp, #-8]
/home/silhavyj/School/ZeroMate/examples/14-filesystem_monitor/kernel/src/drivers/monitor.cpp:104
}
    8da4:	e1a00003 	mov	r0, r3
    8da8:	e28bd000 	add	sp, fp, #0
    8dac:	e49db004 	pop	{fp}		; (ldr fp, [sp], #4)
    8db0:	e12fff1e 	bx	lr

00008db4 <_ZN8CMonitorlsEj>:
_ZN8CMonitorlsEj():
/home/silhavyj/School/ZeroMate/examples/14-filesystem_monitor/kernel/src/drivers/monitor.cpp:107

CMonitor& CMonitor::operator<<(unsigned int num)
{
    8db4:	e92d4800 	push	{fp, lr}
    8db8:	e28db004 	add	fp, sp, #4
    8dbc:	e24dd008 	sub	sp, sp, #8
    8dc0:	e50b0008 	str	r0, [fp, #-8]
    8dc4:	e50b100c 	str	r1, [fp, #-12]
/home/silhavyj/School/ZeroMate/examples/14-filesystem_monitor/kernel/src/drivers/monitor.cpp:112
    static constexpr unsigned int BUFFER_SIZE = 16;

    static char s_buffer[BUFFER_SIZE];

    itoa(num, s_buffer, static_cast<unsigned int>(m_number_base));
    8dc8:	e51b3008 	ldr	r3, [fp, #-8]
    8dcc:	e5933014 	ldr	r3, [r3, #20]
    8dd0:	e59f202c 	ldr	r2, [pc, #44]	; 8e04 <_ZN8CMonitorlsEj+0x50>
    8dd4:	e51b100c 	ldr	r1, [fp, #-12]
    8dd8:	e51b0008 	ldr	r0, [fp, #-8]
    8ddc:	eb000021 	bl	8e68 <_ZN8CMonitor4itoaEjPcj>
/home/silhavyj/School/ZeroMate/examples/14-filesystem_monitor/kernel/src/drivers/monitor.cpp:113
    *this << s_buffer;
    8de0:	e59f101c 	ldr	r1, [pc, #28]	; 8e04 <_ZN8CMonitorlsEj+0x50>
    8de4:	e51b0008 	ldr	r0, [fp, #-8]
    8de8:	ebffffc6 	bl	8d08 <_ZN8CMonitorlsEPKc>
/home/silhavyj/School/ZeroMate/examples/14-filesystem_monitor/kernel/src/drivers/monitor.cpp:114
    Reset_Number_Base();
    8dec:	e51b0008 	ldr	r0, [fp, #-8]
    8df0:	eb0000c8 	bl	9118 <_ZN8CMonitor17Reset_Number_BaseEv>
/home/silhavyj/School/ZeroMate/examples/14-filesystem_monitor/kernel/src/drivers/monitor.cpp:116

    return *this;
    8df4:	e51b3008 	ldr	r3, [fp, #-8]
/home/silhavyj/School/ZeroMate/examples/14-filesystem_monitor/kernel/src/drivers/monitor.cpp:117
}
    8df8:	e1a00003 	mov	r0, r3
    8dfc:	e24bd004 	sub	sp, fp, #4
    8e00:	e8bd8800 	pop	{fp, pc}
    8e04:	0000ca7c 	andeq	ip, r0, ip, ror sl

00008e08 <_ZN8CMonitorlsEb>:
_ZN8CMonitorlsEb():
/home/silhavyj/School/ZeroMate/examples/14-filesystem_monitor/kernel/src/drivers/monitor.cpp:120

CMonitor& CMonitor::operator<<(bool value)
{
    8e08:	e92d4800 	push	{fp, lr}
    8e0c:	e28db004 	add	fp, sp, #4
    8e10:	e24dd008 	sub	sp, sp, #8
    8e14:	e50b0008 	str	r0, [fp, #-8]
    8e18:	e1a03001 	mov	r3, r1
    8e1c:	e54b3009 	strb	r3, [fp, #-9]
/home/silhavyj/School/ZeroMate/examples/14-filesystem_monitor/kernel/src/drivers/monitor.cpp:121
    if (value)
    8e20:	e55b3009 	ldrb	r3, [fp, #-9]
    8e24:	e3530000 	cmp	r3, #0
    8e28:	0a000003 	beq	8e3c <_ZN8CMonitorlsEb+0x34>
/home/silhavyj/School/ZeroMate/examples/14-filesystem_monitor/kernel/src/drivers/monitor.cpp:123
    {
        *this << "true";
    8e2c:	e59f102c 	ldr	r1, [pc, #44]	; 8e60 <_ZN8CMonitorlsEb+0x58>
    8e30:	e51b0008 	ldr	r0, [fp, #-8]
    8e34:	ebffffb3 	bl	8d08 <_ZN8CMonitorlsEPKc>
    8e38:	ea000002 	b	8e48 <_ZN8CMonitorlsEb+0x40>
/home/silhavyj/School/ZeroMate/examples/14-filesystem_monitor/kernel/src/drivers/monitor.cpp:127
    }
    else
    {
        *this << "false";
    8e3c:	e59f1020 	ldr	r1, [pc, #32]	; 8e64 <_ZN8CMonitorlsEb+0x5c>
    8e40:	e51b0008 	ldr	r0, [fp, #-8]
    8e44:	ebffffaf 	bl	8d08 <_ZN8CMonitorlsEPKc>
/home/silhavyj/School/ZeroMate/examples/14-filesystem_monitor/kernel/src/drivers/monitor.cpp:130
    }

    Reset_Number_Base();
    8e48:	e51b0008 	ldr	r0, [fp, #-8]
    8e4c:	eb0000b1 	bl	9118 <_ZN8CMonitor17Reset_Number_BaseEv>
/home/silhavyj/School/ZeroMate/examples/14-filesystem_monitor/kernel/src/drivers/monitor.cpp:132

    return *this;
    8e50:	e51b3008 	ldr	r3, [fp, #-8]
/home/silhavyj/School/ZeroMate/examples/14-filesystem_monitor/kernel/src/drivers/monitor.cpp:133
}
    8e54:	e1a00003 	mov	r0, r3
    8e58:	e24bd004 	sub	sp, fp, #4
    8e5c:	e8bd8800 	pop	{fp, pc}
    8e60:	0000c68c 	andeq	ip, r0, ip, lsl #13
    8e64:	0000c694 	muleq	r0, r4, r6

00008e68 <_ZN8CMonitor4itoaEjPcj>:
_ZN8CMonitor4itoaEjPcj():
/home/silhavyj/School/ZeroMate/examples/14-filesystem_monitor/kernel/src/drivers/monitor.cpp:136

void CMonitor::itoa(unsigned int input, char* output, unsigned int base)
{
    8e68:	e92d4800 	push	{fp, lr}
    8e6c:	e28db004 	add	fp, sp, #4
    8e70:	e24dd020 	sub	sp, sp, #32
    8e74:	e50b0018 	str	r0, [fp, #-24]	; 0xffffffe8
    8e78:	e50b101c 	str	r1, [fp, #-28]	; 0xffffffe4
    8e7c:	e50b2020 	str	r2, [fp, #-32]	; 0xffffffe0
    8e80:	e50b3024 	str	r3, [fp, #-36]	; 0xffffffdc
/home/silhavyj/School/ZeroMate/examples/14-filesystem_monitor/kernel/src/drivers/monitor.cpp:137
    int i = 0;
    8e84:	e3a03000 	mov	r3, #0
    8e88:	e50b3008 	str	r3, [fp, #-8]
/home/silhavyj/School/ZeroMate/examples/14-filesystem_monitor/kernel/src/drivers/monitor.cpp:139

    while (input > 0)
    8e8c:	e51b301c 	ldr	r3, [fp, #-28]	; 0xffffffe4
    8e90:	e3530000 	cmp	r3, #0
    8e94:	0a000015 	beq	8ef0 <_ZN8CMonitor4itoaEjPcj+0x88>
/home/silhavyj/School/ZeroMate/examples/14-filesystem_monitor/kernel/src/drivers/monitor.cpp:141
    {
        output[i] = CharConvArr[input % base];
    8e98:	e51b301c 	ldr	r3, [fp, #-28]	; 0xffffffe4
    8e9c:	e51b1024 	ldr	r1, [fp, #-36]	; 0xffffffdc
    8ea0:	e1a00003 	mov	r0, r3
    8ea4:	eb000de7 	bl	c648 <__aeabi_uidivmod>
    8ea8:	e1a03001 	mov	r3, r1
    8eac:	e1a02003 	mov	r2, r3
    8eb0:	e59f3128 	ldr	r3, [pc, #296]	; 8fe0 <_ZN8CMonitor4itoaEjPcj+0x178>
    8eb4:	e0822003 	add	r2, r2, r3
    8eb8:	e51b3008 	ldr	r3, [fp, #-8]
    8ebc:	e51b1020 	ldr	r1, [fp, #-32]	; 0xffffffe0
    8ec0:	e0813003 	add	r3, r1, r3
    8ec4:	e5d22000 	ldrb	r2, [r2]
    8ec8:	e5c32000 	strb	r2, [r3]
/home/silhavyj/School/ZeroMate/examples/14-filesystem_monitor/kernel/src/drivers/monitor.cpp:142
        input /= base;
    8ecc:	e51b1024 	ldr	r1, [fp, #-36]	; 0xffffffdc
    8ed0:	e51b001c 	ldr	r0, [fp, #-28]	; 0xffffffe4
    8ed4:	eb000d60 	bl	c45c <__udivsi3>
    8ed8:	e1a03000 	mov	r3, r0
    8edc:	e50b301c 	str	r3, [fp, #-28]	; 0xffffffe4
/home/silhavyj/School/ZeroMate/examples/14-filesystem_monitor/kernel/src/drivers/monitor.cpp:144

        i++;
    8ee0:	e51b3008 	ldr	r3, [fp, #-8]
    8ee4:	e2833001 	add	r3, r3, #1
    8ee8:	e50b3008 	str	r3, [fp, #-8]
/home/silhavyj/School/ZeroMate/examples/14-filesystem_monitor/kernel/src/drivers/monitor.cpp:139
    while (input > 0)
    8eec:	eaffffe6 	b	8e8c <_ZN8CMonitor4itoaEjPcj+0x24>
/home/silhavyj/School/ZeroMate/examples/14-filesystem_monitor/kernel/src/drivers/monitor.cpp:147
    }

    if (i == 0)
    8ef0:	e51b3008 	ldr	r3, [fp, #-8]
    8ef4:	e3530000 	cmp	r3, #0
    8ef8:	1a000007 	bne	8f1c <_ZN8CMonitor4itoaEjPcj+0xb4>
/home/silhavyj/School/ZeroMate/examples/14-filesystem_monitor/kernel/src/drivers/monitor.cpp:149
    {
        output[i] = CharConvArr[0];
    8efc:	e51b3008 	ldr	r3, [fp, #-8]
    8f00:	e51b2020 	ldr	r2, [fp, #-32]	; 0xffffffe0
    8f04:	e0823003 	add	r3, r2, r3
    8f08:	e3a02030 	mov	r2, #48	; 0x30
    8f0c:	e5c32000 	strb	r2, [r3]
/home/silhavyj/School/ZeroMate/examples/14-filesystem_monitor/kernel/src/drivers/monitor.cpp:150
        i++;
    8f10:	e51b3008 	ldr	r3, [fp, #-8]
    8f14:	e2833001 	add	r3, r3, #1
    8f18:	e50b3008 	str	r3, [fp, #-8]
/home/silhavyj/School/ZeroMate/examples/14-filesystem_monitor/kernel/src/drivers/monitor.cpp:153
    }

    output[i] = '\0';
    8f1c:	e51b3008 	ldr	r3, [fp, #-8]
    8f20:	e51b2020 	ldr	r2, [fp, #-32]	; 0xffffffe0
    8f24:	e0823003 	add	r3, r2, r3
    8f28:	e3a02000 	mov	r2, #0
    8f2c:	e5c32000 	strb	r2, [r3]
/home/silhavyj/School/ZeroMate/examples/14-filesystem_monitor/kernel/src/drivers/monitor.cpp:154
    i--;
    8f30:	e51b3008 	ldr	r3, [fp, #-8]
    8f34:	e2433001 	sub	r3, r3, #1
    8f38:	e50b3008 	str	r3, [fp, #-8]
/home/silhavyj/School/ZeroMate/examples/14-filesystem_monitor/kernel/src/drivers/monitor.cpp:156

    for (int j = 0; j <= (i / 2); j++)
    8f3c:	e3a03000 	mov	r3, #0
    8f40:	e50b300c 	str	r3, [fp, #-12]
/home/silhavyj/School/ZeroMate/examples/14-filesystem_monitor/kernel/src/drivers/monitor.cpp:156 (discriminator 3)
    8f44:	e51b3008 	ldr	r3, [fp, #-8]
    8f48:	e1a02fa3 	lsr	r2, r3, #31
    8f4c:	e0823003 	add	r3, r2, r3
    8f50:	e1a030c3 	asr	r3, r3, #1
    8f54:	e1a02003 	mov	r2, r3
    8f58:	e51b300c 	ldr	r3, [fp, #-12]
    8f5c:	e1530002 	cmp	r3, r2
    8f60:	ca00001b 	bgt	8fd4 <_ZN8CMonitor4itoaEjPcj+0x16c>
/home/silhavyj/School/ZeroMate/examples/14-filesystem_monitor/kernel/src/drivers/monitor.cpp:158 (discriminator 2)
    {
        char c = output[i - j];
    8f64:	e51b2008 	ldr	r2, [fp, #-8]
    8f68:	e51b300c 	ldr	r3, [fp, #-12]
    8f6c:	e0423003 	sub	r3, r2, r3
    8f70:	e1a02003 	mov	r2, r3
    8f74:	e51b3020 	ldr	r3, [fp, #-32]	; 0xffffffe0
    8f78:	e0833002 	add	r3, r3, r2
    8f7c:	e5d33000 	ldrb	r3, [r3]
    8f80:	e54b300d 	strb	r3, [fp, #-13]
/home/silhavyj/School/ZeroMate/examples/14-filesystem_monitor/kernel/src/drivers/monitor.cpp:159 (discriminator 2)
        output[i - j] = output[j];
    8f84:	e51b300c 	ldr	r3, [fp, #-12]
    8f88:	e51b2020 	ldr	r2, [fp, #-32]	; 0xffffffe0
    8f8c:	e0822003 	add	r2, r2, r3
    8f90:	e51b1008 	ldr	r1, [fp, #-8]
    8f94:	e51b300c 	ldr	r3, [fp, #-12]
    8f98:	e0413003 	sub	r3, r1, r3
    8f9c:	e1a01003 	mov	r1, r3
    8fa0:	e51b3020 	ldr	r3, [fp, #-32]	; 0xffffffe0
    8fa4:	e0833001 	add	r3, r3, r1
    8fa8:	e5d22000 	ldrb	r2, [r2]
    8fac:	e5c32000 	strb	r2, [r3]
/home/silhavyj/School/ZeroMate/examples/14-filesystem_monitor/kernel/src/drivers/monitor.cpp:160 (discriminator 2)
        output[j] = c;
    8fb0:	e51b300c 	ldr	r3, [fp, #-12]
    8fb4:	e51b2020 	ldr	r2, [fp, #-32]	; 0xffffffe0
    8fb8:	e0823003 	add	r3, r2, r3
    8fbc:	e55b200d 	ldrb	r2, [fp, #-13]
    8fc0:	e5c32000 	strb	r2, [r3]
/home/silhavyj/School/ZeroMate/examples/14-filesystem_monitor/kernel/src/drivers/monitor.cpp:156 (discriminator 2)
    for (int j = 0; j <= (i / 2); j++)
    8fc4:	e51b300c 	ldr	r3, [fp, #-12]
    8fc8:	e2833001 	add	r3, r3, #1
    8fcc:	e50b300c 	str	r3, [fp, #-12]
    8fd0:	eaffffdb 	b	8f44 <_ZN8CMonitor4itoaEjPcj+0xdc>
/home/silhavyj/School/ZeroMate/examples/14-filesystem_monitor/kernel/src/drivers/monitor.cpp:162
    }
}
    8fd4:	e320f000 	nop	{0}
    8fd8:	e24bd004 	sub	sp, fp, #4
    8fdc:	e8bd8800 	pop	{fp, pc}
    8fe0:	0000c69c 	muleq	r0, ip, r6

00008fe4 <_Z41__static_initialization_and_destruction_0ii>:
_Z41__static_initialization_and_destruction_0ii():
/home/silhavyj/School/ZeroMate/examples/14-filesystem_monitor/kernel/src/drivers/monitor.cpp:162
    8fe4:	e92d4800 	push	{fp, lr}
    8fe8:	e28db004 	add	fp, sp, #4
    8fec:	e24dd008 	sub	sp, sp, #8
    8ff0:	e50b0008 	str	r0, [fp, #-8]
    8ff4:	e50b100c 	str	r1, [fp, #-12]
    8ff8:	e51b3008 	ldr	r3, [fp, #-8]
    8ffc:	e3530001 	cmp	r3, #1
    9000:	1a000008 	bne	9028 <_Z41__static_initialization_and_destruction_0ii+0x44>
/home/silhavyj/School/ZeroMate/examples/14-filesystem_monitor/kernel/src/drivers/monitor.cpp:162 (discriminator 1)
    9004:	e51b300c 	ldr	r3, [fp, #-12]
    9008:	e59f2024 	ldr	r2, [pc, #36]	; 9034 <_Z41__static_initialization_and_destruction_0ii+0x50>
    900c:	e1530002 	cmp	r3, r2
    9010:	1a000004 	bne	9028 <_Z41__static_initialization_and_destruction_0ii+0x44>
/home/silhavyj/School/ZeroMate/examples/14-filesystem_monitor/kernel/src/drivers/monitor.cpp:3
CMonitor sMonitor{ 0x30000000, 80, 25 };
    9014:	e3a03019 	mov	r3, #25
    9018:	e3a02050 	mov	r2, #80	; 0x50
    901c:	e3a01203 	mov	r1, #805306368	; 0x30000000
    9020:	e59f0010 	ldr	r0, [pc, #16]	; 9038 <_Z41__static_initialization_and_destruction_0ii+0x54>
    9024:	ebfffe79 	bl	8a10 <_ZN8CMonitorC1Ejjj>
/home/silhavyj/School/ZeroMate/examples/14-filesystem_monitor/kernel/src/drivers/monitor.cpp:162
}
    9028:	e320f000 	nop	{0}
    902c:	e24bd004 	sub	sp, fp, #4
    9030:	e8bd8800 	pop	{fp, pc}
    9034:	0000ffff 	strdeq	pc, [r0], -pc	; <UNPREDICTABLE>
    9038:	0000ca64 	andeq	ip, r0, r4, ror #20

0000903c <_GLOBAL__sub_I_sMonitor>:
_GLOBAL__sub_I_sMonitor():
/home/silhavyj/School/ZeroMate/examples/14-filesystem_monitor/kernel/src/drivers/monitor.cpp:162
    903c:	e92d4800 	push	{fp, lr}
    9040:	e28db004 	add	fp, sp, #4
    9044:	e59f1008 	ldr	r1, [pc, #8]	; 9054 <_GLOBAL__sub_I_sMonitor+0x18>
    9048:	e3a00001 	mov	r0, #1
    904c:	ebffffe4 	bl	8fe4 <_Z41__static_initialization_and_destruction_0ii>
    9050:	e8bd8800 	pop	{fp, pc}
    9054:	0000ffff 	strdeq	pc, [r0], -pc	; <UNPREDICTABLE>

00009058 <_ZN8CMonitor12Reset_CursorEv>:
_ZN8CMonitor12Reset_CursorEv():
/home/silhavyj/School/ZeroMate/examples/14-filesystem_monitor/kernel/src/drivers/monitor.cpp:15
{
    9058:	e52db004 	push	{fp}		; (str fp, [sp, #-4]!)
    905c:	e28db000 	add	fp, sp, #0
    9060:	e24dd00c 	sub	sp, sp, #12
    9064:	e50b0008 	str	r0, [fp, #-8]
/home/silhavyj/School/ZeroMate/examples/14-filesystem_monitor/kernel/src/drivers/monitor.cpp:16
    m_cursor.y = 0;
    9068:	e51b3008 	ldr	r3, [fp, #-8]
    906c:	e3a02000 	mov	r2, #0
    9070:	e583200c 	str	r2, [r3, #12]
/home/silhavyj/School/ZeroMate/examples/14-filesystem_monitor/kernel/src/drivers/monitor.cpp:17
    m_cursor.y = 0;
    9074:	e51b3008 	ldr	r3, [fp, #-8]
    9078:	e3a02000 	mov	r2, #0
    907c:	e583200c 	str	r2, [r3, #12]
/home/silhavyj/School/ZeroMate/examples/14-filesystem_monitor/kernel/src/drivers/monitor.cpp:18
}
    9080:	e320f000 	nop	{0}
    9084:	e28bd000 	add	sp, fp, #0
    9088:	e49db004 	pop	{fp}		; (ldr fp, [sp], #4)
    908c:	e12fff1e 	bx	lr

00009090 <_ZN8CMonitor13Adjust_CursorEv>:
_ZN8CMonitor13Adjust_CursorEv():
/home/silhavyj/School/ZeroMate/examples/14-filesystem_monitor/kernel/src/drivers/monitor.cpp:34
{
    9090:	e92d4800 	push	{fp, lr}
    9094:	e28db004 	add	fp, sp, #4
    9098:	e24dd008 	sub	sp, sp, #8
    909c:	e50b0008 	str	r0, [fp, #-8]
/home/silhavyj/School/ZeroMate/examples/14-filesystem_monitor/kernel/src/drivers/monitor.cpp:35
    if (m_cursor.x >= m_width)
    90a0:	e51b3008 	ldr	r3, [fp, #-8]
    90a4:	e5932010 	ldr	r2, [r3, #16]
    90a8:	e51b3008 	ldr	r3, [fp, #-8]
    90ac:	e5933004 	ldr	r3, [r3, #4]
    90b0:	e1520003 	cmp	r2, r3
    90b4:	3a000007 	bcc	90d8 <_ZN8CMonitor13Adjust_CursorEv+0x48>
/home/silhavyj/School/ZeroMate/examples/14-filesystem_monitor/kernel/src/drivers/monitor.cpp:37
        m_cursor.x = 0;
    90b8:	e51b3008 	ldr	r3, [fp, #-8]
    90bc:	e3a02000 	mov	r2, #0
    90c0:	e5832010 	str	r2, [r3, #16]
/home/silhavyj/School/ZeroMate/examples/14-filesystem_monitor/kernel/src/drivers/monitor.cpp:38
        ++m_cursor.y;
    90c4:	e51b3008 	ldr	r3, [fp, #-8]
    90c8:	e593300c 	ldr	r3, [r3, #12]
    90cc:	e2832001 	add	r2, r3, #1
    90d0:	e51b3008 	ldr	r3, [fp, #-8]
    90d4:	e583200c 	str	r2, [r3, #12]
/home/silhavyj/School/ZeroMate/examples/14-filesystem_monitor/kernel/src/drivers/monitor.cpp:41
    if (m_cursor.y >= m_height)
    90d8:	e51b3008 	ldr	r3, [fp, #-8]
    90dc:	e593200c 	ldr	r2, [r3, #12]
    90e0:	e51b3008 	ldr	r3, [fp, #-8]
    90e4:	e5933008 	ldr	r3, [r3, #8]
    90e8:	e1520003 	cmp	r2, r3
    90ec:	3a000006 	bcc	910c <_ZN8CMonitor13Adjust_CursorEv+0x7c>
/home/silhavyj/School/ZeroMate/examples/14-filesystem_monitor/kernel/src/drivers/monitor.cpp:43
        Scroll();
    90f0:	e51b0008 	ldr	r0, [fp, #-8]
    90f4:	ebfffe8d 	bl	8b30 <_ZN8CMonitor6ScrollEv>
/home/silhavyj/School/ZeroMate/examples/14-filesystem_monitor/kernel/src/drivers/monitor.cpp:44
        m_cursor.y = m_height - 1;
    90f8:	e51b3008 	ldr	r3, [fp, #-8]
    90fc:	e5933008 	ldr	r3, [r3, #8]
    9100:	e2432001 	sub	r2, r3, #1
    9104:	e51b3008 	ldr	r3, [fp, #-8]
    9108:	e583200c 	str	r2, [r3, #12]
/home/silhavyj/School/ZeroMate/examples/14-filesystem_monitor/kernel/src/drivers/monitor.cpp:46
}
    910c:	e320f000 	nop	{0}
    9110:	e24bd004 	sub	sp, fp, #4
    9114:	e8bd8800 	pop	{fp, pc}

00009118 <_ZN8CMonitor17Reset_Number_BaseEv>:
_ZN8CMonitor17Reset_Number_BaseEv():
/home/silhavyj/School/ZeroMate/examples/14-filesystem_monitor/kernel/src/drivers/monitor.cpp:65
{
    9118:	e52db004 	push	{fp}		; (str fp, [sp, #-4]!)
    911c:	e28db000 	add	fp, sp, #0
    9120:	e24dd00c 	sub	sp, sp, #12
    9124:	e50b0008 	str	r0, [fp, #-8]
/home/silhavyj/School/ZeroMate/examples/14-filesystem_monitor/kernel/src/drivers/monitor.cpp:66
    m_number_base = DEFAULT_NUMBER_BASE;
    9128:	e51b3008 	ldr	r3, [fp, #-8]
    912c:	e3a0200a 	mov	r2, #10
    9130:	e5832014 	str	r2, [r3, #20]
/home/silhavyj/School/ZeroMate/examples/14-filesystem_monitor/kernel/src/drivers/monitor.cpp:67
}
    9134:	e320f000 	nop	{0}
    9138:	e28bd000 	add	sp, fp, #0
    913c:	e49db004 	pop	{fp}		; (ldr fp, [sp], #4)
    9140:	e12fff1e 	bx	lr

00009144 <_ZN6CTimerC1Em>:
_ZN6CTimerC2Em():
/home/silhavyj/School/ZeroMate/examples/14-filesystem_monitor/kernel/src/drivers/timer.cpp:26
    uint16_t unused_4 : 10;
};

#pragma pack(pop)

CTimer::CTimer(unsigned long timer_reg_base)
    9144:	e52db004 	push	{fp}		; (str fp, [sp, #-4]!)
    9148:	e28db000 	add	fp, sp, #0
    914c:	e24dd00c 	sub	sp, sp, #12
    9150:	e50b0008 	str	r0, [fp, #-8]
    9154:	e50b100c 	str	r1, [fp, #-12]
/home/silhavyj/School/ZeroMate/examples/14-filesystem_monitor/kernel/src/drivers/timer.cpp:27
    : mTimer_Regs(reinterpret_cast<unsigned int*>(timer_reg_base)), mCallback(nullptr)
    9158:	e51b200c 	ldr	r2, [fp, #-12]
    915c:	e51b3008 	ldr	r3, [fp, #-8]
    9160:	e5832000 	str	r2, [r3]
    9164:	e51b3008 	ldr	r3, [fp, #-8]
    9168:	e3a02000 	mov	r2, #0
    916c:	e5832004 	str	r2, [r3, #4]
/home/silhavyj/School/ZeroMate/examples/14-filesystem_monitor/kernel/src/drivers/timer.cpp:30
{
    //
}
    9170:	e51b3008 	ldr	r3, [fp, #-8]
    9174:	e1a00003 	mov	r0, r3
    9178:	e28bd000 	add	sp, fp, #0
    917c:	e49db004 	pop	{fp}		; (ldr fp, [sp], #4)
    9180:	e12fff1e 	bx	lr

00009184 <_ZN6CTimer4RegsEN3hal9Timer_RegE>:
_ZN6CTimer4RegsEN3hal9Timer_RegE():
/home/silhavyj/School/ZeroMate/examples/14-filesystem_monitor/kernel/src/drivers/timer.cpp:33

volatile unsigned int& CTimer::Regs(hal::Timer_Reg reg)
{
    9184:	e52db004 	push	{fp}		; (str fp, [sp, #-4]!)
    9188:	e28db000 	add	fp, sp, #0
    918c:	e24dd00c 	sub	sp, sp, #12
    9190:	e50b0008 	str	r0, [fp, #-8]
    9194:	e50b100c 	str	r1, [fp, #-12]
/home/silhavyj/School/ZeroMate/examples/14-filesystem_monitor/kernel/src/drivers/timer.cpp:34
    return mTimer_Regs[static_cast<unsigned int>(reg)];
    9198:	e51b3008 	ldr	r3, [fp, #-8]
    919c:	e5932000 	ldr	r2, [r3]
    91a0:	e51b300c 	ldr	r3, [fp, #-12]
    91a4:	e1a03103 	lsl	r3, r3, #2
    91a8:	e0823003 	add	r3, r2, r3
/home/silhavyj/School/ZeroMate/examples/14-filesystem_monitor/kernel/src/drivers/timer.cpp:35
}
    91ac:	e1a00003 	mov	r0, r3
    91b0:	e28bd000 	add	sp, fp, #0
    91b4:	e49db004 	pop	{fp}		; (ldr fp, [sp], #4)
    91b8:	e12fff1e 	bx	lr

000091bc <_ZN6CTimer6EnableEPFvvEj16NTimer_Prescaler>:
_ZN6CTimer6EnableEPFvvEj16NTimer_Prescaler():
/home/silhavyj/School/ZeroMate/examples/14-filesystem_monitor/kernel/src/drivers/timer.cpp:38

void CTimer::Enable(TTimer_Callback callback, unsigned int delay, NTimer_Prescaler prescaler)
{
    91bc:	e92d4810 	push	{r4, fp, lr}
    91c0:	e28db008 	add	fp, sp, #8
    91c4:	e24dd01c 	sub	sp, sp, #28
    91c8:	e50b0018 	str	r0, [fp, #-24]	; 0xffffffe8
    91cc:	e50b101c 	str	r1, [fp, #-28]	; 0xffffffe4
    91d0:	e50b2020 	str	r2, [fp, #-32]	; 0xffffffe0
    91d4:	e54b3021 	strb	r3, [fp, #-33]	; 0xffffffdf
/home/silhavyj/School/ZeroMate/examples/14-filesystem_monitor/kernel/src/drivers/timer.cpp:39
    Regs(hal::Timer_Reg::Load) = delay;
    91d8:	e3a01000 	mov	r1, #0
    91dc:	e51b0018 	ldr	r0, [fp, #-24]	; 0xffffffe8
    91e0:	ebffffe7 	bl	9184 <_ZN6CTimer4RegsEN3hal9Timer_RegE>
    91e4:	e1a02000 	mov	r2, r0
    91e8:	e51b3020 	ldr	r3, [fp, #-32]	; 0xffffffe0
    91ec:	e5823000 	str	r3, [r2]
/home/silhavyj/School/ZeroMate/examples/14-filesystem_monitor/kernel/src/drivers/timer.cpp:42

    TTimer_Ctl_Flags reg;
    reg.counter_32b = 1;
    91f0:	e55b3014 	ldrb	r3, [fp, #-20]	; 0xffffffec
    91f4:	e3833002 	orr	r3, r3, #2
    91f8:	e54b3014 	strb	r3, [fp, #-20]	; 0xffffffec
/home/silhavyj/School/ZeroMate/examples/14-filesystem_monitor/kernel/src/drivers/timer.cpp:43
    reg.interrupt_enabled = 1;
    91fc:	e55b3014 	ldrb	r3, [fp, #-20]	; 0xffffffec
    9200:	e3833020 	orr	r3, r3, #32
    9204:	e54b3014 	strb	r3, [fp, #-20]	; 0xffffffec
/home/silhavyj/School/ZeroMate/examples/14-filesystem_monitor/kernel/src/drivers/timer.cpp:44
    reg.timer_enabled = 1;
    9208:	e55b3014 	ldrb	r3, [fp, #-20]	; 0xffffffec
    920c:	e3833080 	orr	r3, r3, #128	; 0x80
    9210:	e54b3014 	strb	r3, [fp, #-20]	; 0xffffffec
/home/silhavyj/School/ZeroMate/examples/14-filesystem_monitor/kernel/src/drivers/timer.cpp:45
    reg.prescaler = static_cast<uint8_t>(prescaler);
    9214:	e55b3021 	ldrb	r3, [fp, #-33]	; 0xffffffdf
    9218:	e2033003 	and	r3, r3, #3
    921c:	e6ef3073 	uxtb	r3, r3
    9220:	e55b2014 	ldrb	r2, [fp, #-20]	; 0xffffffec
    9224:	e2033003 	and	r3, r3, #3
    9228:	e3c2200c 	bic	r2, r2, #12
    922c:	e1a03103 	lsl	r3, r3, #2
    9230:	e1833002 	orr	r3, r3, r2
    9234:	e1a02003 	mov	r2, r3
    9238:	e54b2014 	strb	r2, [fp, #-20]	; 0xffffffec
/home/silhavyj/School/ZeroMate/examples/14-filesystem_monitor/kernel/src/drivers/timer.cpp:47

    Regs(hal::Timer_Reg::Control) = *reinterpret_cast<unsigned int*>(&reg);
    923c:	e24b4014 	sub	r4, fp, #20
    9240:	e3a01002 	mov	r1, #2
    9244:	e51b0018 	ldr	r0, [fp, #-24]	; 0xffffffe8
    9248:	ebffffcd 	bl	9184 <_ZN6CTimer4RegsEN3hal9Timer_RegE>
    924c:	e1a02000 	mov	r2, r0
    9250:	e5943000 	ldr	r3, [r4]
    9254:	e5823000 	str	r3, [r2]
/home/silhavyj/School/ZeroMate/examples/14-filesystem_monitor/kernel/src/drivers/timer.cpp:49
   
    Regs(hal::Timer_Reg::IRQ_Clear) = 1;
    9258:	e3a01003 	mov	r1, #3
    925c:	e51b0018 	ldr	r0, [fp, #-24]	; 0xffffffe8
    9260:	ebffffc7 	bl	9184 <_ZN6CTimer4RegsEN3hal9Timer_RegE>
    9264:	e1a03000 	mov	r3, r0
    9268:	e3a02001 	mov	r2, #1
    926c:	e5832000 	str	r2, [r3]
/home/silhavyj/School/ZeroMate/examples/14-filesystem_monitor/kernel/src/drivers/timer.cpp:51

    mCallback = callback;
    9270:	e51b3018 	ldr	r3, [fp, #-24]	; 0xffffffe8
    9274:	e51b201c 	ldr	r2, [fp, #-28]	; 0xffffffe4
    9278:	e5832004 	str	r2, [r3, #4]
/home/silhavyj/School/ZeroMate/examples/14-filesystem_monitor/kernel/src/drivers/timer.cpp:52
}
    927c:	e320f000 	nop	{0}
    9280:	e24bd008 	sub	sp, fp, #8
    9284:	e8bd8810 	pop	{r4, fp, pc}

00009288 <_ZN6CTimer7DisableEv>:
_ZN6CTimer7DisableEv():
/home/silhavyj/School/ZeroMate/examples/14-filesystem_monitor/kernel/src/drivers/timer.cpp:55

void CTimer::Disable()
{
    9288:	e92d4800 	push	{fp, lr}
    928c:	e28db004 	add	fp, sp, #4
    9290:	e24dd010 	sub	sp, sp, #16
    9294:	e50b0010 	str	r0, [fp, #-16]
/home/silhavyj/School/ZeroMate/examples/14-filesystem_monitor/kernel/src/drivers/timer.cpp:56
    volatile TTimer_Ctl_Flags& reg = reinterpret_cast<volatile TTimer_Ctl_Flags&>(Regs(hal::Timer_Reg::Control));
    9298:	e3a01002 	mov	r1, #2
    929c:	e51b0010 	ldr	r0, [fp, #-16]
    92a0:	ebffffb7 	bl	9184 <_ZN6CTimer4RegsEN3hal9Timer_RegE>
    92a4:	e50b0008 	str	r0, [fp, #-8]
/home/silhavyj/School/ZeroMate/examples/14-filesystem_monitor/kernel/src/drivers/timer.cpp:58

    reg.interrupt_enabled = 0;
    92a8:	e51b2008 	ldr	r2, [fp, #-8]
    92ac:	e5d23000 	ldrb	r3, [r2]
    92b0:	e3c33020 	bic	r3, r3, #32
    92b4:	e5c23000 	strb	r3, [r2]
/home/silhavyj/School/ZeroMate/examples/14-filesystem_monitor/kernel/src/drivers/timer.cpp:59
    reg.timer_enabled = 0;
    92b8:	e51b2008 	ldr	r2, [fp, #-8]
    92bc:	e5d23000 	ldrb	r3, [r2]
    92c0:	e3c33080 	bic	r3, r3, #128	; 0x80
    92c4:	e5c23000 	strb	r3, [r2]
/home/silhavyj/School/ZeroMate/examples/14-filesystem_monitor/kernel/src/drivers/timer.cpp:60
}
    92c8:	e320f000 	nop	{0}
    92cc:	e24bd004 	sub	sp, fp, #4
    92d0:	e8bd8800 	pop	{fp, pc}

000092d4 <_ZN6CTimer12IRQ_CallbackEv>:
_ZN6CTimer12IRQ_CallbackEv():
/home/silhavyj/School/ZeroMate/examples/14-filesystem_monitor/kernel/src/drivers/timer.cpp:63

void CTimer::IRQ_Callback()
{
    92d4:	e92d4800 	push	{fp, lr}
    92d8:	e28db004 	add	fp, sp, #4
    92dc:	e24dd008 	sub	sp, sp, #8
    92e0:	e50b0008 	str	r0, [fp, #-8]
/home/silhavyj/School/ZeroMate/examples/14-filesystem_monitor/kernel/src/drivers/timer.cpp:64
    Regs(hal::Timer_Reg::IRQ_Clear) = 1;
    92e4:	e3a01003 	mov	r1, #3
    92e8:	e51b0008 	ldr	r0, [fp, #-8]
    92ec:	ebffffa4 	bl	9184 <_ZN6CTimer4RegsEN3hal9Timer_RegE>
    92f0:	e1a03000 	mov	r3, r0
    92f4:	e3a02001 	mov	r2, #1
    92f8:	e5832000 	str	r2, [r3]
/home/silhavyj/School/ZeroMate/examples/14-filesystem_monitor/kernel/src/drivers/timer.cpp:66

    if (mCallback)
    92fc:	e51b3008 	ldr	r3, [fp, #-8]
    9300:	e5933004 	ldr	r3, [r3, #4]
    9304:	e3530000 	cmp	r3, #0
    9308:	0a000002 	beq	9318 <_ZN6CTimer12IRQ_CallbackEv+0x44>
/home/silhavyj/School/ZeroMate/examples/14-filesystem_monitor/kernel/src/drivers/timer.cpp:67
        mCallback();
    930c:	e51b3008 	ldr	r3, [fp, #-8]
    9310:	e5933004 	ldr	r3, [r3, #4]
    9314:	e12fff33 	blx	r3
/home/silhavyj/School/ZeroMate/examples/14-filesystem_monitor/kernel/src/drivers/timer.cpp:68
}
    9318:	e320f000 	nop	{0}
    931c:	e24bd004 	sub	sp, fp, #4
    9320:	e8bd8800 	pop	{fp, pc}

00009324 <_ZN6CTimer20Is_Timer_IRQ_PendingEv>:
_ZN6CTimer20Is_Timer_IRQ_PendingEv():
/home/silhavyj/School/ZeroMate/examples/14-filesystem_monitor/kernel/src/drivers/timer.cpp:71

bool CTimer::Is_Timer_IRQ_Pending()
{
    9324:	e92d4800 	push	{fp, lr}
    9328:	e28db004 	add	fp, sp, #4
    932c:	e24dd008 	sub	sp, sp, #8
    9330:	e50b0008 	str	r0, [fp, #-8]
/home/silhavyj/School/ZeroMate/examples/14-filesystem_monitor/kernel/src/drivers/timer.cpp:72
    return Regs(hal::Timer_Reg::IRQ_Masked);
    9334:	e3a01005 	mov	r1, #5
    9338:	e51b0008 	ldr	r0, [fp, #-8]
    933c:	ebffff90 	bl	9184 <_ZN6CTimer4RegsEN3hal9Timer_RegE>
    9340:	e1a03000 	mov	r3, r0
    9344:	e5933000 	ldr	r3, [r3]
    9348:	e3530000 	cmp	r3, #0
    934c:	13a03001 	movne	r3, #1
    9350:	03a03000 	moveq	r3, #0
    9354:	e6ef3073 	uxtb	r3, r3
/home/silhavyj/School/ZeroMate/examples/14-filesystem_monitor/kernel/src/drivers/timer.cpp:73
}
    9358:	e1a00003 	mov	r0, r3
    935c:	e24bd004 	sub	sp, fp, #4
    9360:	e8bd8800 	pop	{fp, pc}

00009364 <_Z41__static_initialization_and_destruction_0ii>:
_Z41__static_initialization_and_destruction_0ii():
/home/silhavyj/School/ZeroMate/examples/14-filesystem_monitor/kernel/src/drivers/timer.cpp:73
    9364:	e92d4800 	push	{fp, lr}
    9368:	e28db004 	add	fp, sp, #4
    936c:	e24dd008 	sub	sp, sp, #8
    9370:	e50b0008 	str	r0, [fp, #-8]
    9374:	e50b100c 	str	r1, [fp, #-12]
    9378:	e51b3008 	ldr	r3, [fp, #-8]
    937c:	e3530001 	cmp	r3, #1
    9380:	1a000006 	bne	93a0 <_Z41__static_initialization_and_destruction_0ii+0x3c>
/home/silhavyj/School/ZeroMate/examples/14-filesystem_monitor/kernel/src/drivers/timer.cpp:73 (discriminator 1)
    9384:	e51b300c 	ldr	r3, [fp, #-12]
    9388:	e59f201c 	ldr	r2, [pc, #28]	; 93ac <_Z41__static_initialization_and_destruction_0ii+0x48>
    938c:	e1530002 	cmp	r3, r2
    9390:	1a000002 	bne	93a0 <_Z41__static_initialization_and_destruction_0ii+0x3c>
/home/silhavyj/School/ZeroMate/examples/14-filesystem_monitor/kernel/src/drivers/timer.cpp:4
CTimer sTimer(hal::Timer_Base);
    9394:	e59f1014 	ldr	r1, [pc, #20]	; 93b0 <_Z41__static_initialization_and_destruction_0ii+0x4c>
    9398:	e59f0014 	ldr	r0, [pc, #20]	; 93b4 <_Z41__static_initialization_and_destruction_0ii+0x50>
    939c:	ebffff68 	bl	9144 <_ZN6CTimerC1Em>
/home/silhavyj/School/ZeroMate/examples/14-filesystem_monitor/kernel/src/drivers/timer.cpp:73
}
    93a0:	e320f000 	nop	{0}
    93a4:	e24bd004 	sub	sp, fp, #4
    93a8:	e8bd8800 	pop	{fp, pc}
    93ac:	0000ffff 	strdeq	pc, [r0], -pc	; <UNPREDICTABLE>
    93b0:	2000b400 	andcs	fp, r0, r0, lsl #8
    93b4:	0000ca8c 	andeq	ip, r0, ip, lsl #21

000093b8 <_GLOBAL__sub_I_sTimer>:
_GLOBAL__sub_I_sTimer():
/home/silhavyj/School/ZeroMate/examples/14-filesystem_monitor/kernel/src/drivers/timer.cpp:73
    93b8:	e92d4800 	push	{fp, lr}
    93bc:	e28db004 	add	fp, sp, #4
    93c0:	e59f1008 	ldr	r1, [pc, #8]	; 93d0 <_GLOBAL__sub_I_sTimer+0x18>
    93c4:	e3a00001 	mov	r0, #1
    93c8:	ebffffe5 	bl	9364 <_Z41__static_initialization_and_destruction_0ii>
    93cc:	e8bd8800 	pop	{fp, pc}
    93d0:	0000ffff 	strdeq	pc, [r0], -pc	; <UNPREDICTABLE>

000093d4 <_ZN11CFilesystemC1Ev>:
_ZN11CFilesystemC2Ev():
/home/silhavyj/School/ZeroMate/examples/14-filesystem_monitor/kernel/src/fs/filesystem.cpp:9

#include <stdstring.h>

CFilesystem sFilesystem;

CFilesystem::CFilesystem()
    93d4:	e92d4800 	push	{fp, lr}
    93d8:	e28db004 	add	fp, sp, #4
    93dc:	e24dd008 	sub	sp, sp, #8
    93e0:	e50b0008 	str	r0, [fp, #-8]
    93e4:	e51b3008 	ldr	r3, [fp, #-8]
    93e8:	e1a00003 	mov	r0, r3
    93ec:	eb0001aa 	bl	9a9c <_ZN11CFilesystem13TFS_Tree_NodeC1Ev>
    93f0:	e51b3008 	ldr	r3, [fp, #-8]
    93f4:	e2833024 	add	r3, r3, #36	; 0x24
    93f8:	e1a00003 	mov	r0, r3
    93fc:	eb0001a6 	bl	9a9c <_ZN11CFilesystem13TFS_Tree_NodeC1Ev>
    9400:	e51b3008 	ldr	r3, [fp, #-8]
    9404:	e2833048 	add	r3, r3, #72	; 0x48
    9408:	e1a00003 	mov	r0, r3
    940c:	eb0001a2 	bl	9a9c <_ZN11CFilesystem13TFS_Tree_NodeC1Ev>
    9410:	e51b3008 	ldr	r3, [fp, #-8]
    9414:	e283306c 	add	r3, r3, #108	; 0x6c
    9418:	e1a00003 	mov	r0, r3
    941c:	eb00019e 	bl	9a9c <_ZN11CFilesystem13TFS_Tree_NodeC1Ev>
/home/silhavyj/School/ZeroMate/examples/14-filesystem_monitor/kernel/src/fs/filesystem.cpp:13
{
    // inicializujeme zakladni strukturu (tedy vlastne obsah root adresare)

    mRoot.parent = nullptr;
    9420:	e51b3008 	ldr	r3, [fp, #-8]
    9424:	e3a02000 	mov	r2, #0
    9428:	e5832018 	str	r2, [r3, #24]
/home/silhavyj/School/ZeroMate/examples/14-filesystem_monitor/kernel/src/fs/filesystem.cpp:14
    mRoot.next = nullptr;
    942c:	e51b3008 	ldr	r3, [fp, #-8]
    9430:	e3a02000 	mov	r2, #0
    9434:	e5832020 	str	r2, [r3, #32]
/home/silhavyj/School/ZeroMate/examples/14-filesystem_monitor/kernel/src/fs/filesystem.cpp:15
    mRoot.children = &mRoot_Dev;
    9438:	e51b3008 	ldr	r3, [fp, #-8]
    943c:	e2832024 	add	r2, r3, #36	; 0x24
    9440:	e51b3008 	ldr	r3, [fp, #-8]
    9444:	e583201c 	str	r2, [r3, #28]
/home/silhavyj/School/ZeroMate/examples/14-filesystem_monitor/kernel/src/fs/filesystem.cpp:16
    mRoot.isDirectory = true;
    9448:	e51b3008 	ldr	r3, [fp, #-8]
    944c:	e3a02001 	mov	r2, #1
    9450:	e5c32010 	strb	r2, [r3, #16]
/home/silhavyj/School/ZeroMate/examples/14-filesystem_monitor/kernel/src/fs/filesystem.cpp:17
    mRoot.driver_idx = NoFilesystemDriver;
    9454:	e51b3008 	ldr	r3, [fp, #-8]
    9458:	e3e02000 	mvn	r2, #0
    945c:	e5832014 	str	r2, [r3, #20]
/home/silhavyj/School/ZeroMate/examples/14-filesystem_monitor/kernel/src/fs/filesystem.cpp:18
    mRoot.name[0] = '\0';
    9460:	e51b3008 	ldr	r3, [fp, #-8]
    9464:	e3a02000 	mov	r2, #0
    9468:	e5c32000 	strb	r2, [r3]
/home/silhavyj/School/ZeroMate/examples/14-filesystem_monitor/kernel/src/fs/filesystem.cpp:20

    mRoot_Dev.parent = &mRoot;
    946c:	e51b2008 	ldr	r2, [fp, #-8]
    9470:	e51b3008 	ldr	r3, [fp, #-8]
    9474:	e583203c 	str	r2, [r3, #60]	; 0x3c
/home/silhavyj/School/ZeroMate/examples/14-filesystem_monitor/kernel/src/fs/filesystem.cpp:21
    mRoot_Dev.children = nullptr;
    9478:	e51b3008 	ldr	r3, [fp, #-8]
    947c:	e3a02000 	mov	r2, #0
    9480:	e5832040 	str	r2, [r3, #64]	; 0x40
/home/silhavyj/School/ZeroMate/examples/14-filesystem_monitor/kernel/src/fs/filesystem.cpp:22
    mRoot_Dev.next = &mRoot_Sys;
    9484:	e51b3008 	ldr	r3, [fp, #-8]
    9488:	e2832048 	add	r2, r3, #72	; 0x48
    948c:	e51b3008 	ldr	r3, [fp, #-8]
    9490:	e5832044 	str	r2, [r3, #68]	; 0x44
/home/silhavyj/School/ZeroMate/examples/14-filesystem_monitor/kernel/src/fs/filesystem.cpp:23
    mRoot_Dev.isDirectory = true;
    9494:	e51b3008 	ldr	r3, [fp, #-8]
    9498:	e3a02001 	mov	r2, #1
    949c:	e5c32034 	strb	r2, [r3, #52]	; 0x34
/home/silhavyj/School/ZeroMate/examples/14-filesystem_monitor/kernel/src/fs/filesystem.cpp:24
    mRoot_Dev.driver_idx = NoFilesystemDriver;
    94a0:	e51b3008 	ldr	r3, [fp, #-8]
    94a4:	e3e02000 	mvn	r2, #0
    94a8:	e5832038 	str	r2, [r3, #56]	; 0x38
/home/silhavyj/School/ZeroMate/examples/14-filesystem_monitor/kernel/src/fs/filesystem.cpp:25
    strncpy(mRoot_Dev.name, "DEV", 4);
    94ac:	e51b3008 	ldr	r3, [fp, #-8]
    94b0:	e2833024 	add	r3, r3, #36	; 0x24
    94b4:	e3a02004 	mov	r2, #4
    94b8:	e59f10c0 	ldr	r1, [pc, #192]	; 9580 <_ZN11CFilesystemC1Ev+0x1ac>
    94bc:	e1a00003 	mov	r0, r3
    94c0:	eb000b5b 	bl	c234 <_Z7strncpyPcPKci>
/home/silhavyj/School/ZeroMate/examples/14-filesystem_monitor/kernel/src/fs/filesystem.cpp:27

    mRoot_Sys.parent = &mRoot;
    94c4:	e51b2008 	ldr	r2, [fp, #-8]
    94c8:	e51b3008 	ldr	r3, [fp, #-8]
    94cc:	e5832060 	str	r2, [r3, #96]	; 0x60
/home/silhavyj/School/ZeroMate/examples/14-filesystem_monitor/kernel/src/fs/filesystem.cpp:28
    mRoot_Sys.children = nullptr;
    94d0:	e51b3008 	ldr	r3, [fp, #-8]
    94d4:	e3a02000 	mov	r2, #0
    94d8:	e5832064 	str	r2, [r3, #100]	; 0x64
/home/silhavyj/School/ZeroMate/examples/14-filesystem_monitor/kernel/src/fs/filesystem.cpp:29
    mRoot_Sys.next = &mRoot_Mnt;
    94dc:	e51b3008 	ldr	r3, [fp, #-8]
    94e0:	e283206c 	add	r2, r3, #108	; 0x6c
    94e4:	e51b3008 	ldr	r3, [fp, #-8]
    94e8:	e5832068 	str	r2, [r3, #104]	; 0x68
/home/silhavyj/School/ZeroMate/examples/14-filesystem_monitor/kernel/src/fs/filesystem.cpp:30
    mRoot_Sys.isDirectory = true;
    94ec:	e51b3008 	ldr	r3, [fp, #-8]
    94f0:	e3a02001 	mov	r2, #1
    94f4:	e5c32058 	strb	r2, [r3, #88]	; 0x58
/home/silhavyj/School/ZeroMate/examples/14-filesystem_monitor/kernel/src/fs/filesystem.cpp:31
    mRoot_Sys.driver_idx = NoFilesystemDriver;
    94f8:	e51b3008 	ldr	r3, [fp, #-8]
    94fc:	e3e02000 	mvn	r2, #0
    9500:	e583205c 	str	r2, [r3, #92]	; 0x5c
/home/silhavyj/School/ZeroMate/examples/14-filesystem_monitor/kernel/src/fs/filesystem.cpp:32
    strncpy(mRoot_Sys.name, "SYS", 4);
    9504:	e51b3008 	ldr	r3, [fp, #-8]
    9508:	e2833048 	add	r3, r3, #72	; 0x48
    950c:	e3a02004 	mov	r2, #4
    9510:	e59f106c 	ldr	r1, [pc, #108]	; 9584 <_ZN11CFilesystemC1Ev+0x1b0>
    9514:	e1a00003 	mov	r0, r3
    9518:	eb000b45 	bl	c234 <_Z7strncpyPcPKci>
/home/silhavyj/School/ZeroMate/examples/14-filesystem_monitor/kernel/src/fs/filesystem.cpp:34

    mRoot_Mnt.parent = &mRoot;
    951c:	e51b2008 	ldr	r2, [fp, #-8]
    9520:	e51b3008 	ldr	r3, [fp, #-8]
    9524:	e5832084 	str	r2, [r3, #132]	; 0x84
/home/silhavyj/School/ZeroMate/examples/14-filesystem_monitor/kernel/src/fs/filesystem.cpp:35
    mRoot_Mnt.children = nullptr;
    9528:	e51b3008 	ldr	r3, [fp, #-8]
    952c:	e3a02000 	mov	r2, #0
    9530:	e5832088 	str	r2, [r3, #136]	; 0x88
/home/silhavyj/School/ZeroMate/examples/14-filesystem_monitor/kernel/src/fs/filesystem.cpp:36
    mRoot_Mnt.next = nullptr;
    9534:	e51b3008 	ldr	r3, [fp, #-8]
    9538:	e3a02000 	mov	r2, #0
    953c:	e583208c 	str	r2, [r3, #140]	; 0x8c
/home/silhavyj/School/ZeroMate/examples/14-filesystem_monitor/kernel/src/fs/filesystem.cpp:37
    mRoot_Mnt.isDirectory = true;
    9540:	e51b3008 	ldr	r3, [fp, #-8]
    9544:	e3a02001 	mov	r2, #1
    9548:	e5c3207c 	strb	r2, [r3, #124]	; 0x7c
/home/silhavyj/School/ZeroMate/examples/14-filesystem_monitor/kernel/src/fs/filesystem.cpp:38
    mRoot_Mnt.driver_idx = NoFilesystemDriver;
    954c:	e51b3008 	ldr	r3, [fp, #-8]
    9550:	e3e02000 	mvn	r2, #0
    9554:	e5832080 	str	r2, [r3, #128]	; 0x80
/home/silhavyj/School/ZeroMate/examples/14-filesystem_monitor/kernel/src/fs/filesystem.cpp:39
    strncpy(mRoot_Mnt.name, "MNT", 4);
    9558:	e51b3008 	ldr	r3, [fp, #-8]
    955c:	e283306c 	add	r3, r3, #108	; 0x6c
    9560:	e3a02004 	mov	r2, #4
    9564:	e59f101c 	ldr	r1, [pc, #28]	; 9588 <_ZN11CFilesystemC1Ev+0x1b4>
    9568:	e1a00003 	mov	r0, r3
    956c:	eb000b30 	bl	c234 <_Z7strncpyPcPKci>
/home/silhavyj/School/ZeroMate/examples/14-filesystem_monitor/kernel/src/fs/filesystem.cpp:40
}
    9570:	e51b3008 	ldr	r3, [fp, #-8]
    9574:	e1a00003 	mov	r0, r3
    9578:	e24bd004 	sub	sp, fp, #4
    957c:	e8bd8800 	pop	{fp, pc}
    9580:	0000c6dc 	ldrdeq	ip, [r0], -ip	; <UNPREDICTABLE>
    9584:	0000c6e0 	andeq	ip, r0, r0, ror #13
    9588:	0000c6e4 	andeq	ip, r0, r4, ror #13

0000958c <_ZN11CFilesystem13TFS_Tree_Node10Find_ChildEPKc>:
_ZN11CFilesystem13TFS_Tree_Node10Find_ChildEPKc():
/home/silhavyj/School/ZeroMate/examples/14-filesystem_monitor/kernel/src/fs/filesystem.cpp:43

CFilesystem::TFS_Tree_Node* CFilesystem::TFS_Tree_Node::Find_Child(const char* name)
{
    958c:	e92d4800 	push	{fp, lr}
    9590:	e28db004 	add	fp, sp, #4
    9594:	e24dd010 	sub	sp, sp, #16
    9598:	e50b0010 	str	r0, [fp, #-16]
    959c:	e50b1014 	str	r1, [fp, #-20]	; 0xffffffec
/home/silhavyj/School/ZeroMate/examples/14-filesystem_monitor/kernel/src/fs/filesystem.cpp:44
    TFS_Tree_Node* child = children;
    95a0:	e51b3010 	ldr	r3, [fp, #-16]
    95a4:	e593301c 	ldr	r3, [r3, #28]
    95a8:	e50b3008 	str	r3, [fp, #-8]
/home/silhavyj/School/ZeroMate/examples/14-filesystem_monitor/kernel/src/fs/filesystem.cpp:46

    while (child != nullptr)
    95ac:	e51b3008 	ldr	r3, [fp, #-8]
    95b0:	e3530000 	cmp	r3, #0
    95b4:	0a000011 	beq	9600 <_ZN11CFilesystem13TFS_Tree_Node10Find_ChildEPKc+0x74>
/home/silhavyj/School/ZeroMate/examples/14-filesystem_monitor/kernel/src/fs/filesystem.cpp:48
    {
        if (strncmp(child->name, name, MaxFilenameLength) == 0)
    95b8:	e51b3008 	ldr	r3, [fp, #-8]
    95bc:	e3a02010 	mov	r2, #16
    95c0:	e51b1014 	ldr	r1, [fp, #-20]	; 0xffffffec
    95c4:	e1a00003 	mov	r0, r3
    95c8:	eb000b49 	bl	c2f4 <_Z7strncmpPKcS0_i>
    95cc:	e1a03000 	mov	r3, r0
    95d0:	e3530000 	cmp	r3, #0
    95d4:	03a03001 	moveq	r3, #1
    95d8:	13a03000 	movne	r3, #0
    95dc:	e6ef3073 	uxtb	r3, r3
    95e0:	e3530000 	cmp	r3, #0
    95e4:	0a000001 	beq	95f0 <_ZN11CFilesystem13TFS_Tree_Node10Find_ChildEPKc+0x64>
/home/silhavyj/School/ZeroMate/examples/14-filesystem_monitor/kernel/src/fs/filesystem.cpp:49
            return child;
    95e8:	e51b3008 	ldr	r3, [fp, #-8]
    95ec:	ea000004 	b	9604 <_ZN11CFilesystem13TFS_Tree_Node10Find_ChildEPKc+0x78>
/home/silhavyj/School/ZeroMate/examples/14-filesystem_monitor/kernel/src/fs/filesystem.cpp:51

        child = child->next;
    95f0:	e51b3008 	ldr	r3, [fp, #-8]
    95f4:	e5933020 	ldr	r3, [r3, #32]
    95f8:	e50b3008 	str	r3, [fp, #-8]
/home/silhavyj/School/ZeroMate/examples/14-filesystem_monitor/kernel/src/fs/filesystem.cpp:46
    while (child != nullptr)
    95fc:	eaffffea 	b	95ac <_ZN11CFilesystem13TFS_Tree_Node10Find_ChildEPKc+0x20>
/home/silhavyj/School/ZeroMate/examples/14-filesystem_monitor/kernel/src/fs/filesystem.cpp:54
    }

    return nullptr;
    9600:	e3a03000 	mov	r3, #0
/home/silhavyj/School/ZeroMate/examples/14-filesystem_monitor/kernel/src/fs/filesystem.cpp:55
}
    9604:	e1a00003 	mov	r0, r3
    9608:	e24bd004 	sub	sp, fp, #4
    960c:	e8bd8800 	pop	{fp, pc}

00009610 <_ZN11CFilesystem10InitializeEv>:
_ZN11CFilesystem10InitializeEv():
/home/silhavyj/School/ZeroMate/examples/14-filesystem_monitor/kernel/src/fs/filesystem.cpp:58

void CFilesystem::Initialize()
{
    9610:	e92d4800 	push	{fp, lr}
    9614:	e28db004 	add	fp, sp, #4
    9618:	e24dd030 	sub	sp, sp, #48	; 0x30
    961c:	e50b0030 	str	r0, [fp, #-48]	; 0xffffffd0
/home/silhavyj/School/ZeroMate/examples/14-filesystem_monitor/kernel/src/fs/filesystem.cpp:64
    char tmpName[MaxFilenameLength];
    const char* mpPtr;

    int i, j;

    for (i = 0; i < gFS_Drivers_Count; i++)
    9620:	e3a03000 	mov	r3, #0
    9624:	e50b300c 	str	r3, [fp, #-12]
/home/silhavyj/School/ZeroMate/examples/14-filesystem_monitor/kernel/src/fs/filesystem.cpp:64 (discriminator 1)
    9628:	e51b200c 	ldr	r2, [fp, #-12]
    962c:	e59f3208 	ldr	r3, [pc, #520]	; 983c <_ZN11CFilesystem10InitializeEv+0x22c>
    9630:	e5933000 	ldr	r3, [r3]
    9634:	e1520003 	cmp	r2, r3
    9638:	2a00007d 	bcs	9834 <_ZN11CFilesystem10InitializeEv+0x224>
/home/silhavyj/School/ZeroMate/examples/14-filesystem_monitor/kernel/src/fs/filesystem.cpp:66
    {
        const TFS_Driver* ptr = &gFS_Drivers[i];
    963c:	e51b200c 	ldr	r2, [fp, #-12]
    9640:	e1a03002 	mov	r3, r2
    9644:	e1a03083 	lsl	r3, r3, #1
    9648:	e0833002 	add	r3, r3, r2
    964c:	e1a03183 	lsl	r3, r3, #3
    9650:	e59f21e8 	ldr	r2, [pc, #488]	; 9840 <_ZN11CFilesystem10InitializeEv+0x230>
    9654:	e0833002 	add	r3, r3, r2
    9658:	e50b3018 	str	r3, [fp, #-24]	; 0xffffffe8
/home/silhavyj/School/ZeroMate/examples/14-filesystem_monitor/kernel/src/fs/filesystem.cpp:68

        mpPtr = ptr->mountPoint;
    965c:	e51b3018 	ldr	r3, [fp, #-24]	; 0xffffffe8
    9660:	e5933010 	ldr	r3, [r3, #16]
    9664:	e50b3008 	str	r3, [fp, #-8]
/home/silhavyj/School/ZeroMate/examples/14-filesystem_monitor/kernel/src/fs/filesystem.cpp:70

        TFS_Tree_Node* node = &mRoot, *tmpNode = nullptr;
    9668:	e51b3030 	ldr	r3, [fp, #-48]	; 0xffffffd0
    966c:	e50b3014 	str	r3, [fp, #-20]	; 0xffffffec
    9670:	e3a03000 	mov	r3, #0
    9674:	e50b301c 	str	r3, [fp, #-28]	; 0xffffffe4
/home/silhavyj/School/ZeroMate/examples/14-filesystem_monitor/kernel/src/fs/filesystem.cpp:72

        while (mpPtr[0] != '\0')
    9678:	e51b3008 	ldr	r3, [fp, #-8]
    967c:	e5d33000 	ldrb	r3, [r3]
    9680:	e3530000 	cmp	r3, #0
    9684:	0a000056 	beq	97e4 <_ZN11CFilesystem10InitializeEv+0x1d4>
/home/silhavyj/School/ZeroMate/examples/14-filesystem_monitor/kernel/src/fs/filesystem.cpp:74
        {
            for (j = 0; j < MaxPathLength && mpPtr[j] != '\0'; j++)
    9688:	e3a03000 	mov	r3, #0
    968c:	e50b3010 	str	r3, [fp, #-16]
/home/silhavyj/School/ZeroMate/examples/14-filesystem_monitor/kernel/src/fs/filesystem.cpp:74 (discriminator 1)
    9690:	e51b3010 	ldr	r3, [fp, #-16]
    9694:	e353007f 	cmp	r3, #127	; 0x7f
    9698:	8a00001e 	bhi	9718 <_ZN11CFilesystem10InitializeEv+0x108>
/home/silhavyj/School/ZeroMate/examples/14-filesystem_monitor/kernel/src/fs/filesystem.cpp:74 (discriminator 2)
    969c:	e51b3010 	ldr	r3, [fp, #-16]
    96a0:	e51b2008 	ldr	r2, [fp, #-8]
    96a4:	e0823003 	add	r3, r2, r3
    96a8:	e5d33000 	ldrb	r3, [r3]
    96ac:	e3530000 	cmp	r3, #0
    96b0:	0a000018 	beq	9718 <_ZN11CFilesystem10InitializeEv+0x108>
/home/silhavyj/School/ZeroMate/examples/14-filesystem_monitor/kernel/src/fs/filesystem.cpp:76
            {
                if (mpPtr[j] == ':' || mpPtr[j] == '/')
    96b4:	e51b3010 	ldr	r3, [fp, #-16]
    96b8:	e51b2008 	ldr	r2, [fp, #-8]
    96bc:	e0823003 	add	r3, r2, r3
    96c0:	e5d33000 	ldrb	r3, [r3]
    96c4:	e353003a 	cmp	r3, #58	; 0x3a
    96c8:	0a000012 	beq	9718 <_ZN11CFilesystem10InitializeEv+0x108>
/home/silhavyj/School/ZeroMate/examples/14-filesystem_monitor/kernel/src/fs/filesystem.cpp:76 (discriminator 1)
    96cc:	e51b3010 	ldr	r3, [fp, #-16]
    96d0:	e51b2008 	ldr	r2, [fp, #-8]
    96d4:	e0823003 	add	r3, r2, r3
    96d8:	e5d33000 	ldrb	r3, [r3]
    96dc:	e353002f 	cmp	r3, #47	; 0x2f
    96e0:	0a00000c 	beq	9718 <_ZN11CFilesystem10InitializeEv+0x108>
/home/silhavyj/School/ZeroMate/examples/14-filesystem_monitor/kernel/src/fs/filesystem.cpp:79 (discriminator 3)
                    break;

                tmpName[j] = mpPtr[j];
    96e4:	e51b3010 	ldr	r3, [fp, #-16]
    96e8:	e51b2008 	ldr	r2, [fp, #-8]
    96ec:	e0823003 	add	r3, r2, r3
    96f0:	e5d31000 	ldrb	r1, [r3]
    96f4:	e24b202c 	sub	r2, fp, #44	; 0x2c
    96f8:	e51b3010 	ldr	r3, [fp, #-16]
    96fc:	e0823003 	add	r3, r2, r3
    9700:	e1a02001 	mov	r2, r1
    9704:	e5c32000 	strb	r2, [r3]
/home/silhavyj/School/ZeroMate/examples/14-filesystem_monitor/kernel/src/fs/filesystem.cpp:74 (discriminator 3)
            for (j = 0; j < MaxPathLength && mpPtr[j] != '\0'; j++)
    9708:	e51b3010 	ldr	r3, [fp, #-16]
    970c:	e2833001 	add	r3, r3, #1
    9710:	e50b3010 	str	r3, [fp, #-16]
    9714:	eaffffdd 	b	9690 <_ZN11CFilesystem10InitializeEv+0x80>
/home/silhavyj/School/ZeroMate/examples/14-filesystem_monitor/kernel/src/fs/filesystem.cpp:82
            }

            tmpName[j] = '\0';
    9718:	e24b202c 	sub	r2, fp, #44	; 0x2c
    971c:	e51b3010 	ldr	r3, [fp, #-16]
    9720:	e0823003 	add	r3, r2, r3
    9724:	e3a02000 	mov	r2, #0
    9728:	e5c32000 	strb	r2, [r3]
/home/silhavyj/School/ZeroMate/examples/14-filesystem_monitor/kernel/src/fs/filesystem.cpp:83
            mpPtr += j + 1;
    972c:	e51b3010 	ldr	r3, [fp, #-16]
    9730:	e2833001 	add	r3, r3, #1
    9734:	e51b2008 	ldr	r2, [fp, #-8]
    9738:	e0823003 	add	r3, r2, r3
    973c:	e50b3008 	str	r3, [fp, #-8]
/home/silhavyj/School/ZeroMate/examples/14-filesystem_monitor/kernel/src/fs/filesystem.cpp:85

            tmpNode = node->Find_Child(tmpName);
    9740:	e24b302c 	sub	r3, fp, #44	; 0x2c
    9744:	e1a01003 	mov	r1, r3
    9748:	e51b0014 	ldr	r0, [fp, #-20]	; 0xffffffec
    974c:	ebffff8e 	bl	958c <_ZN11CFilesystem13TFS_Tree_Node10Find_ChildEPKc>
    9750:	e50b001c 	str	r0, [fp, #-28]	; 0xffffffe4
/home/silhavyj/School/ZeroMate/examples/14-filesystem_monitor/kernel/src/fs/filesystem.cpp:87
            // uzel jsme nasli - pouzijeme ho pro dalsi prohledavani
            if (tmpNode)
    9754:	e51b301c 	ldr	r3, [fp, #-28]	; 0xffffffe4
    9758:	e3530000 	cmp	r3, #0
    975c:	0a000002 	beq	976c <_ZN11CFilesystem10InitializeEv+0x15c>
/home/silhavyj/School/ZeroMate/examples/14-filesystem_monitor/kernel/src/fs/filesystem.cpp:88
                node = tmpNode;
    9760:	e51b301c 	ldr	r3, [fp, #-28]	; 0xffffffe4
    9764:	e50b3014 	str	r3, [fp, #-20]	; 0xffffffec
    9768:	eaffffc2 	b	9678 <_ZN11CFilesystem10InitializeEv+0x68>
/home/silhavyj/School/ZeroMate/examples/14-filesystem_monitor/kernel/src/fs/filesystem.cpp:92
            // uzel jsme nenasli - vytvorime ho a pouzijeme ho pro dalsi prohledavani
            else
            {
                tmpNode = sKernelMem.Alloc<TFS_Tree_Node>();
    976c:	e59f00d0 	ldr	r0, [pc, #208]	; 9844 <_ZN11CFilesystem10InitializeEv+0x234>
    9770:	eb0000d8 	bl	9ad8 <_ZN20CKernel_Heap_Manager5AllocIN11CFilesystem13TFS_Tree_NodeEEEPT_v>
    9774:	e50b001c 	str	r0, [fp, #-28]	; 0xffffffe4
/home/silhavyj/School/ZeroMate/examples/14-filesystem_monitor/kernel/src/fs/filesystem.cpp:93
                strncpy(tmpNode->name, tmpName, MaxFilenameLength);
    9778:	e51b301c 	ldr	r3, [fp, #-28]	; 0xffffffe4
    977c:	e24b102c 	sub	r1, fp, #44	; 0x2c
    9780:	e3a02010 	mov	r2, #16
    9784:	e1a00003 	mov	r0, r3
    9788:	eb000aa9 	bl	c234 <_Z7strncpyPcPKci>
/home/silhavyj/School/ZeroMate/examples/14-filesystem_monitor/kernel/src/fs/filesystem.cpp:94
                tmpNode->parent = node;
    978c:	e51b301c 	ldr	r3, [fp, #-28]	; 0xffffffe4
    9790:	e51b2014 	ldr	r2, [fp, #-20]	; 0xffffffec
    9794:	e5832018 	str	r2, [r3, #24]
/home/silhavyj/School/ZeroMate/examples/14-filesystem_monitor/kernel/src/fs/filesystem.cpp:95
                tmpNode->children = nullptr;
    9798:	e51b301c 	ldr	r3, [fp, #-28]	; 0xffffffe4
    979c:	e3a02000 	mov	r2, #0
    97a0:	e583201c 	str	r2, [r3, #28]
/home/silhavyj/School/ZeroMate/examples/14-filesystem_monitor/kernel/src/fs/filesystem.cpp:96
                tmpNode->driver_idx = NoFilesystemDriver; // zatim - mozna se neco dole zmeni
    97a4:	e51b301c 	ldr	r3, [fp, #-28]	; 0xffffffe4
    97a8:	e3e02000 	mvn	r2, #0
    97ac:	e5832014 	str	r2, [r3, #20]
/home/silhavyj/School/ZeroMate/examples/14-filesystem_monitor/kernel/src/fs/filesystem.cpp:97
                tmpNode->isDirectory = true;
    97b0:	e51b301c 	ldr	r3, [fp, #-28]	; 0xffffffe4
    97b4:	e3a02001 	mov	r2, #1
    97b8:	e5c32010 	strb	r2, [r3, #16]
/home/silhavyj/School/ZeroMate/examples/14-filesystem_monitor/kernel/src/fs/filesystem.cpp:98
                tmpNode->next = node->children;
    97bc:	e51b3014 	ldr	r3, [fp, #-20]	; 0xffffffec
    97c0:	e593201c 	ldr	r2, [r3, #28]
    97c4:	e51b301c 	ldr	r3, [fp, #-28]	; 0xffffffe4
    97c8:	e5832020 	str	r2, [r3, #32]
/home/silhavyj/School/ZeroMate/examples/14-filesystem_monitor/kernel/src/fs/filesystem.cpp:99
                node->children = tmpNode;
    97cc:	e51b3014 	ldr	r3, [fp, #-20]	; 0xffffffec
    97d0:	e51b201c 	ldr	r2, [fp, #-28]	; 0xffffffe4
    97d4:	e583201c 	str	r2, [r3, #28]
/home/silhavyj/School/ZeroMate/examples/14-filesystem_monitor/kernel/src/fs/filesystem.cpp:101

                node = tmpNode;
    97d8:	e51b301c 	ldr	r3, [fp, #-28]	; 0xffffffe4
    97dc:	e50b3014 	str	r3, [fp, #-20]	; 0xffffffec
/home/silhavyj/School/ZeroMate/examples/14-filesystem_monitor/kernel/src/fs/filesystem.cpp:72
        while (mpPtr[0] != '\0')
    97e0:	eaffffa4 	b	9678 <_ZN11CFilesystem10InitializeEv+0x68>
/home/silhavyj/School/ZeroMate/examples/14-filesystem_monitor/kernel/src/fs/filesystem.cpp:108
        }

        // 'node' obsahuje uzel posledniho clanku mountpointu - tedy vlastni mountpoint

        // mountpoint nesmi byt uz zabrany
        if (node->driver_idx != NoFilesystemDriver)
    97e4:	e51b3014 	ldr	r3, [fp, #-20]	; 0xffffffec
    97e8:	e5933014 	ldr	r3, [r3, #20]
    97ec:	e3730001 	cmn	r3, #1
    97f0:	1a00000e 	bne	9830 <_ZN11CFilesystem10InitializeEv+0x220>
/home/silhavyj/School/ZeroMate/examples/14-filesystem_monitor/kernel/src/fs/filesystem.cpp:111 (discriminator 2)
            return;

        node->driver_idx = i; // timto predavame veskere manipulace driveru
    97f4:	e51b200c 	ldr	r2, [fp, #-12]
    97f8:	e51b3014 	ldr	r3, [fp, #-20]	; 0xffffffec
    97fc:	e5832014 	str	r2, [r3, #20]
/home/silhavyj/School/ZeroMate/examples/14-filesystem_monitor/kernel/src/fs/filesystem.cpp:114 (discriminator 2)

        // dame driveru vedet, ze jsme ho zaregistrovali
        ptr->driver->On_Register();
    9800:	e51b3018 	ldr	r3, [fp, #-24]	; 0xffffffe8
    9804:	e5932014 	ldr	r2, [r3, #20]
    9808:	e51b3018 	ldr	r3, [fp, #-24]	; 0xffffffe8
    980c:	e5933014 	ldr	r3, [r3, #20]
    9810:	e5933000 	ldr	r3, [r3]
    9814:	e5933000 	ldr	r3, [r3]
    9818:	e1a00002 	mov	r0, r2
    981c:	e12fff33 	blx	r3
/home/silhavyj/School/ZeroMate/examples/14-filesystem_monitor/kernel/src/fs/filesystem.cpp:64 (discriminator 2)
    for (i = 0; i < gFS_Drivers_Count; i++)
    9820:	e51b300c 	ldr	r3, [fp, #-12]
    9824:	e2833001 	add	r3, r3, #1
    9828:	e50b300c 	str	r3, [fp, #-12]
    982c:	eaffff7d 	b	9628 <_ZN11CFilesystem10InitializeEv+0x18>
/home/silhavyj/School/ZeroMate/examples/14-filesystem_monitor/kernel/src/fs/filesystem.cpp:109
            return;
    9830:	e320f000 	nop	{0}
/home/silhavyj/School/ZeroMate/examples/14-filesystem_monitor/kernel/src/fs/filesystem.cpp:116
    }
}
    9834:	e24bd004 	sub	sp, fp, #4
    9838:	e8bd8800 	pop	{fp, pc}
    983c:	0000c75c 	andeq	ip, r0, ip, asr r7
    9840:	0000c72c 	andeq	ip, r0, ip, lsr #14
    9844:	0000cb30 	andeq	ip, r0, r0, lsr fp

00009848 <_ZN11CFilesystem4OpenEPKc15NFile_Open_Mode>:
_ZN11CFilesystem4OpenEPKc15NFile_Open_Mode():
/home/silhavyj/School/ZeroMate/examples/14-filesystem_monitor/kernel/src/fs/filesystem.cpp:119

IFile* CFilesystem::Open(const char* path, NFile_Open_Mode mode)
{
    9848:	e92d4800 	push	{fp, lr}
    984c:	e28db004 	add	fp, sp, #4
    9850:	e24dd030 	sub	sp, sp, #48	; 0x30
    9854:	e50b0028 	str	r0, [fp, #-40]	; 0xffffffd8
    9858:	e50b102c 	str	r1, [fp, #-44]	; 0xffffffd4
    985c:	e50b2030 	str	r2, [fp, #-48]	; 0xffffffd0
/home/silhavyj/School/ZeroMate/examples/14-filesystem_monitor/kernel/src/fs/filesystem.cpp:125
    char tmpName[MaxFilenameLength];
    const char* mpPtr;

    int j;

    mpPtr = path;
    9860:	e51b302c 	ldr	r3, [fp, #-44]	; 0xffffffd4
    9864:	e50b3008 	str	r3, [fp, #-8]
/home/silhavyj/School/ZeroMate/examples/14-filesystem_monitor/kernel/src/fs/filesystem.cpp:127

    TFS_Tree_Node* node = &mRoot, *tmpNode = nullptr;
    9868:	e51b3028 	ldr	r3, [fp, #-40]	; 0xffffffd8
    986c:	e50b3010 	str	r3, [fp, #-16]
    9870:	e3a03000 	mov	r3, #0
    9874:	e50b3014 	str	r3, [fp, #-20]	; 0xffffffec
/home/silhavyj/School/ZeroMate/examples/14-filesystem_monitor/kernel/src/fs/filesystem.cpp:129

    while (mpPtr[0] != '\0')
    9878:	e51b3008 	ldr	r3, [fp, #-8]
    987c:	e5d33000 	ldrb	r3, [r3]
    9880:	e3530000 	cmp	r3, #0
    9884:	0a000065 	beq	9a20 <_ZN11CFilesystem4OpenEPKc15NFile_Open_Mode+0x1d8>
/home/silhavyj/School/ZeroMate/examples/14-filesystem_monitor/kernel/src/fs/filesystem.cpp:131
    {
        for (j = 0; j < MaxPathLength && mpPtr[j] != '\0'; j++)
    9888:	e3a03000 	mov	r3, #0
    988c:	e50b300c 	str	r3, [fp, #-12]
/home/silhavyj/School/ZeroMate/examples/14-filesystem_monitor/kernel/src/fs/filesystem.cpp:131 (discriminator 1)
    9890:	e51b300c 	ldr	r3, [fp, #-12]
    9894:	e353007f 	cmp	r3, #127	; 0x7f
    9898:	8a00001e 	bhi	9918 <_ZN11CFilesystem4OpenEPKc15NFile_Open_Mode+0xd0>
/home/silhavyj/School/ZeroMate/examples/14-filesystem_monitor/kernel/src/fs/filesystem.cpp:131 (discriminator 2)
    989c:	e51b300c 	ldr	r3, [fp, #-12]
    98a0:	e51b2008 	ldr	r2, [fp, #-8]
    98a4:	e0823003 	add	r3, r2, r3
    98a8:	e5d33000 	ldrb	r3, [r3]
    98ac:	e3530000 	cmp	r3, #0
    98b0:	0a000018 	beq	9918 <_ZN11CFilesystem4OpenEPKc15NFile_Open_Mode+0xd0>
/home/silhavyj/School/ZeroMate/examples/14-filesystem_monitor/kernel/src/fs/filesystem.cpp:133
        {
            if (mpPtr[j] == ':' || mpPtr[j] == '/')
    98b4:	e51b300c 	ldr	r3, [fp, #-12]
    98b8:	e51b2008 	ldr	r2, [fp, #-8]
    98bc:	e0823003 	add	r3, r2, r3
    98c0:	e5d33000 	ldrb	r3, [r3]
    98c4:	e353003a 	cmp	r3, #58	; 0x3a
    98c8:	0a000012 	beq	9918 <_ZN11CFilesystem4OpenEPKc15NFile_Open_Mode+0xd0>
/home/silhavyj/School/ZeroMate/examples/14-filesystem_monitor/kernel/src/fs/filesystem.cpp:133 (discriminator 1)
    98cc:	e51b300c 	ldr	r3, [fp, #-12]
    98d0:	e51b2008 	ldr	r2, [fp, #-8]
    98d4:	e0823003 	add	r3, r2, r3
    98d8:	e5d33000 	ldrb	r3, [r3]
    98dc:	e353002f 	cmp	r3, #47	; 0x2f
    98e0:	0a00000c 	beq	9918 <_ZN11CFilesystem4OpenEPKc15NFile_Open_Mode+0xd0>
/home/silhavyj/School/ZeroMate/examples/14-filesystem_monitor/kernel/src/fs/filesystem.cpp:136 (discriminator 3)
                break;

            tmpName[j] = mpPtr[j];
    98e4:	e51b300c 	ldr	r3, [fp, #-12]
    98e8:	e51b2008 	ldr	r2, [fp, #-8]
    98ec:	e0823003 	add	r3, r2, r3
    98f0:	e5d31000 	ldrb	r1, [r3]
    98f4:	e24b2024 	sub	r2, fp, #36	; 0x24
    98f8:	e51b300c 	ldr	r3, [fp, #-12]
    98fc:	e0823003 	add	r3, r2, r3
    9900:	e1a02001 	mov	r2, r1
    9904:	e5c32000 	strb	r2, [r3]
/home/silhavyj/School/ZeroMate/examples/14-filesystem_monitor/kernel/src/fs/filesystem.cpp:131 (discriminator 3)
        for (j = 0; j < MaxPathLength && mpPtr[j] != '\0'; j++)
    9908:	e51b300c 	ldr	r3, [fp, #-12]
    990c:	e2833001 	add	r3, r3, #1
    9910:	e50b300c 	str	r3, [fp, #-12]
    9914:	eaffffdd 	b	9890 <_ZN11CFilesystem4OpenEPKc15NFile_Open_Mode+0x48>
/home/silhavyj/School/ZeroMate/examples/14-filesystem_monitor/kernel/src/fs/filesystem.cpp:139
        }

        tmpName[j] = '\0';
    9918:	e24b2024 	sub	r2, fp, #36	; 0x24
    991c:	e51b300c 	ldr	r3, [fp, #-12]
    9920:	e0823003 	add	r3, r2, r3
    9924:	e3a02000 	mov	r2, #0
    9928:	e5c32000 	strb	r2, [r3]
/home/silhavyj/School/ZeroMate/examples/14-filesystem_monitor/kernel/src/fs/filesystem.cpp:140
        mpPtr += j + 1;
    992c:	e51b300c 	ldr	r3, [fp, #-12]
    9930:	e2833001 	add	r3, r3, #1
    9934:	e51b2008 	ldr	r2, [fp, #-8]
    9938:	e0823003 	add	r3, r2, r3
    993c:	e50b3008 	str	r3, [fp, #-8]
/home/silhavyj/School/ZeroMate/examples/14-filesystem_monitor/kernel/src/fs/filesystem.cpp:142

        tmpNode = node->Find_Child(tmpName);
    9940:	e24b3024 	sub	r3, fp, #36	; 0x24
    9944:	e1a01003 	mov	r1, r3
    9948:	e51b0010 	ldr	r0, [fp, #-16]
    994c:	ebffff0e 	bl	958c <_ZN11CFilesystem13TFS_Tree_Node10Find_ChildEPKc>
    9950:	e50b0014 	str	r0, [fp, #-20]	; 0xffffffec
/home/silhavyj/School/ZeroMate/examples/14-filesystem_monitor/kernel/src/fs/filesystem.cpp:143
        if (tmpNode)
    9954:	e51b3014 	ldr	r3, [fp, #-20]	; 0xffffffec
    9958:	e3530000 	cmp	r3, #0
    995c:	0a000001 	beq	9968 <_ZN11CFilesystem4OpenEPKc15NFile_Open_Mode+0x120>
/home/silhavyj/School/ZeroMate/examples/14-filesystem_monitor/kernel/src/fs/filesystem.cpp:144
            node = tmpNode;
    9960:	e51b3014 	ldr	r3, [fp, #-20]	; 0xffffffec
    9964:	e50b3010 	str	r3, [fp, #-16]
/home/silhavyj/School/ZeroMate/examples/14-filesystem_monitor/kernel/src/fs/filesystem.cpp:146

        if (tmpNode->driver_idx != NoFilesystemDriver)
    9968:	e51b3014 	ldr	r3, [fp, #-20]	; 0xffffffec
    996c:	e5933014 	ldr	r3, [r3, #20]
    9970:	e3730001 	cmn	r3, #1
    9974:	0a000021 	beq	9a00 <_ZN11CFilesystem4OpenEPKc15NFile_Open_Mode+0x1b8>
/home/silhavyj/School/ZeroMate/examples/14-filesystem_monitor/kernel/src/fs/filesystem.cpp:147
            return gFS_Drivers[tmpNode->driver_idx].driver->Open_File(mpPtr, mode);
    9978:	e51b3014 	ldr	r3, [fp, #-20]	; 0xffffffec
    997c:	e5932014 	ldr	r2, [r3, #20]
    9980:	e59f10a8 	ldr	r1, [pc, #168]	; 9a30 <_ZN11CFilesystem4OpenEPKc15NFile_Open_Mode+0x1e8>
    9984:	e1a03002 	mov	r3, r2
    9988:	e1a03083 	lsl	r3, r3, #1
    998c:	e0833002 	add	r3, r3, r2
    9990:	e1a03183 	lsl	r3, r3, #3
    9994:	e0813003 	add	r3, r1, r3
    9998:	e2833014 	add	r3, r3, #20
    999c:	e5930000 	ldr	r0, [r3]
    99a0:	e51b3014 	ldr	r3, [fp, #-20]	; 0xffffffec
    99a4:	e5932014 	ldr	r2, [r3, #20]
    99a8:	e1a03002 	mov	r3, r2
    99ac:	e1a03083 	lsl	r3, r3, #1
    99b0:	e0833002 	add	r3, r3, r2
    99b4:	e1a03183 	lsl	r3, r3, #3
    99b8:	e51b3014 	ldr	r3, [fp, #-20]	; 0xffffffec
    99bc:	e5932014 	ldr	r2, [r3, #20]
    99c0:	e59f1068 	ldr	r1, [pc, #104]	; 9a30 <_ZN11CFilesystem4OpenEPKc15NFile_Open_Mode+0x1e8>
    99c4:	e1a03002 	mov	r3, r2
    99c8:	e1a03083 	lsl	r3, r3, #1
    99cc:	e0833002 	add	r3, r3, r2
    99d0:	e1a03183 	lsl	r3, r3, #3
    99d4:	e0813003 	add	r3, r1, r3
    99d8:	e2833014 	add	r3, r3, #20
    99dc:	e5933000 	ldr	r3, [r3]
    99e0:	e5933000 	ldr	r3, [r3]
    99e4:	e2833004 	add	r3, r3, #4
    99e8:	e5933000 	ldr	r3, [r3]
    99ec:	e51b2030 	ldr	r2, [fp, #-48]	; 0xffffffd0
    99f0:	e51b1008 	ldr	r1, [fp, #-8]
    99f4:	e12fff33 	blx	r3
    99f8:	e1a03000 	mov	r3, r0
    99fc:	ea000008 	b	9a24 <_ZN11CFilesystem4OpenEPKc15NFile_Open_Mode+0x1dc>
/home/silhavyj/School/ZeroMate/examples/14-filesystem_monitor/kernel/src/fs/filesystem.cpp:148
        else if (!tmpNode->isDirectory)
    9a00:	e51b3014 	ldr	r3, [fp, #-20]	; 0xffffffec
    9a04:	e5d33010 	ldrb	r3, [r3, #16]
    9a08:	e2233001 	eor	r3, r3, #1
    9a0c:	e6ef3073 	uxtb	r3, r3
    9a10:	e3530000 	cmp	r3, #0
    9a14:	1a000000 	bne	9a1c <_ZN11CFilesystem4OpenEPKc15NFile_Open_Mode+0x1d4>
/home/silhavyj/School/ZeroMate/examples/14-filesystem_monitor/kernel/src/fs/filesystem.cpp:129
    while (mpPtr[0] != '\0')
    9a18:	eaffff96 	b	9878 <_ZN11CFilesystem4OpenEPKc15NFile_Open_Mode+0x30>
/home/silhavyj/School/ZeroMate/examples/14-filesystem_monitor/kernel/src/fs/filesystem.cpp:149
            break;
    9a1c:	e320f000 	nop	{0}
/home/silhavyj/School/ZeroMate/examples/14-filesystem_monitor/kernel/src/fs/filesystem.cpp:153
    }

    // zadny filesystem se tohoto uzlu "neujal" -> soubor neexistuje
    return nullptr;
    9a20:	e3a03000 	mov	r3, #0
/home/silhavyj/School/ZeroMate/examples/14-filesystem_monitor/kernel/src/fs/filesystem.cpp:154 (discriminator 1)
}
    9a24:	e1a00003 	mov	r0, r3
    9a28:	e24bd004 	sub	sp, fp, #4
    9a2c:	e8bd8800 	pop	{fp, pc}
    9a30:	0000c72c 	andeq	ip, r0, ip, lsr #14

00009a34 <_Z41__static_initialization_and_destruction_0ii>:
_Z41__static_initialization_and_destruction_0ii():
/home/silhavyj/School/ZeroMate/examples/14-filesystem_monitor/kernel/src/fs/filesystem.cpp:154
    9a34:	e92d4800 	push	{fp, lr}
    9a38:	e28db004 	add	fp, sp, #4
    9a3c:	e24dd008 	sub	sp, sp, #8
    9a40:	e50b0008 	str	r0, [fp, #-8]
    9a44:	e50b100c 	str	r1, [fp, #-12]
    9a48:	e51b3008 	ldr	r3, [fp, #-8]
    9a4c:	e3530001 	cmp	r3, #1
    9a50:	1a000005 	bne	9a6c <_Z41__static_initialization_and_destruction_0ii+0x38>
/home/silhavyj/School/ZeroMate/examples/14-filesystem_monitor/kernel/src/fs/filesystem.cpp:154 (discriminator 1)
    9a54:	e51b300c 	ldr	r3, [fp, #-12]
    9a58:	e59f2018 	ldr	r2, [pc, #24]	; 9a78 <_Z41__static_initialization_and_destruction_0ii+0x44>
    9a5c:	e1530002 	cmp	r3, r2
    9a60:	1a000001 	bne	9a6c <_Z41__static_initialization_and_destruction_0ii+0x38>
/home/silhavyj/School/ZeroMate/examples/14-filesystem_monitor/kernel/src/fs/filesystem.cpp:7
CFilesystem sFilesystem;
    9a64:	e59f0010 	ldr	r0, [pc, #16]	; 9a7c <_Z41__static_initialization_and_destruction_0ii+0x48>
    9a68:	ebfffe59 	bl	93d4 <_ZN11CFilesystemC1Ev>
/home/silhavyj/School/ZeroMate/examples/14-filesystem_monitor/kernel/src/fs/filesystem.cpp:154
}
    9a6c:	e320f000 	nop	{0}
    9a70:	e24bd004 	sub	sp, fp, #4
    9a74:	e8bd8800 	pop	{fp, pc}
    9a78:	0000ffff 	strdeq	pc, [r0], -pc	; <UNPREDICTABLE>
    9a7c:	0000ca94 	muleq	r0, r4, sl

00009a80 <_GLOBAL__sub_I_sFilesystem>:
_GLOBAL__sub_I_sFilesystem():
/home/silhavyj/School/ZeroMate/examples/14-filesystem_monitor/kernel/src/fs/filesystem.cpp:154
    9a80:	e92d4800 	push	{fp, lr}
    9a84:	e28db004 	add	fp, sp, #4
    9a88:	e59f1008 	ldr	r1, [pc, #8]	; 9a98 <_GLOBAL__sub_I_sFilesystem+0x18>
    9a8c:	e3a00001 	mov	r0, #1
    9a90:	ebffffe7 	bl	9a34 <_Z41__static_initialization_and_destruction_0ii>
    9a94:	e8bd8800 	pop	{fp, pc}
    9a98:	0000ffff 	strdeq	pc, [r0], -pc	; <UNPREDICTABLE>

00009a9c <_ZN11CFilesystem13TFS_Tree_NodeC1Ev>:
_ZN11CFilesystem13TFS_Tree_NodeC2Ev():
/home/silhavyj/School/ZeroMate/examples/14-filesystem_monitor/kernel/include/fs/filesystem.h:64

class CFilesystem
{
    private:
        // uzel filesystemu, ktery neni spravovan zadnym FS driverem
        struct TFS_Tree_Node
    9a9c:	e52db004 	push	{fp}		; (str fp, [sp, #-4]!)
    9aa0:	e28db000 	add	fp, sp, #0
    9aa4:	e24dd00c 	sub	sp, sp, #12
    9aa8:	e50b0008 	str	r0, [fp, #-8]
    9aac:	e51b3008 	ldr	r3, [fp, #-8]
    9ab0:	e3a02000 	mov	r2, #0
    9ab4:	e5c32010 	strb	r2, [r3, #16]
    9ab8:	e51b3008 	ldr	r3, [fp, #-8]
    9abc:	e3e02000 	mvn	r2, #0
    9ac0:	e5832014 	str	r2, [r3, #20]
    9ac4:	e51b3008 	ldr	r3, [fp, #-8]
    9ac8:	e1a00003 	mov	r0, r3
    9acc:	e28bd000 	add	sp, fp, #0
    9ad0:	e49db004 	pop	{fp}		; (ldr fp, [sp], #4)
    9ad4:	e12fff1e 	bx	lr

00009ad8 <_ZN20CKernel_Heap_Manager5AllocIN11CFilesystem13TFS_Tree_NodeEEEPT_v>:
_ZN20CKernel_Heap_Manager5AllocIN11CFilesystem13TFS_Tree_NodeEEEPT_v():
/home/silhavyj/School/ZeroMate/examples/14-filesystem_monitor/kernel/include/memory/kernel_heap.h:30

        void* Alloc(uint32_t size);
        void Free(void* mem);

        template<class T>
        T* Alloc()
    9ad8:	e92d4800 	push	{fp, lr}
    9adc:	e28db004 	add	fp, sp, #4
    9ae0:	e24dd008 	sub	sp, sp, #8
    9ae4:	e50b0008 	str	r0, [fp, #-8]
/home/silhavyj/School/ZeroMate/examples/14-filesystem_monitor/kernel/include/memory/kernel_heap.h:32
        {
            return reinterpret_cast<T*>(Alloc(sizeof(T)));
    9ae8:	e3a01024 	mov	r1, #36	; 0x24
    9aec:	e51b0008 	ldr	r0, [fp, #-8]
    9af0:	eb000324 	bl	a788 <_ZN20CKernel_Heap_Manager5AllocEj>
    9af4:	e1a03000 	mov	r3, r0
/home/silhavyj/School/ZeroMate/examples/14-filesystem_monitor/kernel/include/memory/kernel_heap.h:33
        }
    9af8:	e1a00003 	mov	r0, r3
    9afc:	e24bd004 	sub	sp, fp, #4
    9b00:	e8bd8800 	pop	{fp, pc}

00009b04 <_ZN5IFile4ReadEPcj>:
_ZN5IFile4ReadEPcj():
/home/silhavyj/School/ZeroMate/examples/14-filesystem_monitor/kernel/include/fs/filesystem.h:40
        virtual uint32_t Read(char* buffer, uint32_t num) { return 0; };
    9b04:	e52db004 	push	{fp}		; (str fp, [sp, #-4]!)
    9b08:	e28db000 	add	fp, sp, #0
    9b0c:	e24dd014 	sub	sp, sp, #20
    9b10:	e50b0008 	str	r0, [fp, #-8]
    9b14:	e50b100c 	str	r1, [fp, #-12]
    9b18:	e50b2010 	str	r2, [fp, #-16]
    9b1c:	e3a03000 	mov	r3, #0
    9b20:	e1a00003 	mov	r0, r3
    9b24:	e28bd000 	add	sp, fp, #0
    9b28:	e49db004 	pop	{fp}		; (ldr fp, [sp], #4)
    9b2c:	e12fff1e 	bx	lr

00009b30 <_ZN5IFile5WriteEPKcj>:
_ZN5IFile5WriteEPKcj():
/home/silhavyj/School/ZeroMate/examples/14-filesystem_monitor/kernel/include/fs/filesystem.h:42
        virtual uint32_t Write(const char* buffer, uint32_t num) { return 0; };
    9b30:	e52db004 	push	{fp}		; (str fp, [sp, #-4]!)
    9b34:	e28db000 	add	fp, sp, #0
    9b38:	e24dd014 	sub	sp, sp, #20
    9b3c:	e50b0008 	str	r0, [fp, #-8]
    9b40:	e50b100c 	str	r1, [fp, #-12]
    9b44:	e50b2010 	str	r2, [fp, #-16]
    9b48:	e3a03000 	mov	r3, #0
    9b4c:	e1a00003 	mov	r0, r3
    9b50:	e28bd000 	add	sp, fp, #0
    9b54:	e49db004 	pop	{fp}		; (ldr fp, [sp], #4)
    9b58:	e12fff1e 	bx	lr

00009b5c <_ZN5IFile5CloseEv>:
_ZN5IFile5CloseEv():
/home/silhavyj/School/ZeroMate/examples/14-filesystem_monitor/kernel/include/fs/filesystem.h:44
        virtual bool Close() { return true; };
    9b5c:	e52db004 	push	{fp}		; (str fp, [sp, #-4]!)
    9b60:	e28db000 	add	fp, sp, #0
    9b64:	e24dd00c 	sub	sp, sp, #12
    9b68:	e50b0008 	str	r0, [fp, #-8]
    9b6c:	e3a03001 	mov	r3, #1
    9b70:	e1a00003 	mov	r0, r3
    9b74:	e28bd000 	add	sp, fp, #0
    9b78:	e49db004 	pop	{fp}		; (ldr fp, [sp], #4)
    9b7c:	e12fff1e 	bx	lr

00009b80 <_ZN5IFile5IOCtlE16NIOCtl_OperationPv>:
_ZN5IFile5IOCtlE16NIOCtl_OperationPv():
/home/silhavyj/School/ZeroMate/examples/14-filesystem_monitor/kernel/include/fs/filesystem.h:46
        virtual bool IOCtl(NIOCtl_Operation dir, void* ctlptr) { return false; };
    9b80:	e52db004 	push	{fp}		; (str fp, [sp, #-4]!)
    9b84:	e28db000 	add	fp, sp, #0
    9b88:	e24dd014 	sub	sp, sp, #20
    9b8c:	e50b0008 	str	r0, [fp, #-8]
    9b90:	e50b100c 	str	r1, [fp, #-12]
    9b94:	e50b2010 	str	r2, [fp, #-16]
    9b98:	e3a03000 	mov	r3, #0
    9b9c:	e1a00003 	mov	r0, r3
    9ba0:	e28bd000 	add	sp, fp, #0
    9ba4:	e49db004 	pop	{fp}		; (ldr fp, [sp], #4)
    9ba8:	e12fff1e 	bx	lr

00009bac <_Znwj>:
_Znwj():
/home/silhavyj/School/ZeroMate/examples/14-filesystem_monitor/kernel/include/memory/kernel_heap.h:42

// pomocne implementace pro kernel heap - tento soubor je includovat vyhradne z kernel-only implementaci, a tak proste jen presmerujeme
// vsechna volani new/delete na tyto implementace, ktere alokuji a uvolnuji pamet z haldy jadra

inline void* operator new(uint32_t size)
{
    9bac:	e92d4800 	push	{fp, lr}
    9bb0:	e28db004 	add	fp, sp, #4
    9bb4:	e24dd008 	sub	sp, sp, #8
    9bb8:	e50b0008 	str	r0, [fp, #-8]
/home/silhavyj/School/ZeroMate/examples/14-filesystem_monitor/kernel/include/memory/kernel_heap.h:43
    return sKernelMem.Alloc(size);
    9bbc:	e51b1008 	ldr	r1, [fp, #-8]
    9bc0:	e59f0010 	ldr	r0, [pc, #16]	; 9bd8 <_Znwj+0x2c>
    9bc4:	eb0002ef 	bl	a788 <_ZN20CKernel_Heap_Manager5AllocEj>
    9bc8:	e1a03000 	mov	r3, r0
/home/silhavyj/School/ZeroMate/examples/14-filesystem_monitor/kernel/include/memory/kernel_heap.h:44
}
    9bcc:	e1a00003 	mov	r0, r3
    9bd0:	e24bd004 	sub	sp, fp, #4
    9bd4:	e8bd8800 	pop	{fp, pc}
    9bd8:	0000cb30 	andeq	ip, r0, r0, lsr fp

00009bdc <_ZdlPvj>:
_ZdlPvj():
/home/silhavyj/School/ZeroMate/examples/14-filesystem_monitor/kernel/include/memory/kernel_heap.h:62
{
    sKernelMem.Free(p);
}

inline void operator delete(void* p, uint32_t)
{
    9bdc:	e92d4800 	push	{fp, lr}
    9be0:	e28db004 	add	fp, sp, #4
    9be4:	e24dd008 	sub	sp, sp, #8
    9be8:	e50b0008 	str	r0, [fp, #-8]
    9bec:	e50b100c 	str	r1, [fp, #-12]
/home/silhavyj/School/ZeroMate/examples/14-filesystem_monitor/kernel/include/memory/kernel_heap.h:63
    sKernelMem.Free(p);
    9bf0:	e51b1008 	ldr	r1, [fp, #-8]
    9bf4:	e59f000c 	ldr	r0, [pc, #12]	; 9c08 <_ZdlPvj+0x2c>
    9bf8:	eb000335 	bl	a8d4 <_ZN20CKernel_Heap_Manager4FreeEPv>
/home/silhavyj/School/ZeroMate/examples/14-filesystem_monitor/kernel/include/memory/kernel_heap.h:64
}
    9bfc:	e320f000 	nop	{0}
    9c00:	e24bd004 	sub	sp, fp, #4
    9c04:	e8bd8800 	pop	{fp, pc}
    9c08:	0000cb30 	andeq	ip, r0, r0, lsr fp

00009c0c <_ZN5IFileC1Ev>:
_ZN5IFileC2Ev():
/home/silhavyj/School/ZeroMate/examples/14-filesystem_monitor/kernel/include/fs/filesystem.h:34
class IFile
    9c0c:	e52db004 	push	{fp}		; (str fp, [sp, #-4]!)
    9c10:	e28db000 	add	fp, sp, #0
    9c14:	e24dd00c 	sub	sp, sp, #12
    9c18:	e50b0008 	str	r0, [fp, #-8]
    9c1c:	e59f2018 	ldr	r2, [pc, #24]	; 9c3c <_ZN5IFileC1Ev+0x30>
    9c20:	e51b3008 	ldr	r3, [fp, #-8]
    9c24:	e5832000 	str	r2, [r3]
    9c28:	e51b3008 	ldr	r3, [fp, #-8]
    9c2c:	e1a00003 	mov	r0, r3
    9c30:	e28bd000 	add	sp, fp, #0
    9c34:	e49db004 	pop	{fp}		; (ldr fp, [sp], #4)
    9c38:	e12fff1e 	bx	lr
    9c3c:	0000ca10 	andeq	ip, r0, r0, lsl sl

00009c40 <_ZN5IFileD1Ev>:
_ZN5IFileD2Ev():
/home/silhavyj/School/ZeroMate/examples/14-filesystem_monitor/kernel/include/fs/filesystem.h:37
        virtual ~IFile() = default;
    9c40:	e52db004 	push	{fp}		; (str fp, [sp, #-4]!)
    9c44:	e28db000 	add	fp, sp, #0
    9c48:	e24dd00c 	sub	sp, sp, #12
    9c4c:	e50b0008 	str	r0, [fp, #-8]
    9c50:	e59f2018 	ldr	r2, [pc, #24]	; 9c70 <_ZN5IFileD1Ev+0x30>
    9c54:	e51b3008 	ldr	r3, [fp, #-8]
    9c58:	e5832000 	str	r2, [r3]
    9c5c:	e51b3008 	ldr	r3, [fp, #-8]
    9c60:	e1a00003 	mov	r0, r3
    9c64:	e28bd000 	add	sp, fp, #0
    9c68:	e49db004 	pop	{fp}		; (ldr fp, [sp], #4)
    9c6c:	e12fff1e 	bx	lr
    9c70:	0000ca10 	andeq	ip, r0, r0, lsl sl

00009c74 <_ZN5IFileD0Ev>:
_ZN5IFileD0Ev():
/home/silhavyj/School/ZeroMate/examples/14-filesystem_monitor/kernel/include/fs/filesystem.h:37
    9c74:	e92d4800 	push	{fp, lr}
    9c78:	e28db004 	add	fp, sp, #4
    9c7c:	e24dd008 	sub	sp, sp, #8
    9c80:	e50b0008 	str	r0, [fp, #-8]
    9c84:	e51b0008 	ldr	r0, [fp, #-8]
    9c88:	ebffffec 	bl	9c40 <_ZN5IFileD1Ev>
    9c8c:	e3a01004 	mov	r1, #4
    9c90:	e51b0008 	ldr	r0, [fp, #-8]
    9c94:	ebffffd0 	bl	9bdc <_ZdlPvj>
    9c98:	e51b3008 	ldr	r3, [fp, #-8]
    9c9c:	e1a00003 	mov	r0, r3
    9ca0:	e24bd004 	sub	sp, fp, #4
    9ca4:	e8bd8800 	pop	{fp, pc}

00009ca8 <_ZN10CGPIO_FileC1Eibb>:
_ZN10CGPIO_FileC2Eibb():
/home/silhavyj/School/ZeroMate/examples/14-filesystem_monitor/kernel/include/fs/drivers/gpio_fs.h:21
        bool mRead;
        // byl pin rezervovan pro zapis?
        bool mWrite;

    public:
        CGPIO_File(int pinNo, bool read, bool write)
    9ca8:	e92d4800 	push	{fp, lr}
    9cac:	e28db004 	add	fp, sp, #4
    9cb0:	e24dd010 	sub	sp, sp, #16
    9cb4:	e50b0008 	str	r0, [fp, #-8]
    9cb8:	e50b100c 	str	r1, [fp, #-12]
    9cbc:	e1a01002 	mov	r1, r2
    9cc0:	e1a02003 	mov	r2, r3
    9cc4:	e1a03001 	mov	r3, r1
    9cc8:	e54b300d 	strb	r3, [fp, #-13]
    9ccc:	e1a03002 	mov	r3, r2
    9cd0:	e54b300e 	strb	r3, [fp, #-14]
/home/silhavyj/School/ZeroMate/examples/14-filesystem_monitor/kernel/include/fs/drivers/gpio_fs.h:22
            : mPinNo(pinNo), mRead(read), mWrite(write)
    9cd4:	e51b3008 	ldr	r3, [fp, #-8]
    9cd8:	e1a00003 	mov	r0, r3
    9cdc:	ebffffca 	bl	9c0c <_ZN5IFileC1Ev>
    9ce0:	e59f2038 	ldr	r2, [pc, #56]	; 9d20 <_ZN10CGPIO_FileC1Eibb+0x78>
    9ce4:	e51b3008 	ldr	r3, [fp, #-8]
    9ce8:	e5832000 	str	r2, [r3]
    9cec:	e51b3008 	ldr	r3, [fp, #-8]
    9cf0:	e51b200c 	ldr	r2, [fp, #-12]
    9cf4:	e5832004 	str	r2, [r3, #4]
    9cf8:	e51b3008 	ldr	r3, [fp, #-8]
    9cfc:	e55b200d 	ldrb	r2, [fp, #-13]
    9d00:	e5c32008 	strb	r2, [r3, #8]
    9d04:	e51b3008 	ldr	r3, [fp, #-8]
    9d08:	e55b200e 	ldrb	r2, [fp, #-14]
    9d0c:	e5c32009 	strb	r2, [r3, #9]
/home/silhavyj/School/ZeroMate/examples/14-filesystem_monitor/kernel/include/fs/drivers/gpio_fs.h:25
        {
            //
        }
    9d10:	e51b3008 	ldr	r3, [fp, #-8]
    9d14:	e1a00003 	mov	r0, r3
    9d18:	e24bd004 	sub	sp, fp, #4
    9d1c:	e8bd8800 	pop	{fp, pc}
    9d20:	0000c9f0 	strdeq	ip, [r0], -r0

00009d24 <_ZN10CGPIO_FileD1Ev>:
_ZN10CGPIO_FileD2Ev():
/home/silhavyj/School/ZeroMate/examples/14-filesystem_monitor/kernel/include/fs/drivers/gpio_fs.h:27

        ~CGPIO_File()
    9d24:	e92d4800 	push	{fp, lr}
    9d28:	e28db004 	add	fp, sp, #4
    9d2c:	e24dd008 	sub	sp, sp, #8
    9d30:	e50b0008 	str	r0, [fp, #-8]
/home/silhavyj/School/ZeroMate/examples/14-filesystem_monitor/kernel/include/fs/drivers/gpio_fs.h:28
        {
    9d34:	e59f2028 	ldr	r2, [pc, #40]	; 9d64 <_ZN10CGPIO_FileD1Ev+0x40>
    9d38:	e51b3008 	ldr	r3, [fp, #-8]
    9d3c:	e5832000 	str	r2, [r3]
/home/silhavyj/School/ZeroMate/examples/14-filesystem_monitor/kernel/include/fs/drivers/gpio_fs.h:30
            // pokud jeste je otevreny, zavreme
            Close();
    9d40:	e51b0008 	ldr	r0, [fp, #-8]
    9d44:	eb000053 	bl	9e98 <_ZN10CGPIO_File5CloseEv>
/home/silhavyj/School/ZeroMate/examples/14-filesystem_monitor/kernel/include/fs/drivers/gpio_fs.h:28
        {
    9d48:	e51b3008 	ldr	r3, [fp, #-8]
    9d4c:	e1a00003 	mov	r0, r3
    9d50:	ebffffba 	bl	9c40 <_ZN5IFileD1Ev>
/home/silhavyj/School/ZeroMate/examples/14-filesystem_monitor/kernel/include/fs/drivers/gpio_fs.h:31
        }
    9d54:	e51b3008 	ldr	r3, [fp, #-8]
    9d58:	e1a00003 	mov	r0, r3
    9d5c:	e24bd004 	sub	sp, fp, #4
    9d60:	e8bd8800 	pop	{fp, pc}
    9d64:	0000c9f0 	strdeq	ip, [r0], -r0

00009d68 <_ZN10CGPIO_FileD0Ev>:
_ZN10CGPIO_FileD0Ev():
/home/silhavyj/School/ZeroMate/examples/14-filesystem_monitor/kernel/include/fs/drivers/gpio_fs.h:27
        ~CGPIO_File()
    9d68:	e92d4800 	push	{fp, lr}
    9d6c:	e28db004 	add	fp, sp, #4
    9d70:	e24dd008 	sub	sp, sp, #8
    9d74:	e50b0008 	str	r0, [fp, #-8]
/home/silhavyj/School/ZeroMate/examples/14-filesystem_monitor/kernel/include/fs/drivers/gpio_fs.h:31
        }
    9d78:	e51b0008 	ldr	r0, [fp, #-8]
    9d7c:	ebffffe8 	bl	9d24 <_ZN10CGPIO_FileD1Ev>
    9d80:	e3a0100c 	mov	r1, #12
    9d84:	e51b0008 	ldr	r0, [fp, #-8]
    9d88:	ebffff93 	bl	9bdc <_ZdlPvj>
    9d8c:	e51b3008 	ldr	r3, [fp, #-8]
    9d90:	e1a00003 	mov	r0, r3
    9d94:	e24bd004 	sub	sp, fp, #4
    9d98:	e8bd8800 	pop	{fp, pc}

00009d9c <_ZN10CGPIO_File4ReadEPcj>:
_ZN10CGPIO_File4ReadEPcj():
/home/silhavyj/School/ZeroMate/examples/14-filesystem_monitor/kernel/include/fs/drivers/gpio_fs.h:33

        virtual uint32_t Read(char* buffer, uint32_t num) override
    9d9c:	e92d4800 	push	{fp, lr}
    9da0:	e28db004 	add	fp, sp, #4
    9da4:	e24dd010 	sub	sp, sp, #16
    9da8:	e50b0008 	str	r0, [fp, #-8]
    9dac:	e50b100c 	str	r1, [fp, #-12]
    9db0:	e50b2010 	str	r2, [fp, #-16]
/home/silhavyj/School/ZeroMate/examples/14-filesystem_monitor/kernel/include/fs/drivers/gpio_fs.h:35
        {
            if (num > 0 && buffer != nullptr)
    9db4:	e51b3010 	ldr	r3, [fp, #-16]
    9db8:	e3530000 	cmp	r3, #0
    9dbc:	0a000011 	beq	9e08 <_ZN10CGPIO_File4ReadEPcj+0x6c>
/home/silhavyj/School/ZeroMate/examples/14-filesystem_monitor/kernel/include/fs/drivers/gpio_fs.h:35 (discriminator 1)
    9dc0:	e51b300c 	ldr	r3, [fp, #-12]
    9dc4:	e3530000 	cmp	r3, #0
    9dc8:	0a00000e 	beq	9e08 <_ZN10CGPIO_File4ReadEPcj+0x6c>
/home/silhavyj/School/ZeroMate/examples/14-filesystem_monitor/kernel/include/fs/drivers/gpio_fs.h:38
            {
                // na prvni pozici v bufferu precteme bud znak 1 nebo 0 podle stavu digitalniho pinu
                buffer[0] = sGPIO.Get_Input(mPinNo) ? '1' : '0';
    9dcc:	e51b3008 	ldr	r3, [fp, #-8]
    9dd0:	e5933004 	ldr	r3, [r3, #4]
    9dd4:	e1a01003 	mov	r1, r3
    9dd8:	e59f0038 	ldr	r0, [pc, #56]	; 9e18 <_ZN10CGPIO_File4ReadEPcj+0x7c>
    9ddc:	ebfffa00 	bl	85e4 <_ZN13CGPIO_Handler9Get_InputEj>
    9de0:	e1a03000 	mov	r3, r0
    9de4:	e3530000 	cmp	r3, #0
    9de8:	0a000001 	beq	9df4 <_ZN10CGPIO_File4ReadEPcj+0x58>
/home/silhavyj/School/ZeroMate/examples/14-filesystem_monitor/kernel/include/fs/drivers/gpio_fs.h:38 (discriminator 1)
    9dec:	e3a02031 	mov	r2, #49	; 0x31
    9df0:	ea000000 	b	9df8 <_ZN10CGPIO_File4ReadEPcj+0x5c>
/home/silhavyj/School/ZeroMate/examples/14-filesystem_monitor/kernel/include/fs/drivers/gpio_fs.h:38 (discriminator 2)
    9df4:	e3a02030 	mov	r2, #48	; 0x30
/home/silhavyj/School/ZeroMate/examples/14-filesystem_monitor/kernel/include/fs/drivers/gpio_fs.h:38 (discriminator 4)
    9df8:	e51b300c 	ldr	r3, [fp, #-12]
    9dfc:	e5c32000 	strb	r2, [r3]
/home/silhavyj/School/ZeroMate/examples/14-filesystem_monitor/kernel/include/fs/drivers/gpio_fs.h:39 (discriminator 4)
                return 1;
    9e00:	e3a03001 	mov	r3, #1
    9e04:	ea000000 	b	9e0c <_ZN10CGPIO_File4ReadEPcj+0x70>
/home/silhavyj/School/ZeroMate/examples/14-filesystem_monitor/kernel/include/fs/drivers/gpio_fs.h:42
            }

            return 0;
    9e08:	e3a03000 	mov	r3, #0
/home/silhavyj/School/ZeroMate/examples/14-filesystem_monitor/kernel/include/fs/drivers/gpio_fs.h:43
        }
    9e0c:	e1a00003 	mov	r0, r3
    9e10:	e24bd004 	sub	sp, fp, #4
    9e14:	e8bd8800 	pop	{fp, pc}
    9e18:	0000ca50 	andeq	ip, r0, r0, asr sl

00009e1c <_ZN10CGPIO_File5WriteEPKcj>:
_ZN10CGPIO_File5WriteEPKcj():
/home/silhavyj/School/ZeroMate/examples/14-filesystem_monitor/kernel/include/fs/drivers/gpio_fs.h:45

        virtual uint32_t Write(const char* buffer, uint32_t num) override
    9e1c:	e92d4800 	push	{fp, lr}
    9e20:	e28db004 	add	fp, sp, #4
    9e24:	e24dd010 	sub	sp, sp, #16
    9e28:	e50b0008 	str	r0, [fp, #-8]
    9e2c:	e50b100c 	str	r1, [fp, #-12]
    9e30:	e50b2010 	str	r2, [fp, #-16]
/home/silhavyj/School/ZeroMate/examples/14-filesystem_monitor/kernel/include/fs/drivers/gpio_fs.h:47
        {
            if (num > 0 && buffer != nullptr)
    9e34:	e51b3010 	ldr	r3, [fp, #-16]
    9e38:	e3530000 	cmp	r3, #0
    9e3c:	0a000010 	beq	9e84 <_ZN10CGPIO_File5WriteEPKcj+0x68>
/home/silhavyj/School/ZeroMate/examples/14-filesystem_monitor/kernel/include/fs/drivers/gpio_fs.h:47 (discriminator 1)
    9e40:	e51b300c 	ldr	r3, [fp, #-12]
    9e44:	e3530000 	cmp	r3, #0
    9e48:	0a00000d 	beq	9e84 <_ZN10CGPIO_File5WriteEPKcj+0x68>
/home/silhavyj/School/ZeroMate/examples/14-filesystem_monitor/kernel/include/fs/drivers/gpio_fs.h:50
            {
                // podle prvniho znaku zapiseme bud hodnotu HIGH (true) nebo LOW (false)
                sGPIO.Set_Output(mPinNo, (buffer[0] != '0') );
    9e4c:	e51b3008 	ldr	r3, [fp, #-8]
    9e50:	e5933004 	ldr	r3, [r3, #4]
    9e54:	e1a01003 	mov	r1, r3
    9e58:	e51b300c 	ldr	r3, [fp, #-12]
    9e5c:	e5d33000 	ldrb	r3, [r3]
    9e60:	e3530030 	cmp	r3, #48	; 0x30
    9e64:	13a03001 	movne	r3, #1
    9e68:	03a03000 	moveq	r3, #0
    9e6c:	e6ef3073 	uxtb	r3, r3
    9e70:	e1a02003 	mov	r2, r3
    9e74:	e59f0018 	ldr	r0, [pc, #24]	; 9e94 <_ZN10CGPIO_File5WriteEPKcj+0x78>
    9e78:	ebfff9a3 	bl	850c <_ZN13CGPIO_Handler10Set_OutputEjb>
/home/silhavyj/School/ZeroMate/examples/14-filesystem_monitor/kernel/include/fs/drivers/gpio_fs.h:51
                return 1;
    9e7c:	e3a03001 	mov	r3, #1
    9e80:	ea000000 	b	9e88 <_ZN10CGPIO_File5WriteEPKcj+0x6c>
/home/silhavyj/School/ZeroMate/examples/14-filesystem_monitor/kernel/include/fs/drivers/gpio_fs.h:54
            }

            return 0;
    9e84:	e3a03000 	mov	r3, #0
/home/silhavyj/School/ZeroMate/examples/14-filesystem_monitor/kernel/include/fs/drivers/gpio_fs.h:55
        }
    9e88:	e1a00003 	mov	r0, r3
    9e8c:	e24bd004 	sub	sp, fp, #4
    9e90:	e8bd8800 	pop	{fp, pc}
    9e94:	0000ca50 	andeq	ip, r0, r0, asr sl

00009e98 <_ZN10CGPIO_File5CloseEv>:
_ZN10CGPIO_File5CloseEv():
/home/silhavyj/School/ZeroMate/examples/14-filesystem_monitor/kernel/include/fs/drivers/gpio_fs.h:57

        virtual bool Close() override
    9e98:	e92d4800 	push	{fp, lr}
    9e9c:	e28db004 	add	fp, sp, #4
    9ea0:	e24dd008 	sub	sp, sp, #8
    9ea4:	e50b0008 	str	r0, [fp, #-8]
/home/silhavyj/School/ZeroMate/examples/14-filesystem_monitor/kernel/include/fs/drivers/gpio_fs.h:59
        {
            if (!mRead && !mWrite)
    9ea8:	e51b3008 	ldr	r3, [fp, #-8]
    9eac:	e5d33008 	ldrb	r3, [r3, #8]
    9eb0:	e2233001 	eor	r3, r3, #1
    9eb4:	e6ef3073 	uxtb	r3, r3
    9eb8:	e3530000 	cmp	r3, #0
    9ebc:	0a000007 	beq	9ee0 <_ZN10CGPIO_File5CloseEv+0x48>
/home/silhavyj/School/ZeroMate/examples/14-filesystem_monitor/kernel/include/fs/drivers/gpio_fs.h:59 (discriminator 1)
    9ec0:	e51b3008 	ldr	r3, [fp, #-8]
    9ec4:	e5d33009 	ldrb	r3, [r3, #9]
    9ec8:	e2233001 	eor	r3, r3, #1
    9ecc:	e6ef3073 	uxtb	r3, r3
    9ed0:	e3530000 	cmp	r3, #0
    9ed4:	0a000001 	beq	9ee0 <_ZN10CGPIO_File5CloseEv+0x48>
/home/silhavyj/School/ZeroMate/examples/14-filesystem_monitor/kernel/include/fs/drivers/gpio_fs.h:60
                return false;
    9ed8:	e3a03000 	mov	r3, #0
    9edc:	ea000010 	b	9f24 <_ZN10CGPIO_File5CloseEv+0x8c>
/home/silhavyj/School/ZeroMate/examples/14-filesystem_monitor/kernel/include/fs/drivers/gpio_fs.h:63

            // uvolnime pin
            sGPIO.Free_Pin(mPinNo, mRead, mWrite);
    9ee0:	e51b3008 	ldr	r3, [fp, #-8]
    9ee4:	e5933004 	ldr	r3, [r3, #4]
    9ee8:	e1a01003 	mov	r1, r3
    9eec:	e51b3008 	ldr	r3, [fp, #-8]
    9ef0:	e5d32008 	ldrb	r2, [r3, #8]
    9ef4:	e51b3008 	ldr	r3, [fp, #-8]
    9ef8:	e5d33009 	ldrb	r3, [r3, #9]
    9efc:	e59f002c 	ldr	r0, [pc, #44]	; 9f30 <_ZN10CGPIO_File5CloseEv+0x98>
    9f00:	ebfffa3e 	bl	8800 <_ZN13CGPIO_Handler8Free_PinEjbb>
/home/silhavyj/School/ZeroMate/examples/14-filesystem_monitor/kernel/include/fs/drivers/gpio_fs.h:64
            mRead = mWrite = false;
    9f04:	e51b3008 	ldr	r3, [fp, #-8]
    9f08:	e3a02000 	mov	r2, #0
    9f0c:	e5c32009 	strb	r2, [r3, #9]
    9f10:	e51b3008 	ldr	r3, [fp, #-8]
    9f14:	e5d32009 	ldrb	r2, [r3, #9]
    9f18:	e51b3008 	ldr	r3, [fp, #-8]
    9f1c:	e5c32008 	strb	r2, [r3, #8]
/home/silhavyj/School/ZeroMate/examples/14-filesystem_monitor/kernel/include/fs/drivers/gpio_fs.h:66

            return true;
    9f20:	e3a03001 	mov	r3, #1
/home/silhavyj/School/ZeroMate/examples/14-filesystem_monitor/kernel/include/fs/drivers/gpio_fs.h:67
        }
    9f24:	e1a00003 	mov	r0, r3
    9f28:	e24bd004 	sub	sp, fp, #4
    9f2c:	e8bd8800 	pop	{fp, pc}
    9f30:	0000ca50 	andeq	ip, r0, r0, asr sl

00009f34 <_ZN10CGPIO_File5IOCtlE16NIOCtl_OperationPv>:
_ZN10CGPIO_File5IOCtlE16NIOCtl_OperationPv():
/home/silhavyj/School/ZeroMate/examples/14-filesystem_monitor/kernel/include/fs/drivers/gpio_fs.h:69

        virtual bool IOCtl(NIOCtl_Operation dir, void* ctlptr) override
    9f34:	e52db004 	push	{fp}		; (str fp, [sp, #-4]!)
    9f38:	e28db000 	add	fp, sp, #0
    9f3c:	e24dd014 	sub	sp, sp, #20
    9f40:	e50b0008 	str	r0, [fp, #-8]
    9f44:	e50b100c 	str	r1, [fp, #-12]
    9f48:	e50b2010 	str	r2, [fp, #-16]
/home/silhavyj/School/ZeroMate/examples/14-filesystem_monitor/kernel/include/fs/drivers/gpio_fs.h:72
        {
            // GPIO (zatim?) neumime nijak nastavovat
            return false;
    9f4c:	e3a03000 	mov	r3, #0
/home/silhavyj/School/ZeroMate/examples/14-filesystem_monitor/kernel/include/fs/drivers/gpio_fs.h:73
        }
    9f50:	e1a00003 	mov	r0, r3
    9f54:	e28bd000 	add	sp, fp, #0
    9f58:	e49db004 	pop	{fp}		; (ldr fp, [sp], #4)
    9f5c:	e12fff1e 	bx	lr

00009f60 <_ZN15CGPIO_FS_Driver11On_RegisterEv>:
_ZN15CGPIO_FS_Driver11On_RegisterEv():
/home/silhavyj/School/ZeroMate/examples/14-filesystem_monitor/kernel/include/fs/drivers/gpio_fs.h:80

// driver pro filesystem pro GPIO piny
class CGPIO_FS_Driver : public IFilesystem_Driver
{
	public:
		virtual void On_Register() override
    9f60:	e52db004 	push	{fp}		; (str fp, [sp, #-4]!)
    9f64:	e28db000 	add	fp, sp, #0
    9f68:	e24dd00c 	sub	sp, sp, #12
    9f6c:	e50b0008 	str	r0, [fp, #-8]
/home/silhavyj/School/ZeroMate/examples/14-filesystem_monitor/kernel/include/fs/drivers/gpio_fs.h:83
        {
            //
        }
    9f70:	e320f000 	nop	{0}
    9f74:	e28bd000 	add	sp, fp, #0
    9f78:	e49db004 	pop	{fp}		; (ldr fp, [sp], #4)
    9f7c:	e12fff1e 	bx	lr

00009f80 <_ZN15CGPIO_FS_Driver9Open_FileEPKc15NFile_Open_Mode>:
_ZN15CGPIO_FS_Driver9Open_FileEPKc15NFile_Open_Mode():
/home/silhavyj/School/ZeroMate/examples/14-filesystem_monitor/kernel/include/fs/drivers/gpio_fs.h:85

        virtual IFile* Open_File(const char* path, NFile_Open_Mode mode) override
    9f80:	e92d4810 	push	{r4, fp, lr}
    9f84:	e28db008 	add	fp, sp, #8
    9f88:	e24dd01c 	sub	sp, sp, #28
    9f8c:	e50b0018 	str	r0, [fp, #-24]	; 0xffffffe8
    9f90:	e50b101c 	str	r1, [fp, #-28]	; 0xffffffe4
    9f94:	e50b2020 	str	r2, [fp, #-32]	; 0xffffffe0
/home/silhavyj/School/ZeroMate/examples/14-filesystem_monitor/kernel/include/fs/drivers/gpio_fs.h:87
        {
            if (mode != NFile_Open_Mode::Read_Only && mode != NFile_Open_Mode::Write_Only)
    9f98:	e51b3020 	ldr	r3, [fp, #-32]	; 0xffffffe0
    9f9c:	e3530000 	cmp	r3, #0
    9fa0:	0a000004 	beq	9fb8 <_ZN15CGPIO_FS_Driver9Open_FileEPKc15NFile_Open_Mode+0x38>
/home/silhavyj/School/ZeroMate/examples/14-filesystem_monitor/kernel/include/fs/drivers/gpio_fs.h:87 (discriminator 1)
    9fa4:	e51b3020 	ldr	r3, [fp, #-32]	; 0xffffffe0
    9fa8:	e3530001 	cmp	r3, #1
    9fac:	0a000001 	beq	9fb8 <_ZN15CGPIO_FS_Driver9Open_FileEPKc15NFile_Open_Mode+0x38>
/home/silhavyj/School/ZeroMate/examples/14-filesystem_monitor/kernel/include/fs/drivers/gpio_fs.h:88
                return nullptr;
    9fb0:	e3a03000 	mov	r3, #0
    9fb4:	ea000043 	b	a0c8 <_ZN15CGPIO_FS_Driver9Open_FileEPKc15NFile_Open_Mode+0x148>
/home/silhavyj/School/ZeroMate/examples/14-filesystem_monitor/kernel/include/fs/drivers/gpio_fs.h:92

            // tento driver ocekava na vstupu jen jednu jedinou uroven v 'path', a tou je cislo, tedy index GPIO pinu

            int gpionum = atoi(path);
    9fb8:	e51b001c 	ldr	r0, [fp, #-28]	; 0xffffffe4
    9fbc:	eb000875 	bl	c198 <_Z4atoiPKc>
    9fc0:	e50b0010 	str	r0, [fp, #-16]
/home/silhavyj/School/ZeroMate/examples/14-filesystem_monitor/kernel/include/fs/drivers/gpio_fs.h:93
            if (gpionum < 0 || gpionum >= hal::GPIO_Pin_Count)
    9fc4:	e51b3010 	ldr	r3, [fp, #-16]
    9fc8:	e3530000 	cmp	r3, #0
    9fcc:	ba000002 	blt	9fdc <_ZN15CGPIO_FS_Driver9Open_FileEPKc15NFile_Open_Mode+0x5c>
/home/silhavyj/School/ZeroMate/examples/14-filesystem_monitor/kernel/include/fs/drivers/gpio_fs.h:93 (discriminator 1)
    9fd0:	e51b3010 	ldr	r3, [fp, #-16]
    9fd4:	e3530035 	cmp	r3, #53	; 0x35
    9fd8:	9a000001 	bls	9fe4 <_ZN15CGPIO_FS_Driver9Open_FileEPKc15NFile_Open_Mode+0x64>
/home/silhavyj/School/ZeroMate/examples/14-filesystem_monitor/kernel/include/fs/drivers/gpio_fs.h:94
                return nullptr;
    9fdc:	e3a03000 	mov	r3, #0
    9fe0:	ea000038 	b	a0c8 <_ZN15CGPIO_FS_Driver9Open_FileEPKc15NFile_Open_Mode+0x148>
/home/silhavyj/School/ZeroMate/examples/14-filesystem_monitor/kernel/include/fs/drivers/gpio_fs.h:96
            
            if (mode == NFile_Open_Mode::Read_Only)
    9fe4:	e51b3020 	ldr	r3, [fp, #-32]	; 0xffffffe0
    9fe8:	e3530000 	cmp	r3, #0
    9fec:	1a000011 	bne	a038 <_ZN15CGPIO_FS_Driver9Open_FileEPKc15NFile_Open_Mode+0xb8>
/home/silhavyj/School/ZeroMate/examples/14-filesystem_monitor/kernel/include/fs/drivers/gpio_fs.h:98
            {
                if (!sGPIO.Reserve_Pin(gpionum, true, false))
    9ff0:	e51b1010 	ldr	r1, [fp, #-16]
    9ff4:	e3a03000 	mov	r3, #0
    9ff8:	e3a02001 	mov	r2, #1
    9ffc:	e59f00d0 	ldr	r0, [pc, #208]	; a0d4 <_ZN15CGPIO_FS_Driver9Open_FileEPKc15NFile_Open_Mode+0x154>
    a000:	ebfff998 	bl	8668 <_ZN13CGPIO_Handler11Reserve_PinEjbb>
    a004:	e1a03000 	mov	r3, r0
    a008:	e2233001 	eor	r3, r3, #1
    a00c:	e6ef3073 	uxtb	r3, r3
    a010:	e3530000 	cmp	r3, #0
    a014:	0a000001 	beq	a020 <_ZN15CGPIO_FS_Driver9Open_FileEPKc15NFile_Open_Mode+0xa0>
/home/silhavyj/School/ZeroMate/examples/14-filesystem_monitor/kernel/include/fs/drivers/gpio_fs.h:99
                    return nullptr;
    a018:	e3a03000 	mov	r3, #0
    a01c:	ea000029 	b	a0c8 <_ZN15CGPIO_FS_Driver9Open_FileEPKc15NFile_Open_Mode+0x148>
/home/silhavyj/School/ZeroMate/examples/14-filesystem_monitor/kernel/include/fs/drivers/gpio_fs.h:101

                sGPIO.Set_GPIO_Function(gpionum, NGPIO_Function::Input);
    a020:	e51b3010 	ldr	r3, [fp, #-16]
    a024:	e3a02000 	mov	r2, #0
    a028:	e1a01003 	mov	r1, r3
    a02c:	e59f00a0 	ldr	r0, [pc, #160]	; a0d4 <_ZN15CGPIO_FS_Driver9Open_FileEPKc15NFile_Open_Mode+0x154>
    a030:	ebfff8e6 	bl	83d0 <_ZN13CGPIO_Handler17Set_GPIO_FunctionEj14NGPIO_Function>
    a034:	ea000010 	b	a07c <_ZN15CGPIO_FS_Driver9Open_FileEPKc15NFile_Open_Mode+0xfc>
/home/silhavyj/School/ZeroMate/examples/14-filesystem_monitor/kernel/include/fs/drivers/gpio_fs.h:105
            }
            else
            {
                if (!sGPIO.Reserve_Pin(gpionum, false, true))
    a038:	e51b1010 	ldr	r1, [fp, #-16]
    a03c:	e3a03001 	mov	r3, #1
    a040:	e3a02000 	mov	r2, #0
    a044:	e59f0088 	ldr	r0, [pc, #136]	; a0d4 <_ZN15CGPIO_FS_Driver9Open_FileEPKc15NFile_Open_Mode+0x154>
    a048:	ebfff986 	bl	8668 <_ZN13CGPIO_Handler11Reserve_PinEjbb>
    a04c:	e1a03000 	mov	r3, r0
    a050:	e2233001 	eor	r3, r3, #1
    a054:	e6ef3073 	uxtb	r3, r3
    a058:	e3530000 	cmp	r3, #0
    a05c:	0a000001 	beq	a068 <_ZN15CGPIO_FS_Driver9Open_FileEPKc15NFile_Open_Mode+0xe8>
/home/silhavyj/School/ZeroMate/examples/14-filesystem_monitor/kernel/include/fs/drivers/gpio_fs.h:106
                    return nullptr;
    a060:	e3a03000 	mov	r3, #0
    a064:	ea000017 	b	a0c8 <_ZN15CGPIO_FS_Driver9Open_FileEPKc15NFile_Open_Mode+0x148>
/home/silhavyj/School/ZeroMate/examples/14-filesystem_monitor/kernel/include/fs/drivers/gpio_fs.h:108

                sGPIO.Set_GPIO_Function(gpionum, NGPIO_Function::Output);
    a068:	e51b3010 	ldr	r3, [fp, #-16]
    a06c:	e3a02001 	mov	r2, #1
    a070:	e1a01003 	mov	r1, r3
    a074:	e59f0058 	ldr	r0, [pc, #88]	; a0d4 <_ZN15CGPIO_FS_Driver9Open_FileEPKc15NFile_Open_Mode+0x154>
    a078:	ebfff8d4 	bl	83d0 <_ZN13CGPIO_Handler17Set_GPIO_FunctionEj14NGPIO_Function>
/home/silhavyj/School/ZeroMate/examples/14-filesystem_monitor/kernel/include/fs/drivers/gpio_fs.h:111
            }

            CGPIO_File* f = new CGPIO_File(gpionum, mode == NFile_Open_Mode::Read_Only, mode == NFile_Open_Mode::Write_Only);
    a07c:	e3a0000c 	mov	r0, #12
    a080:	ebfffec9 	bl	9bac <_Znwj>
    a084:	e1a03000 	mov	r3, r0
    a088:	e1a04003 	mov	r4, r3
    a08c:	e51b3020 	ldr	r3, [fp, #-32]	; 0xffffffe0
    a090:	e3530000 	cmp	r3, #0
    a094:	03a03001 	moveq	r3, #1
    a098:	13a03000 	movne	r3, #0
    a09c:	e6ef2073 	uxtb	r2, r3
    a0a0:	e51b3020 	ldr	r3, [fp, #-32]	; 0xffffffe0
    a0a4:	e3530001 	cmp	r3, #1
    a0a8:	03a03001 	moveq	r3, #1
    a0ac:	13a03000 	movne	r3, #0
    a0b0:	e6ef3073 	uxtb	r3, r3
    a0b4:	e51b1010 	ldr	r1, [fp, #-16]
    a0b8:	e1a00004 	mov	r0, r4
    a0bc:	ebfffef9 	bl	9ca8 <_ZN10CGPIO_FileC1Eibb>
    a0c0:	e50b4014 	str	r4, [fp, #-20]	; 0xffffffec
/home/silhavyj/School/ZeroMate/examples/14-filesystem_monitor/kernel/include/fs/drivers/gpio_fs.h:113

            return f;
    a0c4:	e51b3014 	ldr	r3, [fp, #-20]	; 0xffffffec
/home/silhavyj/School/ZeroMate/examples/14-filesystem_monitor/kernel/include/fs/drivers/gpio_fs.h:114
        }
    a0c8:	e1a00003 	mov	r0, r3
    a0cc:	e24bd008 	sub	sp, fp, #8
    a0d0:	e8bd8810 	pop	{r4, fp, pc}
    a0d4:	0000ca50 	andeq	ip, r0, r0, asr sl

0000a0d8 <_ZN10CUART_FileC1Ei>:
_ZN10CUART_FileC2Ei():
/home/silhavyj/School/ZeroMate/examples/14-filesystem_monitor/kernel/include/fs/drivers/uart_fs.h:20
    private:
        // UART kanal
        int mChannel;

    public:
        CUART_File(int channel)
    a0d8:	e92d4800 	push	{fp, lr}
    a0dc:	e28db004 	add	fp, sp, #4
    a0e0:	e24dd008 	sub	sp, sp, #8
    a0e4:	e50b0008 	str	r0, [fp, #-8]
    a0e8:	e50b100c 	str	r1, [fp, #-12]
/home/silhavyj/School/ZeroMate/examples/14-filesystem_monitor/kernel/include/fs/drivers/uart_fs.h:21
            : mChannel(channel)
    a0ec:	e51b3008 	ldr	r3, [fp, #-8]
    a0f0:	e1a00003 	mov	r0, r3
    a0f4:	ebfffec4 	bl	9c0c <_ZN5IFileC1Ev>
    a0f8:	e59f2020 	ldr	r2, [pc, #32]	; a120 <_ZN10CUART_FileC1Ei+0x48>
    a0fc:	e51b3008 	ldr	r3, [fp, #-8]
    a100:	e5832000 	str	r2, [r3]
    a104:	e51b3008 	ldr	r3, [fp, #-8]
    a108:	e51b200c 	ldr	r2, [fp, #-12]
    a10c:	e5832004 	str	r2, [r3, #4]
/home/silhavyj/School/ZeroMate/examples/14-filesystem_monitor/kernel/include/fs/drivers/uart_fs.h:24
        {
            //
        }
    a110:	e51b3008 	ldr	r3, [fp, #-8]
    a114:	e1a00003 	mov	r0, r3
    a118:	e24bd004 	sub	sp, fp, #4
    a11c:	e8bd8800 	pop	{fp, pc}
    a120:	0000c9c0 	andeq	ip, r0, r0, asr #19

0000a124 <_ZN10CUART_FileD1Ev>:
_ZN10CUART_FileD2Ev():
/home/silhavyj/School/ZeroMate/examples/14-filesystem_monitor/kernel/include/fs/drivers/uart_fs.h:26

        ~CUART_File()
    a124:	e92d4800 	push	{fp, lr}
    a128:	e28db004 	add	fp, sp, #4
    a12c:	e24dd008 	sub	sp, sp, #8
    a130:	e50b0008 	str	r0, [fp, #-8]
/home/silhavyj/School/ZeroMate/examples/14-filesystem_monitor/kernel/include/fs/drivers/uart_fs.h:27
        {
    a134:	e59f2028 	ldr	r2, [pc, #40]	; a164 <_ZN10CUART_FileD1Ev+0x40>
    a138:	e51b3008 	ldr	r3, [fp, #-8]
    a13c:	e5832000 	str	r2, [r3]
/home/silhavyj/School/ZeroMate/examples/14-filesystem_monitor/kernel/include/fs/drivers/uart_fs.h:28
            Close();
    a140:	e51b0008 	ldr	r0, [fp, #-8]
    a144:	eb00003b 	bl	a238 <_ZN10CUART_File5CloseEv>
/home/silhavyj/School/ZeroMate/examples/14-filesystem_monitor/kernel/include/fs/drivers/uart_fs.h:27
        {
    a148:	e51b3008 	ldr	r3, [fp, #-8]
    a14c:	e1a00003 	mov	r0, r3
    a150:	ebfffeba 	bl	9c40 <_ZN5IFileD1Ev>
/home/silhavyj/School/ZeroMate/examples/14-filesystem_monitor/kernel/include/fs/drivers/uart_fs.h:29
        }
    a154:	e51b3008 	ldr	r3, [fp, #-8]
    a158:	e1a00003 	mov	r0, r3
    a15c:	e24bd004 	sub	sp, fp, #4
    a160:	e8bd8800 	pop	{fp, pc}
    a164:	0000c9c0 	andeq	ip, r0, r0, asr #19

0000a168 <_ZN10CUART_FileD0Ev>:
_ZN10CUART_FileD0Ev():
/home/silhavyj/School/ZeroMate/examples/14-filesystem_monitor/kernel/include/fs/drivers/uart_fs.h:26
        ~CUART_File()
    a168:	e92d4800 	push	{fp, lr}
    a16c:	e28db004 	add	fp, sp, #4
    a170:	e24dd008 	sub	sp, sp, #8
    a174:	e50b0008 	str	r0, [fp, #-8]
/home/silhavyj/School/ZeroMate/examples/14-filesystem_monitor/kernel/include/fs/drivers/uart_fs.h:29
        }
    a178:	e51b0008 	ldr	r0, [fp, #-8]
    a17c:	ebffffe8 	bl	a124 <_ZN10CUART_FileD1Ev>
    a180:	e3a01008 	mov	r1, #8
    a184:	e51b0008 	ldr	r0, [fp, #-8]
    a188:	ebfffe93 	bl	9bdc <_ZdlPvj>
    a18c:	e51b3008 	ldr	r3, [fp, #-8]
    a190:	e1a00003 	mov	r0, r3
    a194:	e24bd004 	sub	sp, fp, #4
    a198:	e8bd8800 	pop	{fp, pc}

0000a19c <_ZN10CUART_File4ReadEPcj>:
_ZN10CUART_File4ReadEPcj():
/home/silhavyj/School/ZeroMate/examples/14-filesystem_monitor/kernel/include/fs/drivers/uart_fs.h:31

        virtual uint32_t Read(char* buffer, uint32_t num) override
    a19c:	e52db004 	push	{fp}		; (str fp, [sp, #-4]!)
    a1a0:	e28db000 	add	fp, sp, #0
    a1a4:	e24dd014 	sub	sp, sp, #20
    a1a8:	e50b0008 	str	r0, [fp, #-8]
    a1ac:	e50b100c 	str	r1, [fp, #-12]
    a1b0:	e50b2010 	str	r2, [fp, #-16]
/home/silhavyj/School/ZeroMate/examples/14-filesystem_monitor/kernel/include/fs/drivers/uart_fs.h:35
        {
            // NYI, prijde nejspis az s kernel buffery a prerusenimi z UARTu

            return 0;
    a1b4:	e3a03000 	mov	r3, #0
/home/silhavyj/School/ZeroMate/examples/14-filesystem_monitor/kernel/include/fs/drivers/uart_fs.h:36
        }
    a1b8:	e1a00003 	mov	r0, r3
    a1bc:	e28bd000 	add	sp, fp, #0
    a1c0:	e49db004 	pop	{fp}		; (ldr fp, [sp], #4)
    a1c4:	e12fff1e 	bx	lr

0000a1c8 <_ZN10CUART_File5WriteEPKcj>:
_ZN10CUART_File5WriteEPKcj():
/home/silhavyj/School/ZeroMate/examples/14-filesystem_monitor/kernel/include/fs/drivers/uart_fs.h:38

        virtual uint32_t Write(const char* buffer, uint32_t num) override
    a1c8:	e92d4800 	push	{fp, lr}
    a1cc:	e28db004 	add	fp, sp, #4
    a1d0:	e24dd010 	sub	sp, sp, #16
    a1d4:	e50b0008 	str	r0, [fp, #-8]
    a1d8:	e50b100c 	str	r1, [fp, #-12]
    a1dc:	e50b2010 	str	r2, [fp, #-16]
/home/silhavyj/School/ZeroMate/examples/14-filesystem_monitor/kernel/include/fs/drivers/uart_fs.h:40
        {
            if (num > 0 && buffer != nullptr)
    a1e0:	e51b3010 	ldr	r3, [fp, #-16]
    a1e4:	e3530000 	cmp	r3, #0
    a1e8:	0a00000d 	beq	a224 <_ZN10CUART_File5WriteEPKcj+0x5c>
/home/silhavyj/School/ZeroMate/examples/14-filesystem_monitor/kernel/include/fs/drivers/uart_fs.h:40 (discriminator 1)
    a1ec:	e51b300c 	ldr	r3, [fp, #-12]
    a1f0:	e3530000 	cmp	r3, #0
    a1f4:	0a00000a 	beq	a224 <_ZN10CUART_File5WriteEPKcj+0x5c>
/home/silhavyj/School/ZeroMate/examples/14-filesystem_monitor/kernel/include/fs/drivers/uart_fs.h:42
            {
                if (mChannel == 0)
    a1f8:	e51b3008 	ldr	r3, [fp, #-8]
    a1fc:	e5933004 	ldr	r3, [r3, #4]
    a200:	e3530000 	cmp	r3, #0
    a204:	1a000006 	bne	a224 <_ZN10CUART_File5WriteEPKcj+0x5c>
/home/silhavyj/School/ZeroMate/examples/14-filesystem_monitor/kernel/include/fs/drivers/uart_fs.h:44
                {
                    disable_irq();
    a208:	eb0005dd 	bl	b984 <disable_irq>
/home/silhavyj/School/ZeroMate/examples/14-filesystem_monitor/kernel/include/fs/drivers/uart_fs.h:45
                    sMonitor << buffer;
    a20c:	e51b100c 	ldr	r1, [fp, #-12]
    a210:	e59f001c 	ldr	r0, [pc, #28]	; a234 <_ZN10CUART_File5WriteEPKcj+0x6c>
    a214:	ebfffabb 	bl	8d08 <_ZN8CMonitorlsEPKc>
/home/silhavyj/School/ZeroMate/examples/14-filesystem_monitor/kernel/include/fs/drivers/uart_fs.h:46
                    enable_irq();
    a218:	eb0005db 	bl	b98c <enable_irq>
/home/silhavyj/School/ZeroMate/examples/14-filesystem_monitor/kernel/include/fs/drivers/uart_fs.h:47
                    return num;
    a21c:	e51b3010 	ldr	r3, [fp, #-16]
    a220:	ea000000 	b	a228 <_ZN10CUART_File5WriteEPKcj+0x60>
/home/silhavyj/School/ZeroMate/examples/14-filesystem_monitor/kernel/include/fs/drivers/uart_fs.h:51
                }
            }

            return 0;
    a224:	e3a03000 	mov	r3, #0
/home/silhavyj/School/ZeroMate/examples/14-filesystem_monitor/kernel/include/fs/drivers/uart_fs.h:52
        }
    a228:	e1a00003 	mov	r0, r3
    a22c:	e24bd004 	sub	sp, fp, #4
    a230:	e8bd8800 	pop	{fp, pc}
    a234:	0000ca64 	andeq	ip, r0, r4, ror #20

0000a238 <_ZN10CUART_File5CloseEv>:
_ZN10CUART_File5CloseEv():
/home/silhavyj/School/ZeroMate/examples/14-filesystem_monitor/kernel/include/fs/drivers/uart_fs.h:54

        virtual bool Close() override
    a238:	e52db004 	push	{fp}		; (str fp, [sp, #-4]!)
    a23c:	e28db000 	add	fp, sp, #0
    a240:	e24dd00c 	sub	sp, sp, #12
    a244:	e50b0008 	str	r0, [fp, #-8]
/home/silhavyj/School/ZeroMate/examples/14-filesystem_monitor/kernel/include/fs/drivers/uart_fs.h:56
        {
            if (mChannel < 0)
    a248:	e51b3008 	ldr	r3, [fp, #-8]
    a24c:	e5933004 	ldr	r3, [r3, #4]
    a250:	e3530000 	cmp	r3, #0
    a254:	aa000001 	bge	a260 <_ZN10CUART_File5CloseEv+0x28>
/home/silhavyj/School/ZeroMate/examples/14-filesystem_monitor/kernel/include/fs/drivers/uart_fs.h:57
                return false;
    a258:	e3a03000 	mov	r3, #0
    a25c:	ea000003 	b	a270 <_ZN10CUART_File5CloseEv+0x38>
/home/silhavyj/School/ZeroMate/examples/14-filesystem_monitor/kernel/include/fs/drivers/uart_fs.h:64
            if (mChannel == 0)
            {

            }
        
            mChannel = -1;
    a260:	e51b3008 	ldr	r3, [fp, #-8]
    a264:	e3e02000 	mvn	r2, #0
    a268:	e5832004 	str	r2, [r3, #4]
/home/silhavyj/School/ZeroMate/examples/14-filesystem_monitor/kernel/include/fs/drivers/uart_fs.h:66

            return true;
    a26c:	e3a03001 	mov	r3, #1
/home/silhavyj/School/ZeroMate/examples/14-filesystem_monitor/kernel/include/fs/drivers/uart_fs.h:67
        }
    a270:	e1a00003 	mov	r0, r3
    a274:	e28bd000 	add	sp, fp, #0
    a278:	e49db004 	pop	{fp}		; (ldr fp, [sp], #4)
    a27c:	e12fff1e 	bx	lr

0000a280 <_ZN10CUART_File5IOCtlE16NIOCtl_OperationPv>:
_ZN10CUART_File5IOCtlE16NIOCtl_OperationPv():
/home/silhavyj/School/ZeroMate/examples/14-filesystem_monitor/kernel/include/fs/drivers/uart_fs.h:69

        virtual bool IOCtl(NIOCtl_Operation dir, void* ctlptr) override
    a280:	e52db004 	push	{fp}		; (str fp, [sp, #-4]!)
    a284:	e28db000 	add	fp, sp, #0
    a288:	e24dd014 	sub	sp, sp, #20
    a28c:	e50b0008 	str	r0, [fp, #-8]
    a290:	e50b100c 	str	r1, [fp, #-12]
    a294:	e50b2010 	str	r2, [fp, #-16]
/home/silhavyj/School/ZeroMate/examples/14-filesystem_monitor/kernel/include/fs/drivers/uart_fs.h:71
        {
            if (mChannel == 0)
    a298:	e51b3008 	ldr	r3, [fp, #-8]
    a29c:	e5933004 	ldr	r3, [r3, #4]
    a2a0:	e3530000 	cmp	r3, #0
    a2a4:	1a000001 	bne	a2b0 <_ZN10CUART_File5IOCtlE16NIOCtl_OperationPv+0x30>
/home/silhavyj/School/ZeroMate/examples/14-filesystem_monitor/kernel/include/fs/drivers/uart_fs.h:73
            {
                return true;
    a2a8:	e3a03001 	mov	r3, #1
    a2ac:	ea000000 	b	a2b4 <_ZN10CUART_File5IOCtlE16NIOCtl_OperationPv+0x34>
/home/silhavyj/School/ZeroMate/examples/14-filesystem_monitor/kernel/include/fs/drivers/uart_fs.h:76
            }

            return false;
    a2b0:	e3a03000 	mov	r3, #0
/home/silhavyj/School/ZeroMate/examples/14-filesystem_monitor/kernel/include/fs/drivers/uart_fs.h:77
        }
    a2b4:	e1a00003 	mov	r0, r3
    a2b8:	e28bd000 	add	sp, fp, #0
    a2bc:	e49db004 	pop	{fp}		; (ldr fp, [sp], #4)
    a2c0:	e12fff1e 	bx	lr

0000a2c4 <_ZN15CUART_FS_Driver11On_RegisterEv>:
_ZN15CUART_FS_Driver11On_RegisterEv():
/home/silhavyj/School/ZeroMate/examples/14-filesystem_monitor/kernel/include/fs/drivers/uart_fs.h:83
};

class CUART_FS_Driver : public IFilesystem_Driver
{
	public:
		virtual void On_Register() override
    a2c4:	e52db004 	push	{fp}		; (str fp, [sp, #-4]!)
    a2c8:	e28db000 	add	fp, sp, #0
    a2cc:	e24dd00c 	sub	sp, sp, #12
    a2d0:	e50b0008 	str	r0, [fp, #-8]
/home/silhavyj/School/ZeroMate/examples/14-filesystem_monitor/kernel/include/fs/drivers/uart_fs.h:86
        {
            //
        }
    a2d4:	e320f000 	nop	{0}
    a2d8:	e28bd000 	add	sp, fp, #0
    a2dc:	e49db004 	pop	{fp}		; (ldr fp, [sp], #4)
    a2e0:	e12fff1e 	bx	lr

0000a2e4 <_ZN15CUART_FS_Driver9Open_FileEPKc15NFile_Open_Mode>:
_ZN15CUART_FS_Driver9Open_FileEPKc15NFile_Open_Mode():
/home/silhavyj/School/ZeroMate/examples/14-filesystem_monitor/kernel/include/fs/drivers/uart_fs.h:88

        virtual IFile* Open_File(const char* path, NFile_Open_Mode mode) override
    a2e4:	e92d4810 	push	{r4, fp, lr}
    a2e8:	e28db008 	add	fp, sp, #8
    a2ec:	e24dd01c 	sub	sp, sp, #28
    a2f0:	e50b0018 	str	r0, [fp, #-24]	; 0xffffffe8
    a2f4:	e50b101c 	str	r1, [fp, #-28]	; 0xffffffe4
    a2f8:	e50b2020 	str	r2, [fp, #-32]	; 0xffffffe0
/home/silhavyj/School/ZeroMate/examples/14-filesystem_monitor/kernel/include/fs/drivers/uart_fs.h:92
        {
            // jedina slozka path - kanal UARTu

            int channel = atoi(path);
    a2fc:	e51b001c 	ldr	r0, [fp, #-28]	; 0xffffffe4
    a300:	eb0007a4 	bl	c198 <_Z4atoiPKc>
    a304:	e50b0010 	str	r0, [fp, #-16]
/home/silhavyj/School/ZeroMate/examples/14-filesystem_monitor/kernel/include/fs/drivers/uart_fs.h:93
            if (channel != 0) // mame jen jeden kanal
    a308:	e51b3010 	ldr	r3, [fp, #-16]
    a30c:	e3530000 	cmp	r3, #0
    a310:	0a000001 	beq	a31c <_ZN15CUART_FS_Driver9Open_FileEPKc15NFile_Open_Mode+0x38>
/home/silhavyj/School/ZeroMate/examples/14-filesystem_monitor/kernel/include/fs/drivers/uart_fs.h:94
                return nullptr;
    a314:	e3a03000 	mov	r3, #0
    a318:	ea000008 	b	a340 <_ZN15CUART_FS_Driver9Open_FileEPKc15NFile_Open_Mode+0x5c>
/home/silhavyj/School/ZeroMate/examples/14-filesystem_monitor/kernel/include/fs/drivers/uart_fs.h:96

            CUART_File* f = new CUART_File(channel);
    a31c:	e3a00008 	mov	r0, #8
    a320:	ebfffe21 	bl	9bac <_Znwj>
    a324:	e1a03000 	mov	r3, r0
    a328:	e1a04003 	mov	r4, r3
    a32c:	e51b1010 	ldr	r1, [fp, #-16]
    a330:	e1a00004 	mov	r0, r4
    a334:	ebffff67 	bl	a0d8 <_ZN10CUART_FileC1Ei>
    a338:	e50b4014 	str	r4, [fp, #-20]	; 0xffffffec
/home/silhavyj/School/ZeroMate/examples/14-filesystem_monitor/kernel/include/fs/drivers/uart_fs.h:98

            return f;
    a33c:	e51b3014 	ldr	r3, [fp, #-20]	; 0xffffffec
/home/silhavyj/School/ZeroMate/examples/14-filesystem_monitor/kernel/include/fs/drivers/uart_fs.h:99
        }
    a340:	e1a00003 	mov	r0, r3
    a344:	e24bd008 	sub	sp, fp, #8
    a348:	e8bd8810 	pop	{r4, fp, pc}

0000a34c <_internal_software_interrupt_handler>:
_internal_software_interrupt_handler():
/home/silhavyj/School/ZeroMate/examples/14-filesystem_monitor/kernel/src/interrupt_controller.cpp:16
// handlery jednotlivych zdroju preruseni

static TSWI_Result _SWI_Result;

extern "C" TSWI_Result* _internal_software_interrupt_handler(uint32_t register r0, uint32_t register r1, uint32_t register r2, uint32_t register /*r3*/ service_identifier)
{
    a34c:	e92d4800 	push	{fp, lr}
    a350:	e28db004 	add	fp, sp, #4
    a354:	e24dd010 	sub	sp, sp, #16
/home/silhavyj/School/ZeroMate/examples/14-filesystem_monitor/kernel/src/interrupt_controller.cpp:18
    // facility jsou horni 2 bity, zbytek je cislo sluzby v dane facility
    NSWI_Facility facility = static_cast<NSWI_Facility>(service_identifier >> 6);
    a358:	e1a0c323 	lsr	ip, r3, #6
    a35c:	e50bc008 	str	ip, [fp, #-8]
/home/silhavyj/School/ZeroMate/examples/14-filesystem_monitor/kernel/src/interrupt_controller.cpp:20

    switch (facility)
    a360:	e51bc008 	ldr	ip, [fp, #-8]
    a364:	e35c0000 	cmp	ip, #0
    a368:	0a000003 	beq	a37c <_internal_software_interrupt_handler+0x30>
    a36c:	e51bc008 	ldr	ip, [fp, #-8]
    a370:	e35c0001 	cmp	ip, #1
    a374:	0a00000b 	beq	a3a8 <_internal_software_interrupt_handler+0x5c>
    a378:	ea000015 	b	a3d4 <_internal_software_interrupt_handler+0x88>
/home/silhavyj/School/ZeroMate/examples/14-filesystem_monitor/kernel/src/interrupt_controller.cpp:23
    {
        case NSWI_Facility::Process:
            sProcessMgr.Handle_Process_SWI(static_cast<NSWI_Process_Service>(service_identifier & 0x3F), r0, r1, r2, _SWI_Result);
    a37c:	e203303f 	and	r3, r3, #63	; 0x3f
    a380:	e1a0c003 	mov	ip, r3
    a384:	e59f3058 	ldr	r3, [pc, #88]	; a3e4 <_internal_software_interrupt_handler+0x98>
    a388:	e58d3004 	str	r3, [sp, #4]
    a38c:	e58d2000 	str	r2, [sp]
    a390:	e1a03001 	mov	r3, r1
    a394:	e1a02000 	mov	r2, r0
    a398:	e1a0100c 	mov	r1, ip
    a39c:	e59f0044 	ldr	r0, [pc, #68]	; a3e8 <_internal_software_interrupt_handler+0x9c>
    a3a0:	eb000428 	bl	b448 <_ZN16CProcess_Manager18Handle_Process_SWIE20NSWI_Process_ServicejjjR11TSWI_Result>
/home/silhavyj/School/ZeroMate/examples/14-filesystem_monitor/kernel/src/interrupt_controller.cpp:24
            break;
    a3a4:	ea00000a 	b	a3d4 <_internal_software_interrupt_handler+0x88>
/home/silhavyj/School/ZeroMate/examples/14-filesystem_monitor/kernel/src/interrupt_controller.cpp:26
        case NSWI_Facility::Filesystem:
            sProcessMgr.Handle_Filesystem_SWI(static_cast<NSWI_Filesystem_Service>(service_identifier & 0x3F), r0, r1, r2, _SWI_Result);
    a3a8:	e203303f 	and	r3, r3, #63	; 0x3f
    a3ac:	e1a0c003 	mov	ip, r3
    a3b0:	e59f302c 	ldr	r3, [pc, #44]	; a3e4 <_internal_software_interrupt_handler+0x98>
    a3b4:	e58d3004 	str	r3, [sp, #4]
    a3b8:	e58d2000 	str	r2, [sp]
    a3bc:	e1a03001 	mov	r3, r1
    a3c0:	e1a02000 	mov	r2, r0
    a3c4:	e1a0100c 	mov	r1, ip
    a3c8:	e59f0018 	ldr	r0, [pc, #24]	; a3e8 <_internal_software_interrupt_handler+0x9c>
    a3cc:	eb000436 	bl	b4ac <_ZN16CProcess_Manager21Handle_Filesystem_SWIE23NSWI_Filesystem_ServicejjjR11TSWI_Result>
/home/silhavyj/School/ZeroMate/examples/14-filesystem_monitor/kernel/src/interrupt_controller.cpp:27
            break;
    a3d0:	e320f000 	nop	{0}
/home/silhavyj/School/ZeroMate/examples/14-filesystem_monitor/kernel/src/interrupt_controller.cpp:30
    }

    return &_SWI_Result;
    a3d4:	e59f3008 	ldr	r3, [pc, #8]	; a3e4 <_internal_software_interrupt_handler+0x98>
/home/silhavyj/School/ZeroMate/examples/14-filesystem_monitor/kernel/src/interrupt_controller.cpp:31
}
    a3d8:	e1a00003 	mov	r0, r3
    a3dc:	e24bd004 	sub	sp, fp, #4
    a3e0:	e8bd8800 	pop	{fp, pc}
    a3e4:	0000cb28 	andeq	ip, r0, r8, lsr #22
    a3e8:	0000db34 	andeq	sp, r0, r4, lsr fp

0000a3ec <_internal_irq_handler>:
_internal_irq_handler():
/home/silhavyj/School/ZeroMate/examples/14-filesystem_monitor/kernel/src/interrupt_controller.cpp:34

extern "C" void _internal_irq_handler()
{
    a3ec:	e92d4800 	push	{fp, lr}
    a3f0:	e28db004 	add	fp, sp, #4
/home/silhavyj/School/ZeroMate/examples/14-filesystem_monitor/kernel/src/interrupt_controller.cpp:39
    // jelikoz ARM nerozlisuje zdroje IRQ implicitne, ani nezarucuje, ze se navzajen nemaskuji, musime
    // projit vsechny mozne zdroje a podivat se (poll), zda nebylo vyvolano preruseni

    // casovac
    if (sTimer.Is_Timer_IRQ_Pending())
    a3f4:	e59f001c 	ldr	r0, [pc, #28]	; a418 <_internal_irq_handler+0x2c>
    a3f8:	ebfffbc9 	bl	9324 <_ZN6CTimer20Is_Timer_IRQ_PendingEv>
    a3fc:	e1a03000 	mov	r3, r0
    a400:	e3530000 	cmp	r3, #0
    a404:	0a000001 	beq	a410 <_internal_irq_handler+0x24>
/home/silhavyj/School/ZeroMate/examples/14-filesystem_monitor/kernel/src/interrupt_controller.cpp:40
        sTimer.IRQ_Callback();
    a408:	e59f0008 	ldr	r0, [pc, #8]	; a418 <_internal_irq_handler+0x2c>
    a40c:	ebfffbb0 	bl	92d4 <_ZN6CTimer12IRQ_CallbackEv>
/home/silhavyj/School/ZeroMate/examples/14-filesystem_monitor/kernel/src/interrupt_controller.cpp:41
}
    a410:	e320f000 	nop	{0}
    a414:	e8bd8800 	pop	{fp, pc}
    a418:	0000ca8c 	andeq	ip, r0, ip, lsl #21

0000a41c <fast_interrupt_handler>:
fast_interrupt_handler():
/home/silhavyj/School/ZeroMate/examples/14-filesystem_monitor/kernel/src/interrupt_controller.cpp:44

extern "C" void __attribute__((interrupt("FIQ"))) fast_interrupt_handler()
{
    a41c:	e24db004 	sub	fp, sp, #4
/home/silhavyj/School/ZeroMate/examples/14-filesystem_monitor/kernel/src/interrupt_controller.cpp:46
    // zatim nepouzivame
}
    a420:	e320f000 	nop	{0}
    a424:	e28bd004 	add	sp, fp, #4
    a428:	e25ef004 	subs	pc, lr, #4

0000a42c <_ZN21CInterrupt_ControllerC1Em>:
_ZN21CInterrupt_ControllerC2Em():
/home/silhavyj/School/ZeroMate/examples/14-filesystem_monitor/kernel/src/interrupt_controller.cpp:50

// implementace controlleru

CInterrupt_Controller::CInterrupt_Controller(unsigned long base)
    a42c:	e52db004 	push	{fp}		; (str fp, [sp, #-4]!)
    a430:	e28db000 	add	fp, sp, #0
    a434:	e24dd00c 	sub	sp, sp, #12
    a438:	e50b0008 	str	r0, [fp, #-8]
    a43c:	e50b100c 	str	r1, [fp, #-12]
/home/silhavyj/School/ZeroMate/examples/14-filesystem_monitor/kernel/src/interrupt_controller.cpp:51
    : mInterrupt_Regs(reinterpret_cast<unsigned int*>(base))
    a440:	e51b200c 	ldr	r2, [fp, #-12]
    a444:	e51b3008 	ldr	r3, [fp, #-8]
    a448:	e5832000 	str	r2, [r3]
/home/silhavyj/School/ZeroMate/examples/14-filesystem_monitor/kernel/src/interrupt_controller.cpp:54
{
    //
}
    a44c:	e51b3008 	ldr	r3, [fp, #-8]
    a450:	e1a00003 	mov	r0, r3
    a454:	e28bd000 	add	sp, fp, #0
    a458:	e49db004 	pop	{fp}		; (ldr fp, [sp], #4)
    a45c:	e12fff1e 	bx	lr

0000a460 <_ZN21CInterrupt_Controller4RegsEN3hal24Interrupt_Controller_RegE>:
_ZN21CInterrupt_Controller4RegsEN3hal24Interrupt_Controller_RegE():
/home/silhavyj/School/ZeroMate/examples/14-filesystem_monitor/kernel/src/interrupt_controller.cpp:57

volatile unsigned int& CInterrupt_Controller::Regs(hal::Interrupt_Controller_Reg reg)
{
    a460:	e52db004 	push	{fp}		; (str fp, [sp, #-4]!)
    a464:	e28db000 	add	fp, sp, #0
    a468:	e24dd00c 	sub	sp, sp, #12
    a46c:	e50b0008 	str	r0, [fp, #-8]
    a470:	e50b100c 	str	r1, [fp, #-12]
/home/silhavyj/School/ZeroMate/examples/14-filesystem_monitor/kernel/src/interrupt_controller.cpp:58
    return mInterrupt_Regs[static_cast<unsigned int>(reg)];
    a474:	e51b3008 	ldr	r3, [fp, #-8]
    a478:	e5932000 	ldr	r2, [r3]
    a47c:	e51b300c 	ldr	r3, [fp, #-12]
    a480:	e1a03103 	lsl	r3, r3, #2
    a484:	e0823003 	add	r3, r2, r3
/home/silhavyj/School/ZeroMate/examples/14-filesystem_monitor/kernel/src/interrupt_controller.cpp:59
}
    a488:	e1a00003 	mov	r0, r3
    a48c:	e28bd000 	add	sp, fp, #0
    a490:	e49db004 	pop	{fp}		; (ldr fp, [sp], #4)
    a494:	e12fff1e 	bx	lr

0000a498 <_ZN21CInterrupt_Controller16Enable_Basic_IRQEN3hal16IRQ_Basic_SourceE>:
_ZN21CInterrupt_Controller16Enable_Basic_IRQEN3hal16IRQ_Basic_SourceE():
/home/silhavyj/School/ZeroMate/examples/14-filesystem_monitor/kernel/src/interrupt_controller.cpp:62

void CInterrupt_Controller::Enable_Basic_IRQ(hal::IRQ_Basic_Source source_idx)
{
    a498:	e92d4810 	push	{r4, fp, lr}
    a49c:	e28db008 	add	fp, sp, #8
    a4a0:	e24dd00c 	sub	sp, sp, #12
    a4a4:	e50b0010 	str	r0, [fp, #-16]
    a4a8:	e50b1014 	str	r1, [fp, #-20]	; 0xffffffec
/home/silhavyj/School/ZeroMate/examples/14-filesystem_monitor/kernel/src/interrupt_controller.cpp:63
    Regs(hal::Interrupt_Controller_Reg::IRQ_Basic_Enable) = (1 << static_cast<unsigned int>(source_idx));
    a4ac:	e51b3014 	ldr	r3, [fp, #-20]	; 0xffffffec
    a4b0:	e3a02001 	mov	r2, #1
    a4b4:	e1a04312 	lsl	r4, r2, r3
    a4b8:	e3a01006 	mov	r1, #6
    a4bc:	e51b0010 	ldr	r0, [fp, #-16]
    a4c0:	ebffffe6 	bl	a460 <_ZN21CInterrupt_Controller4RegsEN3hal24Interrupt_Controller_RegE>
    a4c4:	e1a03000 	mov	r3, r0
    a4c8:	e1a02004 	mov	r2, r4
    a4cc:	e5832000 	str	r2, [r3]
/home/silhavyj/School/ZeroMate/examples/14-filesystem_monitor/kernel/src/interrupt_controller.cpp:64
}
    a4d0:	e320f000 	nop	{0}
    a4d4:	e24bd008 	sub	sp, fp, #8
    a4d8:	e8bd8810 	pop	{r4, fp, pc}

0000a4dc <_ZN21CInterrupt_Controller17Disable_Basic_IRQEN3hal16IRQ_Basic_SourceE>:
_ZN21CInterrupt_Controller17Disable_Basic_IRQEN3hal16IRQ_Basic_SourceE():
/home/silhavyj/School/ZeroMate/examples/14-filesystem_monitor/kernel/src/interrupt_controller.cpp:67

void CInterrupt_Controller::Disable_Basic_IRQ(hal::IRQ_Basic_Source source_idx)
{
    a4dc:	e92d4810 	push	{r4, fp, lr}
    a4e0:	e28db008 	add	fp, sp, #8
    a4e4:	e24dd00c 	sub	sp, sp, #12
    a4e8:	e50b0010 	str	r0, [fp, #-16]
    a4ec:	e50b1014 	str	r1, [fp, #-20]	; 0xffffffec
/home/silhavyj/School/ZeroMate/examples/14-filesystem_monitor/kernel/src/interrupt_controller.cpp:68
    Regs(hal::Interrupt_Controller_Reg::IRQ_Basic_Disable) = (1 << static_cast<unsigned int>(source_idx));
    a4f0:	e51b3014 	ldr	r3, [fp, #-20]	; 0xffffffec
    a4f4:	e3a02001 	mov	r2, #1
    a4f8:	e1a04312 	lsl	r4, r2, r3
    a4fc:	e3a01009 	mov	r1, #9
    a500:	e51b0010 	ldr	r0, [fp, #-16]
    a504:	ebffffd5 	bl	a460 <_ZN21CInterrupt_Controller4RegsEN3hal24Interrupt_Controller_RegE>
    a508:	e1a03000 	mov	r3, r0
    a50c:	e1a02004 	mov	r2, r4
    a510:	e5832000 	str	r2, [r3]
/home/silhavyj/School/ZeroMate/examples/14-filesystem_monitor/kernel/src/interrupt_controller.cpp:69
}
    a514:	e320f000 	nop	{0}
    a518:	e24bd008 	sub	sp, fp, #8
    a51c:	e8bd8810 	pop	{r4, fp, pc}

0000a520 <_ZN21CInterrupt_Controller10Enable_IRQEN3hal10IRQ_SourceE>:
_ZN21CInterrupt_Controller10Enable_IRQEN3hal10IRQ_SourceE():
/home/silhavyj/School/ZeroMate/examples/14-filesystem_monitor/kernel/src/interrupt_controller.cpp:72

void CInterrupt_Controller::Enable_IRQ(hal::IRQ_Source source_idx)
{
    a520:	e92d4810 	push	{r4, fp, lr}
    a524:	e28db008 	add	fp, sp, #8
    a528:	e24dd014 	sub	sp, sp, #20
    a52c:	e50b0018 	str	r0, [fp, #-24]	; 0xffffffe8
    a530:	e50b101c 	str	r1, [fp, #-28]	; 0xffffffe4
/home/silhavyj/School/ZeroMate/examples/14-filesystem_monitor/kernel/src/interrupt_controller.cpp:73
    const unsigned int idx_base = static_cast<unsigned int>(source_idx);
    a534:	e51b301c 	ldr	r3, [fp, #-28]	; 0xffffffe4
    a538:	e50b3010 	str	r3, [fp, #-16]
/home/silhavyj/School/ZeroMate/examples/14-filesystem_monitor/kernel/src/interrupt_controller.cpp:75

    Regs(idx_base < 32 ? hal::Interrupt_Controller_Reg::IRQ_Enable_1 : hal::Interrupt_Controller_Reg::IRQ_Enable_1) = (1 << (idx_base % 32));
    a53c:	e51b3010 	ldr	r3, [fp, #-16]
    a540:	e203301f 	and	r3, r3, #31
    a544:	e3a02001 	mov	r2, #1
    a548:	e1a04312 	lsl	r4, r2, r3
    a54c:	e3a01004 	mov	r1, #4
    a550:	e51b0018 	ldr	r0, [fp, #-24]	; 0xffffffe8
    a554:	ebffffc1 	bl	a460 <_ZN21CInterrupt_Controller4RegsEN3hal24Interrupt_Controller_RegE>
    a558:	e1a03000 	mov	r3, r0
    a55c:	e1a02004 	mov	r2, r4
    a560:	e5832000 	str	r2, [r3]
/home/silhavyj/School/ZeroMate/examples/14-filesystem_monitor/kernel/src/interrupt_controller.cpp:76
}
    a564:	e320f000 	nop	{0}
    a568:	e24bd008 	sub	sp, fp, #8
    a56c:	e8bd8810 	pop	{r4, fp, pc}

0000a570 <_ZN21CInterrupt_Controller11Disable_IRQEN3hal10IRQ_SourceE>:
_ZN21CInterrupt_Controller11Disable_IRQEN3hal10IRQ_SourceE():
/home/silhavyj/School/ZeroMate/examples/14-filesystem_monitor/kernel/src/interrupt_controller.cpp:79

void CInterrupt_Controller::Disable_IRQ(hal::IRQ_Source source_idx)
{
    a570:	e92d4810 	push	{r4, fp, lr}
    a574:	e28db008 	add	fp, sp, #8
    a578:	e24dd014 	sub	sp, sp, #20
    a57c:	e50b0018 	str	r0, [fp, #-24]	; 0xffffffe8
    a580:	e50b101c 	str	r1, [fp, #-28]	; 0xffffffe4
/home/silhavyj/School/ZeroMate/examples/14-filesystem_monitor/kernel/src/interrupt_controller.cpp:80
    const unsigned int idx_base = static_cast<unsigned int>(source_idx);
    a584:	e51b301c 	ldr	r3, [fp, #-28]	; 0xffffffe4
    a588:	e50b3010 	str	r3, [fp, #-16]
/home/silhavyj/School/ZeroMate/examples/14-filesystem_monitor/kernel/src/interrupt_controller.cpp:82

    Regs(idx_base < 32 ? hal::Interrupt_Controller_Reg::IRQ_Disable_1 : hal::Interrupt_Controller_Reg::IRQ_Disable_1) = (1 << (idx_base % 32));
    a58c:	e51b3010 	ldr	r3, [fp, #-16]
    a590:	e203301f 	and	r3, r3, #31
    a594:	e3a02001 	mov	r2, #1
    a598:	e1a04312 	lsl	r4, r2, r3
    a59c:	e3a01007 	mov	r1, #7
    a5a0:	e51b0018 	ldr	r0, [fp, #-24]	; 0xffffffe8
    a5a4:	ebffffad 	bl	a460 <_ZN21CInterrupt_Controller4RegsEN3hal24Interrupt_Controller_RegE>
    a5a8:	e1a03000 	mov	r3, r0
    a5ac:	e1a02004 	mov	r2, r4
    a5b0:	e5832000 	str	r2, [r3]
/home/silhavyj/School/ZeroMate/examples/14-filesystem_monitor/kernel/src/interrupt_controller.cpp:83
}
    a5b4:	e320f000 	nop	{0}
    a5b8:	e24bd008 	sub	sp, fp, #8
    a5bc:	e8bd8810 	pop	{r4, fp, pc}

0000a5c0 <_Z41__static_initialization_and_destruction_0ii>:
_Z41__static_initialization_and_destruction_0ii():
/home/silhavyj/School/ZeroMate/examples/14-filesystem_monitor/kernel/src/interrupt_controller.cpp:83
    a5c0:	e92d4800 	push	{fp, lr}
    a5c4:	e28db004 	add	fp, sp, #4
    a5c8:	e24dd008 	sub	sp, sp, #8
    a5cc:	e50b0008 	str	r0, [fp, #-8]
    a5d0:	e50b100c 	str	r1, [fp, #-12]
    a5d4:	e51b3008 	ldr	r3, [fp, #-8]
    a5d8:	e3530001 	cmp	r3, #1
    a5dc:	1a000006 	bne	a5fc <_Z41__static_initialization_and_destruction_0ii+0x3c>
/home/silhavyj/School/ZeroMate/examples/14-filesystem_monitor/kernel/src/interrupt_controller.cpp:83 (discriminator 1)
    a5e0:	e51b300c 	ldr	r3, [fp, #-12]
    a5e4:	e59f201c 	ldr	r2, [pc, #28]	; a608 <_Z41__static_initialization_and_destruction_0ii+0x48>
    a5e8:	e1530002 	cmp	r3, r2
    a5ec:	1a000002 	bne	a5fc <_Z41__static_initialization_and_destruction_0ii+0x3c>
/home/silhavyj/School/ZeroMate/examples/14-filesystem_monitor/kernel/src/interrupt_controller.cpp:9
CInterrupt_Controller sInterruptCtl(hal::Interrupt_Controller_Base);
    a5f0:	e59f1014 	ldr	r1, [pc, #20]	; a60c <_Z41__static_initialization_and_destruction_0ii+0x4c>
    a5f4:	e59f0014 	ldr	r0, [pc, #20]	; a610 <_Z41__static_initialization_and_destruction_0ii+0x50>
    a5f8:	ebffff8b 	bl	a42c <_ZN21CInterrupt_ControllerC1Em>
/home/silhavyj/School/ZeroMate/examples/14-filesystem_monitor/kernel/src/interrupt_controller.cpp:83
}
    a5fc:	e320f000 	nop	{0}
    a600:	e24bd004 	sub	sp, fp, #4
    a604:	e8bd8800 	pop	{fp, pc}
    a608:	0000ffff 	strdeq	pc, [r0], -pc	; <UNPREDICTABLE>
    a60c:	2000b200 	andcs	fp, r0, r0, lsl #4
    a610:	0000cb24 	andeq	ip, r0, r4, lsr #22

0000a614 <_GLOBAL__sub_I_sInterruptCtl>:
_GLOBAL__sub_I_sInterruptCtl():
/home/silhavyj/School/ZeroMate/examples/14-filesystem_monitor/kernel/src/interrupt_controller.cpp:83
    a614:	e92d4800 	push	{fp, lr}
    a618:	e28db004 	add	fp, sp, #4
    a61c:	e59f1008 	ldr	r1, [pc, #8]	; a62c <_GLOBAL__sub_I_sInterruptCtl+0x18>
    a620:	e3a00001 	mov	r0, #1
    a624:	ebffffe5 	bl	a5c0 <_Z41__static_initialization_and_destruction_0ii>
    a628:	e8bd8800 	pop	{fp, pc}
    a62c:	0000ffff 	strdeq	pc, [r0], -pc	; <UNPREDICTABLE>

0000a630 <Timer_Callback>:
Timer_Callback():
/home/silhavyj/School/ZeroMate/examples/14-filesystem_monitor/kernel/src/main.cpp:20

// externi funkce pro povoleni IRQ
extern "C" void enable_irq();

extern "C" void Timer_Callback()
{
    a630:	e92d4800 	push	{fp, lr}
    a634:	e28db004 	add	fp, sp, #4
/home/silhavyj/School/ZeroMate/examples/14-filesystem_monitor/kernel/src/main.cpp:21
	sProcessMgr.Schedule();
    a638:	e59f0008 	ldr	r0, [pc, #8]	; a648 <Timer_Callback+0x18>
    a63c:	eb000296 	bl	b09c <_ZN16CProcess_Manager8ScheduleEv>
/home/silhavyj/School/ZeroMate/examples/14-filesystem_monitor/kernel/src/main.cpp:22
}
    a640:	e320f000 	nop	{0}
    a644:	e8bd8800 	pop	{fp, pc}
    a648:	0000db34 	andeq	sp, r0, r4, lsr fp

0000a64c <_kernel_main>:
_kernel_main():
/home/silhavyj/School/ZeroMate/examples/14-filesystem_monitor/kernel/src/main.cpp:31
extern void Process_2();
extern void Process_3();
extern void Process_4();

extern "C" int _kernel_main(void)
{
    a64c:	e92d4800 	push	{fp, lr}
    a650:	e28db004 	add	fp, sp, #4
/home/silhavyj/School/ZeroMate/examples/14-filesystem_monitor/kernel/src/main.cpp:42

	sUART0.Write("Welcome to KIV/OS RPiOS kernel\r\n");
	sUART0.Close();
	*/

	sMonitor.Clear();
    a654:	e59f006c 	ldr	r0, [pc, #108]	; a6c8 <_kernel_main+0x7c>
    a658:	ebfff90a 	bl	8a88 <_ZN8CMonitor5ClearEv>
/home/silhavyj/School/ZeroMate/examples/14-filesystem_monitor/kernel/src/main.cpp:45

	// inicializace souboroveho systemu
	sFilesystem.Initialize();
    a65c:	e59f0068 	ldr	r0, [pc, #104]	; a6cc <_kernel_main+0x80>
    a660:	ebfffbea 	bl	9610 <_ZN11CFilesystem10InitializeEv>
/home/silhavyj/School/ZeroMate/examples/14-filesystem_monitor/kernel/src/main.cpp:50

	// vytvoreni hlavniho procesu
	// sProcessMgr.Create_Main_Process();

	sProcessMgr.Create_Process(reinterpret_cast<unsigned long>(&Process_1));
    a664:	e59f3064 	ldr	r3, [pc, #100]	; a6d0 <_kernel_main+0x84>
    a668:	e1a01003 	mov	r1, r3
    a66c:	e59f0060 	ldr	r0, [pc, #96]	; a6d4 <_kernel_main+0x88>
    a670:	eb000209 	bl	ae9c <_ZN16CProcess_Manager14Create_ProcessEm>
/home/silhavyj/School/ZeroMate/examples/14-filesystem_monitor/kernel/src/main.cpp:51
	sProcessMgr.Create_Process(reinterpret_cast<unsigned long>(&Process_3));
    a674:	e59f305c 	ldr	r3, [pc, #92]	; a6d8 <_kernel_main+0x8c>
    a678:	e1a01003 	mov	r1, r3
    a67c:	e59f0050 	ldr	r0, [pc, #80]	; a6d4 <_kernel_main+0x88>
    a680:	eb000205 	bl	ae9c <_ZN16CProcess_Manager14Create_ProcessEm>
/home/silhavyj/School/ZeroMate/examples/14-filesystem_monitor/kernel/src/main.cpp:52
	sProcessMgr.Create_Process(reinterpret_cast<unsigned long>(&Process_4));
    a684:	e59f3050 	ldr	r3, [pc, #80]	; a6dc <_kernel_main+0x90>
    a688:	e1a01003 	mov	r1, r3
    a68c:	e59f0040 	ldr	r0, [pc, #64]	; a6d4 <_kernel_main+0x88>
    a690:	eb000201 	bl	ae9c <_ZN16CProcess_Manager14Create_ProcessEm>
/home/silhavyj/School/ZeroMate/examples/14-filesystem_monitor/kernel/src/main.cpp:55

	// zatim zakazeme IRQ casovace
	sInterruptCtl.Disable_Basic_IRQ(hal::IRQ_Basic_Source::Timer);
    a694:	e3a01000 	mov	r1, #0
    a698:	e59f0040 	ldr	r0, [pc, #64]	; a6e0 <_kernel_main+0x94>
    a69c:	ebffff8e 	bl	a4dc <_ZN21CInterrupt_Controller17Disable_Basic_IRQEN3hal16IRQ_Basic_SourceE>
/home/silhavyj/School/ZeroMate/examples/14-filesystem_monitor/kernel/src/main.cpp:58

	// nastavime casovac - v callbacku se provadi planovani procesu
	sTimer.Enable(Timer_Callback, 0x20, NTimer_Prescaler::Prescaler_256);
    a6a0:	e3a03002 	mov	r3, #2
    a6a4:	e3a02020 	mov	r2, #32
    a6a8:	e59f1034 	ldr	r1, [pc, #52]	; a6e4 <_kernel_main+0x98>
    a6ac:	e59f0034 	ldr	r0, [pc, #52]	; a6e8 <_kernel_main+0x9c>
    a6b0:	ebfffac1 	bl	91bc <_ZN6CTimer6EnableEPFvvEj16NTimer_Prescaler>
/home/silhavyj/School/ZeroMate/examples/14-filesystem_monitor/kernel/src/main.cpp:61

	// povolime IRQ casovace
	sInterruptCtl.Enable_Basic_IRQ(hal::IRQ_Basic_Source::Timer);
    a6b4:	e3a01000 	mov	r1, #0
    a6b8:	e59f0020 	ldr	r0, [pc, #32]	; a6e0 <_kernel_main+0x94>
    a6bc:	ebffff75 	bl	a498 <_ZN21CInterrupt_Controller16Enable_Basic_IRQEN3hal16IRQ_Basic_SourceE>
/home/silhavyj/School/ZeroMate/examples/14-filesystem_monitor/kernel/src/main.cpp:64

	// povolime IRQ a od tohoto momentu je vse v rukou planovace
	enable_irq();
    a6c0:	eb0004b1 	bl	b98c <enable_irq>
/home/silhavyj/School/ZeroMate/examples/14-filesystem_monitor/kernel/src/main.cpp:67 (discriminator 1)

	// nekonecna smycka - tadyodsud se CPU uz nedostane jinak, nez treba prerusenim
    while (1)
    a6c4:	eafffffe 	b	a6c4 <_kernel_main+0x78>
    a6c8:	0000ca64 	andeq	ip, r0, r4, ror #20
    a6cc:	0000ca94 	muleq	r0, r4, sl
    a6d0:	0000bb0c 	andeq	fp, r0, ip, lsl #22
    a6d4:	0000db34 	andeq	sp, r0, r4, lsr fp
    a6d8:	0000bcb8 			; <UNDEFINED> instruction: 0x0000bcb8
    a6dc:	0000bda8 	andeq	fp, r0, r8, lsr #27
    a6e0:	0000cb24 	andeq	ip, r0, r4, lsr #22
    a6e4:	0000a630 	andeq	sl, r0, r0, lsr r6
    a6e8:	0000ca8c 	andeq	ip, r0, ip, lsl #21

0000a6ec <_ZN20CKernel_Heap_ManagerC1Ev>:
_ZN20CKernel_Heap_ManagerC2Ev():
/home/silhavyj/School/ZeroMate/examples/14-filesystem_monitor/kernel/src/memory/kernel_heap.cpp:6
#include <memory/kernel_heap.h>
#include <memory/pages.h>

CKernel_Heap_Manager sKernelMem;

CKernel_Heap_Manager::CKernel_Heap_Manager()
    a6ec:	e92d4800 	push	{fp, lr}
    a6f0:	e28db004 	add	fp, sp, #4
    a6f4:	e24dd008 	sub	sp, sp, #8
    a6f8:	e50b0008 	str	r0, [fp, #-8]
/home/silhavyj/School/ZeroMate/examples/14-filesystem_monitor/kernel/src/memory/kernel_heap.cpp:9
{
    // na zacatku si alokujeme jednu stranku dopredu, protoze je temer jiste, ze budeme docela brzy potrebovat nejakou pamet
    mFirst = Alloc_Next_Page();
    a6fc:	e51b0008 	ldr	r0, [fp, #-8]
    a700:	eb000006 	bl	a720 <_ZN20CKernel_Heap_Manager15Alloc_Next_PageEv>
    a704:	e1a02000 	mov	r2, r0
    a708:	e51b3008 	ldr	r3, [fp, #-8]
    a70c:	e5832000 	str	r2, [r3]
/home/silhavyj/School/ZeroMate/examples/14-filesystem_monitor/kernel/src/memory/kernel_heap.cpp:10
}
    a710:	e51b3008 	ldr	r3, [fp, #-8]
    a714:	e1a00003 	mov	r0, r3
    a718:	e24bd004 	sub	sp, fp, #4
    a71c:	e8bd8800 	pop	{fp, pc}

0000a720 <_ZN20CKernel_Heap_Manager15Alloc_Next_PageEv>:
_ZN20CKernel_Heap_Manager15Alloc_Next_PageEv():
/home/silhavyj/School/ZeroMate/examples/14-filesystem_monitor/kernel/src/memory/kernel_heap.cpp:13

TKernel_Heap_Chunk_Header* CKernel_Heap_Manager::Alloc_Next_Page()
{
    a720:	e92d4800 	push	{fp, lr}
    a724:	e28db004 	add	fp, sp, #4
    a728:	e24dd010 	sub	sp, sp, #16
    a72c:	e50b0010 	str	r0, [fp, #-16]
/home/silhavyj/School/ZeroMate/examples/14-filesystem_monitor/kernel/src/memory/kernel_heap.cpp:14
    TKernel_Heap_Chunk_Header* chunk = reinterpret_cast<TKernel_Heap_Chunk_Header*>(sPage_Manager.Alloc_Page());
    a730:	e59f0048 	ldr	r0, [pc, #72]	; a780 <_ZN20CKernel_Heap_Manager15Alloc_Next_PageEv+0x60>
    a734:	eb00010f 	bl	ab78 <_ZN13CPage_Manager10Alloc_PageEv>
    a738:	e1a03000 	mov	r3, r0
    a73c:	e50b3008 	str	r3, [fp, #-8]
/home/silhavyj/School/ZeroMate/examples/14-filesystem_monitor/kernel/src/memory/kernel_heap.cpp:15
    chunk->prev = nullptr;
    a740:	e51b3008 	ldr	r3, [fp, #-8]
    a744:	e3a02000 	mov	r2, #0
    a748:	e5832000 	str	r2, [r3]
/home/silhavyj/School/ZeroMate/examples/14-filesystem_monitor/kernel/src/memory/kernel_heap.cpp:16
    chunk->next = nullptr;
    a74c:	e51b3008 	ldr	r3, [fp, #-8]
    a750:	e3a02000 	mov	r2, #0
    a754:	e5832004 	str	r2, [r3, #4]
/home/silhavyj/School/ZeroMate/examples/14-filesystem_monitor/kernel/src/memory/kernel_heap.cpp:17
    chunk->size = mem::PageSize - sizeof(TKernel_Heap_Chunk_Header); // z alokovane stranky musime ubrat velikost hlavicky
    a758:	e51b3008 	ldr	r3, [fp, #-8]
    a75c:	e59f2020 	ldr	r2, [pc, #32]	; a784 <_ZN20CKernel_Heap_Manager15Alloc_Next_PageEv+0x64>
    a760:	e5832008 	str	r2, [r3, #8]
/home/silhavyj/School/ZeroMate/examples/14-filesystem_monitor/kernel/src/memory/kernel_heap.cpp:18
    chunk->is_free = true;
    a764:	e51b3008 	ldr	r3, [fp, #-8]
    a768:	e3a02001 	mov	r2, #1
    a76c:	e5c3200c 	strb	r2, [r3, #12]
/home/silhavyj/School/ZeroMate/examples/14-filesystem_monitor/kernel/src/memory/kernel_heap.cpp:20

    return chunk;
    a770:	e51b3008 	ldr	r3, [fp, #-8]
/home/silhavyj/School/ZeroMate/examples/14-filesystem_monitor/kernel/src/memory/kernel_heap.cpp:21
}
    a774:	e1a00003 	mov	r0, r3
    a778:	e24bd004 	sub	sp, fp, #4
    a77c:	e8bd8800 	pop	{fp, pc}
    a780:	0000cb34 	andeq	ip, r0, r4, lsr fp
    a784:	00003ff0 	strdeq	r3, [r0], -r0

0000a788 <_ZN20CKernel_Heap_Manager5AllocEj>:
_ZN20CKernel_Heap_Manager5AllocEj():
/home/silhavyj/School/ZeroMate/examples/14-filesystem_monitor/kernel/src/memory/kernel_heap.cpp:24

void* CKernel_Heap_Manager::Alloc(uint32_t size)
{
    a788:	e52db004 	push	{fp}		; (str fp, [sp, #-4]!)
    a78c:	e28db000 	add	fp, sp, #0
    a790:	e24dd014 	sub	sp, sp, #20
    a794:	e50b0010 	str	r0, [fp, #-16]
    a798:	e50b1014 	str	r1, [fp, #-20]	; 0xffffffec
/home/silhavyj/School/ZeroMate/examples/14-filesystem_monitor/kernel/src/memory/kernel_heap.cpp:25
    TKernel_Heap_Chunk_Header* chunk = mFirst;
    a79c:	e51b3010 	ldr	r3, [fp, #-16]
    a7a0:	e5933000 	ldr	r3, [r3]
    a7a4:	e50b3008 	str	r3, [fp, #-8]
/home/silhavyj/School/ZeroMate/examples/14-filesystem_monitor/kernel/src/memory/kernel_heap.cpp:28

    // potrebujeme najit prvni blok, ktery je volny a zaroven alespon tak velky, jak potrebujeme (pro ted pouzivame proste first-fit)
    while (chunk != nullptr && (!chunk->is_free || chunk->size < size))
    a7a8:	e51b3008 	ldr	r3, [fp, #-8]
    a7ac:	e3530000 	cmp	r3, #0
    a7b0:	0a00000c 	beq	a7e8 <_ZN20CKernel_Heap_Manager5AllocEj+0x60>
/home/silhavyj/School/ZeroMate/examples/14-filesystem_monitor/kernel/src/memory/kernel_heap.cpp:28 (discriminator 1)
    a7b4:	e51b3008 	ldr	r3, [fp, #-8]
    a7b8:	e5d3300c 	ldrb	r3, [r3, #12]
    a7bc:	e3530000 	cmp	r3, #0
    a7c0:	0a000004 	beq	a7d8 <_ZN20CKernel_Heap_Manager5AllocEj+0x50>
/home/silhavyj/School/ZeroMate/examples/14-filesystem_monitor/kernel/src/memory/kernel_heap.cpp:28 (discriminator 2)
    a7c4:	e51b3008 	ldr	r3, [fp, #-8]
    a7c8:	e5933008 	ldr	r3, [r3, #8]
    a7cc:	e51b2014 	ldr	r2, [fp, #-20]	; 0xffffffec
    a7d0:	e1520003 	cmp	r2, r3
    a7d4:	9a000003 	bls	a7e8 <_ZN20CKernel_Heap_Manager5AllocEj+0x60>
/home/silhavyj/School/ZeroMate/examples/14-filesystem_monitor/kernel/src/memory/kernel_heap.cpp:30
    {
        chunk = chunk->next;
    a7d8:	e51b3008 	ldr	r3, [fp, #-8]
    a7dc:	e5933004 	ldr	r3, [r3, #4]
    a7e0:	e50b3008 	str	r3, [fp, #-8]
/home/silhavyj/School/ZeroMate/examples/14-filesystem_monitor/kernel/src/memory/kernel_heap.cpp:28
    while (chunk != nullptr && (!chunk->is_free || chunk->size < size))
    a7e4:	eaffffef 	b	a7a8 <_ZN20CKernel_Heap_Manager5AllocEj+0x20>
/home/silhavyj/School/ZeroMate/examples/14-filesystem_monitor/kernel/src/memory/kernel_heap.cpp:33
    }

    if (!chunk)
    a7e8:	e51b3008 	ldr	r3, [fp, #-8]
    a7ec:	e3530000 	cmp	r3, #0
    a7f0:	1a000001 	bne	a7fc <_ZN20CKernel_Heap_Manager5AllocEj+0x74>
/home/silhavyj/School/ZeroMate/examples/14-filesystem_monitor/kernel/src/memory/kernel_heap.cpp:37
    {
        // TODO: tady by se hodila alokace dalsi stranky (Alloc_Next_Page) a navazani na predchozi chunk
        // pro ted nechme byt, vic jak 4kB snad v tomto prikladu potrebovat nebudeme
        return nullptr;
    a7f4:	e3a03000 	mov	r3, #0
    a7f8:	ea000031 	b	a8c4 <_ZN20CKernel_Heap_Manager5AllocEj+0x13c>
/home/silhavyj/School/ZeroMate/examples/14-filesystem_monitor/kernel/src/memory/kernel_heap.cpp:42
    }

    // pokud je pozadovane misto uz tak velke, jak potrebujeme, tak je to snadne - jen ho oznacime za alokovane a vratime
    // vzdy zarovname tak, aby se do dalsiho potencialniho bloku vesla alespon hlavicka dalsiho bloku a nejaky overlap (alespon jeden bajt)
    if (chunk->size >= size && chunk->size <= size + sizeof(TKernel_Heap_Chunk_Header) + 1)
    a7fc:	e51b3008 	ldr	r3, [fp, #-8]
    a800:	e5933008 	ldr	r3, [r3, #8]
    a804:	e51b2014 	ldr	r2, [fp, #-20]	; 0xffffffec
    a808:	e1520003 	cmp	r2, r3
    a80c:	8a00000b 	bhi	a840 <_ZN20CKernel_Heap_Manager5AllocEj+0xb8>
/home/silhavyj/School/ZeroMate/examples/14-filesystem_monitor/kernel/src/memory/kernel_heap.cpp:42 (discriminator 1)
    a810:	e51b3008 	ldr	r3, [fp, #-8]
    a814:	e5932008 	ldr	r2, [r3, #8]
    a818:	e51b3014 	ldr	r3, [fp, #-20]	; 0xffffffec
    a81c:	e2833011 	add	r3, r3, #17
    a820:	e1520003 	cmp	r2, r3
    a824:	8a000005 	bhi	a840 <_ZN20CKernel_Heap_Manager5AllocEj+0xb8>
/home/silhavyj/School/ZeroMate/examples/14-filesystem_monitor/kernel/src/memory/kernel_heap.cpp:44
    {
        chunk->is_free = false;
    a828:	e51b3008 	ldr	r3, [fp, #-8]
    a82c:	e3a02000 	mov	r2, #0
    a830:	e5c3200c 	strb	r2, [r3, #12]
/home/silhavyj/School/ZeroMate/examples/14-filesystem_monitor/kernel/src/memory/kernel_heap.cpp:45
        return reinterpret_cast<uint8_t*>(chunk) + sizeof(TKernel_Heap_Chunk_Header); // vracime az pouzitelnou pamet, tedy to co nasleduje po hlavicce
    a834:	e51b3008 	ldr	r3, [fp, #-8]
    a838:	e2833010 	add	r3, r3, #16
    a83c:	ea000020 	b	a8c4 <_ZN20CKernel_Heap_Manager5AllocEj+0x13c>
/home/silhavyj/School/ZeroMate/examples/14-filesystem_monitor/kernel/src/memory/kernel_heap.cpp:51
    }

    // pokud je vetsi, musime blok rozdelit
    // to, ze se tam vejde dalsi hlavicka jsme garantovali prekryvem, viz vyse

    TKernel_Heap_Chunk_Header* hdr2 = reinterpret_cast<TKernel_Heap_Chunk_Header*>(reinterpret_cast<uint8_t*>(chunk) + sizeof(TKernel_Heap_Chunk_Header) + size);
    a840:	e51b3014 	ldr	r3, [fp, #-20]	; 0xffffffec
    a844:	e2833010 	add	r3, r3, #16
    a848:	e51b2008 	ldr	r2, [fp, #-8]
    a84c:	e0823003 	add	r3, r2, r3
    a850:	e50b300c 	str	r3, [fp, #-12]
/home/silhavyj/School/ZeroMate/examples/14-filesystem_monitor/kernel/src/memory/kernel_heap.cpp:53

    hdr2->size = chunk->size - size - sizeof(TKernel_Heap_Chunk_Header);
    a854:	e51b3008 	ldr	r3, [fp, #-8]
    a858:	e5932008 	ldr	r2, [r3, #8]
    a85c:	e51b3014 	ldr	r3, [fp, #-20]	; 0xffffffec
    a860:	e0423003 	sub	r3, r2, r3
    a864:	e2432010 	sub	r2, r3, #16
    a868:	e51b300c 	ldr	r3, [fp, #-12]
    a86c:	e5832008 	str	r2, [r3, #8]
/home/silhavyj/School/ZeroMate/examples/14-filesystem_monitor/kernel/src/memory/kernel_heap.cpp:55

    hdr2->prev = chunk;
    a870:	e51b300c 	ldr	r3, [fp, #-12]
    a874:	e51b2008 	ldr	r2, [fp, #-8]
    a878:	e5832000 	str	r2, [r3]
/home/silhavyj/School/ZeroMate/examples/14-filesystem_monitor/kernel/src/memory/kernel_heap.cpp:56
    hdr2->next = chunk->next;
    a87c:	e51b3008 	ldr	r3, [fp, #-8]
    a880:	e5932004 	ldr	r2, [r3, #4]
    a884:	e51b300c 	ldr	r3, [fp, #-12]
    a888:	e5832004 	str	r2, [r3, #4]
/home/silhavyj/School/ZeroMate/examples/14-filesystem_monitor/kernel/src/memory/kernel_heap.cpp:57
    hdr2->is_free = true;
    a88c:	e51b300c 	ldr	r3, [fp, #-12]
    a890:	e3a02001 	mov	r2, #1
    a894:	e5c3200c 	strb	r2, [r3, #12]
/home/silhavyj/School/ZeroMate/examples/14-filesystem_monitor/kernel/src/memory/kernel_heap.cpp:58
    chunk->next = hdr2;
    a898:	e51b3008 	ldr	r3, [fp, #-8]
    a89c:	e51b200c 	ldr	r2, [fp, #-12]
    a8a0:	e5832004 	str	r2, [r3, #4]
/home/silhavyj/School/ZeroMate/examples/14-filesystem_monitor/kernel/src/memory/kernel_heap.cpp:60

    chunk->size = size;
    a8a4:	e51b3008 	ldr	r3, [fp, #-8]
    a8a8:	e51b2014 	ldr	r2, [fp, #-20]	; 0xffffffec
    a8ac:	e5832008 	str	r2, [r3, #8]
/home/silhavyj/School/ZeroMate/examples/14-filesystem_monitor/kernel/src/memory/kernel_heap.cpp:61
    chunk->is_free = false;
    a8b0:	e51b3008 	ldr	r3, [fp, #-8]
    a8b4:	e3a02000 	mov	r2, #0
    a8b8:	e5c3200c 	strb	r2, [r3, #12]
/home/silhavyj/School/ZeroMate/examples/14-filesystem_monitor/kernel/src/memory/kernel_heap.cpp:63

    return reinterpret_cast<uint8_t*>(chunk) + sizeof(TKernel_Heap_Chunk_Header); // vracime az pouzitelnou pamet, tedy to co nasleduje po hlavicce
    a8bc:	e51b3008 	ldr	r3, [fp, #-8]
    a8c0:	e2833010 	add	r3, r3, #16
/home/silhavyj/School/ZeroMate/examples/14-filesystem_monitor/kernel/src/memory/kernel_heap.cpp:64
}
    a8c4:	e1a00003 	mov	r0, r3
    a8c8:	e28bd000 	add	sp, fp, #0
    a8cc:	e49db004 	pop	{fp}		; (ldr fp, [sp], #4)
    a8d0:	e12fff1e 	bx	lr

0000a8d4 <_ZN20CKernel_Heap_Manager4FreeEPv>:
_ZN20CKernel_Heap_Manager4FreeEPv():
/home/silhavyj/School/ZeroMate/examples/14-filesystem_monitor/kernel/src/memory/kernel_heap.cpp:67

void CKernel_Heap_Manager::Free(void* mem)
{
    a8d4:	e52db004 	push	{fp}		; (str fp, [sp, #-4]!)
    a8d8:	e28db000 	add	fp, sp, #0
    a8dc:	e24dd014 	sub	sp, sp, #20
    a8e0:	e50b0010 	str	r0, [fp, #-16]
    a8e4:	e50b1014 	str	r1, [fp, #-20]	; 0xffffffec
/home/silhavyj/School/ZeroMate/examples/14-filesystem_monitor/kernel/src/memory/kernel_heap.cpp:68
    TKernel_Heap_Chunk_Header* chunk = reinterpret_cast<TKernel_Heap_Chunk_Header*>(reinterpret_cast<uint8_t*>(mem) - sizeof(TKernel_Heap_Chunk_Header));
    a8e8:	e51b3014 	ldr	r3, [fp, #-20]	; 0xffffffec
    a8ec:	e2433010 	sub	r3, r3, #16
    a8f0:	e50b3008 	str	r3, [fp, #-8]
/home/silhavyj/School/ZeroMate/examples/14-filesystem_monitor/kernel/src/memory/kernel_heap.cpp:70

    chunk->is_free = true;
    a8f4:	e51b3008 	ldr	r3, [fp, #-8]
    a8f8:	e3a02001 	mov	r2, #1
    a8fc:	e5c3200c 	strb	r2, [r3, #12]
/home/silhavyj/School/ZeroMate/examples/14-filesystem_monitor/kernel/src/memory/kernel_heap.cpp:73

    // pokud je dalsi blok volny, spojme tento a dalsi blok do jednoho
    if (chunk->next && chunk->next->is_free)
    a900:	e51b3008 	ldr	r3, [fp, #-8]
    a904:	e5933004 	ldr	r3, [r3, #4]
    a908:	e3530000 	cmp	r3, #0
    a90c:	0a000016 	beq	a96c <_ZN20CKernel_Heap_Manager4FreeEPv+0x98>
/home/silhavyj/School/ZeroMate/examples/14-filesystem_monitor/kernel/src/memory/kernel_heap.cpp:73 (discriminator 1)
    a910:	e51b3008 	ldr	r3, [fp, #-8]
    a914:	e5933004 	ldr	r3, [r3, #4]
    a918:	e5d3300c 	ldrb	r3, [r3, #12]
    a91c:	e3530000 	cmp	r3, #0
    a920:	0a000011 	beq	a96c <_ZN20CKernel_Heap_Manager4FreeEPv+0x98>
/home/silhavyj/School/ZeroMate/examples/14-filesystem_monitor/kernel/src/memory/kernel_heap.cpp:75
    {
        chunk->size += chunk->next->size + sizeof(TKernel_Heap_Chunk_Header);   // zvetsit soucasny
    a924:	e51b3008 	ldr	r3, [fp, #-8]
    a928:	e5932008 	ldr	r2, [r3, #8]
    a92c:	e51b3008 	ldr	r3, [fp, #-8]
    a930:	e5933004 	ldr	r3, [r3, #4]
    a934:	e5933008 	ldr	r3, [r3, #8]
    a938:	e0823003 	add	r3, r2, r3
    a93c:	e2832010 	add	r2, r3, #16
    a940:	e51b3008 	ldr	r3, [fp, #-8]
    a944:	e5832008 	str	r2, [r3, #8]
/home/silhavyj/School/ZeroMate/examples/14-filesystem_monitor/kernel/src/memory/kernel_heap.cpp:76
        chunk->next = chunk->next->next;                                        // navazat nasledujici nasledujiciho jako dalsi
    a948:	e51b3008 	ldr	r3, [fp, #-8]
    a94c:	e5933004 	ldr	r3, [r3, #4]
    a950:	e5932004 	ldr	r2, [r3, #4]
    a954:	e51b3008 	ldr	r3, [fp, #-8]
    a958:	e5832004 	str	r2, [r3, #4]
/home/silhavyj/School/ZeroMate/examples/14-filesystem_monitor/kernel/src/memory/kernel_heap.cpp:77
        chunk->next->prev = chunk;                                              // nasledujicimu nastavit predchozi na sebe
    a95c:	e51b3008 	ldr	r3, [fp, #-8]
    a960:	e5933004 	ldr	r3, [r3, #4]
    a964:	e51b2008 	ldr	r2, [fp, #-8]
    a968:	e5832000 	str	r2, [r3]
/home/silhavyj/School/ZeroMate/examples/14-filesystem_monitor/kernel/src/memory/kernel_heap.cpp:81
    }

    // pokud je predchozi blok volny, spojme predchozi a tento blok do jednoho
    if (chunk->prev && chunk->prev->is_free)
    a96c:	e51b3008 	ldr	r3, [fp, #-8]
    a970:	e5933000 	ldr	r3, [r3]
    a974:	e3530000 	cmp	r3, #0
    a978:	0a000018 	beq	a9e0 <_ZN20CKernel_Heap_Manager4FreeEPv+0x10c>
/home/silhavyj/School/ZeroMate/examples/14-filesystem_monitor/kernel/src/memory/kernel_heap.cpp:81 (discriminator 1)
    a97c:	e51b3008 	ldr	r3, [fp, #-8]
    a980:	e5933000 	ldr	r3, [r3]
    a984:	e5d3300c 	ldrb	r3, [r3, #12]
    a988:	e3530000 	cmp	r3, #0
    a98c:	0a000013 	beq	a9e0 <_ZN20CKernel_Heap_Manager4FreeEPv+0x10c>
/home/silhavyj/School/ZeroMate/examples/14-filesystem_monitor/kernel/src/memory/kernel_heap.cpp:83
    {
        chunk->prev->size += chunk->size + sizeof(TKernel_Heap_Chunk_Header);
    a990:	e51b3008 	ldr	r3, [fp, #-8]
    a994:	e5933000 	ldr	r3, [r3]
    a998:	e5932008 	ldr	r2, [r3, #8]
    a99c:	e51b3008 	ldr	r3, [fp, #-8]
    a9a0:	e5933008 	ldr	r3, [r3, #8]
    a9a4:	e0822003 	add	r2, r2, r3
    a9a8:	e51b3008 	ldr	r3, [fp, #-8]
    a9ac:	e5933000 	ldr	r3, [r3]
    a9b0:	e2822010 	add	r2, r2, #16
    a9b4:	e5832008 	str	r2, [r3, #8]
/home/silhavyj/School/ZeroMate/examples/14-filesystem_monitor/kernel/src/memory/kernel_heap.cpp:84
        chunk->prev->next = chunk->next;
    a9b8:	e51b3008 	ldr	r3, [fp, #-8]
    a9bc:	e5933000 	ldr	r3, [r3]
    a9c0:	e51b2008 	ldr	r2, [fp, #-8]
    a9c4:	e5922004 	ldr	r2, [r2, #4]
    a9c8:	e5832004 	str	r2, [r3, #4]
/home/silhavyj/School/ZeroMate/examples/14-filesystem_monitor/kernel/src/memory/kernel_heap.cpp:85
        chunk->next->prev = chunk->prev;
    a9cc:	e51b3008 	ldr	r3, [fp, #-8]
    a9d0:	e5933004 	ldr	r3, [r3, #4]
    a9d4:	e51b2008 	ldr	r2, [fp, #-8]
    a9d8:	e5922000 	ldr	r2, [r2]
    a9dc:	e5832000 	str	r2, [r3]
/home/silhavyj/School/ZeroMate/examples/14-filesystem_monitor/kernel/src/memory/kernel_heap.cpp:87
    }
    a9e0:	e320f000 	nop	{0}
    a9e4:	e28bd000 	add	sp, fp, #0
    a9e8:	e49db004 	pop	{fp}		; (ldr fp, [sp], #4)
    a9ec:	e12fff1e 	bx	lr

0000a9f0 <_Z41__static_initialization_and_destruction_0ii>:
_Z41__static_initialization_and_destruction_0ii():
/home/silhavyj/School/ZeroMate/examples/14-filesystem_monitor/kernel/src/memory/kernel_heap.cpp:87
    a9f0:	e92d4800 	push	{fp, lr}
    a9f4:	e28db004 	add	fp, sp, #4
    a9f8:	e24dd008 	sub	sp, sp, #8
    a9fc:	e50b0008 	str	r0, [fp, #-8]
    aa00:	e50b100c 	str	r1, [fp, #-12]
    aa04:	e51b3008 	ldr	r3, [fp, #-8]
    aa08:	e3530001 	cmp	r3, #1
    aa0c:	1a000005 	bne	aa28 <_Z41__static_initialization_and_destruction_0ii+0x38>
/home/silhavyj/School/ZeroMate/examples/14-filesystem_monitor/kernel/src/memory/kernel_heap.cpp:87 (discriminator 1)
    aa10:	e51b300c 	ldr	r3, [fp, #-12]
    aa14:	e59f2018 	ldr	r2, [pc, #24]	; aa34 <_Z41__static_initialization_and_destruction_0ii+0x44>
    aa18:	e1530002 	cmp	r3, r2
    aa1c:	1a000001 	bne	aa28 <_Z41__static_initialization_and_destruction_0ii+0x38>
/home/silhavyj/School/ZeroMate/examples/14-filesystem_monitor/kernel/src/memory/kernel_heap.cpp:4
CKernel_Heap_Manager sKernelMem;
    aa20:	e59f0010 	ldr	r0, [pc, #16]	; aa38 <_Z41__static_initialization_and_destruction_0ii+0x48>
    aa24:	ebffff30 	bl	a6ec <_ZN20CKernel_Heap_ManagerC1Ev>
/home/silhavyj/School/ZeroMate/examples/14-filesystem_monitor/kernel/src/memory/kernel_heap.cpp:87
    aa28:	e320f000 	nop	{0}
    aa2c:	e24bd004 	sub	sp, fp, #4
    aa30:	e8bd8800 	pop	{fp, pc}
    aa34:	0000ffff 	strdeq	pc, [r0], -pc	; <UNPREDICTABLE>
    aa38:	0000cb30 	andeq	ip, r0, r0, lsr fp

0000aa3c <_GLOBAL__sub_I_sKernelMem>:
_GLOBAL__sub_I_sKernelMem():
/home/silhavyj/School/ZeroMate/examples/14-filesystem_monitor/kernel/src/memory/kernel_heap.cpp:87
    aa3c:	e92d4800 	push	{fp, lr}
    aa40:	e28db004 	add	fp, sp, #4
    aa44:	e59f1008 	ldr	r1, [pc, #8]	; aa54 <_GLOBAL__sub_I_sKernelMem+0x18>
    aa48:	e3a00001 	mov	r0, #1
    aa4c:	ebffffe7 	bl	a9f0 <_Z41__static_initialization_and_destruction_0ii>
    aa50:	e8bd8800 	pop	{fp, pc}
    aa54:	0000ffff 	strdeq	pc, [r0], -pc	; <UNPREDICTABLE>

0000aa58 <_ZN13CPage_ManagerC1Ev>:
_ZN13CPage_ManagerC2Ev():
/home/silhavyj/School/ZeroMate/examples/14-filesystem_monitor/kernel/src/memory/pages.cpp:5
#include <memory/pages.h>

CPage_Manager sPage_Manager;

CPage_Manager::CPage_Manager()
    aa58:	e52db004 	push	{fp}		; (str fp, [sp, #-4]!)
    aa5c:	e28db000 	add	fp, sp, #0
    aa60:	e24dd014 	sub	sp, sp, #20
    aa64:	e50b0010 	str	r0, [fp, #-16]
/home/silhavyj/School/ZeroMate/examples/14-filesystem_monitor/kernel/src/memory/pages.cpp:8
{
    // zadna stranka neni alokovana
    for (int i = 0; i < sizeof(mPage_Bitmap); i++)
    aa68:	e3a03000 	mov	r3, #0
    aa6c:	e50b3008 	str	r3, [fp, #-8]
/home/silhavyj/School/ZeroMate/examples/14-filesystem_monitor/kernel/src/memory/pages.cpp:8 (discriminator 3)
    aa70:	e51b3008 	ldr	r3, [fp, #-8]
    aa74:	e59f203c 	ldr	r2, [pc, #60]	; aab8 <_ZN13CPage_ManagerC1Ev+0x60>
    aa78:	e1530002 	cmp	r3, r2
    aa7c:	8a000008 	bhi	aaa4 <_ZN13CPage_ManagerC1Ev+0x4c>
/home/silhavyj/School/ZeroMate/examples/14-filesystem_monitor/kernel/src/memory/pages.cpp:9 (discriminator 2)
        mPage_Bitmap[i] = 0;
    aa80:	e51b2010 	ldr	r2, [fp, #-16]
    aa84:	e51b3008 	ldr	r3, [fp, #-8]
    aa88:	e0823003 	add	r3, r2, r3
    aa8c:	e3a02000 	mov	r2, #0
    aa90:	e5c32000 	strb	r2, [r3]
/home/silhavyj/School/ZeroMate/examples/14-filesystem_monitor/kernel/src/memory/pages.cpp:8 (discriminator 2)
    for (int i = 0; i < sizeof(mPage_Bitmap); i++)
    aa94:	e51b3008 	ldr	r3, [fp, #-8]
    aa98:	e2833001 	add	r3, r3, #1
    aa9c:	e50b3008 	str	r3, [fp, #-8]
    aaa0:	eafffff2 	b	aa70 <_ZN13CPage_ManagerC1Ev+0x18>
/home/silhavyj/School/ZeroMate/examples/14-filesystem_monitor/kernel/src/memory/pages.cpp:12

    // nutno dodat, ze strankovatelna pamet implicitne nezahrnuje pamet, kam se nahralo jadro
}
    aaa4:	e51b3010 	ldr	r3, [fp, #-16]
    aaa8:	e1a00003 	mov	r0, r3
    aaac:	e28bd000 	add	sp, fp, #0
    aab0:	e49db004 	pop	{fp}		; (ldr fp, [sp], #4)
    aab4:	e12fff1e 	bx	lr
    aab8:	00000ffe 	strdeq	r0, [r0], -lr

0000aabc <_ZN13CPage_Manager4MarkEjb>:
_ZN13CPage_Manager4MarkEjb():
/home/silhavyj/School/ZeroMate/examples/14-filesystem_monitor/kernel/src/memory/pages.cpp:15

void CPage_Manager::Mark(uint32_t page_idx, bool used)
{
    aabc:	e52db004 	push	{fp}		; (str fp, [sp, #-4]!)
    aac0:	e28db000 	add	fp, sp, #0
    aac4:	e24dd014 	sub	sp, sp, #20
    aac8:	e50b0008 	str	r0, [fp, #-8]
    aacc:	e50b100c 	str	r1, [fp, #-12]
    aad0:	e1a03002 	mov	r3, r2
    aad4:	e54b300d 	strb	r3, [fp, #-13]
/home/silhavyj/School/ZeroMate/examples/14-filesystem_monitor/kernel/src/memory/pages.cpp:16
    if (used)
    aad8:	e55b300d 	ldrb	r3, [fp, #-13]
    aadc:	e3530000 	cmp	r3, #0
    aae0:	0a00000f 	beq	ab24 <_ZN13CPage_Manager4MarkEjb+0x68>
/home/silhavyj/School/ZeroMate/examples/14-filesystem_monitor/kernel/src/memory/pages.cpp:17
        mPage_Bitmap[page_idx / 8] |= 1 << (page_idx % 8);
    aae4:	e51b300c 	ldr	r3, [fp, #-12]
    aae8:	e1a031a3 	lsr	r3, r3, #3
    aaec:	e51b2008 	ldr	r2, [fp, #-8]
    aaf0:	e7d22003 	ldrb	r2, [r2, r3]
    aaf4:	e6af1072 	sxtb	r1, r2
    aaf8:	e51b200c 	ldr	r2, [fp, #-12]
    aafc:	e2022007 	and	r2, r2, #7
    ab00:	e3a00001 	mov	r0, #1
    ab04:	e1a02210 	lsl	r2, r0, r2
    ab08:	e6af2072 	sxtb	r2, r2
    ab0c:	e1812002 	orr	r2, r1, r2
    ab10:	e6af2072 	sxtb	r2, r2
    ab14:	e6ef1072 	uxtb	r1, r2
    ab18:	e51b2008 	ldr	r2, [fp, #-8]
    ab1c:	e7c21003 	strb	r1, [r2, r3]
/home/silhavyj/School/ZeroMate/examples/14-filesystem_monitor/kernel/src/memory/pages.cpp:20
    else
        mPage_Bitmap[page_idx / 8] &= ~(1 << (page_idx % 8));
}
    ab20:	ea000010 	b	ab68 <_ZN13CPage_Manager4MarkEjb+0xac>
/home/silhavyj/School/ZeroMate/examples/14-filesystem_monitor/kernel/src/memory/pages.cpp:19
        mPage_Bitmap[page_idx / 8] &= ~(1 << (page_idx % 8));
    ab24:	e51b300c 	ldr	r3, [fp, #-12]
    ab28:	e1a031a3 	lsr	r3, r3, #3
    ab2c:	e51b2008 	ldr	r2, [fp, #-8]
    ab30:	e7d22003 	ldrb	r2, [r2, r3]
    ab34:	e6af1072 	sxtb	r1, r2
    ab38:	e51b200c 	ldr	r2, [fp, #-12]
    ab3c:	e2022007 	and	r2, r2, #7
    ab40:	e3a00001 	mov	r0, #1
    ab44:	e1a02210 	lsl	r2, r0, r2
    ab48:	e6af2072 	sxtb	r2, r2
    ab4c:	e1e02002 	mvn	r2, r2
    ab50:	e6af2072 	sxtb	r2, r2
    ab54:	e0022001 	and	r2, r2, r1
    ab58:	e6af2072 	sxtb	r2, r2
    ab5c:	e6ef1072 	uxtb	r1, r2
    ab60:	e51b2008 	ldr	r2, [fp, #-8]
    ab64:	e7c21003 	strb	r1, [r2, r3]
/home/silhavyj/School/ZeroMate/examples/14-filesystem_monitor/kernel/src/memory/pages.cpp:20
}
    ab68:	e320f000 	nop	{0}
    ab6c:	e28bd000 	add	sp, fp, #0
    ab70:	e49db004 	pop	{fp}		; (ldr fp, [sp], #4)
    ab74:	e12fff1e 	bx	lr

0000ab78 <_ZN13CPage_Manager10Alloc_PageEv>:
_ZN13CPage_Manager10Alloc_PageEv():
/home/silhavyj/School/ZeroMate/examples/14-filesystem_monitor/kernel/src/memory/pages.cpp:23

uint32_t CPage_Manager::Alloc_Page()
{
    ab78:	e92d4800 	push	{fp, lr}
    ab7c:	e28db004 	add	fp, sp, #4
    ab80:	e24dd018 	sub	sp, sp, #24
    ab84:	e50b0018 	str	r0, [fp, #-24]	; 0xffffffe8
/home/silhavyj/School/ZeroMate/examples/14-filesystem_monitor/kernel/src/memory/pages.cpp:30
    // to je samozrejme O(n) a pro prakticke pouziti ne uplne dobre, ale k tomuto problemu az jindy

    uint32_t i, j;

    // projdeme vsechny stranky
    for (i = 0; i < mem::PageCount; i++)
    ab88:	e3a03000 	mov	r3, #0
    ab8c:	e50b3008 	str	r3, [fp, #-8]
/home/silhavyj/School/ZeroMate/examples/14-filesystem_monitor/kernel/src/memory/pages.cpp:30 (discriminator 1)
    ab90:	e51b3008 	ldr	r3, [fp, #-8]
    ab94:	e59f20bc 	ldr	r2, [pc, #188]	; ac58 <_ZN13CPage_Manager10Alloc_PageEv+0xe0>
    ab98:	e1530002 	cmp	r3, r2
    ab9c:	8a000029 	bhi	ac48 <_ZN13CPage_Manager10Alloc_PageEv+0xd0>
/home/silhavyj/School/ZeroMate/examples/14-filesystem_monitor/kernel/src/memory/pages.cpp:33
    {
        // je v dane osmici volna nejaka stranka? (0xFF = vse obsazeno)
        if (mPage_Bitmap[i] != 0xFF)
    aba0:	e51b2018 	ldr	r2, [fp, #-24]	; 0xffffffe8
    aba4:	e51b3008 	ldr	r3, [fp, #-8]
    aba8:	e0823003 	add	r3, r2, r3
    abac:	e5d33000 	ldrb	r3, [r3]
    abb0:	e35300ff 	cmp	r3, #255	; 0xff
    abb4:	0a00001f 	beq	ac38 <_ZN13CPage_Manager10Alloc_PageEv+0xc0>
/home/silhavyj/School/ZeroMate/examples/14-filesystem_monitor/kernel/src/memory/pages.cpp:36
        {
            // projdeme vsechny bity a najdeme ten co je volny
            for (j = 0; j < 8; j++)
    abb8:	e3a03000 	mov	r3, #0
    abbc:	e50b300c 	str	r3, [fp, #-12]
/home/silhavyj/School/ZeroMate/examples/14-filesystem_monitor/kernel/src/memory/pages.cpp:36 (discriminator 1)
    abc0:	e51b300c 	ldr	r3, [fp, #-12]
    abc4:	e3530007 	cmp	r3, #7
    abc8:	8a00001a 	bhi	ac38 <_ZN13CPage_Manager10Alloc_PageEv+0xc0>
/home/silhavyj/School/ZeroMate/examples/14-filesystem_monitor/kernel/src/memory/pages.cpp:38
            {
                if ((mPage_Bitmap[i] & (1 << j)) == 0)
    abcc:	e51b2018 	ldr	r2, [fp, #-24]	; 0xffffffe8
    abd0:	e51b3008 	ldr	r3, [fp, #-8]
    abd4:	e0823003 	add	r3, r2, r3
    abd8:	e5d33000 	ldrb	r3, [r3]
    abdc:	e1a02003 	mov	r2, r3
    abe0:	e51b300c 	ldr	r3, [fp, #-12]
    abe4:	e1a03352 	asr	r3, r2, r3
    abe8:	e2033001 	and	r3, r3, #1
    abec:	e3530000 	cmp	r3, #0
    abf0:	1a00000c 	bne	ac28 <_ZN13CPage_Manager10Alloc_PageEv+0xb0>
/home/silhavyj/School/ZeroMate/examples/14-filesystem_monitor/kernel/src/memory/pages.cpp:41
                {
                    // oznacime 
                    const uint32_t page_idx = i*8 + j;
    abf4:	e51b3008 	ldr	r3, [fp, #-8]
    abf8:	e1a03183 	lsl	r3, r3, #3
    abfc:	e51b200c 	ldr	r2, [fp, #-12]
    ac00:	e0823003 	add	r3, r2, r3
    ac04:	e50b3010 	str	r3, [fp, #-16]
/home/silhavyj/School/ZeroMate/examples/14-filesystem_monitor/kernel/src/memory/pages.cpp:42
                    Mark(page_idx, true);
    ac08:	e3a02001 	mov	r2, #1
    ac0c:	e51b1010 	ldr	r1, [fp, #-16]
    ac10:	e51b0018 	ldr	r0, [fp, #-24]	; 0xffffffe8
    ac14:	ebffffa8 	bl	aabc <_ZN13CPage_Manager4MarkEjb>
/home/silhavyj/School/ZeroMate/examples/14-filesystem_monitor/kernel/src/memory/pages.cpp:43
                    return mem::LowMemory + page_idx * mem::PageSize;
    ac18:	e51b3010 	ldr	r3, [fp, #-16]
    ac1c:	e2833008 	add	r3, r3, #8
    ac20:	e1a03703 	lsl	r3, r3, #14
    ac24:	ea000008 	b	ac4c <_ZN13CPage_Manager10Alloc_PageEv+0xd4>
/home/silhavyj/School/ZeroMate/examples/14-filesystem_monitor/kernel/src/memory/pages.cpp:36 (discriminator 2)
            for (j = 0; j < 8; j++)
    ac28:	e51b300c 	ldr	r3, [fp, #-12]
    ac2c:	e2833001 	add	r3, r3, #1
    ac30:	e50b300c 	str	r3, [fp, #-12]
    ac34:	eaffffe1 	b	abc0 <_ZN13CPage_Manager10Alloc_PageEv+0x48>
/home/silhavyj/School/ZeroMate/examples/14-filesystem_monitor/kernel/src/memory/pages.cpp:30 (discriminator 2)
    for (i = 0; i < mem::PageCount; i++)
    ac38:	e51b3008 	ldr	r3, [fp, #-8]
    ac3c:	e2833001 	add	r3, r3, #1
    ac40:	e50b3008 	str	r3, [fp, #-8]
    ac44:	eaffffd1 	b	ab90 <_ZN13CPage_Manager10Alloc_PageEv+0x18>
/home/silhavyj/School/ZeroMate/examples/14-filesystem_monitor/kernel/src/memory/pages.cpp:49
                }
            }
        }
    }

    return 0;
    ac48:	e3a03000 	mov	r3, #0
/home/silhavyj/School/ZeroMate/examples/14-filesystem_monitor/kernel/src/memory/pages.cpp:50
}
    ac4c:	e1a00003 	mov	r0, r3
    ac50:	e24bd004 	sub	sp, fp, #4
    ac54:	e8bd8800 	pop	{fp, pc}
    ac58:	00007ff7 	strdeq	r7, [r0], -r7	; <UNPREDICTABLE>

0000ac5c <_ZN13CPage_Manager9Free_PageEj>:
_ZN13CPage_Manager9Free_PageEj():
/home/silhavyj/School/ZeroMate/examples/14-filesystem_monitor/kernel/src/memory/pages.cpp:53

void CPage_Manager::Free_Page(uint32_t fa)
{
    ac5c:	e92d4800 	push	{fp, lr}
    ac60:	e28db004 	add	fp, sp, #4
    ac64:	e24dd008 	sub	sp, sp, #8
    ac68:	e50b0008 	str	r0, [fp, #-8]
    ac6c:	e50b100c 	str	r1, [fp, #-12]
/home/silhavyj/School/ZeroMate/examples/14-filesystem_monitor/kernel/src/memory/pages.cpp:56
    // pro vyssi bezpecnost v nejakych safe systemech lze tady data stranky premazavat napr. nulami po dealokaci

    Mark(fa / mem::PageSize, false);
    ac70:	e51b300c 	ldr	r3, [fp, #-12]
    ac74:	e1a03723 	lsr	r3, r3, #14
    ac78:	e3a02000 	mov	r2, #0
    ac7c:	e1a01003 	mov	r1, r3
    ac80:	e51b0008 	ldr	r0, [fp, #-8]
    ac84:	ebffff8c 	bl	aabc <_ZN13CPage_Manager4MarkEjb>
/home/silhavyj/School/ZeroMate/examples/14-filesystem_monitor/kernel/src/memory/pages.cpp:57
}
    ac88:	e320f000 	nop	{0}
    ac8c:	e24bd004 	sub	sp, fp, #4
    ac90:	e8bd8800 	pop	{fp, pc}

0000ac94 <_Z41__static_initialization_and_destruction_0ii>:
_Z41__static_initialization_and_destruction_0ii():
/home/silhavyj/School/ZeroMate/examples/14-filesystem_monitor/kernel/src/memory/pages.cpp:57
    ac94:	e92d4800 	push	{fp, lr}
    ac98:	e28db004 	add	fp, sp, #4
    ac9c:	e24dd008 	sub	sp, sp, #8
    aca0:	e50b0008 	str	r0, [fp, #-8]
    aca4:	e50b100c 	str	r1, [fp, #-12]
    aca8:	e51b3008 	ldr	r3, [fp, #-8]
    acac:	e3530001 	cmp	r3, #1
    acb0:	1a000005 	bne	accc <_Z41__static_initialization_and_destruction_0ii+0x38>
/home/silhavyj/School/ZeroMate/examples/14-filesystem_monitor/kernel/src/memory/pages.cpp:57 (discriminator 1)
    acb4:	e51b300c 	ldr	r3, [fp, #-12]
    acb8:	e59f2018 	ldr	r2, [pc, #24]	; acd8 <_Z41__static_initialization_and_destruction_0ii+0x44>
    acbc:	e1530002 	cmp	r3, r2
    acc0:	1a000001 	bne	accc <_Z41__static_initialization_and_destruction_0ii+0x38>
/home/silhavyj/School/ZeroMate/examples/14-filesystem_monitor/kernel/src/memory/pages.cpp:3
CPage_Manager sPage_Manager;
    acc4:	e59f0010 	ldr	r0, [pc, #16]	; acdc <_Z41__static_initialization_and_destruction_0ii+0x48>
    acc8:	ebffff62 	bl	aa58 <_ZN13CPage_ManagerC1Ev>
/home/silhavyj/School/ZeroMate/examples/14-filesystem_monitor/kernel/src/memory/pages.cpp:57
}
    accc:	e320f000 	nop	{0}
    acd0:	e24bd004 	sub	sp, fp, #4
    acd4:	e8bd8800 	pop	{fp, pc}
    acd8:	0000ffff 	strdeq	pc, [r0], -pc	; <UNPREDICTABLE>
    acdc:	0000cb34 	andeq	ip, r0, r4, lsr fp

0000ace0 <_GLOBAL__sub_I_sPage_Manager>:
_GLOBAL__sub_I_sPage_Manager():
/home/silhavyj/School/ZeroMate/examples/14-filesystem_monitor/kernel/src/memory/pages.cpp:57
    ace0:	e92d4800 	push	{fp, lr}
    ace4:	e28db004 	add	fp, sp, #4
    ace8:	e59f1008 	ldr	r1, [pc, #8]	; acf8 <_GLOBAL__sub_I_sPage_Manager+0x18>
    acec:	e3a00001 	mov	r0, #1
    acf0:	ebffffe7 	bl	ac94 <_Z41__static_initialization_and_destruction_0ii>
    acf4:	e8bd8800 	pop	{fp, pc}
    acf8:	0000ffff 	strdeq	pc, [r0], -pc	; <UNPREDICTABLE>

0000acfc <_ZN16CProcess_ManagerC1Ev>:
_ZN16CProcess_ManagerC2Ev():
/home/silhavyj/School/ZeroMate/examples/14-filesystem_monitor/kernel/src/process/process_manager.cpp:20
    void context_switch_first(TCPU_Context* ctx_to, TCPU_Context* ctx_from);
};

CProcess_Manager sProcessMgr;

CProcess_Manager::CProcess_Manager()
    acfc:	e52db004 	push	{fp}		; (str fp, [sp, #-4]!)
    ad00:	e28db000 	add	fp, sp, #0
    ad04:	e24dd00c 	sub	sp, sp, #12
    ad08:	e50b0008 	str	r0, [fp, #-8]
/home/silhavyj/School/ZeroMate/examples/14-filesystem_monitor/kernel/src/process/process_manager.cpp:21
    : mLast_PID(0), mProcess_List_Head(nullptr), mCurrent_Task_Node(nullptr)
    ad0c:	e51b3008 	ldr	r3, [fp, #-8]
    ad10:	e3a02000 	mov	r2, #0
    ad14:	e5832000 	str	r2, [r3]
    ad18:	e51b3008 	ldr	r3, [fp, #-8]
    ad1c:	e3a02000 	mov	r2, #0
    ad20:	e5832004 	str	r2, [r3, #4]
    ad24:	e51b3008 	ldr	r3, [fp, #-8]
    ad28:	e3a02000 	mov	r2, #0
    ad2c:	e5832008 	str	r2, [r3, #8]
/home/silhavyj/School/ZeroMate/examples/14-filesystem_monitor/kernel/src/process/process_manager.cpp:24
{
    //
}
    ad30:	e51b3008 	ldr	r3, [fp, #-8]
    ad34:	e1a00003 	mov	r0, r3
    ad38:	e28bd000 	add	sp, fp, #0
    ad3c:	e49db004 	pop	{fp}		; (ldr fp, [sp], #4)
    ad40:	e12fff1e 	bx	lr

0000ad44 <_ZNK16CProcess_Manager19Get_Current_ProcessEv>:
_ZNK16CProcess_Manager19Get_Current_ProcessEv():
/home/silhavyj/School/ZeroMate/examples/14-filesystem_monitor/kernel/src/process/process_manager.cpp:27

TTask_Struct* CProcess_Manager::Get_Current_Process() const
{
    ad44:	e52db004 	push	{fp}		; (str fp, [sp, #-4]!)
    ad48:	e28db000 	add	fp, sp, #0
    ad4c:	e24dd00c 	sub	sp, sp, #12
    ad50:	e50b0008 	str	r0, [fp, #-8]
/home/silhavyj/School/ZeroMate/examples/14-filesystem_monitor/kernel/src/process/process_manager.cpp:28
    return mCurrent_Task_Node ? mCurrent_Task_Node->task : nullptr;
    ad54:	e51b3008 	ldr	r3, [fp, #-8]
    ad58:	e5933008 	ldr	r3, [r3, #8]
    ad5c:	e3530000 	cmp	r3, #0
    ad60:	0a000003 	beq	ad74 <_ZNK16CProcess_Manager19Get_Current_ProcessEv+0x30>
/home/silhavyj/School/ZeroMate/examples/14-filesystem_monitor/kernel/src/process/process_manager.cpp:28 (discriminator 1)
    ad64:	e51b3008 	ldr	r3, [fp, #-8]
    ad68:	e5933008 	ldr	r3, [r3, #8]
    ad6c:	e5933008 	ldr	r3, [r3, #8]
    ad70:	ea000000 	b	ad78 <_ZNK16CProcess_Manager19Get_Current_ProcessEv+0x34>
/home/silhavyj/School/ZeroMate/examples/14-filesystem_monitor/kernel/src/process/process_manager.cpp:28 (discriminator 2)
    ad74:	e3a03000 	mov	r3, #0
/home/silhavyj/School/ZeroMate/examples/14-filesystem_monitor/kernel/src/process/process_manager.cpp:29 (discriminator 5)
}
    ad78:	e1a00003 	mov	r0, r3
    ad7c:	e28bd000 	add	sp, fp, #0
    ad80:	e49db004 	pop	{fp}		; (ldr fp, [sp], #4)
    ad84:	e12fff1e 	bx	lr

0000ad88 <_ZN16CProcess_Manager19Create_Main_ProcessEv>:
_ZN16CProcess_Manager19Create_Main_ProcessEv():
/home/silhavyj/School/ZeroMate/examples/14-filesystem_monitor/kernel/src/process/process_manager.cpp:32

void CProcess_Manager::Create_Main_Process()
{
    ad88:	e92d4800 	push	{fp, lr}
    ad8c:	e28db004 	add	fp, sp, #4
    ad90:	e24dd018 	sub	sp, sp, #24
    ad94:	e50b0018 	str	r0, [fp, #-24]	; 0xffffffe8
/home/silhavyj/School/ZeroMate/examples/14-filesystem_monitor/kernel/src/process/process_manager.cpp:33
    CProcess_List_Node* procnode = sKernelMem.Alloc<CProcess_List_Node>();
    ad98:	e59f00f8 	ldr	r0, [pc, #248]	; ae98 <_ZN16CProcess_Manager19Create_Main_ProcessEv+0x110>
    ad9c:	eb0002cb 	bl	b8d0 <_ZN20CKernel_Heap_Manager5AllocI18CProcess_List_NodeEEPT_v>
    ada0:	e50b000c 	str	r0, [fp, #-12]
/home/silhavyj/School/ZeroMate/examples/14-filesystem_monitor/kernel/src/process/process_manager.cpp:35

    procnode->next = mProcess_List_Head;
    ada4:	e51b3018 	ldr	r3, [fp, #-24]	; 0xffffffe8
    ada8:	e5932004 	ldr	r2, [r3, #4]
    adac:	e51b300c 	ldr	r3, [fp, #-12]
    adb0:	e5832004 	str	r2, [r3, #4]
/home/silhavyj/School/ZeroMate/examples/14-filesystem_monitor/kernel/src/process/process_manager.cpp:36
    procnode->prev = nullptr;
    adb4:	e51b300c 	ldr	r3, [fp, #-12]
    adb8:	e3a02000 	mov	r2, #0
    adbc:	e5832000 	str	r2, [r3]
/home/silhavyj/School/ZeroMate/examples/14-filesystem_monitor/kernel/src/process/process_manager.cpp:37
    mProcess_List_Head->prev = procnode;
    adc0:	e51b3018 	ldr	r3, [fp, #-24]	; 0xffffffe8
    adc4:	e5933004 	ldr	r3, [r3, #4]
    adc8:	e51b200c 	ldr	r2, [fp, #-12]
    adcc:	e5832000 	str	r2, [r3]
/home/silhavyj/School/ZeroMate/examples/14-filesystem_monitor/kernel/src/process/process_manager.cpp:39

    procnode->task = sKernelMem.Alloc<TTask_Struct>();
    add0:	e59f00c0 	ldr	r0, [pc, #192]	; ae98 <_ZN16CProcess_Manager19Create_Main_ProcessEv+0x110>
    add4:	eb0002c8 	bl	b8fc <_ZN20CKernel_Heap_Manager5AllocI12TTask_StructEEPT_v>
    add8:	e1a02000 	mov	r2, r0
    addc:	e51b300c 	ldr	r3, [fp, #-12]
    ade0:	e5832008 	str	r2, [r3, #8]
/home/silhavyj/School/ZeroMate/examples/14-filesystem_monitor/kernel/src/process/process_manager.cpp:41

    auto* task = procnode->task;
    ade4:	e51b300c 	ldr	r3, [fp, #-12]
    ade8:	e5933008 	ldr	r3, [r3, #8]
    adec:	e50b3010 	str	r3, [fp, #-16]
/home/silhavyj/School/ZeroMate/examples/14-filesystem_monitor/kernel/src/process/process_manager.cpp:43

    task->pid = ++mLast_PID;
    adf0:	e51b3018 	ldr	r3, [fp, #-24]	; 0xffffffe8
    adf4:	e5933000 	ldr	r3, [r3]
    adf8:	e2832001 	add	r2, r3, #1
    adfc:	e51b3018 	ldr	r3, [fp, #-24]	; 0xffffffe8
    ae00:	e5832000 	str	r2, [r3]
    ae04:	e51b3018 	ldr	r3, [fp, #-24]	; 0xffffffe8
    ae08:	e5932000 	ldr	r2, [r3]
    ae0c:	e51b3010 	ldr	r3, [fp, #-16]
    ae10:	e583200c 	str	r2, [r3, #12]
/home/silhavyj/School/ZeroMate/examples/14-filesystem_monitor/kernel/src/process/process_manager.cpp:44
    task->sched_static_priority = 5;    // TODO: pro ted je to jen hardcoded hodnota, do budoucna urcite bude nutne dovolit specifikovat
    ae14:	e51b3010 	ldr	r3, [fp, #-16]
    ae18:	e3a02005 	mov	r2, #5
    ae1c:	e5832018 	str	r2, [r3, #24]
/home/silhavyj/School/ZeroMate/examples/14-filesystem_monitor/kernel/src/process/process_manager.cpp:45
    task->sched_counter = task->sched_static_priority;
    ae20:	e51b3010 	ldr	r3, [fp, #-16]
    ae24:	e5932018 	ldr	r2, [r3, #24]
    ae28:	e51b3010 	ldr	r3, [fp, #-16]
    ae2c:	e5832014 	str	r2, [r3, #20]
/home/silhavyj/School/ZeroMate/examples/14-filesystem_monitor/kernel/src/process/process_manager.cpp:46
    task->state = NTask_State::Running;
    ae30:	e51b3010 	ldr	r3, [fp, #-16]
    ae34:	e3a02002 	mov	r2, #2
    ae38:	e5832010 	str	r2, [r3, #16]
/home/silhavyj/School/ZeroMate/examples/14-filesystem_monitor/kernel/src/process/process_manager.cpp:48

    for (uint32_t i = 0; i < Max_Process_Opened_Files; i++)
    ae3c:	e3a03000 	mov	r3, #0
    ae40:	e50b3008 	str	r3, [fp, #-8]
/home/silhavyj/School/ZeroMate/examples/14-filesystem_monitor/kernel/src/process/process_manager.cpp:48 (discriminator 3)
    ae44:	e51b3008 	ldr	r3, [fp, #-8]
    ae48:	e353000f 	cmp	r3, #15
    ae4c:	8a00000a 	bhi	ae7c <_ZN16CProcess_Manager19Create_Main_ProcessEv+0xf4>
/home/silhavyj/School/ZeroMate/examples/14-filesystem_monitor/kernel/src/process/process_manager.cpp:49 (discriminator 2)
        task->opened_files[i] = nullptr;
    ae50:	e51b2010 	ldr	r2, [fp, #-16]
    ae54:	e51b3008 	ldr	r3, [fp, #-8]
    ae58:	e2833006 	add	r3, r3, #6
    ae5c:	e1a03103 	lsl	r3, r3, #2
    ae60:	e0823003 	add	r3, r2, r3
    ae64:	e3a02000 	mov	r2, #0
    ae68:	e5832004 	str	r2, [r3, #4]
/home/silhavyj/School/ZeroMate/examples/14-filesystem_monitor/kernel/src/process/process_manager.cpp:48 (discriminator 2)
    for (uint32_t i = 0; i < Max_Process_Opened_Files; i++)
    ae6c:	e51b3008 	ldr	r3, [fp, #-8]
    ae70:	e2833001 	add	r3, r3, #1
    ae74:	e50b3008 	str	r3, [fp, #-8]
    ae78:	eafffff1 	b	ae44 <_ZN16CProcess_Manager19Create_Main_ProcessEv+0xbc>
/home/silhavyj/School/ZeroMate/examples/14-filesystem_monitor/kernel/src/process/process_manager.cpp:51

    mCurrent_Task_Node = mProcess_List_Head;
    ae7c:	e51b3018 	ldr	r3, [fp, #-24]	; 0xffffffe8
    ae80:	e5932004 	ldr	r2, [r3, #4]
    ae84:	e51b3018 	ldr	r3, [fp, #-24]	; 0xffffffe8
    ae88:	e5832008 	str	r2, [r3, #8]
/home/silhavyj/School/ZeroMate/examples/14-filesystem_monitor/kernel/src/process/process_manager.cpp:52
}
    ae8c:	e320f000 	nop	{0}
    ae90:	e24bd004 	sub	sp, fp, #4
    ae94:	e8bd8800 	pop	{fp, pc}
    ae98:	0000cb30 	andeq	ip, r0, r0, lsr fp

0000ae9c <_ZN16CProcess_Manager14Create_ProcessEm>:
_ZN16CProcess_Manager14Create_ProcessEm():
/home/silhavyj/School/ZeroMate/examples/14-filesystem_monitor/kernel/src/process/process_manager.cpp:55

uint32_t CProcess_Manager::Create_Process(unsigned long funcptr)
{
    ae9c:	e92d4800 	push	{fp, lr}
    aea0:	e28db004 	add	fp, sp, #4
    aea4:	e24dd018 	sub	sp, sp, #24
    aea8:	e50b0018 	str	r0, [fp, #-24]	; 0xffffffe8
    aeac:	e50b101c 	str	r1, [fp, #-28]	; 0xffffffe4
/home/silhavyj/School/ZeroMate/examples/14-filesystem_monitor/kernel/src/process/process_manager.cpp:56
    CProcess_List_Node* procnode = sKernelMem.Alloc<CProcess_List_Node>();
    aeb0:	e59f01c4 	ldr	r0, [pc, #452]	; b07c <_ZN16CProcess_Manager14Create_ProcessEm+0x1e0>
    aeb4:	eb000285 	bl	b8d0 <_ZN20CKernel_Heap_Manager5AllocI18CProcess_List_NodeEEPT_v>
    aeb8:	e50b000c 	str	r0, [fp, #-12]
/home/silhavyj/School/ZeroMate/examples/14-filesystem_monitor/kernel/src/process/process_manager.cpp:58

    procnode->next = mProcess_List_Head;
    aebc:	e51b3018 	ldr	r3, [fp, #-24]	; 0xffffffe8
    aec0:	e5932004 	ldr	r2, [r3, #4]
    aec4:	e51b300c 	ldr	r3, [fp, #-12]
    aec8:	e5832004 	str	r2, [r3, #4]
/home/silhavyj/School/ZeroMate/examples/14-filesystem_monitor/kernel/src/process/process_manager.cpp:59
    procnode->prev = nullptr;
    aecc:	e51b300c 	ldr	r3, [fp, #-12]
    aed0:	e3a02000 	mov	r2, #0
    aed4:	e5832000 	str	r2, [r3]
/home/silhavyj/School/ZeroMate/examples/14-filesystem_monitor/kernel/src/process/process_manager.cpp:60
    mProcess_List_Head->prev = procnode;
    aed8:	e51b3018 	ldr	r3, [fp, #-24]	; 0xffffffe8
    aedc:	e5933004 	ldr	r3, [r3, #4]
    aee0:	e51b200c 	ldr	r2, [fp, #-12]
    aee4:	e5832000 	str	r2, [r3]
/home/silhavyj/School/ZeroMate/examples/14-filesystem_monitor/kernel/src/process/process_manager.cpp:61
    mProcess_List_Head = procnode;
    aee8:	e51b3018 	ldr	r3, [fp, #-24]	; 0xffffffe8
    aeec:	e51b200c 	ldr	r2, [fp, #-12]
    aef0:	e5832004 	str	r2, [r3, #4]
/home/silhavyj/School/ZeroMate/examples/14-filesystem_monitor/kernel/src/process/process_manager.cpp:63

    if (mCurrent_Task_Node == nullptr)
    aef4:	e51b3018 	ldr	r3, [fp, #-24]	; 0xffffffe8
    aef8:	e5933008 	ldr	r3, [r3, #8]
    aefc:	e3530000 	cmp	r3, #0
    af00:	1a000002 	bne	af10 <_ZN16CProcess_Manager14Create_ProcessEm+0x74>
/home/silhavyj/School/ZeroMate/examples/14-filesystem_monitor/kernel/src/process/process_manager.cpp:65
    {
        mCurrent_Task_Node = procnode;
    af04:	e51b3018 	ldr	r3, [fp, #-24]	; 0xffffffe8
    af08:	e51b200c 	ldr	r2, [fp, #-12]
    af0c:	e5832008 	str	r2, [r3, #8]
/home/silhavyj/School/ZeroMate/examples/14-filesystem_monitor/kernel/src/process/process_manager.cpp:68
    }

    procnode->task = sKernelMem.Alloc<TTask_Struct>();
    af10:	e59f0164 	ldr	r0, [pc, #356]	; b07c <_ZN16CProcess_Manager14Create_ProcessEm+0x1e0>
    af14:	eb000278 	bl	b8fc <_ZN20CKernel_Heap_Manager5AllocI12TTask_StructEEPT_v>
    af18:	e1a02000 	mov	r2, r0
    af1c:	e51b300c 	ldr	r3, [fp, #-12]
    af20:	e5832008 	str	r2, [r3, #8]
/home/silhavyj/School/ZeroMate/examples/14-filesystem_monitor/kernel/src/process/process_manager.cpp:70

    auto* task = procnode->task;
    af24:	e51b300c 	ldr	r3, [fp, #-12]
    af28:	e5933008 	ldr	r3, [r3, #8]
    af2c:	e50b3010 	str	r3, [fp, #-16]
/home/silhavyj/School/ZeroMate/examples/14-filesystem_monitor/kernel/src/process/process_manager.cpp:72

    task->pid = ++mLast_PID;
    af30:	e51b3018 	ldr	r3, [fp, #-24]	; 0xffffffe8
    af34:	e5933000 	ldr	r3, [r3]
    af38:	e2832001 	add	r2, r3, #1
    af3c:	e51b3018 	ldr	r3, [fp, #-24]	; 0xffffffe8
    af40:	e5832000 	str	r2, [r3]
    af44:	e51b3018 	ldr	r3, [fp, #-24]	; 0xffffffe8
    af48:	e5932000 	ldr	r2, [r3]
    af4c:	e51b3010 	ldr	r3, [fp, #-16]
    af50:	e583200c 	str	r2, [r3, #12]
/home/silhavyj/School/ZeroMate/examples/14-filesystem_monitor/kernel/src/process/process_manager.cpp:73
    task->sched_static_priority = 5;    // TODO: pro ted je to jen hardcoded hodnota, do budoucna urcite bude nutne dovolit specifikovat
    af54:	e51b3010 	ldr	r3, [fp, #-16]
    af58:	e3a02005 	mov	r2, #5
    af5c:	e5832018 	str	r2, [r3, #24]
/home/silhavyj/School/ZeroMate/examples/14-filesystem_monitor/kernel/src/process/process_manager.cpp:74
    task->sched_counter = task->sched_static_priority;
    af60:	e51b3010 	ldr	r3, [fp, #-16]
    af64:	e5932018 	ldr	r2, [r3, #24]
    af68:	e51b3010 	ldr	r3, [fp, #-16]
    af6c:	e5832014 	str	r2, [r3, #20]
/home/silhavyj/School/ZeroMate/examples/14-filesystem_monitor/kernel/src/process/process_manager.cpp:75
    task->state = NTask_State::New;
    af70:	e51b3010 	ldr	r3, [fp, #-16]
    af74:	e3a02000 	mov	r2, #0
    af78:	e5832010 	str	r2, [r3, #16]
/home/silhavyj/School/ZeroMate/examples/14-filesystem_monitor/kernel/src/process/process_manager.cpp:77
    
    task->cpu_context.lr = funcptr;
    af7c:	e51b3010 	ldr	r3, [fp, #-16]
    af80:	e51b201c 	ldr	r2, [fp, #-28]	; 0xffffffe4
    af84:	e5832000 	str	r2, [r3]
/home/silhavyj/School/ZeroMate/examples/14-filesystem_monitor/kernel/src/process/process_manager.cpp:78
    task->cpu_context.pc = reinterpret_cast<unsigned long>(&process_bootstrap);
    af88:	e59f20f0 	ldr	r2, [pc, #240]	; b080 <_ZN16CProcess_Manager14Create_ProcessEm+0x1e4>
    af8c:	e51b3010 	ldr	r3, [fp, #-16]
    af90:	e5832008 	str	r2, [r3, #8]
/home/silhavyj/School/ZeroMate/examples/14-filesystem_monitor/kernel/src/process/process_manager.cpp:79
    task->cpu_context.sp = static_cast<unsigned long>(sPage_Manager.Alloc_Page()) + mem::PageSize;
    af94:	e59f00e8 	ldr	r0, [pc, #232]	; b084 <_ZN16CProcess_Manager14Create_ProcessEm+0x1e8>
    af98:	ebfffef6 	bl	ab78 <_ZN13CPage_Manager10Alloc_PageEv>
    af9c:	e1a03000 	mov	r3, r0
    afa0:	e2832901 	add	r2, r3, #16384	; 0x4000
    afa4:	e51b3010 	ldr	r3, [fp, #-16]
    afa8:	e5832004 	str	r2, [r3, #4]
/home/silhavyj/School/ZeroMate/examples/14-filesystem_monitor/kernel/src/process/process_manager.cpp:81

    for (uint32_t i = 0; i < Max_Process_Opened_Files; i++)
    afac:	e3a03000 	mov	r3, #0
    afb0:	e50b3008 	str	r3, [fp, #-8]
/home/silhavyj/School/ZeroMate/examples/14-filesystem_monitor/kernel/src/process/process_manager.cpp:81 (discriminator 3)
    afb4:	e51b3008 	ldr	r3, [fp, #-8]
    afb8:	e353000f 	cmp	r3, #15
    afbc:	8a00000a 	bhi	afec <_ZN16CProcess_Manager14Create_ProcessEm+0x150>
/home/silhavyj/School/ZeroMate/examples/14-filesystem_monitor/kernel/src/process/process_manager.cpp:82 (discriminator 2)
        task->opened_files[i] = nullptr;
    afc0:	e51b2010 	ldr	r2, [fp, #-16]
    afc4:	e51b3008 	ldr	r3, [fp, #-8]
    afc8:	e2833006 	add	r3, r3, #6
    afcc:	e1a03103 	lsl	r3, r3, #2
    afd0:	e0823003 	add	r3, r2, r3
    afd4:	e3a02000 	mov	r2, #0
    afd8:	e5832004 	str	r2, [r3, #4]
/home/silhavyj/School/ZeroMate/examples/14-filesystem_monitor/kernel/src/process/process_manager.cpp:81 (discriminator 2)
    for (uint32_t i = 0; i < Max_Process_Opened_Files; i++)
    afdc:	e51b3008 	ldr	r3, [fp, #-8]
    afe0:	e2833001 	add	r3, r3, #1
    afe4:	e50b3008 	str	r3, [fp, #-8]
    afe8:	eafffff1 	b	afb4 <_ZN16CProcess_Manager14Create_ProcessEm+0x118>
/home/silhavyj/School/ZeroMate/examples/14-filesystem_monitor/kernel/src/process/process_manager.cpp:84

    sMonitor << "Created process with pid " << (unsigned int)task->pid << " ("
    afec:	e59f1094 	ldr	r1, [pc, #148]	; b088 <_ZN16CProcess_Manager14Create_ProcessEm+0x1ec>
    aff0:	e59f0094 	ldr	r0, [pc, #148]	; b08c <_ZN16CProcess_Manager14Create_ProcessEm+0x1f0>
    aff4:	ebfff743 	bl	8d08 <_ZN8CMonitorlsEPKc>
    aff8:	e1a02000 	mov	r2, r0
    affc:	e51b3010 	ldr	r3, [fp, #-16]
    b000:	e593300c 	ldr	r3, [r3, #12]
    b004:	e1a01003 	mov	r1, r3
    b008:	e1a00002 	mov	r0, r2
    b00c:	ebfff768 	bl	8db4 <_ZN8CMonitorlsEj>
    b010:	e1a03000 	mov	r3, r0
    b014:	e59f1074 	ldr	r1, [pc, #116]	; b090 <_ZN16CProcess_Manager14Create_ProcessEm+0x1f4>
    b018:	e1a00003 	mov	r0, r3
    b01c:	ebfff739 	bl	8d08 <_ZN8CMonitorlsEPKc>
    b020:	e1a03000 	mov	r3, r0
/home/silhavyj/School/ZeroMate/examples/14-filesystem_monitor/kernel/src/process/process_manager.cpp:85
            << "SP = 0x" << CMonitor::NNumber_Base::HEX << (unsigned int)task->cpu_context.sp << ")\n";
    b024:	e59f1068 	ldr	r1, [pc, #104]	; b094 <_ZN16CProcess_Manager14Create_ProcessEm+0x1f8>
    b028:	e1a00003 	mov	r0, r3
    b02c:	ebfff735 	bl	8d08 <_ZN8CMonitorlsEPKc>
    b030:	e1a03000 	mov	r3, r0
    b034:	e3a01010 	mov	r1, #16
    b038:	e1a00003 	mov	r0, r3
    b03c:	ebfff74f 	bl	8d80 <_ZN8CMonitorlsENS_12NNumber_BaseE>
    b040:	e1a02000 	mov	r2, r0
    b044:	e51b3010 	ldr	r3, [fp, #-16]
    b048:	e5933004 	ldr	r3, [r3, #4]
    b04c:	e1a01003 	mov	r1, r3
    b050:	e1a00002 	mov	r0, r2
    b054:	ebfff756 	bl	8db4 <_ZN8CMonitorlsEj>
    b058:	e1a03000 	mov	r3, r0
    b05c:	e59f1034 	ldr	r1, [pc, #52]	; b098 <_ZN16CProcess_Manager14Create_ProcessEm+0x1fc>
    b060:	e1a00003 	mov	r0, r3
    b064:	ebfff727 	bl	8d08 <_ZN8CMonitorlsEPKc>
/home/silhavyj/School/ZeroMate/examples/14-filesystem_monitor/kernel/src/process/process_manager.cpp:87

    return task->pid;
    b068:	e51b3010 	ldr	r3, [fp, #-16]
    b06c:	e593300c 	ldr	r3, [r3, #12]
/home/silhavyj/School/ZeroMate/examples/14-filesystem_monitor/kernel/src/process/process_manager.cpp:88
}
    b070:	e1a00003 	mov	r0, r3
    b074:	e24bd004 	sub	sp, fp, #4
    b078:	e8bd8800 	pop	{fp, pc}
    b07c:	0000cb30 	andeq	ip, r0, r0, lsr fp
    b080:	0000b928 	andeq	fp, r0, r8, lsr #18
    b084:	0000cb34 	andeq	ip, r0, r4, lsr fp
    b088:	0000c884 	andeq	ip, r0, r4, lsl #17
    b08c:	0000ca64 	andeq	ip, r0, r4, ror #20
    b090:	0000c8a0 	andeq	ip, r0, r0, lsr #17
    b094:	0000c8a4 	andeq	ip, r0, r4, lsr #17
    b098:	0000c8ac 	andeq	ip, r0, ip, lsr #17

0000b09c <_ZN16CProcess_Manager8ScheduleEv>:
_ZN16CProcess_Manager8ScheduleEv():
/home/silhavyj/School/ZeroMate/examples/14-filesystem_monitor/kernel/src/process/process_manager.cpp:91

void CProcess_Manager::Schedule()
{
    b09c:	e92d4800 	push	{fp, lr}
    b0a0:	e28db004 	add	fp, sp, #4
    b0a4:	e24dd010 	sub	sp, sp, #16
    b0a8:	e50b0010 	str	r0, [fp, #-16]
/home/silhavyj/School/ZeroMate/examples/14-filesystem_monitor/kernel/src/process/process_manager.cpp:93
    // je nejaky proces naplanovany?
    if (mCurrent_Task_Node)
    b0ac:	e51b3010 	ldr	r3, [fp, #-16]
    b0b0:	e5933008 	ldr	r3, [r3, #8]
    b0b4:	e3530000 	cmp	r3, #0
    b0b8:	0a000011 	beq	b104 <_ZN16CProcess_Manager8ScheduleEv+0x68>
/home/silhavyj/School/ZeroMate/examples/14-filesystem_monitor/kernel/src/process/process_manager.cpp:96
    {
        // snizime citac planovace
        mCurrent_Task_Node->task->sched_counter--;
    b0bc:	e51b3010 	ldr	r3, [fp, #-16]
    b0c0:	e5933008 	ldr	r3, [r3, #8]
    b0c4:	e5933008 	ldr	r3, [r3, #8]
    b0c8:	e5932014 	ldr	r2, [r3, #20]
    b0cc:	e2422001 	sub	r2, r2, #1
    b0d0:	e5832014 	str	r2, [r3, #20]
/home/silhavyj/School/ZeroMate/examples/14-filesystem_monitor/kernel/src/process/process_manager.cpp:98
        // pokud je citac vetsi nez 0, zatim nebudeme preplanovavat (a zaroven je proces stale ve stavu Running - nezablokoval se nad necim)
        if (mCurrent_Task_Node->task->sched_counter > 0 && mCurrent_Task_Node->task->state == NTask_State::Running)
    b0d4:	e51b3010 	ldr	r3, [fp, #-16]
    b0d8:	e5933008 	ldr	r3, [r3, #8]
    b0dc:	e5933008 	ldr	r3, [r3, #8]
    b0e0:	e5933014 	ldr	r3, [r3, #20]
    b0e4:	e3530000 	cmp	r3, #0
    b0e8:	0a000005 	beq	b104 <_ZN16CProcess_Manager8ScheduleEv+0x68>
/home/silhavyj/School/ZeroMate/examples/14-filesystem_monitor/kernel/src/process/process_manager.cpp:98 (discriminator 1)
    b0ec:	e51b3010 	ldr	r3, [fp, #-16]
    b0f0:	e5933008 	ldr	r3, [r3, #8]
    b0f4:	e5933008 	ldr	r3, [r3, #8]
    b0f8:	e5933010 	ldr	r3, [r3, #16]
    b0fc:	e3530002 	cmp	r3, #2
    b100:	0a00003c 	beq	b1f8 <_ZN16CProcess_Manager8ScheduleEv+0x15c>
/home/silhavyj/School/ZeroMate/examples/14-filesystem_monitor/kernel/src/process/process_manager.cpp:105
    }

    // najdeme dalsi proces na planovani

    // vybereme dalsi proces v rade
    CProcess_List_Node* next = mCurrent_Task_Node ? mCurrent_Task_Node->next : mProcess_List_Head;
    b104:	e51b3010 	ldr	r3, [fp, #-16]
    b108:	e5933008 	ldr	r3, [r3, #8]
    b10c:	e3530000 	cmp	r3, #0
    b110:	0a000003 	beq	b124 <_ZN16CProcess_Manager8ScheduleEv+0x88>
/home/silhavyj/School/ZeroMate/examples/14-filesystem_monitor/kernel/src/process/process_manager.cpp:105 (discriminator 1)
    b114:	e51b3010 	ldr	r3, [fp, #-16]
    b118:	e5933008 	ldr	r3, [r3, #8]
    b11c:	e5933004 	ldr	r3, [r3, #4]
    b120:	ea000001 	b	b12c <_ZN16CProcess_Manager8ScheduleEv+0x90>
/home/silhavyj/School/ZeroMate/examples/14-filesystem_monitor/kernel/src/process/process_manager.cpp:105 (discriminator 2)
    b124:	e51b3010 	ldr	r3, [fp, #-16]
    b128:	e5933004 	ldr	r3, [r3, #4]
/home/silhavyj/School/ZeroMate/examples/14-filesystem_monitor/kernel/src/process/process_manager.cpp:105 (discriminator 4)
    b12c:	e50b3008 	str	r3, [fp, #-8]
/home/silhavyj/School/ZeroMate/examples/14-filesystem_monitor/kernel/src/process/process_manager.cpp:106 (discriminator 4)
    if (!next)
    b130:	e51b3008 	ldr	r3, [fp, #-8]
    b134:	e3530000 	cmp	r3, #0
    b138:	1a000002 	bne	b148 <_ZN16CProcess_Manager8ScheduleEv+0xac>
/home/silhavyj/School/ZeroMate/examples/14-filesystem_monitor/kernel/src/process/process_manager.cpp:107
        next = mProcess_List_Head;
    b13c:	e51b3010 	ldr	r3, [fp, #-16]
    b140:	e5933004 	ldr	r3, [r3, #4]
    b144:	e50b3008 	str	r3, [fp, #-8]
/home/silhavyj/School/ZeroMate/examples/14-filesystem_monitor/kernel/src/process/process_manager.cpp:111

    // proces k naplanovani musi bud byt ve stavu runnable (jiz nekdy bezel a muze bezet znovu) nebo running (pak jde o stavajici proces)
    // a nebo new (novy proces, ktery jeste nebyl planovany)
    while (next->task->state != NTask_State::Runnable && next->task->state != NTask_State::Running && next->task->state != NTask_State::New)
    b148:	e51b3008 	ldr	r3, [fp, #-8]
    b14c:	e5933008 	ldr	r3, [r3, #8]
    b150:	e5933010 	ldr	r3, [r3, #16]
    b154:	e3530001 	cmp	r3, #1
    b158:	0a000014 	beq	b1b0 <_ZN16CProcess_Manager8ScheduleEv+0x114>
/home/silhavyj/School/ZeroMate/examples/14-filesystem_monitor/kernel/src/process/process_manager.cpp:111 (discriminator 1)
    b15c:	e51b3008 	ldr	r3, [fp, #-8]
    b160:	e5933008 	ldr	r3, [r3, #8]
    b164:	e5933010 	ldr	r3, [r3, #16]
    b168:	e3530002 	cmp	r3, #2
    b16c:	0a00000f 	beq	b1b0 <_ZN16CProcess_Manager8ScheduleEv+0x114>
/home/silhavyj/School/ZeroMate/examples/14-filesystem_monitor/kernel/src/process/process_manager.cpp:111 (discriminator 2)
    b170:	e51b3008 	ldr	r3, [fp, #-8]
    b174:	e5933008 	ldr	r3, [r3, #8]
    b178:	e5933010 	ldr	r3, [r3, #16]
    b17c:	e3530000 	cmp	r3, #0
    b180:	0a00000a 	beq	b1b0 <_ZN16CProcess_Manager8ScheduleEv+0x114>
/home/silhavyj/School/ZeroMate/examples/14-filesystem_monitor/kernel/src/process/process_manager.cpp:113
    {
        if (!next)
    b184:	e51b3008 	ldr	r3, [fp, #-8]
    b188:	e3530000 	cmp	r3, #0
    b18c:	1a000003 	bne	b1a0 <_ZN16CProcess_Manager8ScheduleEv+0x104>
/home/silhavyj/School/ZeroMate/examples/14-filesystem_monitor/kernel/src/process/process_manager.cpp:115
        {
            next = mCurrent_Task_Node;
    b190:	e51b3010 	ldr	r3, [fp, #-16]
    b194:	e5933008 	ldr	r3, [r3, #8]
    b198:	e50b3008 	str	r3, [fp, #-8]
/home/silhavyj/School/ZeroMate/examples/14-filesystem_monitor/kernel/src/process/process_manager.cpp:116
            break;
    b19c:	ea000003 	b	b1b0 <_ZN16CProcess_Manager8ScheduleEv+0x114>
/home/silhavyj/School/ZeroMate/examples/14-filesystem_monitor/kernel/src/process/process_manager.cpp:119
        }
        else
            next = next->next;
    b1a0:	e51b3008 	ldr	r3, [fp, #-8]
    b1a4:	e5933004 	ldr	r3, [r3, #4]
    b1a8:	e50b3008 	str	r3, [fp, #-8]
/home/silhavyj/School/ZeroMate/examples/14-filesystem_monitor/kernel/src/process/process_manager.cpp:111
    while (next->task->state != NTask_State::Runnable && next->task->state != NTask_State::Running && next->task->state != NTask_State::New)
    b1ac:	eaffffe5 	b	b148 <_ZN16CProcess_Manager8ScheduleEv+0xac>
/home/silhavyj/School/ZeroMate/examples/14-filesystem_monitor/kernel/src/process/process_manager.cpp:123
    }

    // stavajici proces je jediny planovatelny - nemusime nic preplanovavat
    if (next == mCurrent_Task_Node)
    b1b0:	e51b3010 	ldr	r3, [fp, #-16]
    b1b4:	e5933008 	ldr	r3, [r3, #8]
    b1b8:	e51b2008 	ldr	r2, [fp, #-8]
    b1bc:	e1520003 	cmp	r2, r3
    b1c0:	1a000008 	bne	b1e8 <_ZN16CProcess_Manager8ScheduleEv+0x14c>
/home/silhavyj/School/ZeroMate/examples/14-filesystem_monitor/kernel/src/process/process_manager.cpp:126
    {
        // nastavime mu zase zpatky jeho pridel casovych kvant a vracime se
        mCurrent_Task_Node->task->sched_counter = mCurrent_Task_Node->task->sched_static_priority;
    b1c4:	e51b3010 	ldr	r3, [fp, #-16]
    b1c8:	e5933008 	ldr	r3, [r3, #8]
    b1cc:	e5932008 	ldr	r2, [r3, #8]
    b1d0:	e51b3010 	ldr	r3, [fp, #-16]
    b1d4:	e5933008 	ldr	r3, [r3, #8]
    b1d8:	e5933008 	ldr	r3, [r3, #8]
    b1dc:	e5922018 	ldr	r2, [r2, #24]
    b1e0:	e5832014 	str	r2, [r3, #20]
