
kernel.elf:     file format elf32-littlearm


Disassembly of section .text:

00000000 <_start>:
   0:	e3a0db01 	mov	sp, #1024	; 0x400
   4:	eb000038 	bl	ec <kernel_main>

00000008 <hang>:
   8:	eafffffe 	b	8 <hang>

0000000c <fib>:
   c:	e92d4810 	push	{r4, fp, lr}
  10:	e28db008 	add	fp, sp, #8
  14:	e24dd00c 	sub	sp, sp, #12
  18:	e50b0010 	str	r0, [fp, #-16]
  1c:	e50b1014 	str	r1, [fp, #-20]	; 0xffffffec
  20:	e51b3010 	ldr	r3, [fp, #-16]
  24:	e3530001 	cmp	r3, #1
  28:	ca000007 	bgt	4c <fib+0x40>
  2c:	e51b3010 	ldr	r3, [fp, #-16]
  30:	e1a03103 	lsl	r3, r3, #2
  34:	e51b2014 	ldr	r2, [fp, #-20]	; 0xffffffec
  38:	e0823003 	add	r3, r2, r3
  3c:	e51b2010 	ldr	r2, [fp, #-16]
  40:	e5832000 	str	r2, [r3]
  44:	e51b3010 	ldr	r3, [fp, #-16]
  48:	ea000023 	b	dc <fib+0xd0>
  4c:	e51b3010 	ldr	r3, [fp, #-16]
  50:	e1a03103 	lsl	r3, r3, #2
  54:	e51b2014 	ldr	r2, [fp, #-20]	; 0xffffffec
  58:	e0823003 	add	r3, r2, r3
  5c:	e5933000 	ldr	r3, [r3]
  60:	e3730001 	cmn	r3, #1
  64:	0a000005 	beq	80 <fib+0x74>
  68:	e51b3010 	ldr	r3, [fp, #-16]
  6c:	e1a03103 	lsl	r3, r3, #2
  70:	e51b2014 	ldr	r2, [fp, #-20]	; 0xffffffec
  74:	e0823003 	add	r3, r2, r3
  78:	e5933000 	ldr	r3, [r3]
  7c:	ea000016 	b	dc <fib+0xd0>
  80:	e51b3010 	ldr	r3, [fp, #-16]
  84:	e2433001 	sub	r3, r3, #1
  88:	e51b1014 	ldr	r1, [fp, #-20]	; 0xffffffec
  8c:	e1a00003 	mov	r0, r3
  90:	ebffffdd 	bl	c <fib>
  94:	e1a04000 	mov	r4, r0
  98:	e51b3010 	ldr	r3, [fp, #-16]
  9c:	e2433002 	sub	r3, r3, #2
  a0:	e51b1014 	ldr	r1, [fp, #-20]	; 0xffffffec
  a4:	e1a00003 	mov	r0, r3
  a8:	ebffffd7 	bl	c <fib>
  ac:	e1a01000 	mov	r1, r0
  b0:	e51b3010 	ldr	r3, [fp, #-16]
  b4:	e1a03103 	lsl	r3, r3, #2
  b8:	e51b2014 	ldr	r2, [fp, #-20]	; 0xffffffec
  bc:	e0823003 	add	r3, r2, r3
  c0:	e0842001 	add	r2, r4, r1
  c4:	e5832000 	str	r2, [r3]
  c8:	e51b3010 	ldr	r3, [fp, #-16]
  cc:	e1a03103 	lsl	r3, r3, #2
  d0:	e51b2014 	ldr	r2, [fp, #-20]	; 0xffffffec
  d4:	e0823003 	add	r3, r2, r3
  d8:	e5933000 	ldr	r3, [r3]
  dc:	e1a00003 	mov	r0, r3
  e0:	e24bd008 	sub	sp, fp, #8
  e4:	e8bd4810 	pop	{r4, fp, lr}
  e8:	e12fff1e 	bx	lr

000000ec <kernel_main>:
  ec:	e92d4810 	push	{r4, fp, lr}
  f0:	e28db008 	add	fp, sp, #8
  f4:	e24dd06c 	sub	sp, sp, #108	; 0x6c
  f8:	e3a03000 	mov	r3, #0
  fc:	e50b3010 	str	r3, [fp, #-16]
 100:	ea000008 	b	128 <kernel_main+0x3c>
 104:	e51b3010 	ldr	r3, [fp, #-16]
 108:	e1a03103 	lsl	r3, r3, #2
 10c:	e24b200c 	sub	r2, fp, #12
 110:	e0823003 	add	r3, r2, r3
 114:	e3e02000 	mvn	r2, #0
 118:	e5032064 	str	r2, [r3, #-100]	; 0xffffff9c
 11c:	e51b3010 	ldr	r3, [fp, #-16]
 120:	e2833001 	add	r3, r3, #1
 124:	e50b3010 	str	r3, [fp, #-16]
 128:	e51b3010 	ldr	r3, [fp, #-16]
 12c:	e3530017 	cmp	r3, #23
 130:	dafffff3 	ble	104 <kernel_main+0x18>
 134:	e24b3070 	sub	r3, fp, #112	; 0x70
 138:	e1a01003 	mov	r1, r3
 13c:	e3a0000a 	mov	r0, #10
 140:	ebffffb1 	bl	c <fib>
 144:	e1a04000 	mov	r4, r0
 148:	e24b3070 	sub	r3, fp, #112	; 0x70
 14c:	e1a01003 	mov	r1, r3
 150:	e3a0000f 	mov	r0, #15
 154:	ebffffac 	bl	c <fib>
 158:	e1a03000 	mov	r3, r0
 15c:	e0844003 	add	r4, r4, r3
 160:	e24b3070 	sub	r3, fp, #112	; 0x70
 164:	e1a01003 	mov	r1, r3
 168:	e3a00005 	mov	r0, #5
 16c:	ebffffa6 	bl	c <fib>
 170:	e1a03000 	mov	r3, r0
 174:	e0843003 	add	r3, r4, r3
 178:	e1a00003 	mov	r0, r3
 17c:	e24bd008 	sub	sp, fp, #8
 180:	e8bd4810 	pop	{r4, fp, lr}
 184:	e12fff1e 	bx	lr

Disassembly of section .ARM.attributes:

00000000 <.ARM.attributes>:
   0:	00002541 	andeq	r2, r0, r1, asr #10
   4:	61656100 	cmnvs	r5, r0, lsl #2
   8:	01006962 	tsteq	r0, r2, ror #18
   c:	0000001b 	andeq	r0, r0, fp, lsl r0
  10:	00543405 	subseq	r3, r4, r5, lsl #8
  14:	01080206 	tsteq	r8, r6, lsl #4
  18:	04120109 	ldreq	r0, [r2], #-265	; 0xfffffef7
  1c:	01150114 	tsteq	r5, r4, lsl r1
  20:	01180317 	tsteq	r8, r7, lsl r3
  24:	Address 0x0000000000000024 is out of bounds.


Disassembly of section .comment:

00000000 <.comment>:
   0:	3a434347 	bcc	10d0d24 <kernel_main+0x10d0c38>
   4:	35312820 	ldrcc	r2, [r1, #-2080]!	; 0xfffff7e0
   8:	322d393a 	eorcc	r3, sp, #950272	; 0xe8000
   c:	2d393130 	ldfcss	f3, [r9, #-192]!	; 0xffffff40
  10:	302d3471 	eorcc	r3, sp, r1, ror r4
  14:	6e756275 	mrcvs	2, 3, r6, cr5, cr5, {3}
  18:	29317574 	ldmdbcs	r1!, {r2, r4, r5, r6, r8, sl, ip, sp, lr}
  1c:	322e3920 	eorcc	r3, lr, #32, 18	; 0x80000
  20:	3220312e 	eorcc	r3, r0, #-2147483637	; 0x8000000b
  24:	31393130 	teqcc	r9, r0, lsr r1
  28:	20353230 	eorscs	r3, r5, r0, lsr r2
  2c:	6c657228 	sfmvs	f7, 2, [r5], #-160	; 0xffffff60
  30:	65736165 	ldrbvs	r6, [r3, #-357]!	; 0xfffffe9b
  34:	415b2029 	cmpmi	fp, r9, lsr #32
  38:	612f4d52 			; <UNDEFINED> instruction: 0x612f4d52
  3c:	392d6d72 	pushcc	{r1, r4, r5, r6, r8, sl, fp, sp, lr}
  40:	6172622d 	cmnvs	r2, sp, lsr #4
  44:	2068636e 	rsbcs	r6, r8, lr, ror #6
  48:	69766572 	ldmdbvs	r6!, {r1, r4, r5, r6, r8, sl, sp, lr}^
  4c:	6e6f6973 			; <UNDEFINED> instruction: 0x6e6f6973
  50:	37373220 	ldrcc	r3, [r7, -r0, lsr #4]!
  54:	5d393935 			; <UNDEFINED> instruction: 0x5d393935
	...
