
./kernel:     file format elf32-littlearm


Disassembly of section .text:

00008000 <_start>:
_start():
/mnt/c/Users/Kuba/Documents/ZeroMate/examples/17-FPU/kernel/src/start.s:8
;@ tady budou symboly, ktere chceme na zacatek kodove sekce
.section .text.start

;@ vstupni bod do kernelu - nechame ho vlozit na zacatek kodu
_start:
    mov sp,#0x8000			;@ nastavime stack pointer na spodek zasobniku
    8000:	e3a0d902 	mov	sp, #32768	; 0x8000
/mnt/c/Users/Kuba/Documents/ZeroMate/examples/17-FPU/kernel/src/start.s:9
	bl _c_startup			;@ C startup kod (inicializace prostredi)
    8004:	eb000057 	bl	8168 <_c_startup>
/mnt/c/Users/Kuba/Documents/ZeroMate/examples/17-FPU/kernel/src/start.s:10
	bl _cpp_startup			;@ C++ startup kod (volani globalnich konstruktoru, ...)
    8008:	eb000070 	bl	81d0 <_cpp_startup>
/mnt/c/Users/Kuba/Documents/ZeroMate/examples/17-FPU/kernel/src/start.s:11
    bl _kernel_main			;@ skocime do hlavniho kodu jadra (v C)
    800c:	eb00004a 	bl	813c <_kernel_main>
/mnt/c/Users/Kuba/Documents/ZeroMate/examples/17-FPU/kernel/src/start.s:12
	bl _cpp_shutdown		;@ C++ shutdown kod (volani globalnich destruktoru, ...)
    8010:	eb000084 	bl	8228 <_cpp_shutdown>

00008014 <hang>:
hang():
/mnt/c/Users/Kuba/Documents/ZeroMate/examples/17-FPU/kernel/src/start.s:14
hang:
    b hang
    8014:	eafffffe 	b	8014 <hang>

00008018 <__cxa_guard_acquire>:
__cxa_guard_acquire():
/mnt/c/Users/Kuba/Documents/ZeroMate/examples/17-FPU/kernel/src/cxx.cpp:11
    extern "C" int __cxa_guard_acquire(__guard*);
    extern "C" void __cxa_guard_release(__guard*);
    extern "C" void __cxa_guard_abort(__guard*);

    extern "C" int __cxa_guard_acquire(__guard* g)
    {
    8018:	e52db004 	push	{fp}		; (str fp, [sp, #-4]!)
    801c:	e28db000 	add	fp, sp, #0
    8020:	e24dd00c 	sub	sp, sp, #12
    8024:	e50b0008 	str	r0, [fp, #-8]
/mnt/c/Users/Kuba/Documents/ZeroMate/examples/17-FPU/kernel/src/cxx.cpp:12
        return !*(char*)(g);
    8028:	e51b3008 	ldr	r3, [fp, #-8]
    802c:	e5d33000 	ldrb	r3, [r3]
    8030:	e3530000 	cmp	r3, #0
    8034:	03a03001 	moveq	r3, #1
    8038:	13a03000 	movne	r3, #0
    803c:	e6ef3073 	uxtb	r3, r3
/mnt/c/Users/Kuba/Documents/ZeroMate/examples/17-FPU/kernel/src/cxx.cpp:13
    }
    8040:	e1a00003 	mov	r0, r3
    8044:	e28bd000 	add	sp, fp, #0
    8048:	e49db004 	pop	{fp}		; (ldr fp, [sp], #4)
    804c:	e12fff1e 	bx	lr

00008050 <__cxa_guard_release>:
__cxa_guard_release():
/mnt/c/Users/Kuba/Documents/ZeroMate/examples/17-FPU/kernel/src/cxx.cpp:16

    extern "C" void __cxa_guard_release(__guard* g)
    {
    8050:	e52db004 	push	{fp}		; (str fp, [sp, #-4]!)
    8054:	e28db000 	add	fp, sp, #0
    8058:	e24dd00c 	sub	sp, sp, #12
    805c:	e50b0008 	str	r0, [fp, #-8]
/mnt/c/Users/Kuba/Documents/ZeroMate/examples/17-FPU/kernel/src/cxx.cpp:17
        *(char*)g = 1;
    8060:	e51b3008 	ldr	r3, [fp, #-8]
    8064:	e3a02001 	mov	r2, #1
    8068:	e5c32000 	strb	r2, [r3]
/mnt/c/Users/Kuba/Documents/ZeroMate/examples/17-FPU/kernel/src/cxx.cpp:18
    }
    806c:	e320f000 	nop	{0}
    8070:	e28bd000 	add	sp, fp, #0
    8074:	e49db004 	pop	{fp}		; (ldr fp, [sp], #4)
    8078:	e12fff1e 	bx	lr

0000807c <__cxa_guard_abort>:
__cxa_guard_abort():
/mnt/c/Users/Kuba/Documents/ZeroMate/examples/17-FPU/kernel/src/cxx.cpp:21

    extern "C" void __cxa_guard_abort(__guard*)
    {
    807c:	e52db004 	push	{fp}		; (str fp, [sp, #-4]!)
    8080:	e28db000 	add	fp, sp, #0
    8084:	e24dd00c 	sub	sp, sp, #12
    8088:	e50b0008 	str	r0, [fp, #-8]
/mnt/c/Users/Kuba/Documents/ZeroMate/examples/17-FPU/kernel/src/cxx.cpp:22
    }
    808c:	e320f000 	nop	{0}
    8090:	e28bd000 	add	sp, fp, #0
    8094:	e49db004 	pop	{fp}		; (ldr fp, [sp], #4)
    8098:	e12fff1e 	bx	lr

0000809c <__dso_handle>:
__dso_handle():
/mnt/c/Users/Kuba/Documents/ZeroMate/examples/17-FPU/kernel/src/cxx.cpp:26
}

extern "C" void __dso_handle()
{
    809c:	e52db004 	push	{fp}		; (str fp, [sp, #-4]!)
    80a0:	e28db000 	add	fp, sp, #0
/mnt/c/Users/Kuba/Documents/ZeroMate/examples/17-FPU/kernel/src/cxx.cpp:28
    // ignore dtors for now
}
    80a4:	e320f000 	nop	{0}
    80a8:	e28bd000 	add	sp, fp, #0
    80ac:	e49db004 	pop	{fp}		; (ldr fp, [sp], #4)
    80b0:	e12fff1e 	bx	lr

000080b4 <__cxa_atexit>:
__cxa_atexit():
/mnt/c/Users/Kuba/Documents/ZeroMate/examples/17-FPU/kernel/src/cxx.cpp:31

extern "C" void __cxa_atexit()
{
    80b4:	e52db004 	push	{fp}		; (str fp, [sp, #-4]!)
    80b8:	e28db000 	add	fp, sp, #0
/mnt/c/Users/Kuba/Documents/ZeroMate/examples/17-FPU/kernel/src/cxx.cpp:33
    // ignore dtors for now
}
    80bc:	e320f000 	nop	{0}
    80c0:	e28bd000 	add	sp, fp, #0
    80c4:	e49db004 	pop	{fp}		; (ldr fp, [sp], #4)
    80c8:	e12fff1e 	bx	lr

000080cc <__cxa_pure_virtual>:
__cxa_pure_virtual():
/mnt/c/Users/Kuba/Documents/ZeroMate/examples/17-FPU/kernel/src/cxx.cpp:36

extern "C" void __cxa_pure_virtual()
{
    80cc:	e52db004 	push	{fp}		; (str fp, [sp, #-4]!)
    80d0:	e28db000 	add	fp, sp, #0
/mnt/c/Users/Kuba/Documents/ZeroMate/examples/17-FPU/kernel/src/cxx.cpp:38
    // pure virtual method called
}
    80d4:	e320f000 	nop	{0}
    80d8:	e28bd000 	add	sp, fp, #0
    80dc:	e49db004 	pop	{fp}		; (ldr fp, [sp], #4)
    80e0:	e12fff1e 	bx	lr

000080e4 <__aeabi_unwind_cpp_pr1>:
__aeabi_unwind_cpp_pr1():
/mnt/c/Users/Kuba/Documents/ZeroMate/examples/17-FPU/kernel/src/cxx.cpp:41

extern "C" void __aeabi_unwind_cpp_pr1()
{
    80e4:	e52db004 	push	{fp}		; (str fp, [sp, #-4]!)
    80e8:	e28db000 	add	fp, sp, #0
/mnt/c/Users/Kuba/Documents/ZeroMate/examples/17-FPU/kernel/src/cxx.cpp:42 (discriminator 1)
    while (true)
    80ec:	eafffffe 	b	80ec <__aeabi_unwind_cpp_pr1+0x8>

000080f0 <_Z21Fahrenheit_To_Celsiusf>:
_Z21Fahrenheit_To_Celsiusf():
/mnt/c/Users/Kuba/Documents/ZeroMate/examples/17-FPU/kernel/src/main.cpp:2
float Fahrenheit_To_Celsius(float fahrenheit)
{
    80f0:	e52db004 	push	{fp}		; (str fp, [sp, #-4]!)
    80f4:	e28db000 	add	fp, sp, #0
    80f8:	e24dd00c 	sub	sp, sp, #12
    80fc:	ed0b0a02 	vstr	s0, [fp, #-8]
/mnt/c/Users/Kuba/Documents/ZeroMate/examples/17-FPU/kernel/src/main.cpp:3
    return (fahrenheit - 32) * 5.0f / 9.0f;
    8100:	ed5b7a02 	vldr	s15, [fp, #-8]
    8104:	ed9f7a09 	vldr	s14, [pc, #36]	; 8130 <_Z21Fahrenheit_To_Celsiusf+0x40>
    8108:	ee777ac7 	vsub.f32	s15, s15, s14
    810c:	ed9f7a08 	vldr	s14, [pc, #32]	; 8134 <_Z21Fahrenheit_To_Celsiusf+0x44>
    8110:	ee677a87 	vmul.f32	s15, s15, s14
    8114:	ed9f7a07 	vldr	s14, [pc, #28]	; 8138 <_Z21Fahrenheit_To_Celsiusf+0x48>
    8118:	eec76a87 	vdiv.f32	s13, s15, s14
    811c:	eef07a66 	vmov.f32	s15, s13
/mnt/c/Users/Kuba/Documents/ZeroMate/examples/17-FPU/kernel/src/main.cpp:4
}
    8120:	eeb00a67 	vmov.f32	s0, s15
    8124:	e28bd000 	add	sp, fp, #0
    8128:	e49db004 	pop	{fp}		; (ldr fp, [sp], #4)
    812c:	e12fff1e 	bx	lr
    8130:	42000000 	andmi	r0, r0, #0
    8134:	40a00000 	adcmi	r0, r0, r0
    8138:	41100000 	tstmi	r0, r0

0000813c <_kernel_main>:
_kernel_main():
/mnt/c/Users/Kuba/Documents/ZeroMate/examples/17-FPU/kernel/src/main.cpp:7

extern "C" int _kernel_main()
{
    813c:	e92d4800 	push	{fp, lr}
    8140:	e28db004 	add	fp, sp, #4
    8144:	e24dd008 	sub	sp, sp, #8
/mnt/c/Users/Kuba/Documents/ZeroMate/examples/17-FPU/kernel/src/main.cpp:8
    int celsius = Fahrenheit_To_Celsius(100.0f);
    8148:	ed9f0a05 	vldr	s0, [pc, #20]	; 8164 <_kernel_main+0x28>
    814c:	ebffffe7 	bl	80f0 <_Z21Fahrenheit_To_Celsiusf>
    8150:	eef07a40 	vmov.f32	s15, s0
    8154:	eefd7ae7 	vcvt.s32.f32	s15, s15
    8158:	ee173a90 	vmov	r3, s15
    815c:	e50b3008 	str	r3, [fp, #-8]
/mnt/c/Users/Kuba/Documents/ZeroMate/examples/17-FPU/kernel/src/main.cpp:10 (discriminator 1)

    while (1)
    8160:	eafffffe 	b	8160 <_kernel_main+0x24>
    8164:	42c80000 	sbcmi	r0, r8, #0

00008168 <_c_startup>:
_c_startup():
/mnt/c/Users/Kuba/Documents/ZeroMate/examples/17-FPU/kernel/src/startup.cpp:21
extern "C" dtor_ptr __DTOR_LIST__[0];
// konec pole destruktoru
extern "C" dtor_ptr __DTOR_END__[0];

extern "C" int _c_startup(void)
{
    8168:	e52db004 	push	{fp}		; (str fp, [sp, #-4]!)
    816c:	e28db000 	add	fp, sp, #0
    8170:	e24dd00c 	sub	sp, sp, #12
/mnt/c/Users/Kuba/Documents/ZeroMate/examples/17-FPU/kernel/src/startup.cpp:25
    int* i;

    // vynulujeme .bss sekci
    for (i = (int*)_bss_start; i < (int*)_bss_end; i++)
    8174:	e59f304c 	ldr	r3, [pc, #76]	; 81c8 <_c_startup+0x60>
    8178:	e5933000 	ldr	r3, [r3]
    817c:	e50b3008 	str	r3, [fp, #-8]
/mnt/c/Users/Kuba/Documents/ZeroMate/examples/17-FPU/kernel/src/startup.cpp:25 (discriminator 3)
    8180:	e59f3044 	ldr	r3, [pc, #68]	; 81cc <_c_startup+0x64>
    8184:	e5933000 	ldr	r3, [r3]
    8188:	e1a02003 	mov	r2, r3
    818c:	e51b3008 	ldr	r3, [fp, #-8]
    8190:	e1530002 	cmp	r3, r2
    8194:	2a000006 	bcs	81b4 <_c_startup+0x4c>
/mnt/c/Users/Kuba/Documents/ZeroMate/examples/17-FPU/kernel/src/startup.cpp:26 (discriminator 2)
        *i = 0;
    8198:	e51b3008 	ldr	r3, [fp, #-8]
    819c:	e3a02000 	mov	r2, #0
    81a0:	e5832000 	str	r2, [r3]
/mnt/c/Users/Kuba/Documents/ZeroMate/examples/17-FPU/kernel/src/startup.cpp:25 (discriminator 2)
    for (i = (int*)_bss_start; i < (int*)_bss_end; i++)
    81a4:	e51b3008 	ldr	r3, [fp, #-8]
    81a8:	e2833004 	add	r3, r3, #4
    81ac:	e50b3008 	str	r3, [fp, #-8]
    81b0:	eafffff2 	b	8180 <_c_startup+0x18>
/mnt/c/Users/Kuba/Documents/ZeroMate/examples/17-FPU/kernel/src/startup.cpp:28

    return 0;
    81b4:	e3a03000 	mov	r3, #0
/mnt/c/Users/Kuba/Documents/ZeroMate/examples/17-FPU/kernel/src/startup.cpp:29
}
    81b8:	e1a00003 	mov	r0, r3
    81bc:	e28bd000 	add	sp, fp, #0
    81c0:	e49db004 	pop	{fp}		; (ldr fp, [sp], #4)
    81c4:	e12fff1e 	bx	lr
    81c8:	00008280 	andeq	r8, r0, r0, lsl #5
    81cc:	00008290 	muleq	r0, r0, r2

000081d0 <_cpp_startup>:
_cpp_startup():
/mnt/c/Users/Kuba/Documents/ZeroMate/examples/17-FPU/kernel/src/startup.cpp:32

extern "C" int _cpp_startup(void)
{
    81d0:	e92d4800 	push	{fp, lr}
    81d4:	e28db004 	add	fp, sp, #4
    81d8:	e24dd008 	sub	sp, sp, #8
/mnt/c/Users/Kuba/Documents/ZeroMate/examples/17-FPU/kernel/src/startup.cpp:37
    ctor_ptr* fnptr;

    // zavolame konstruktory globalnich C++ trid
    // v poli __CTOR_LIST__ jsou ukazatele na vygenerovane stuby volani konstruktoru
    for (fnptr = __CTOR_LIST__; fnptr < __CTOR_END__; fnptr++)
    81dc:	e59f303c 	ldr	r3, [pc, #60]	; 8220 <_cpp_startup+0x50>
    81e0:	e50b3008 	str	r3, [fp, #-8]
/mnt/c/Users/Kuba/Documents/ZeroMate/examples/17-FPU/kernel/src/startup.cpp:37 (discriminator 3)
    81e4:	e51b3008 	ldr	r3, [fp, #-8]
    81e8:	e59f2034 	ldr	r2, [pc, #52]	; 8224 <_cpp_startup+0x54>
    81ec:	e1530002 	cmp	r3, r2
    81f0:	2a000006 	bcs	8210 <_cpp_startup+0x40>
/mnt/c/Users/Kuba/Documents/ZeroMate/examples/17-FPU/kernel/src/startup.cpp:38 (discriminator 2)
        (*fnptr)();
    81f4:	e51b3008 	ldr	r3, [fp, #-8]
    81f8:	e5933000 	ldr	r3, [r3]
    81fc:	e12fff33 	blx	r3
/mnt/c/Users/Kuba/Documents/ZeroMate/examples/17-FPU/kernel/src/startup.cpp:37 (discriminator 2)
    for (fnptr = __CTOR_LIST__; fnptr < __CTOR_END__; fnptr++)
    8200:	e51b3008 	ldr	r3, [fp, #-8]
    8204:	e2833004 	add	r3, r3, #4
    8208:	e50b3008 	str	r3, [fp, #-8]
    820c:	eafffff4 	b	81e4 <_cpp_startup+0x14>
/mnt/c/Users/Kuba/Documents/ZeroMate/examples/17-FPU/kernel/src/startup.cpp:40

    return 0;
    8210:	e3a03000 	mov	r3, #0
/mnt/c/Users/Kuba/Documents/ZeroMate/examples/17-FPU/kernel/src/startup.cpp:41
}
    8214:	e1a00003 	mov	r0, r3
    8218:	e24bd004 	sub	sp, fp, #4
    821c:	e8bd8800 	pop	{fp, pc}
    8220:	00008280 	andeq	r8, r0, r0, lsl #5
    8224:	00008280 	andeq	r8, r0, r0, lsl #5

00008228 <_cpp_shutdown>:
_cpp_shutdown():
/mnt/c/Users/Kuba/Documents/ZeroMate/examples/17-FPU/kernel/src/startup.cpp:44

extern "C" int _cpp_shutdown(void)
{
    8228:	e92d4800 	push	{fp, lr}
    822c:	e28db004 	add	fp, sp, #4
    8230:	e24dd008 	sub	sp, sp, #8
/mnt/c/Users/Kuba/Documents/ZeroMate/examples/17-FPU/kernel/src/startup.cpp:48
    dtor_ptr* fnptr;

    // zavolame destruktory globalnich C++ trid
    for (fnptr = __DTOR_LIST__; fnptr < __DTOR_END__; fnptr++)
    8234:	e59f303c 	ldr	r3, [pc, #60]	; 8278 <_cpp_shutdown+0x50>
    8238:	e50b3008 	str	r3, [fp, #-8]
/mnt/c/Users/Kuba/Documents/ZeroMate/examples/17-FPU/kernel/src/startup.cpp:48 (discriminator 3)
    823c:	e51b3008 	ldr	r3, [fp, #-8]
    8240:	e59f2034 	ldr	r2, [pc, #52]	; 827c <_cpp_shutdown+0x54>
    8244:	e1530002 	cmp	r3, r2
    8248:	2a000006 	bcs	8268 <_cpp_shutdown+0x40>
/mnt/c/Users/Kuba/Documents/ZeroMate/examples/17-FPU/kernel/src/startup.cpp:49 (discriminator 2)
        (*fnptr)();
    824c:	e51b3008 	ldr	r3, [fp, #-8]
    8250:	e5933000 	ldr	r3, [r3]
    8254:	e12fff33 	blx	r3
/mnt/c/Users/Kuba/Documents/ZeroMate/examples/17-FPU/kernel/src/startup.cpp:48 (discriminator 2)
    for (fnptr = __DTOR_LIST__; fnptr < __DTOR_END__; fnptr++)
    8258:	e51b3008 	ldr	r3, [fp, #-8]
    825c:	e2833004 	add	r3, r3, #4
    8260:	e50b3008 	str	r3, [fp, #-8]
    8264:	eafffff4 	b	823c <_cpp_shutdown+0x14>
/mnt/c/Users/Kuba/Documents/ZeroMate/examples/17-FPU/kernel/src/startup.cpp:51

    return 0;
    8268:	e3a03000 	mov	r3, #0
/mnt/c/Users/Kuba/Documents/ZeroMate/examples/17-FPU/kernel/src/startup.cpp:52
}
    826c:	e1a00003 	mov	r0, r3
    8270:	e24bd004 	sub	sp, fp, #4
    8274:	e8bd8800 	pop	{fp, pc}
    8278:	00008280 	andeq	r8, r0, r0, lsl #5
    827c:	00008280 	andeq	r8, r0, r0, lsl #5
