
./kernel:     file format elf32-littlearm


Disassembly of section .text:

00008000 <_start>:
_start():
/mnt/c/Users/Kuba/Documents/ZeroMate/examples/20-UART_game/kernel/src/start.s:14
	;@	- sem skoci bootloader, prvni na co narazi je "ldr pc, _reset_ptr" -> tedy se chova jako kdyby slo o reset a skoci na zacatek provadeni
	;@	- v cele svoji krase (vsechny "ldr" instrukce) slouzi jako predloha skutecne tabulce vektoru preruseni
	;@ na dany offset procesor skoci, kdyz je vyvolano libovolne preruseni
	;@ ARM nastavuje rovnou registr PC na tuto adresu, tzn. na teto adrese musi byt kodovana 4B instrukce skoku nekam jinam
	;@ oproti tomu napr. x86 (x86_64) obsahuje v tabulce rovnou adresu a procesor nastavuje PC (CS:IP) na adresu kterou najde v tabulce
	ldr pc, _reset_ptr						;@ 0x00 - reset - vyvolano pri resetu procesoru
    8000:	e59ff018 	ldr	pc, [pc, #24]	; 8020 <_reset_ptr>
/mnt/c/Users/Kuba/Documents/ZeroMate/examples/20-UART_game/kernel/src/start.s:15
	ldr pc, _undefined_instruction_ptr		;@ 0x04 - undefined instruction - vyjimka, vyvolana pri dekodovani nezname instrukce
    8004:	e59ff018 	ldr	pc, [pc, #24]	; 8024 <_undefined_instruction_ptr>
/mnt/c/Users/Kuba/Documents/ZeroMate/examples/20-UART_game/kernel/src/start.s:16
	ldr pc, _software_interrupt_ptr			;@ 0x08 - software interrupt - vyvolano, kdyz procesor provede instrukci swi
    8008:	e59ff018 	ldr	pc, [pc, #24]	; 8028 <_software_interrupt_ptr>
/mnt/c/Users/Kuba/Documents/ZeroMate/examples/20-UART_game/kernel/src/start.s:17
	ldr pc, _prefetch_abort_ptr				;@ 0x0C - prefetch abort - vyvolano, kdyz se procesor snazi napr. nacist instrukci z mista, odkud nacist nejde
    800c:	e59ff018 	ldr	pc, [pc, #24]	; 802c <_prefetch_abort_ptr>
/mnt/c/Users/Kuba/Documents/ZeroMate/examples/20-UART_game/kernel/src/start.s:18
	ldr pc, _data_abort_ptr					;@ 0x10 - data abort - vyvolano, kdyz se procesor snazi napr. nacist data z mista, odkud nacist nejdou
    8010:	e59ff018 	ldr	pc, [pc, #24]	; 8030 <_data_abort_ptr>
/mnt/c/Users/Kuba/Documents/ZeroMate/examples/20-UART_game/kernel/src/start.s:19
	ldr pc, _unused_handler_ptr				;@ 0x14 - unused - ve specifikaci ARM neni uvedeno zadne vyuziti
    8014:	e59ff018 	ldr	pc, [pc, #24]	; 8034 <_unused_handler_ptr>
/mnt/c/Users/Kuba/Documents/ZeroMate/examples/20-UART_game/kernel/src/start.s:20
	ldr pc, _irq_ptr						;@ 0x18 - IRQ - hardwarove preruseni (general purpose)
    8018:	e59ff018 	ldr	pc, [pc, #24]	; 8038 <_irq_ptr>
/mnt/c/Users/Kuba/Documents/ZeroMate/examples/20-UART_game/kernel/src/start.s:21
	ldr pc, _fast_interrupt_ptr				;@ 0x1C - fast interrupt request - prioritni IRQ pro vysokorychlostni zalezitosti
    801c:	e59ff018 	ldr	pc, [pc, #24]	; 803c <_fast_interrupt_ptr>

00008020 <_reset_ptr>:
_reset_ptr():
/mnt/c/Users/Kuba/Documents/ZeroMate/examples/20-UART_game/kernel/src/start.s:21
    8020:	00008040 	andeq	r8, r0, r0, asr #32

00008024 <_undefined_instruction_ptr>:
_undefined_instruction_ptr():
/mnt/c/Users/Kuba/Documents/ZeroMate/examples/20-UART_game/kernel/src/start.s:21
    8024:	00009de4 	andeq	r9, r0, r4, ror #27

00008028 <_software_interrupt_ptr>:
_software_interrupt_ptr():
/mnt/c/Users/Kuba/Documents/ZeroMate/examples/20-UART_game/kernel/src/start.s:21
    8028:	00009ac0 	andeq	r9, r0, r0, asr #21

0000802c <_prefetch_abort_ptr>:
_prefetch_abort_ptr():
/mnt/c/Users/Kuba/Documents/ZeroMate/examples/20-UART_game/kernel/src/start.s:21
    802c:	00009de8 	andeq	r9, r0, r8, ror #27

00008030 <_data_abort_ptr>:
_data_abort_ptr():
/mnt/c/Users/Kuba/Documents/ZeroMate/examples/20-UART_game/kernel/src/start.s:21
    8030:	00009dec 	andeq	r9, r0, ip, ror #27

00008034 <_unused_handler_ptr>:
_unused_handler_ptr():
/mnt/c/Users/Kuba/Documents/ZeroMate/examples/20-UART_game/kernel/src/start.s:21
    8034:	00008040 	andeq	r8, r0, r0, asr #32

00008038 <_irq_ptr>:
_irq_ptr():
/mnt/c/Users/Kuba/Documents/ZeroMate/examples/20-UART_game/kernel/src/start.s:21
    8038:	00009ad8 	ldrdeq	r9, [r0], -r8

0000803c <_fast_interrupt_ptr>:
_fast_interrupt_ptr():
/mnt/c/Users/Kuba/Documents/ZeroMate/examples/20-UART_game/kernel/src/start.s:21
    803c:	00009b14 	andeq	r9, r0, r4, lsl fp

00008040 <_reset>:
_reset():
/mnt/c/Users/Kuba/Documents/ZeroMate/examples/20-UART_game/kernel/src/start.s:50
.equ    CPSR_FIQ_INHIBIT,       0x40


;@ kernel reset vektor - tento kod se vykona pri kazdem resetu zarizeni (i prvnim spusteni)
_reset:
	mov sp, #0x8000			;@ nastavime stack pointer na spodek zasobniku
    8040:	e3a0d902 	mov	sp, #32768	; 0x8000
/mnt/c/Users/Kuba/Documents/ZeroMate/examples/20-UART_game/kernel/src/start.s:53

	;@ nacteni tabulky vektoru preruseni do pameti
	mov r0, #0x8000			;@ adresa 0x8000 (_start) do r0
    8044:	e3a00902 	mov	r0, #32768	; 0x8000
/mnt/c/Users/Kuba/Documents/ZeroMate/examples/20-UART_game/kernel/src/start.s:54
    mov r1, #0x0000			;@ adresa 0x0000 (pocatek RAM) do r1 - tam budeme vkladat tabulku vektoru preruseni
    8048:	e3a01000 	mov	r1, #0
/mnt/c/Users/Kuba/Documents/ZeroMate/examples/20-UART_game/kernel/src/start.s:58

	;@ Thumb instrukce - nacteni 4B slov z pameti ulozene v r0 (0x8000) do registru r2, 3, ... 9
	;@                 - ulozeni obsahu registru r2, 3, ... 9 do pameti ulozene v registru r1 (0x0000)
    ldmia r0!,{r2, r3, r4, r5, r6, r7, r8, r9}
    804c:	e8b003fc 	ldm	r0!, {r2, r3, r4, r5, r6, r7, r8, r9}
/mnt/c/Users/Kuba/Documents/ZeroMate/examples/20-UART_game/kernel/src/start.s:59
    stmia r1!,{r2, r3, r4, r5, r6, r7, r8, r9}
    8050:	e8a103fc 	stmia	r1!, {r2, r3, r4, r5, r6, r7, r8, r9}
/mnt/c/Users/Kuba/Documents/ZeroMate/examples/20-UART_game/kernel/src/start.s:60
    ldmia r0!,{r2, r3, r4, r5, r6, r7, r8, r9}
    8054:	e8b003fc 	ldm	r0!, {r2, r3, r4, r5, r6, r7, r8, r9}
/mnt/c/Users/Kuba/Documents/ZeroMate/examples/20-UART_game/kernel/src/start.s:61
    stmia r1!,{r2, r3, r4, r5, r6, r7, r8, r9}
    8058:	e8a103fc 	stmia	r1!, {r2, r3, r4, r5, r6, r7, r8, r9}
/mnt/c/Users/Kuba/Documents/ZeroMate/examples/20-UART_game/kernel/src/start.s:64

	;@ na moment se prepneme do IRQ rezimu, nastavime mu stack pointer
	mov r0, #(CPSR_MODE_IRQ | CPSR_IRQ_INHIBIT | CPSR_FIQ_INHIBIT)
    805c:	e3a000d2 	mov	r0, #210	; 0xd2
/mnt/c/Users/Kuba/Documents/ZeroMate/examples/20-UART_game/kernel/src/start.s:65
    msr cpsr_c, r0
    8060:	e121f000 	msr	CPSR_c, r0
/mnt/c/Users/Kuba/Documents/ZeroMate/examples/20-UART_game/kernel/src/start.s:66
    mov sp, #0x7000
    8064:	e3a0da07 	mov	sp, #28672	; 0x7000
/mnt/c/Users/Kuba/Documents/ZeroMate/examples/20-UART_game/kernel/src/start.s:69

	;@ na moment se prepneme do FIQ rezimu, nastavime mu stack pointer
	mov r0, #(CPSR_MODE_FIQ | CPSR_IRQ_INHIBIT | CPSR_FIQ_INHIBIT)
    8068:	e3a000d1 	mov	r0, #209	; 0xd1
/mnt/c/Users/Kuba/Documents/ZeroMate/examples/20-UART_game/kernel/src/start.s:70
    msr cpsr_c, r0
    806c:	e121f000 	msr	CPSR_c, r0
/mnt/c/Users/Kuba/Documents/ZeroMate/examples/20-UART_game/kernel/src/start.s:71
    mov sp, #0x6000
    8070:	e3a0da06 	mov	sp, #24576	; 0x6000
/mnt/c/Users/Kuba/Documents/ZeroMate/examples/20-UART_game/kernel/src/start.s:74

	;@ a vracime se zpet do supervisor modu, SP si nastavime zpet na nasi hodnotu
    mov r0, #(CPSR_MODE_SVR | CPSR_IRQ_INHIBIT | CPSR_FIQ_INHIBIT)
    8074:	e3a000d3 	mov	r0, #211	; 0xd3
/mnt/c/Users/Kuba/Documents/ZeroMate/examples/20-UART_game/kernel/src/start.s:75
    msr cpsr_c, r0
    8078:	e121f000 	msr	CPSR_c, r0
/mnt/c/Users/Kuba/Documents/ZeroMate/examples/20-UART_game/kernel/src/start.s:76
    mov sp, #0x8000
    807c:	e3a0d902 	mov	sp, #32768	; 0x8000
/mnt/c/Users/Kuba/Documents/ZeroMate/examples/20-UART_game/kernel/src/start.s:78

	bl _c_startup			;@ C startup kod (inicializace prostredi)
    8080:	eb00075a 	bl	9df0 <_c_startup>
/mnt/c/Users/Kuba/Documents/ZeroMate/examples/20-UART_game/kernel/src/start.s:79
	bl _cpp_startup			;@ C++ startup kod (volani globalnich konstruktoru, ...)
    8084:	eb000773 	bl	9e58 <_cpp_startup>
/mnt/c/Users/Kuba/Documents/ZeroMate/examples/20-UART_game/kernel/src/start.s:80
	bl _kernel_main			;@ skocime do hlavniho kodu jadra (v C)
    8088:	eb000732 	bl	9d58 <_kernel_main>
/mnt/c/Users/Kuba/Documents/ZeroMate/examples/20-UART_game/kernel/src/start.s:81
	bl _cpp_shutdown		;@ C++ shutdown kod (volani globalnich destruktoru, ...)
    808c:	eb000787 	bl	9eb0 <_cpp_shutdown>

00008090 <hang>:
hang():
/mnt/c/Users/Kuba/Documents/ZeroMate/examples/20-UART_game/kernel/src/start.s:83
hang:
	b hang
    8090:	eafffffe 	b	8090 <hang>

00008094 <__cxa_guard_acquire>:
__cxa_guard_acquire():
/mnt/c/Users/Kuba/Documents/ZeroMate/examples/20-UART_game/kernel/src/cxx.cpp:11
    extern "C" int __cxa_guard_acquire(__guard*);
    extern "C" void __cxa_guard_release(__guard*);
    extern "C" void __cxa_guard_abort(__guard*);

    extern "C" int __cxa_guard_acquire(__guard* g)
    {
    8094:	e52db004 	push	{fp}		; (str fp, [sp, #-4]!)
    8098:	e28db000 	add	fp, sp, #0
    809c:	e24dd00c 	sub	sp, sp, #12
    80a0:	e50b0008 	str	r0, [fp, #-8]
/mnt/c/Users/Kuba/Documents/ZeroMate/examples/20-UART_game/kernel/src/cxx.cpp:12
        return !*(char*)(g);
    80a4:	e51b3008 	ldr	r3, [fp, #-8]
    80a8:	e5d33000 	ldrb	r3, [r3]
    80ac:	e3530000 	cmp	r3, #0
    80b0:	03a03001 	moveq	r3, #1
    80b4:	13a03000 	movne	r3, #0
    80b8:	e6ef3073 	uxtb	r3, r3
/mnt/c/Users/Kuba/Documents/ZeroMate/examples/20-UART_game/kernel/src/cxx.cpp:13
    }
    80bc:	e1a00003 	mov	r0, r3
    80c0:	e28bd000 	add	sp, fp, #0
    80c4:	e49db004 	pop	{fp}		; (ldr fp, [sp], #4)
    80c8:	e12fff1e 	bx	lr

000080cc <__cxa_guard_release>:
__cxa_guard_release():
/mnt/c/Users/Kuba/Documents/ZeroMate/examples/20-UART_game/kernel/src/cxx.cpp:16

    extern "C" void __cxa_guard_release(__guard* g)
    {
    80cc:	e52db004 	push	{fp}		; (str fp, [sp, #-4]!)
    80d0:	e28db000 	add	fp, sp, #0
    80d4:	e24dd00c 	sub	sp, sp, #12
    80d8:	e50b0008 	str	r0, [fp, #-8]
/mnt/c/Users/Kuba/Documents/ZeroMate/examples/20-UART_game/kernel/src/cxx.cpp:17
        *(char*)g = 1;
    80dc:	e51b3008 	ldr	r3, [fp, #-8]
    80e0:	e3a02001 	mov	r2, #1
    80e4:	e5c32000 	strb	r2, [r3]
/mnt/c/Users/Kuba/Documents/ZeroMate/examples/20-UART_game/kernel/src/cxx.cpp:18
    }
    80e8:	e320f000 	nop	{0}
    80ec:	e28bd000 	add	sp, fp, #0
    80f0:	e49db004 	pop	{fp}		; (ldr fp, [sp], #4)
    80f4:	e12fff1e 	bx	lr

000080f8 <__cxa_guard_abort>:
__cxa_guard_abort():
/mnt/c/Users/Kuba/Documents/ZeroMate/examples/20-UART_game/kernel/src/cxx.cpp:21

    extern "C" void __cxa_guard_abort(__guard*)
    {
    80f8:	e52db004 	push	{fp}		; (str fp, [sp, #-4]!)
    80fc:	e28db000 	add	fp, sp, #0
    8100:	e24dd00c 	sub	sp, sp, #12
    8104:	e50b0008 	str	r0, [fp, #-8]
/mnt/c/Users/Kuba/Documents/ZeroMate/examples/20-UART_game/kernel/src/cxx.cpp:22
    }
    8108:	e320f000 	nop	{0}
    810c:	e28bd000 	add	sp, fp, #0
    8110:	e49db004 	pop	{fp}		; (ldr fp, [sp], #4)
    8114:	e12fff1e 	bx	lr

00008118 <__dso_handle>:
__dso_handle():
/mnt/c/Users/Kuba/Documents/ZeroMate/examples/20-UART_game/kernel/src/cxx.cpp:26
}

extern "C" void __dso_handle()
{
    8118:	e52db004 	push	{fp}		; (str fp, [sp, #-4]!)
    811c:	e28db000 	add	fp, sp, #0
/mnt/c/Users/Kuba/Documents/ZeroMate/examples/20-UART_game/kernel/src/cxx.cpp:28
    // ignore dtors for now
}
    8120:	e320f000 	nop	{0}
    8124:	e28bd000 	add	sp, fp, #0
    8128:	e49db004 	pop	{fp}		; (ldr fp, [sp], #4)
    812c:	e12fff1e 	bx	lr

00008130 <__cxa_atexit>:
__cxa_atexit():
/mnt/c/Users/Kuba/Documents/ZeroMate/examples/20-UART_game/kernel/src/cxx.cpp:31

extern "C" void __cxa_atexit()
{
    8130:	e52db004 	push	{fp}		; (str fp, [sp, #-4]!)
    8134:	e28db000 	add	fp, sp, #0
/mnt/c/Users/Kuba/Documents/ZeroMate/examples/20-UART_game/kernel/src/cxx.cpp:33
    // ignore dtors for now
}
    8138:	e320f000 	nop	{0}
    813c:	e28bd000 	add	sp, fp, #0
    8140:	e49db004 	pop	{fp}		; (ldr fp, [sp], #4)
    8144:	e12fff1e 	bx	lr

00008148 <__cxa_pure_virtual>:
__cxa_pure_virtual():
/mnt/c/Users/Kuba/Documents/ZeroMate/examples/20-UART_game/kernel/src/cxx.cpp:36

extern "C" void __cxa_pure_virtual()
{
    8148:	e52db004 	push	{fp}		; (str fp, [sp, #-4]!)
    814c:	e28db000 	add	fp, sp, #0
/mnt/c/Users/Kuba/Documents/ZeroMate/examples/20-UART_game/kernel/src/cxx.cpp:38
    // pure virtual method called
}
    8150:	e320f000 	nop	{0}
    8154:	e28bd000 	add	sp, fp, #0
    8158:	e49db004 	pop	{fp}		; (ldr fp, [sp], #4)
    815c:	e12fff1e 	bx	lr

00008160 <__aeabi_unwind_cpp_pr1>:
__aeabi_unwind_cpp_pr1():
/mnt/c/Users/Kuba/Documents/ZeroMate/examples/20-UART_game/kernel/src/cxx.cpp:41

extern "C" void __aeabi_unwind_cpp_pr1()
{
    8160:	e52db004 	push	{fp}		; (str fp, [sp, #-4]!)
    8164:	e28db000 	add	fp, sp, #0
/mnt/c/Users/Kuba/Documents/ZeroMate/examples/20-UART_game/kernel/src/cxx.cpp:42 (discriminator 1)
    while (true)
    8168:	eafffffe 	b	8168 <__aeabi_unwind_cpp_pr1+0x8>

0000816c <_ZN4CAUXC1Ej>:
_ZN4CAUXC2Ej():
/mnt/c/Users/Kuba/Documents/ZeroMate/examples/20-UART_game/kernel/src/drivers/bcm_aux.cpp:5
#include <drivers/bcm_aux.h>

CAUX sAUX(hal::AUX_Base);

CAUX::CAUX(unsigned int aux_base)
    816c:	e52db004 	push	{fp}		; (str fp, [sp, #-4]!)
    8170:	e28db000 	add	fp, sp, #0
    8174:	e24dd00c 	sub	sp, sp, #12
    8178:	e50b0008 	str	r0, [fp, #-8]
    817c:	e50b100c 	str	r1, [fp, #-12]
/mnt/c/Users/Kuba/Documents/ZeroMate/examples/20-UART_game/kernel/src/drivers/bcm_aux.cpp:6
: mAUX_Reg(reinterpret_cast<unsigned int*>(aux_base))
    8180:	e51b200c 	ldr	r2, [fp, #-12]
    8184:	e51b3008 	ldr	r3, [fp, #-8]
    8188:	e5832000 	str	r2, [r3]
/mnt/c/Users/Kuba/Documents/ZeroMate/examples/20-UART_game/kernel/src/drivers/bcm_aux.cpp:9
{
    //
}
    818c:	e51b3008 	ldr	r3, [fp, #-8]
    8190:	e1a00003 	mov	r0, r3
    8194:	e28bd000 	add	sp, fp, #0
    8198:	e49db004 	pop	{fp}		; (ldr fp, [sp], #4)
    819c:	e12fff1e 	bx	lr

000081a0 <_ZN4CAUX6EnableEN3hal15AUX_PeripheralsE>:
_ZN4CAUX6EnableEN3hal15AUX_PeripheralsE():
/mnt/c/Users/Kuba/Documents/ZeroMate/examples/20-UART_game/kernel/src/drivers/bcm_aux.cpp:12

void CAUX::Enable(hal::AUX_Peripherals aux_peripheral)
{
    81a0:	e92d4800 	push	{fp, lr}
    81a4:	e28db004 	add	fp, sp, #4
    81a8:	e24dd008 	sub	sp, sp, #8
    81ac:	e50b0008 	str	r0, [fp, #-8]
    81b0:	e50b100c 	str	r1, [fp, #-12]
/mnt/c/Users/Kuba/Documents/ZeroMate/examples/20-UART_game/kernel/src/drivers/bcm_aux.cpp:14
    Set_Register(hal::AUX_Reg::ENABLES,
                 Get_Register(hal::AUX_Reg::ENABLES) | (1 << static_cast<uint32_t>(aux_peripheral)));
    81b4:	e3a01001 	mov	r1, #1
    81b8:	e51b0008 	ldr	r0, [fp, #-8]
    81bc:	eb000031 	bl	8288 <_ZN4CAUX12Get_RegisterEN3hal7AUX_RegE>
    81c0:	e1a02000 	mov	r2, r0
    81c4:	e51b300c 	ldr	r3, [fp, #-12]
    81c8:	e3a01001 	mov	r1, #1
    81cc:	e1a03311 	lsl	r3, r1, r3
/mnt/c/Users/Kuba/Documents/ZeroMate/examples/20-UART_game/kernel/src/drivers/bcm_aux.cpp:13
    Set_Register(hal::AUX_Reg::ENABLES,
    81d0:	e1823003 	orr	r3, r2, r3
    81d4:	e1a02003 	mov	r2, r3
    81d8:	e3a01001 	mov	r1, #1
    81dc:	e51b0008 	ldr	r0, [fp, #-8]
    81e0:	eb000017 	bl	8244 <_ZN4CAUX12Set_RegisterEN3hal7AUX_RegEj>
/mnt/c/Users/Kuba/Documents/ZeroMate/examples/20-UART_game/kernel/src/drivers/bcm_aux.cpp:15
}
    81e4:	e320f000 	nop	{0}
    81e8:	e24bd004 	sub	sp, fp, #4
    81ec:	e8bd8800 	pop	{fp, pc}

000081f0 <_ZN4CAUX7DisableEN3hal15AUX_PeripheralsE>:
_ZN4CAUX7DisableEN3hal15AUX_PeripheralsE():
/mnt/c/Users/Kuba/Documents/ZeroMate/examples/20-UART_game/kernel/src/drivers/bcm_aux.cpp:18

void CAUX::Disable(hal::AUX_Peripherals aux_peripheral)
{
    81f0:	e92d4800 	push	{fp, lr}
    81f4:	e28db004 	add	fp, sp, #4
    81f8:	e24dd008 	sub	sp, sp, #8
    81fc:	e50b0008 	str	r0, [fp, #-8]
    8200:	e50b100c 	str	r1, [fp, #-12]
/mnt/c/Users/Kuba/Documents/ZeroMate/examples/20-UART_game/kernel/src/drivers/bcm_aux.cpp:20
    Set_Register(hal::AUX_Reg::ENABLES,
                 Get_Register(hal::AUX_Reg::ENABLES) & ~(1 << static_cast<uint32_t>(aux_peripheral)));
    8204:	e3a01001 	mov	r1, #1
    8208:	e51b0008 	ldr	r0, [fp, #-8]
    820c:	eb00001d 	bl	8288 <_ZN4CAUX12Get_RegisterEN3hal7AUX_RegE>
    8210:	e1a02000 	mov	r2, r0
    8214:	e51b300c 	ldr	r3, [fp, #-12]
    8218:	e3a01001 	mov	r1, #1
    821c:	e1a03311 	lsl	r3, r1, r3
    8220:	e1e03003 	mvn	r3, r3
/mnt/c/Users/Kuba/Documents/ZeroMate/examples/20-UART_game/kernel/src/drivers/bcm_aux.cpp:19
    Set_Register(hal::AUX_Reg::ENABLES,
    8224:	e0033002 	and	r3, r3, r2
    8228:	e1a02003 	mov	r2, r3
    822c:	e3a01001 	mov	r1, #1
    8230:	e51b0008 	ldr	r0, [fp, #-8]
    8234:	eb000002 	bl	8244 <_ZN4CAUX12Set_RegisterEN3hal7AUX_RegEj>
/mnt/c/Users/Kuba/Documents/ZeroMate/examples/20-UART_game/kernel/src/drivers/bcm_aux.cpp:21
}
    8238:	e320f000 	nop	{0}
    823c:	e24bd004 	sub	sp, fp, #4
    8240:	e8bd8800 	pop	{fp, pc}

00008244 <_ZN4CAUX12Set_RegisterEN3hal7AUX_RegEj>:
_ZN4CAUX12Set_RegisterEN3hal7AUX_RegEj():
/mnt/c/Users/Kuba/Documents/ZeroMate/examples/20-UART_game/kernel/src/drivers/bcm_aux.cpp:24

void CAUX::Set_Register(hal::AUX_Reg reg_idx, uint32_t value)
{
    8244:	e52db004 	push	{fp}		; (str fp, [sp, #-4]!)
    8248:	e28db000 	add	fp, sp, #0
    824c:	e24dd014 	sub	sp, sp, #20
    8250:	e50b0008 	str	r0, [fp, #-8]
    8254:	e50b100c 	str	r1, [fp, #-12]
    8258:	e50b2010 	str	r2, [fp, #-16]
/mnt/c/Users/Kuba/Documents/ZeroMate/examples/20-UART_game/kernel/src/drivers/bcm_aux.cpp:25
    mAUX_Reg[static_cast<unsigned int>(reg_idx)] = value;
    825c:	e51b3008 	ldr	r3, [fp, #-8]
    8260:	e5932000 	ldr	r2, [r3]
    8264:	e51b300c 	ldr	r3, [fp, #-12]
    8268:	e1a03103 	lsl	r3, r3, #2
    826c:	e0823003 	add	r3, r2, r3
    8270:	e51b2010 	ldr	r2, [fp, #-16]
    8274:	e5832000 	str	r2, [r3]
/mnt/c/Users/Kuba/Documents/ZeroMate/examples/20-UART_game/kernel/src/drivers/bcm_aux.cpp:26
}
    8278:	e320f000 	nop	{0}
    827c:	e28bd000 	add	sp, fp, #0
    8280:	e49db004 	pop	{fp}		; (ldr fp, [sp], #4)
    8284:	e12fff1e 	bx	lr

00008288 <_ZN4CAUX12Get_RegisterEN3hal7AUX_RegE>:
_ZN4CAUX12Get_RegisterEN3hal7AUX_RegE():
/mnt/c/Users/Kuba/Documents/ZeroMate/examples/20-UART_game/kernel/src/drivers/bcm_aux.cpp:29

uint32_t CAUX::Get_Register(hal::AUX_Reg reg_idx)
{
    8288:	e52db004 	push	{fp}		; (str fp, [sp, #-4]!)
    828c:	e28db000 	add	fp, sp, #0
    8290:	e24dd00c 	sub	sp, sp, #12
    8294:	e50b0008 	str	r0, [fp, #-8]
    8298:	e50b100c 	str	r1, [fp, #-12]
/mnt/c/Users/Kuba/Documents/ZeroMate/examples/20-UART_game/kernel/src/drivers/bcm_aux.cpp:30
    return mAUX_Reg[static_cast<unsigned int>(reg_idx)];
    829c:	e51b3008 	ldr	r3, [fp, #-8]
    82a0:	e5932000 	ldr	r2, [r3]
    82a4:	e51b300c 	ldr	r3, [fp, #-12]
    82a8:	e1a03103 	lsl	r3, r3, #2
    82ac:	e0823003 	add	r3, r2, r3
    82b0:	e5933000 	ldr	r3, [r3]
/mnt/c/Users/Kuba/Documents/ZeroMate/examples/20-UART_game/kernel/src/drivers/bcm_aux.cpp:31
}
    82b4:	e1a00003 	mov	r0, r3
    82b8:	e28bd000 	add	sp, fp, #0
    82bc:	e49db004 	pop	{fp}		; (ldr fp, [sp], #4)
    82c0:	e12fff1e 	bx	lr

000082c4 <_Z41__static_initialization_and_destruction_0ii>:
_Z41__static_initialization_and_destruction_0ii():
/mnt/c/Users/Kuba/Documents/ZeroMate/examples/20-UART_game/kernel/src/drivers/bcm_aux.cpp:31
    82c4:	e92d4800 	push	{fp, lr}
    82c8:	e28db004 	add	fp, sp, #4
    82cc:	e24dd008 	sub	sp, sp, #8
    82d0:	e50b0008 	str	r0, [fp, #-8]
    82d4:	e50b100c 	str	r1, [fp, #-12]
    82d8:	e51b3008 	ldr	r3, [fp, #-8]
    82dc:	e3530001 	cmp	r3, #1
    82e0:	1a000006 	bne	8300 <_Z41__static_initialization_and_destruction_0ii+0x3c>
/mnt/c/Users/Kuba/Documents/ZeroMate/examples/20-UART_game/kernel/src/drivers/bcm_aux.cpp:31 (discriminator 1)
    82e4:	e51b300c 	ldr	r3, [fp, #-12]
    82e8:	e59f201c 	ldr	r2, [pc, #28]	; 830c <_Z41__static_initialization_and_destruction_0ii+0x48>
    82ec:	e1530002 	cmp	r3, r2
    82f0:	1a000002 	bne	8300 <_Z41__static_initialization_and_destruction_0ii+0x3c>
/mnt/c/Users/Kuba/Documents/ZeroMate/examples/20-UART_game/kernel/src/drivers/bcm_aux.cpp:3
CAUX sAUX(hal::AUX_Base);
    82f4:	e59f1014 	ldr	r1, [pc, #20]	; 8310 <_Z41__static_initialization_and_destruction_0ii+0x4c>
    82f8:	e59f0014 	ldr	r0, [pc, #20]	; 8314 <_Z41__static_initialization_and_destruction_0ii+0x50>
    82fc:	ebffff9a 	bl	816c <_ZN4CAUXC1Ej>
/mnt/c/Users/Kuba/Documents/ZeroMate/examples/20-UART_game/kernel/src/drivers/bcm_aux.cpp:31
}
    8300:	e320f000 	nop	{0}
    8304:	e24bd004 	sub	sp, fp, #4
    8308:	e8bd8800 	pop	{fp, pc}
    830c:	0000ffff 	strdeq	pc, [r0], -pc	; <UNPREDICTABLE>
    8310:	20215000 	eorcs	r5, r1, r0
    8314:	0000aa18 	andeq	sl, r0, r8, lsl sl

00008318 <_GLOBAL__sub_I_sAUX>:
_GLOBAL__sub_I_sAUX():
/mnt/c/Users/Kuba/Documents/ZeroMate/examples/20-UART_game/kernel/src/drivers/bcm_aux.cpp:31
    8318:	e92d4800 	push	{fp, lr}
    831c:	e28db004 	add	fp, sp, #4
    8320:	e59f1008 	ldr	r1, [pc, #8]	; 8330 <_GLOBAL__sub_I_sAUX+0x18>
    8324:	e3a00001 	mov	r0, #1
    8328:	ebffffe5 	bl	82c4 <_Z41__static_initialization_and_destruction_0ii>
    832c:	e8bd8800 	pop	{fp, pc}
    8330:	0000ffff 	strdeq	pc, [r0], -pc	; <UNPREDICTABLE>

00008334 <_ZN13CGPIO_HandlerC1Ej>:
_ZN13CGPIO_HandlerC2Ej():
/mnt/c/Users/Kuba/Documents/ZeroMate/examples/20-UART_game/kernel/src/drivers/gpio.cpp:6
#include <hal/peripherals.h>
#include <drivers/gpio.h>

CGPIO_Handler sGPIO(hal::GPIO_Base);

CGPIO_Handler::CGPIO_Handler(unsigned int gpio_base_addr)
    8334:	e52db004 	push	{fp}		; (str fp, [sp, #-4]!)
    8338:	e28db000 	add	fp, sp, #0
    833c:	e24dd00c 	sub	sp, sp, #12
    8340:	e50b0008 	str	r0, [fp, #-8]
    8344:	e50b100c 	str	r1, [fp, #-12]
/mnt/c/Users/Kuba/Documents/ZeroMate/examples/20-UART_game/kernel/src/drivers/gpio.cpp:7
: mGPIO(reinterpret_cast<unsigned int*>(gpio_base_addr))
    8348:	e51b200c 	ldr	r2, [fp, #-12]
    834c:	e51b3008 	ldr	r3, [fp, #-8]
    8350:	e5832000 	str	r2, [r3]
/mnt/c/Users/Kuba/Documents/ZeroMate/examples/20-UART_game/kernel/src/drivers/gpio.cpp:10
{
    //
}
    8354:	e51b3008 	ldr	r3, [fp, #-8]
    8358:	e1a00003 	mov	r0, r3
    835c:	e28bd000 	add	sp, fp, #0
    8360:	e49db004 	pop	{fp}		; (ldr fp, [sp], #4)
    8364:	e12fff1e 	bx	lr

00008368 <_ZNK13CGPIO_Handler19Get_GPFSEL_LocationEjRjS0_>:
_ZNK13CGPIO_Handler19Get_GPFSEL_LocationEjRjS0_():
/mnt/c/Users/Kuba/Documents/ZeroMate/examples/20-UART_game/kernel/src/drivers/gpio.cpp:13

bool CGPIO_Handler::Get_GPFSEL_Location(uint32_t pin, uint32_t& reg, uint32_t& bit_idx) const
{
    8368:	e52db004 	push	{fp}		; (str fp, [sp, #-4]!)
    836c:	e28db000 	add	fp, sp, #0
    8370:	e24dd014 	sub	sp, sp, #20
    8374:	e50b0008 	str	r0, [fp, #-8]
    8378:	e50b100c 	str	r1, [fp, #-12]
    837c:	e50b2010 	str	r2, [fp, #-16]
    8380:	e50b3014 	str	r3, [fp, #-20]	; 0xffffffec
/mnt/c/Users/Kuba/Documents/ZeroMate/examples/20-UART_game/kernel/src/drivers/gpio.cpp:14
    if (pin > hal::GPIO_Pin_Count)
    8384:	e51b300c 	ldr	r3, [fp, #-12]
    8388:	e3530036 	cmp	r3, #54	; 0x36
    838c:	9a000001 	bls	8398 <_ZNK13CGPIO_Handler19Get_GPFSEL_LocationEjRjS0_+0x30>
/mnt/c/Users/Kuba/Documents/ZeroMate/examples/20-UART_game/kernel/src/drivers/gpio.cpp:15
        return false;
    8390:	e3a03000 	mov	r3, #0
    8394:	ea000033 	b	8468 <_ZNK13CGPIO_Handler19Get_GPFSEL_LocationEjRjS0_+0x100>
/mnt/c/Users/Kuba/Documents/ZeroMate/examples/20-UART_game/kernel/src/drivers/gpio.cpp:17

    switch (pin / 10)
    8398:	e51b300c 	ldr	r3, [fp, #-12]
    839c:	e59f20d4 	ldr	r2, [pc, #212]	; 8478 <_ZNK13CGPIO_Handler19Get_GPFSEL_LocationEjRjS0_+0x110>
    83a0:	e0832392 	umull	r2, r3, r2, r3
    83a4:	e1a031a3 	lsr	r3, r3, #3
    83a8:	e3530005 	cmp	r3, #5
    83ac:	979ff103 	ldrls	pc, [pc, r3, lsl #2]
    83b0:	ea00001d 	b	842c <_ZNK13CGPIO_Handler19Get_GPFSEL_LocationEjRjS0_+0xc4>
    83b4:	000083cc 	andeq	r8, r0, ip, asr #7
    83b8:	000083dc 	ldrdeq	r8, [r0], -ip
    83bc:	000083ec 	andeq	r8, r0, ip, ror #7
    83c0:	000083fc 	strdeq	r8, [r0], -ip
    83c4:	0000840c 	andeq	r8, r0, ip, lsl #8
    83c8:	0000841c 	andeq	r8, r0, ip, lsl r4
/mnt/c/Users/Kuba/Documents/ZeroMate/examples/20-UART_game/kernel/src/drivers/gpio.cpp:20
    {
        case 0:
            reg = static_cast<uint32_t>(hal::GPIO_Reg::GPFSEL0);
    83cc:	e51b3010 	ldr	r3, [fp, #-16]
    83d0:	e3a02000 	mov	r2, #0
    83d4:	e5832000 	str	r2, [r3]
/mnt/c/Users/Kuba/Documents/ZeroMate/examples/20-UART_game/kernel/src/drivers/gpio.cpp:21
            break;
    83d8:	ea000013 	b	842c <_ZNK13CGPIO_Handler19Get_GPFSEL_LocationEjRjS0_+0xc4>
/mnt/c/Users/Kuba/Documents/ZeroMate/examples/20-UART_game/kernel/src/drivers/gpio.cpp:23
        case 1:
            reg = static_cast<uint32_t>(hal::GPIO_Reg::GPFSEL1);
    83dc:	e51b3010 	ldr	r3, [fp, #-16]
    83e0:	e3a02001 	mov	r2, #1
    83e4:	e5832000 	str	r2, [r3]
/mnt/c/Users/Kuba/Documents/ZeroMate/examples/20-UART_game/kernel/src/drivers/gpio.cpp:24
            break;
    83e8:	ea00000f 	b	842c <_ZNK13CGPIO_Handler19Get_GPFSEL_LocationEjRjS0_+0xc4>
/mnt/c/Users/Kuba/Documents/ZeroMate/examples/20-UART_game/kernel/src/drivers/gpio.cpp:26
        case 2:
            reg = static_cast<uint32_t>(hal::GPIO_Reg::GPFSEL2);
    83ec:	e51b3010 	ldr	r3, [fp, #-16]
    83f0:	e3a02002 	mov	r2, #2
    83f4:	e5832000 	str	r2, [r3]
/mnt/c/Users/Kuba/Documents/ZeroMate/examples/20-UART_game/kernel/src/drivers/gpio.cpp:27
            break;
    83f8:	ea00000b 	b	842c <_ZNK13CGPIO_Handler19Get_GPFSEL_LocationEjRjS0_+0xc4>
/mnt/c/Users/Kuba/Documents/ZeroMate/examples/20-UART_game/kernel/src/drivers/gpio.cpp:29
        case 3:
            reg = static_cast<uint32_t>(hal::GPIO_Reg::GPFSEL3);
    83fc:	e51b3010 	ldr	r3, [fp, #-16]
    8400:	e3a02003 	mov	r2, #3
    8404:	e5832000 	str	r2, [r3]
/mnt/c/Users/Kuba/Documents/ZeroMate/examples/20-UART_game/kernel/src/drivers/gpio.cpp:30
            break;
    8408:	ea000007 	b	842c <_ZNK13CGPIO_Handler19Get_GPFSEL_LocationEjRjS0_+0xc4>
/mnt/c/Users/Kuba/Documents/ZeroMate/examples/20-UART_game/kernel/src/drivers/gpio.cpp:32
        case 4:
            reg = static_cast<uint32_t>(hal::GPIO_Reg::GPFSEL4);
    840c:	e51b3010 	ldr	r3, [fp, #-16]
    8410:	e3a02004 	mov	r2, #4
    8414:	e5832000 	str	r2, [r3]
/mnt/c/Users/Kuba/Documents/ZeroMate/examples/20-UART_game/kernel/src/drivers/gpio.cpp:33
            break;
    8418:	ea000003 	b	842c <_ZNK13CGPIO_Handler19Get_GPFSEL_LocationEjRjS0_+0xc4>
/mnt/c/Users/Kuba/Documents/ZeroMate/examples/20-UART_game/kernel/src/drivers/gpio.cpp:35
        case 5:
            reg = static_cast<uint32_t>(hal::GPIO_Reg::GPFSEL5);
    841c:	e51b3010 	ldr	r3, [fp, #-16]
    8420:	e3a02005 	mov	r2, #5
    8424:	e5832000 	str	r2, [r3]
/mnt/c/Users/Kuba/Documents/ZeroMate/examples/20-UART_game/kernel/src/drivers/gpio.cpp:36
            break;
    8428:	e320f000 	nop	{0}
/mnt/c/Users/Kuba/Documents/ZeroMate/examples/20-UART_game/kernel/src/drivers/gpio.cpp:39
    }

    bit_idx = (pin % 10) * 3;
    842c:	e51b100c 	ldr	r1, [fp, #-12]
    8430:	e59f3040 	ldr	r3, [pc, #64]	; 8478 <_ZNK13CGPIO_Handler19Get_GPFSEL_LocationEjRjS0_+0x110>
    8434:	e0832193 	umull	r2, r3, r3, r1
    8438:	e1a021a3 	lsr	r2, r3, #3
    843c:	e1a03002 	mov	r3, r2
    8440:	e1a03103 	lsl	r3, r3, #2
    8444:	e0833002 	add	r3, r3, r2
    8448:	e1a03083 	lsl	r3, r3, #1
    844c:	e0412003 	sub	r2, r1, r3
    8450:	e1a03002 	mov	r3, r2
    8454:	e1a03083 	lsl	r3, r3, #1
    8458:	e0832002 	add	r2, r3, r2
    845c:	e51b3014 	ldr	r3, [fp, #-20]	; 0xffffffec
    8460:	e5832000 	str	r2, [r3]
/mnt/c/Users/Kuba/Documents/ZeroMate/examples/20-UART_game/kernel/src/drivers/gpio.cpp:41

    return true;
    8464:	e3a03001 	mov	r3, #1
/mnt/c/Users/Kuba/Documents/ZeroMate/examples/20-UART_game/kernel/src/drivers/gpio.cpp:42
}
    8468:	e1a00003 	mov	r0, r3
    846c:	e28bd000 	add	sp, fp, #0
    8470:	e49db004 	pop	{fp}		; (ldr fp, [sp], #4)
    8474:	e12fff1e 	bx	lr
    8478:	cccccccd 	stclgt	12, cr12, [ip], {205}	; 0xcd

0000847c <_ZNK13CGPIO_Handler18Get_GPCLR_LocationEjRjS0_>:
_ZNK13CGPIO_Handler18Get_GPCLR_LocationEjRjS0_():
/mnt/c/Users/Kuba/Documents/ZeroMate/examples/20-UART_game/kernel/src/drivers/gpio.cpp:45

bool CGPIO_Handler::Get_GPCLR_Location(uint32_t pin, uint32_t& reg, uint32_t& bit_idx) const
{
    847c:	e52db004 	push	{fp}		; (str fp, [sp, #-4]!)
    8480:	e28db000 	add	fp, sp, #0
    8484:	e24dd014 	sub	sp, sp, #20
    8488:	e50b0008 	str	r0, [fp, #-8]
    848c:	e50b100c 	str	r1, [fp, #-12]
    8490:	e50b2010 	str	r2, [fp, #-16]
    8494:	e50b3014 	str	r3, [fp, #-20]	; 0xffffffec
/mnt/c/Users/Kuba/Documents/ZeroMate/examples/20-UART_game/kernel/src/drivers/gpio.cpp:46
    if (pin > hal::GPIO_Pin_Count)
    8498:	e51b300c 	ldr	r3, [fp, #-12]
    849c:	e3530036 	cmp	r3, #54	; 0x36
    84a0:	9a000001 	bls	84ac <_ZNK13CGPIO_Handler18Get_GPCLR_LocationEjRjS0_+0x30>
/mnt/c/Users/Kuba/Documents/ZeroMate/examples/20-UART_game/kernel/src/drivers/gpio.cpp:47
        return false;
    84a4:	e3a03000 	mov	r3, #0
    84a8:	ea00000c 	b	84e0 <_ZNK13CGPIO_Handler18Get_GPCLR_LocationEjRjS0_+0x64>
/mnt/c/Users/Kuba/Documents/ZeroMate/examples/20-UART_game/kernel/src/drivers/gpio.cpp:49

    reg = static_cast<uint32_t>((pin < 32) ? hal::GPIO_Reg::GPCLR0 : hal::GPIO_Reg::GPCLR1);
    84ac:	e51b300c 	ldr	r3, [fp, #-12]
    84b0:	e353001f 	cmp	r3, #31
    84b4:	8a000001 	bhi	84c0 <_ZNK13CGPIO_Handler18Get_GPCLR_LocationEjRjS0_+0x44>
/mnt/c/Users/Kuba/Documents/ZeroMate/examples/20-UART_game/kernel/src/drivers/gpio.cpp:49 (discriminator 1)
    84b8:	e3a0200a 	mov	r2, #10
    84bc:	ea000000 	b	84c4 <_ZNK13CGPIO_Handler18Get_GPCLR_LocationEjRjS0_+0x48>
/mnt/c/Users/Kuba/Documents/ZeroMate/examples/20-UART_game/kernel/src/drivers/gpio.cpp:49 (discriminator 2)
    84c0:	e3a0200b 	mov	r2, #11
/mnt/c/Users/Kuba/Documents/ZeroMate/examples/20-UART_game/kernel/src/drivers/gpio.cpp:49 (discriminator 4)
    84c4:	e51b3010 	ldr	r3, [fp, #-16]
    84c8:	e5832000 	str	r2, [r3]
/mnt/c/Users/Kuba/Documents/ZeroMate/examples/20-UART_game/kernel/src/drivers/gpio.cpp:50 (discriminator 4)
    bit_idx = pin % 32;
    84cc:	e51b300c 	ldr	r3, [fp, #-12]
    84d0:	e203201f 	and	r2, r3, #31
    84d4:	e51b3014 	ldr	r3, [fp, #-20]	; 0xffffffec
    84d8:	e5832000 	str	r2, [r3]
/mnt/c/Users/Kuba/Documents/ZeroMate/examples/20-UART_game/kernel/src/drivers/gpio.cpp:52 (discriminator 4)

    return true;
    84dc:	e3a03001 	mov	r3, #1
/mnt/c/Users/Kuba/Documents/ZeroMate/examples/20-UART_game/kernel/src/drivers/gpio.cpp:53
}
    84e0:	e1a00003 	mov	r0, r3
    84e4:	e28bd000 	add	sp, fp, #0
    84e8:	e49db004 	pop	{fp}		; (ldr fp, [sp], #4)
    84ec:	e12fff1e 	bx	lr

000084f0 <_ZNK13CGPIO_Handler18Get_GPSET_LocationEjRjS0_>:
_ZNK13CGPIO_Handler18Get_GPSET_LocationEjRjS0_():
/mnt/c/Users/Kuba/Documents/ZeroMate/examples/20-UART_game/kernel/src/drivers/gpio.cpp:56

bool CGPIO_Handler::Get_GPSET_Location(uint32_t pin, uint32_t& reg, uint32_t& bit_idx) const
{
    84f0:	e52db004 	push	{fp}		; (str fp, [sp, #-4]!)
    84f4:	e28db000 	add	fp, sp, #0
    84f8:	e24dd014 	sub	sp, sp, #20
    84fc:	e50b0008 	str	r0, [fp, #-8]
    8500:	e50b100c 	str	r1, [fp, #-12]
    8504:	e50b2010 	str	r2, [fp, #-16]
    8508:	e50b3014 	str	r3, [fp, #-20]	; 0xffffffec
/mnt/c/Users/Kuba/Documents/ZeroMate/examples/20-UART_game/kernel/src/drivers/gpio.cpp:57
    if (pin > hal::GPIO_Pin_Count)
    850c:	e51b300c 	ldr	r3, [fp, #-12]
    8510:	e3530036 	cmp	r3, #54	; 0x36
    8514:	9a000001 	bls	8520 <_ZNK13CGPIO_Handler18Get_GPSET_LocationEjRjS0_+0x30>
/mnt/c/Users/Kuba/Documents/ZeroMate/examples/20-UART_game/kernel/src/drivers/gpio.cpp:58
        return false;
    8518:	e3a03000 	mov	r3, #0
    851c:	ea00000c 	b	8554 <_ZNK13CGPIO_Handler18Get_GPSET_LocationEjRjS0_+0x64>
/mnt/c/Users/Kuba/Documents/ZeroMate/examples/20-UART_game/kernel/src/drivers/gpio.cpp:60

    reg = static_cast<uint32_t>((pin < 32) ? hal::GPIO_Reg::GPSET0 : hal::GPIO_Reg::GPSET1);
    8520:	e51b300c 	ldr	r3, [fp, #-12]
    8524:	e353001f 	cmp	r3, #31
    8528:	8a000001 	bhi	8534 <_ZNK13CGPIO_Handler18Get_GPSET_LocationEjRjS0_+0x44>
/mnt/c/Users/Kuba/Documents/ZeroMate/examples/20-UART_game/kernel/src/drivers/gpio.cpp:60 (discriminator 1)
    852c:	e3a02007 	mov	r2, #7
    8530:	ea000000 	b	8538 <_ZNK13CGPIO_Handler18Get_GPSET_LocationEjRjS0_+0x48>
/mnt/c/Users/Kuba/Documents/ZeroMate/examples/20-UART_game/kernel/src/drivers/gpio.cpp:60 (discriminator 2)
    8534:	e3a02008 	mov	r2, #8
/mnt/c/Users/Kuba/Documents/ZeroMate/examples/20-UART_game/kernel/src/drivers/gpio.cpp:60 (discriminator 4)
    8538:	e51b3010 	ldr	r3, [fp, #-16]
    853c:	e5832000 	str	r2, [r3]
/mnt/c/Users/Kuba/Documents/ZeroMate/examples/20-UART_game/kernel/src/drivers/gpio.cpp:61 (discriminator 4)
    bit_idx = pin % 32;
    8540:	e51b300c 	ldr	r3, [fp, #-12]
    8544:	e203201f 	and	r2, r3, #31
    8548:	e51b3014 	ldr	r3, [fp, #-20]	; 0xffffffec
    854c:	e5832000 	str	r2, [r3]
/mnt/c/Users/Kuba/Documents/ZeroMate/examples/20-UART_game/kernel/src/drivers/gpio.cpp:63 (discriminator 4)

    return true;
    8550:	e3a03001 	mov	r3, #1
/mnt/c/Users/Kuba/Documents/ZeroMate/examples/20-UART_game/kernel/src/drivers/gpio.cpp:64
}
    8554:	e1a00003 	mov	r0, r3
    8558:	e28bd000 	add	sp, fp, #0
    855c:	e49db004 	pop	{fp}		; (ldr fp, [sp], #4)
    8560:	e12fff1e 	bx	lr

00008564 <_ZNK13CGPIO_Handler18Get_GPLEV_LocationEjRjS0_>:
_ZNK13CGPIO_Handler18Get_GPLEV_LocationEjRjS0_():
/mnt/c/Users/Kuba/Documents/ZeroMate/examples/20-UART_game/kernel/src/drivers/gpio.cpp:67

bool CGPIO_Handler::Get_GPLEV_Location(uint32_t pin, uint32_t& reg, uint32_t& bit_idx) const
{
    8564:	e52db004 	push	{fp}		; (str fp, [sp, #-4]!)
    8568:	e28db000 	add	fp, sp, #0
    856c:	e24dd014 	sub	sp, sp, #20
    8570:	e50b0008 	str	r0, [fp, #-8]
    8574:	e50b100c 	str	r1, [fp, #-12]
    8578:	e50b2010 	str	r2, [fp, #-16]
    857c:	e50b3014 	str	r3, [fp, #-20]	; 0xffffffec
/mnt/c/Users/Kuba/Documents/ZeroMate/examples/20-UART_game/kernel/src/drivers/gpio.cpp:68
    if (pin > hal::GPIO_Pin_Count)
    8580:	e51b300c 	ldr	r3, [fp, #-12]
    8584:	e3530036 	cmp	r3, #54	; 0x36
    8588:	9a000001 	bls	8594 <_ZNK13CGPIO_Handler18Get_GPLEV_LocationEjRjS0_+0x30>
/mnt/c/Users/Kuba/Documents/ZeroMate/examples/20-UART_game/kernel/src/drivers/gpio.cpp:69
        return false;
    858c:	e3a03000 	mov	r3, #0
    8590:	ea00000c 	b	85c8 <_ZNK13CGPIO_Handler18Get_GPLEV_LocationEjRjS0_+0x64>
/mnt/c/Users/Kuba/Documents/ZeroMate/examples/20-UART_game/kernel/src/drivers/gpio.cpp:71

    reg = static_cast<uint32_t>((pin < 32) ? hal::GPIO_Reg::GPLEV0 : hal::GPIO_Reg::GPLEV1);
    8594:	e51b300c 	ldr	r3, [fp, #-12]
    8598:	e353001f 	cmp	r3, #31
    859c:	8a000001 	bhi	85a8 <_ZNK13CGPIO_Handler18Get_GPLEV_LocationEjRjS0_+0x44>
/mnt/c/Users/Kuba/Documents/ZeroMate/examples/20-UART_game/kernel/src/drivers/gpio.cpp:71 (discriminator 1)
    85a0:	e3a0200d 	mov	r2, #13
    85a4:	ea000000 	b	85ac <_ZNK13CGPIO_Handler18Get_GPLEV_LocationEjRjS0_+0x48>
/mnt/c/Users/Kuba/Documents/ZeroMate/examples/20-UART_game/kernel/src/drivers/gpio.cpp:71 (discriminator 2)
    85a8:	e3a0200e 	mov	r2, #14
/mnt/c/Users/Kuba/Documents/ZeroMate/examples/20-UART_game/kernel/src/drivers/gpio.cpp:71 (discriminator 4)
    85ac:	e51b3010 	ldr	r3, [fp, #-16]
    85b0:	e5832000 	str	r2, [r3]
/mnt/c/Users/Kuba/Documents/ZeroMate/examples/20-UART_game/kernel/src/drivers/gpio.cpp:72 (discriminator 4)
    bit_idx = pin % 32;
    85b4:	e51b300c 	ldr	r3, [fp, #-12]
    85b8:	e203201f 	and	r2, r3, #31
    85bc:	e51b3014 	ldr	r3, [fp, #-20]	; 0xffffffec
    85c0:	e5832000 	str	r2, [r3]
/mnt/c/Users/Kuba/Documents/ZeroMate/examples/20-UART_game/kernel/src/drivers/gpio.cpp:74 (discriminator 4)

    return true;
    85c4:	e3a03001 	mov	r3, #1
/mnt/c/Users/Kuba/Documents/ZeroMate/examples/20-UART_game/kernel/src/drivers/gpio.cpp:75
}
    85c8:	e1a00003 	mov	r0, r3
    85cc:	e28bd000 	add	sp, fp, #0
    85d0:	e49db004 	pop	{fp}		; (ldr fp, [sp], #4)
    85d4:	e12fff1e 	bx	lr

000085d8 <_ZN13CGPIO_Handler17Set_GPIO_FunctionEj14NGPIO_Function>:
_ZN13CGPIO_Handler17Set_GPIO_FunctionEj14NGPIO_Function():
/mnt/c/Users/Kuba/Documents/ZeroMate/examples/20-UART_game/kernel/src/drivers/gpio.cpp:78

void CGPIO_Handler::Set_GPIO_Function(uint32_t pin, NGPIO_Function func)
{
    85d8:	e92d4800 	push	{fp, lr}
    85dc:	e28db004 	add	fp, sp, #4
    85e0:	e24dd018 	sub	sp, sp, #24
    85e4:	e50b0010 	str	r0, [fp, #-16]
    85e8:	e50b1014 	str	r1, [fp, #-20]	; 0xffffffec
    85ec:	e1a03002 	mov	r3, r2
    85f0:	e54b3015 	strb	r3, [fp, #-21]	; 0xffffffeb
/mnt/c/Users/Kuba/Documents/ZeroMate/examples/20-UART_game/kernel/src/drivers/gpio.cpp:80
    uint32_t reg, bit;
    if (!Get_GPFSEL_Location(pin, reg, bit))
    85f4:	e24b300c 	sub	r3, fp, #12
    85f8:	e24b2008 	sub	r2, fp, #8
    85fc:	e51b1014 	ldr	r1, [fp, #-20]	; 0xffffffec
    8600:	e51b0010 	ldr	r0, [fp, #-16]
    8604:	ebffff57 	bl	8368 <_ZNK13CGPIO_Handler19Get_GPFSEL_LocationEjRjS0_>
    8608:	e1a03000 	mov	r3, r0
    860c:	e2233001 	eor	r3, r3, #1
    8610:	e6ef3073 	uxtb	r3, r3
    8614:	e3530000 	cmp	r3, #0
    8618:	1a000015 	bne	8674 <_ZN13CGPIO_Handler17Set_GPIO_FunctionEj14NGPIO_Function+0x9c>
/mnt/c/Users/Kuba/Documents/ZeroMate/examples/20-UART_game/kernel/src/drivers/gpio.cpp:83
        return;

    mGPIO[reg] = (mGPIO[reg] & (~static_cast<unsigned int>(7 << bit))) | (static_cast<unsigned int>(func) << bit);
    861c:	e51b3010 	ldr	r3, [fp, #-16]
    8620:	e5932000 	ldr	r2, [r3]
    8624:	e51b3008 	ldr	r3, [fp, #-8]
    8628:	e1a03103 	lsl	r3, r3, #2
    862c:	e0823003 	add	r3, r2, r3
    8630:	e5932000 	ldr	r2, [r3]
    8634:	e51b300c 	ldr	r3, [fp, #-12]
    8638:	e3a01007 	mov	r1, #7
    863c:	e1a03311 	lsl	r3, r1, r3
    8640:	e1e03003 	mvn	r3, r3
    8644:	e0021003 	and	r1, r2, r3
    8648:	e55b2015 	ldrb	r2, [fp, #-21]	; 0xffffffeb
    864c:	e51b300c 	ldr	r3, [fp, #-12]
    8650:	e1a02312 	lsl	r2, r2, r3
    8654:	e51b3010 	ldr	r3, [fp, #-16]
    8658:	e5930000 	ldr	r0, [r3]
    865c:	e51b3008 	ldr	r3, [fp, #-8]
    8660:	e1a03103 	lsl	r3, r3, #2
    8664:	e0803003 	add	r3, r0, r3
    8668:	e1812002 	orr	r2, r1, r2
    866c:	e5832000 	str	r2, [r3]
    8670:	ea000000 	b	8678 <_ZN13CGPIO_Handler17Set_GPIO_FunctionEj14NGPIO_Function+0xa0>
/mnt/c/Users/Kuba/Documents/ZeroMate/examples/20-UART_game/kernel/src/drivers/gpio.cpp:81
        return;
    8674:	e320f000 	nop	{0}
/mnt/c/Users/Kuba/Documents/ZeroMate/examples/20-UART_game/kernel/src/drivers/gpio.cpp:84
}
    8678:	e24bd004 	sub	sp, fp, #4
    867c:	e8bd8800 	pop	{fp, pc}

00008680 <_ZNK13CGPIO_Handler17Get_GPIO_FunctionEj>:
_ZNK13CGPIO_Handler17Get_GPIO_FunctionEj():
/mnt/c/Users/Kuba/Documents/ZeroMate/examples/20-UART_game/kernel/src/drivers/gpio.cpp:87

NGPIO_Function CGPIO_Handler::Get_GPIO_Function(uint32_t pin) const
{
    8680:	e92d4800 	push	{fp, lr}
    8684:	e28db004 	add	fp, sp, #4
    8688:	e24dd010 	sub	sp, sp, #16
    868c:	e50b0010 	str	r0, [fp, #-16]
    8690:	e50b1014 	str	r1, [fp, #-20]	; 0xffffffec
/mnt/c/Users/Kuba/Documents/ZeroMate/examples/20-UART_game/kernel/src/drivers/gpio.cpp:89
    uint32_t reg, bit;
    if (!Get_GPFSEL_Location(pin, reg, bit))
    8694:	e24b300c 	sub	r3, fp, #12
    8698:	e24b2008 	sub	r2, fp, #8
    869c:	e51b1014 	ldr	r1, [fp, #-20]	; 0xffffffec
    86a0:	e51b0010 	ldr	r0, [fp, #-16]
    86a4:	ebffff2f 	bl	8368 <_ZNK13CGPIO_Handler19Get_GPFSEL_LocationEjRjS0_>
    86a8:	e1a03000 	mov	r3, r0
    86ac:	e2233001 	eor	r3, r3, #1
    86b0:	e6ef3073 	uxtb	r3, r3
    86b4:	e3530000 	cmp	r3, #0
    86b8:	0a000001 	beq	86c4 <_ZNK13CGPIO_Handler17Get_GPIO_FunctionEj+0x44>
/mnt/c/Users/Kuba/Documents/ZeroMate/examples/20-UART_game/kernel/src/drivers/gpio.cpp:90
        return NGPIO_Function::Unspecified;
    86bc:	e3a03008 	mov	r3, #8
    86c0:	ea00000a 	b	86f0 <_ZNK13CGPIO_Handler17Get_GPIO_FunctionEj+0x70>
/mnt/c/Users/Kuba/Documents/ZeroMate/examples/20-UART_game/kernel/src/drivers/gpio.cpp:92

    return static_cast<NGPIO_Function>((mGPIO[reg] >> bit) & 7);
    86c4:	e51b3010 	ldr	r3, [fp, #-16]
    86c8:	e5932000 	ldr	r2, [r3]
    86cc:	e51b3008 	ldr	r3, [fp, #-8]
    86d0:	e1a03103 	lsl	r3, r3, #2
    86d4:	e0823003 	add	r3, r2, r3
    86d8:	e5932000 	ldr	r2, [r3]
    86dc:	e51b300c 	ldr	r3, [fp, #-12]
    86e0:	e1a03332 	lsr	r3, r2, r3
    86e4:	e6ef3073 	uxtb	r3, r3
    86e8:	e2033007 	and	r3, r3, #7
    86ec:	e6ef3073 	uxtb	r3, r3
/mnt/c/Users/Kuba/Documents/ZeroMate/examples/20-UART_game/kernel/src/drivers/gpio.cpp:93 (discriminator 1)
}
    86f0:	e1a00003 	mov	r0, r3
    86f4:	e24bd004 	sub	sp, fp, #4
    86f8:	e8bd8800 	pop	{fp, pc}

000086fc <_ZN13CGPIO_Handler19Enable_Event_DetectEj20NGPIO_Interrupt_Type>:
_ZN13CGPIO_Handler19Enable_Event_DetectEj20NGPIO_Interrupt_Type():
/mnt/c/Users/Kuba/Documents/ZeroMate/examples/20-UART_game/kernel/src/drivers/gpio.cpp:96

void CGPIO_Handler::Enable_Event_Detect(uint32_t pin, NGPIO_Interrupt_Type type)
{
    86fc:	e92d4800 	push	{fp, lr}
    8700:	e28db004 	add	fp, sp, #4
    8704:	e24dd020 	sub	sp, sp, #32
    8708:	e50b0010 	str	r0, [fp, #-16]
    870c:	e50b1014 	str	r1, [fp, #-20]	; 0xffffffec
    8710:	e50b2018 	str	r2, [fp, #-24]	; 0xffffffe8
/mnt/c/Users/Kuba/Documents/ZeroMate/examples/20-UART_game/kernel/src/drivers/gpio.cpp:98
    uint32_t reg, bit;
    if (!Get_GP_IRQ_Detect_Location(pin, type, reg, bit))
    8714:	e24b2008 	sub	r2, fp, #8
    8718:	e24b300c 	sub	r3, fp, #12
    871c:	e58d3000 	str	r3, [sp]
    8720:	e1a03002 	mov	r3, r2
    8724:	e51b2018 	ldr	r2, [fp, #-24]	; 0xffffffe8
    8728:	e51b1014 	ldr	r1, [fp, #-20]	; 0xffffffec
    872c:	e51b0010 	ldr	r0, [fp, #-16]
    8730:	eb000012 	bl	8780 <_ZNK13CGPIO_Handler26Get_GP_IRQ_Detect_LocationEj20NGPIO_Interrupt_TypeRjS1_>
    8734:	e1a03000 	mov	r3, r0
    8738:	e2233001 	eor	r3, r3, #1
    873c:	e6ef3073 	uxtb	r3, r3
    8740:	e3530000 	cmp	r3, #0
    8744:	1a00000a 	bne	8774 <_ZN13CGPIO_Handler19Enable_Event_DetectEj20NGPIO_Interrupt_Type+0x78>
/mnt/c/Users/Kuba/Documents/ZeroMate/examples/20-UART_game/kernel/src/drivers/gpio.cpp:101
        return;

    mGPIO[reg] = (1 << bit);
    8748:	e51b300c 	ldr	r3, [fp, #-12]
    874c:	e3a02001 	mov	r2, #1
    8750:	e1a01312 	lsl	r1, r2, r3
    8754:	e51b3010 	ldr	r3, [fp, #-16]
    8758:	e5932000 	ldr	r2, [r3]
    875c:	e51b3008 	ldr	r3, [fp, #-8]
    8760:	e1a03103 	lsl	r3, r3, #2
    8764:	e0823003 	add	r3, r2, r3
    8768:	e1a02001 	mov	r2, r1
    876c:	e5832000 	str	r2, [r3]
    8770:	ea000000 	b	8778 <_ZN13CGPIO_Handler19Enable_Event_DetectEj20NGPIO_Interrupt_Type+0x7c>
/mnt/c/Users/Kuba/Documents/ZeroMate/examples/20-UART_game/kernel/src/drivers/gpio.cpp:99
        return;
    8774:	e320f000 	nop	{0}
/mnt/c/Users/Kuba/Documents/ZeroMate/examples/20-UART_game/kernel/src/drivers/gpio.cpp:108
    // TODO: vyresit tohle trochu lepe
    // sInterruptCtl.Enable_IRQ(hal::IRQ_Source::GPIO_0);
    // sInterruptCtl.Enable_IRQ(hal::IRQ_Source::GPIO_1);
    // sInterruptCtl.Enable_IRQ(hal::IRQ_Source::GPIO_2);
    // sInterruptCtl.Enable_IRQ(hal::IRQ_Source::GPIO_3);
}
    8778:	e24bd004 	sub	sp, fp, #4
    877c:	e8bd8800 	pop	{fp, pc}

00008780 <_ZNK13CGPIO_Handler26Get_GP_IRQ_Detect_LocationEj20NGPIO_Interrupt_TypeRjS1_>:
_ZNK13CGPIO_Handler26Get_GP_IRQ_Detect_LocationEj20NGPIO_Interrupt_TypeRjS1_():
/mnt/c/Users/Kuba/Documents/ZeroMate/examples/20-UART_game/kernel/src/drivers/gpio.cpp:114

bool CGPIO_Handler::Get_GP_IRQ_Detect_Location(uint32_t pin,
                                               NGPIO_Interrupt_Type type,
                                               uint32_t& reg,
                                               uint32_t& bit_idx) const
{
    8780:	e52db004 	push	{fp}		; (str fp, [sp, #-4]!)
    8784:	e28db000 	add	fp, sp, #0
    8788:	e24dd014 	sub	sp, sp, #20
    878c:	e50b0008 	str	r0, [fp, #-8]
    8790:	e50b100c 	str	r1, [fp, #-12]
    8794:	e50b2010 	str	r2, [fp, #-16]
    8798:	e50b3014 	str	r3, [fp, #-20]	; 0xffffffec
/mnt/c/Users/Kuba/Documents/ZeroMate/examples/20-UART_game/kernel/src/drivers/gpio.cpp:115
    if (pin > hal::GPIO_Pin_Count)
    879c:	e51b300c 	ldr	r3, [fp, #-12]
    87a0:	e3530036 	cmp	r3, #54	; 0x36
    87a4:	9a000001 	bls	87b0 <_ZNK13CGPIO_Handler26Get_GP_IRQ_Detect_LocationEj20NGPIO_Interrupt_TypeRjS1_+0x30>
/mnt/c/Users/Kuba/Documents/ZeroMate/examples/20-UART_game/kernel/src/drivers/gpio.cpp:116
        return false;
    87a8:	e3a03000 	mov	r3, #0
    87ac:	ea000032 	b	887c <_ZNK13CGPIO_Handler26Get_GP_IRQ_Detect_LocationEj20NGPIO_Interrupt_TypeRjS1_+0xfc>
/mnt/c/Users/Kuba/Documents/ZeroMate/examples/20-UART_game/kernel/src/drivers/gpio.cpp:118

    bit_idx = pin % 32;
    87b0:	e51b300c 	ldr	r3, [fp, #-12]
    87b4:	e203201f 	and	r2, r3, #31
    87b8:	e59b3004 	ldr	r3, [fp, #4]
    87bc:	e5832000 	str	r2, [r3]
/mnt/c/Users/Kuba/Documents/ZeroMate/examples/20-UART_game/kernel/src/drivers/gpio.cpp:120

    switch (type)
    87c0:	e51b3010 	ldr	r3, [fp, #-16]
    87c4:	e3530003 	cmp	r3, #3
    87c8:	979ff103 	ldrls	pc, [pc, r3, lsl #2]
    87cc:	ea000027 	b	8870 <_ZNK13CGPIO_Handler26Get_GP_IRQ_Detect_LocationEj20NGPIO_Interrupt_TypeRjS1_+0xf0>
    87d0:	000087e0 	andeq	r8, r0, r0, ror #15
    87d4:	00008804 	andeq	r8, r0, r4, lsl #16
    87d8:	00008828 	andeq	r8, r0, r8, lsr #16
    87dc:	0000884c 	andeq	r8, r0, ip, asr #16
/mnt/c/Users/Kuba/Documents/ZeroMate/examples/20-UART_game/kernel/src/drivers/gpio.cpp:123
    {
        case NGPIO_Interrupt_Type::Rising_Edge:
            reg = static_cast<uint32_t>((pin < 32) ? hal::GPIO_Reg::GPREN0 : hal::GPIO_Reg::GPREN1);
    87e0:	e51b300c 	ldr	r3, [fp, #-12]
    87e4:	e353001f 	cmp	r3, #31
    87e8:	8a000001 	bhi	87f4 <_ZNK13CGPIO_Handler26Get_GP_IRQ_Detect_LocationEj20NGPIO_Interrupt_TypeRjS1_+0x74>
/mnt/c/Users/Kuba/Documents/ZeroMate/examples/20-UART_game/kernel/src/drivers/gpio.cpp:123 (discriminator 1)
    87ec:	e3a02013 	mov	r2, #19
    87f0:	ea000000 	b	87f8 <_ZNK13CGPIO_Handler26Get_GP_IRQ_Detect_LocationEj20NGPIO_Interrupt_TypeRjS1_+0x78>
/mnt/c/Users/Kuba/Documents/ZeroMate/examples/20-UART_game/kernel/src/drivers/gpio.cpp:123 (discriminator 2)
    87f4:	e3a02014 	mov	r2, #20
/mnt/c/Users/Kuba/Documents/ZeroMate/examples/20-UART_game/kernel/src/drivers/gpio.cpp:123 (discriminator 4)
    87f8:	e51b3014 	ldr	r3, [fp, #-20]	; 0xffffffec
    87fc:	e5832000 	str	r2, [r3]
/mnt/c/Users/Kuba/Documents/ZeroMate/examples/20-UART_game/kernel/src/drivers/gpio.cpp:124 (discriminator 4)
            break;
    8800:	ea00001c 	b	8878 <_ZNK13CGPIO_Handler26Get_GP_IRQ_Detect_LocationEj20NGPIO_Interrupt_TypeRjS1_+0xf8>
/mnt/c/Users/Kuba/Documents/ZeroMate/examples/20-UART_game/kernel/src/drivers/gpio.cpp:126
        case NGPIO_Interrupt_Type::Falling_Edge:
            reg = static_cast<uint32_t>((pin < 32) ? hal::GPIO_Reg::GPFEN0 : hal::GPIO_Reg::GPFEN1);
    8804:	e51b300c 	ldr	r3, [fp, #-12]
    8808:	e353001f 	cmp	r3, #31
    880c:	8a000001 	bhi	8818 <_ZNK13CGPIO_Handler26Get_GP_IRQ_Detect_LocationEj20NGPIO_Interrupt_TypeRjS1_+0x98>
/mnt/c/Users/Kuba/Documents/ZeroMate/examples/20-UART_game/kernel/src/drivers/gpio.cpp:126 (discriminator 1)
    8810:	e3a02016 	mov	r2, #22
    8814:	ea000000 	b	881c <_ZNK13CGPIO_Handler26Get_GP_IRQ_Detect_LocationEj20NGPIO_Interrupt_TypeRjS1_+0x9c>
/mnt/c/Users/Kuba/Documents/ZeroMate/examples/20-UART_game/kernel/src/drivers/gpio.cpp:126 (discriminator 2)
    8818:	e3a02017 	mov	r2, #23
/mnt/c/Users/Kuba/Documents/ZeroMate/examples/20-UART_game/kernel/src/drivers/gpio.cpp:126 (discriminator 4)
    881c:	e51b3014 	ldr	r3, [fp, #-20]	; 0xffffffec
    8820:	e5832000 	str	r2, [r3]
/mnt/c/Users/Kuba/Documents/ZeroMate/examples/20-UART_game/kernel/src/drivers/gpio.cpp:127 (discriminator 4)
            break;
    8824:	ea000013 	b	8878 <_ZNK13CGPIO_Handler26Get_GP_IRQ_Detect_LocationEj20NGPIO_Interrupt_TypeRjS1_+0xf8>
/mnt/c/Users/Kuba/Documents/ZeroMate/examples/20-UART_game/kernel/src/drivers/gpio.cpp:129
        case NGPIO_Interrupt_Type::High:
            reg = static_cast<uint32_t>((pin < 32) ? hal::GPIO_Reg::GPHEN0 : hal::GPIO_Reg::GPHEN1);
    8828:	e51b300c 	ldr	r3, [fp, #-12]
    882c:	e353001f 	cmp	r3, #31
    8830:	8a000001 	bhi	883c <_ZNK13CGPIO_Handler26Get_GP_IRQ_Detect_LocationEj20NGPIO_Interrupt_TypeRjS1_+0xbc>
/mnt/c/Users/Kuba/Documents/ZeroMate/examples/20-UART_game/kernel/src/drivers/gpio.cpp:129 (discriminator 1)
    8834:	e3a02019 	mov	r2, #25
    8838:	ea000000 	b	8840 <_ZNK13CGPIO_Handler26Get_GP_IRQ_Detect_LocationEj20NGPIO_Interrupt_TypeRjS1_+0xc0>
/mnt/c/Users/Kuba/Documents/ZeroMate/examples/20-UART_game/kernel/src/drivers/gpio.cpp:129 (discriminator 2)
    883c:	e3a0201a 	mov	r2, #26
/mnt/c/Users/Kuba/Documents/ZeroMate/examples/20-UART_game/kernel/src/drivers/gpio.cpp:129 (discriminator 4)
    8840:	e51b3014 	ldr	r3, [fp, #-20]	; 0xffffffec
    8844:	e5832000 	str	r2, [r3]
/mnt/c/Users/Kuba/Documents/ZeroMate/examples/20-UART_game/kernel/src/drivers/gpio.cpp:130 (discriminator 4)
            break;
    8848:	ea00000a 	b	8878 <_ZNK13CGPIO_Handler26Get_GP_IRQ_Detect_LocationEj20NGPIO_Interrupt_TypeRjS1_+0xf8>
/mnt/c/Users/Kuba/Documents/ZeroMate/examples/20-UART_game/kernel/src/drivers/gpio.cpp:132
        case NGPIO_Interrupt_Type::Low:
            reg = static_cast<uint32_t>((pin < 32) ? hal::GPIO_Reg::GPLEN0 : hal::GPIO_Reg::GPLEN1);
    884c:	e51b300c 	ldr	r3, [fp, #-12]
    8850:	e353001f 	cmp	r3, #31
    8854:	8a000001 	bhi	8860 <_ZNK13CGPIO_Handler26Get_GP_IRQ_Detect_LocationEj20NGPIO_Interrupt_TypeRjS1_+0xe0>
/mnt/c/Users/Kuba/Documents/ZeroMate/examples/20-UART_game/kernel/src/drivers/gpio.cpp:132 (discriminator 1)
    8858:	e3a0201c 	mov	r2, #28
    885c:	ea000000 	b	8864 <_ZNK13CGPIO_Handler26Get_GP_IRQ_Detect_LocationEj20NGPIO_Interrupt_TypeRjS1_+0xe4>
/mnt/c/Users/Kuba/Documents/ZeroMate/examples/20-UART_game/kernel/src/drivers/gpio.cpp:132 (discriminator 2)
    8860:	e3a0201d 	mov	r2, #29
/mnt/c/Users/Kuba/Documents/ZeroMate/examples/20-UART_game/kernel/src/drivers/gpio.cpp:132 (discriminator 4)
    8864:	e51b3014 	ldr	r3, [fp, #-20]	; 0xffffffec
    8868:	e5832000 	str	r2, [r3]
/mnt/c/Users/Kuba/Documents/ZeroMate/examples/20-UART_game/kernel/src/drivers/gpio.cpp:133 (discriminator 4)
            break;
    886c:	ea000001 	b	8878 <_ZNK13CGPIO_Handler26Get_GP_IRQ_Detect_LocationEj20NGPIO_Interrupt_TypeRjS1_+0xf8>
/mnt/c/Users/Kuba/Documents/ZeroMate/examples/20-UART_game/kernel/src/drivers/gpio.cpp:135
        default:
            return false;
    8870:	e3a03000 	mov	r3, #0
    8874:	ea000000 	b	887c <_ZNK13CGPIO_Handler26Get_GP_IRQ_Detect_LocationEj20NGPIO_Interrupt_TypeRjS1_+0xfc>
/mnt/c/Users/Kuba/Documents/ZeroMate/examples/20-UART_game/kernel/src/drivers/gpio.cpp:138
    }

    return true;
    8878:	e3a03001 	mov	r3, #1
/mnt/c/Users/Kuba/Documents/ZeroMate/examples/20-UART_game/kernel/src/drivers/gpio.cpp:139
}
    887c:	e1a00003 	mov	r0, r3
    8880:	e28bd000 	add	sp, fp, #0
    8884:	e49db004 	pop	{fp}		; (ldr fp, [sp], #4)
    8888:	e12fff1e 	bx	lr

0000888c <_ZN13CGPIO_Handler20Disable_Event_DetectEj20NGPIO_Interrupt_Type>:
_ZN13CGPIO_Handler20Disable_Event_DetectEj20NGPIO_Interrupt_Type():
/mnt/c/Users/Kuba/Documents/ZeroMate/examples/20-UART_game/kernel/src/drivers/gpio.cpp:142

void CGPIO_Handler::Disable_Event_Detect(uint32_t pin, NGPIO_Interrupt_Type type)
{
    888c:	e92d4800 	push	{fp, lr}
    8890:	e28db004 	add	fp, sp, #4
    8894:	e24dd028 	sub	sp, sp, #40	; 0x28
    8898:	e50b0018 	str	r0, [fp, #-24]	; 0xffffffe8
    889c:	e50b101c 	str	r1, [fp, #-28]	; 0xffffffe4
    88a0:	e50b2020 	str	r2, [fp, #-32]	; 0xffffffe0
/mnt/c/Users/Kuba/Documents/ZeroMate/examples/20-UART_game/kernel/src/drivers/gpio.cpp:144
    uint32_t reg, bit;
    if (!Get_GP_IRQ_Detect_Location(pin, type, reg, bit))
    88a4:	e24b200c 	sub	r2, fp, #12
    88a8:	e24b3010 	sub	r3, fp, #16
    88ac:	e58d3000 	str	r3, [sp]
    88b0:	e1a03002 	mov	r3, r2
    88b4:	e51b2020 	ldr	r2, [fp, #-32]	; 0xffffffe0
    88b8:	e51b101c 	ldr	r1, [fp, #-28]	; 0xffffffe4
    88bc:	e51b0018 	ldr	r0, [fp, #-24]	; 0xffffffe8
    88c0:	ebffffae 	bl	8780 <_ZNK13CGPIO_Handler26Get_GP_IRQ_Detect_LocationEj20NGPIO_Interrupt_TypeRjS1_>
    88c4:	e1a03000 	mov	r3, r0
    88c8:	e2233001 	eor	r3, r3, #1
    88cc:	e6ef3073 	uxtb	r3, r3
    88d0:	e3530000 	cmp	r3, #0
    88d4:	1a000016 	bne	8934 <_ZN13CGPIO_Handler20Disable_Event_DetectEj20NGPIO_Interrupt_Type+0xa8>
/mnt/c/Users/Kuba/Documents/ZeroMate/examples/20-UART_game/kernel/src/drivers/gpio.cpp:147
        return;

    uint32_t val = mGPIO[reg];
    88d8:	e51b3018 	ldr	r3, [fp, #-24]	; 0xffffffe8
    88dc:	e5932000 	ldr	r2, [r3]
    88e0:	e51b300c 	ldr	r3, [fp, #-12]
    88e4:	e1a03103 	lsl	r3, r3, #2
    88e8:	e0823003 	add	r3, r2, r3
    88ec:	e5933000 	ldr	r3, [r3]
    88f0:	e50b3008 	str	r3, [fp, #-8]
/mnt/c/Users/Kuba/Documents/ZeroMate/examples/20-UART_game/kernel/src/drivers/gpio.cpp:148
    val &= ~(1 << bit);
    88f4:	e51b3010 	ldr	r3, [fp, #-16]
    88f8:	e3a02001 	mov	r2, #1
    88fc:	e1a03312 	lsl	r3, r2, r3
    8900:	e1e03003 	mvn	r3, r3
    8904:	e1a02003 	mov	r2, r3
    8908:	e51b3008 	ldr	r3, [fp, #-8]
    890c:	e0033002 	and	r3, r3, r2
    8910:	e50b3008 	str	r3, [fp, #-8]
/mnt/c/Users/Kuba/Documents/ZeroMate/examples/20-UART_game/kernel/src/drivers/gpio.cpp:149
    mGPIO[reg] = val;
    8914:	e51b3018 	ldr	r3, [fp, #-24]	; 0xffffffe8
    8918:	e5932000 	ldr	r2, [r3]
    891c:	e51b300c 	ldr	r3, [fp, #-12]
    8920:	e1a03103 	lsl	r3, r3, #2
    8924:	e0823003 	add	r3, r2, r3
    8928:	e51b2008 	ldr	r2, [fp, #-8]
    892c:	e5832000 	str	r2, [r3]
    8930:	ea000000 	b	8938 <_ZN13CGPIO_Handler20Disable_Event_DetectEj20NGPIO_Interrupt_Type+0xac>
/mnt/c/Users/Kuba/Documents/ZeroMate/examples/20-UART_game/kernel/src/drivers/gpio.cpp:145
        return;
    8934:	e320f000 	nop	{0}
/mnt/c/Users/Kuba/Documents/ZeroMate/examples/20-UART_game/kernel/src/drivers/gpio.cpp:150
}
    8938:	e24bd004 	sub	sp, fp, #4
    893c:	e8bd8800 	pop	{fp, pc}

00008940 <_ZN13CGPIO_Handler10Set_OutputEjb>:
_ZN13CGPIO_Handler10Set_OutputEjb():
/mnt/c/Users/Kuba/Documents/ZeroMate/examples/20-UART_game/kernel/src/drivers/gpio.cpp:153

void CGPIO_Handler::Set_Output(uint32_t pin, bool set)
{
    8940:	e92d4800 	push	{fp, lr}
    8944:	e28db004 	add	fp, sp, #4
    8948:	e24dd018 	sub	sp, sp, #24
    894c:	e50b0010 	str	r0, [fp, #-16]
    8950:	e50b1014 	str	r1, [fp, #-20]	; 0xffffffec
    8954:	e1a03002 	mov	r3, r2
    8958:	e54b3015 	strb	r3, [fp, #-21]	; 0xffffffeb
/mnt/c/Users/Kuba/Documents/ZeroMate/examples/20-UART_game/kernel/src/drivers/gpio.cpp:155
    uint32_t reg, bit;
    if (!(set && Get_GPSET_Location(pin, reg, bit)) && !(!set && Get_GPCLR_Location(pin, reg, bit)))
    895c:	e55b3015 	ldrb	r3, [fp, #-21]	; 0xffffffeb
    8960:	e2233001 	eor	r3, r3, #1
    8964:	e6ef3073 	uxtb	r3, r3
    8968:	e3530000 	cmp	r3, #0
    896c:	1a000009 	bne	8998 <_ZN13CGPIO_Handler10Set_OutputEjb+0x58>
/mnt/c/Users/Kuba/Documents/ZeroMate/examples/20-UART_game/kernel/src/drivers/gpio.cpp:155 (discriminator 2)
    8970:	e24b300c 	sub	r3, fp, #12
    8974:	e24b2008 	sub	r2, fp, #8
    8978:	e51b1014 	ldr	r1, [fp, #-20]	; 0xffffffec
    897c:	e51b0010 	ldr	r0, [fp, #-16]
    8980:	ebfffeda 	bl	84f0 <_ZNK13CGPIO_Handler18Get_GPSET_LocationEjRjS0_>
    8984:	e1a03000 	mov	r3, r0
    8988:	e2233001 	eor	r3, r3, #1
    898c:	e6ef3073 	uxtb	r3, r3
    8990:	e3530000 	cmp	r3, #0
    8994:	0a00000e 	beq	89d4 <_ZN13CGPIO_Handler10Set_OutputEjb+0x94>
/mnt/c/Users/Kuba/Documents/ZeroMate/examples/20-UART_game/kernel/src/drivers/gpio.cpp:155 (discriminator 3)
    8998:	e55b3015 	ldrb	r3, [fp, #-21]	; 0xffffffeb
    899c:	e3530000 	cmp	r3, #0
    89a0:	1a000009 	bne	89cc <_ZN13CGPIO_Handler10Set_OutputEjb+0x8c>
/mnt/c/Users/Kuba/Documents/ZeroMate/examples/20-UART_game/kernel/src/drivers/gpio.cpp:155 (discriminator 6)
    89a4:	e24b300c 	sub	r3, fp, #12
    89a8:	e24b2008 	sub	r2, fp, #8
    89ac:	e51b1014 	ldr	r1, [fp, #-20]	; 0xffffffec
    89b0:	e51b0010 	ldr	r0, [fp, #-16]
    89b4:	ebfffeb0 	bl	847c <_ZNK13CGPIO_Handler18Get_GPCLR_LocationEjRjS0_>
    89b8:	e1a03000 	mov	r3, r0
    89bc:	e2233001 	eor	r3, r3, #1
    89c0:	e6ef3073 	uxtb	r3, r3
    89c4:	e3530000 	cmp	r3, #0
    89c8:	0a000001 	beq	89d4 <_ZN13CGPIO_Handler10Set_OutputEjb+0x94>
/mnt/c/Users/Kuba/Documents/ZeroMate/examples/20-UART_game/kernel/src/drivers/gpio.cpp:155 (discriminator 7)
    89cc:	e3a03001 	mov	r3, #1
    89d0:	ea000000 	b	89d8 <_ZN13CGPIO_Handler10Set_OutputEjb+0x98>
/mnt/c/Users/Kuba/Documents/ZeroMate/examples/20-UART_game/kernel/src/drivers/gpio.cpp:155 (discriminator 8)
    89d4:	e3a03000 	mov	r3, #0
/mnt/c/Users/Kuba/Documents/ZeroMate/examples/20-UART_game/kernel/src/drivers/gpio.cpp:155 (discriminator 10)
    89d8:	e3530000 	cmp	r3, #0
    89dc:	1a00000a 	bne	8a0c <_ZN13CGPIO_Handler10Set_OutputEjb+0xcc>
/mnt/c/Users/Kuba/Documents/ZeroMate/examples/20-UART_game/kernel/src/drivers/gpio.cpp:158
        return;

    mGPIO[reg] = (1 << bit);
    89e0:	e51b300c 	ldr	r3, [fp, #-12]
    89e4:	e3a02001 	mov	r2, #1
    89e8:	e1a01312 	lsl	r1, r2, r3
    89ec:	e51b3010 	ldr	r3, [fp, #-16]
    89f0:	e5932000 	ldr	r2, [r3]
    89f4:	e51b3008 	ldr	r3, [fp, #-8]
    89f8:	e1a03103 	lsl	r3, r3, #2
    89fc:	e0823003 	add	r3, r2, r3
    8a00:	e1a02001 	mov	r2, r1
    8a04:	e5832000 	str	r2, [r3]
    8a08:	ea000000 	b	8a10 <_ZN13CGPIO_Handler10Set_OutputEjb+0xd0>
/mnt/c/Users/Kuba/Documents/ZeroMate/examples/20-UART_game/kernel/src/drivers/gpio.cpp:156
        return;
    8a0c:	e320f000 	nop	{0}
/mnt/c/Users/Kuba/Documents/ZeroMate/examples/20-UART_game/kernel/src/drivers/gpio.cpp:159
}
    8a10:	e24bd004 	sub	sp, fp, #4
    8a14:	e8bd8800 	pop	{fp, pc}

00008a18 <_ZNK13CGPIO_Handler18Get_GPEDS_LocationEjRjS0_>:
_ZNK13CGPIO_Handler18Get_GPEDS_LocationEjRjS0_():
/mnt/c/Users/Kuba/Documents/ZeroMate/examples/20-UART_game/kernel/src/drivers/gpio.cpp:162

bool CGPIO_Handler::Get_GPEDS_Location(uint32_t pin, uint32_t& reg, uint32_t& bit_idx) const
{
    8a18:	e52db004 	push	{fp}		; (str fp, [sp, #-4]!)
    8a1c:	e28db000 	add	fp, sp, #0
    8a20:	e24dd014 	sub	sp, sp, #20
    8a24:	e50b0008 	str	r0, [fp, #-8]
    8a28:	e50b100c 	str	r1, [fp, #-12]
    8a2c:	e50b2010 	str	r2, [fp, #-16]
    8a30:	e50b3014 	str	r3, [fp, #-20]	; 0xffffffec
/mnt/c/Users/Kuba/Documents/ZeroMate/examples/20-UART_game/kernel/src/drivers/gpio.cpp:163
    if (pin > hal::GPIO_Pin_Count)
    8a34:	e51b300c 	ldr	r3, [fp, #-12]
    8a38:	e3530036 	cmp	r3, #54	; 0x36
    8a3c:	9a000001 	bls	8a48 <_ZNK13CGPIO_Handler18Get_GPEDS_LocationEjRjS0_+0x30>
/mnt/c/Users/Kuba/Documents/ZeroMate/examples/20-UART_game/kernel/src/drivers/gpio.cpp:164
        return false;
    8a40:	e3a03000 	mov	r3, #0
    8a44:	ea00000c 	b	8a7c <_ZNK13CGPIO_Handler18Get_GPEDS_LocationEjRjS0_+0x64>
/mnt/c/Users/Kuba/Documents/ZeroMate/examples/20-UART_game/kernel/src/drivers/gpio.cpp:166

    reg = static_cast<uint32_t>((pin < 32) ? hal::GPIO_Reg::GPEDS0 : hal::GPIO_Reg::GPEDS1);
    8a48:	e51b300c 	ldr	r3, [fp, #-12]
    8a4c:	e353001f 	cmp	r3, #31
    8a50:	8a000001 	bhi	8a5c <_ZNK13CGPIO_Handler18Get_GPEDS_LocationEjRjS0_+0x44>
/mnt/c/Users/Kuba/Documents/ZeroMate/examples/20-UART_game/kernel/src/drivers/gpio.cpp:166 (discriminator 1)
    8a54:	e3a02010 	mov	r2, #16
    8a58:	ea000000 	b	8a60 <_ZNK13CGPIO_Handler18Get_GPEDS_LocationEjRjS0_+0x48>
/mnt/c/Users/Kuba/Documents/ZeroMate/examples/20-UART_game/kernel/src/drivers/gpio.cpp:166 (discriminator 2)
    8a5c:	e3a02011 	mov	r2, #17
/mnt/c/Users/Kuba/Documents/ZeroMate/examples/20-UART_game/kernel/src/drivers/gpio.cpp:166 (discriminator 4)
    8a60:	e51b3010 	ldr	r3, [fp, #-16]
    8a64:	e5832000 	str	r2, [r3]
/mnt/c/Users/Kuba/Documents/ZeroMate/examples/20-UART_game/kernel/src/drivers/gpio.cpp:167 (discriminator 4)
    bit_idx = pin % 32;
    8a68:	e51b300c 	ldr	r3, [fp, #-12]
    8a6c:	e203201f 	and	r2, r3, #31
    8a70:	e51b3014 	ldr	r3, [fp, #-20]	; 0xffffffec
    8a74:	e5832000 	str	r2, [r3]
/mnt/c/Users/Kuba/Documents/ZeroMate/examples/20-UART_game/kernel/src/drivers/gpio.cpp:169 (discriminator 4)

    return true;
    8a78:	e3a03001 	mov	r3, #1
/mnt/c/Users/Kuba/Documents/ZeroMate/examples/20-UART_game/kernel/src/drivers/gpio.cpp:170
}
    8a7c:	e1a00003 	mov	r0, r3
    8a80:	e28bd000 	add	sp, fp, #0
    8a84:	e49db004 	pop	{fp}		; (ldr fp, [sp], #4)
    8a88:	e12fff1e 	bx	lr

00008a8c <_ZN13CGPIO_Handler20Clear_Detected_EventEj>:
_ZN13CGPIO_Handler20Clear_Detected_EventEj():
/mnt/c/Users/Kuba/Documents/ZeroMate/examples/20-UART_game/kernel/src/drivers/gpio.cpp:173

void CGPIO_Handler::Clear_Detected_Event(uint32_t pin)
{
    8a8c:	e92d4800 	push	{fp, lr}
    8a90:	e28db004 	add	fp, sp, #4
    8a94:	e24dd010 	sub	sp, sp, #16
    8a98:	e50b0010 	str	r0, [fp, #-16]
    8a9c:	e50b1014 	str	r1, [fp, #-20]	; 0xffffffec
/mnt/c/Users/Kuba/Documents/ZeroMate/examples/20-UART_game/kernel/src/drivers/gpio.cpp:175
    uint32_t reg, bit;
    if (!Get_GPEDS_Location(pin, reg, bit))
    8aa0:	e24b300c 	sub	r3, fp, #12
    8aa4:	e24b2008 	sub	r2, fp, #8
    8aa8:	e51b1014 	ldr	r1, [fp, #-20]	; 0xffffffec
    8aac:	e51b0010 	ldr	r0, [fp, #-16]
    8ab0:	ebffffd8 	bl	8a18 <_ZNK13CGPIO_Handler18Get_GPEDS_LocationEjRjS0_>
    8ab4:	e1a03000 	mov	r3, r0
    8ab8:	e2233001 	eor	r3, r3, #1
    8abc:	e6ef3073 	uxtb	r3, r3
    8ac0:	e3530000 	cmp	r3, #0
    8ac4:	1a00000a 	bne	8af4 <_ZN13CGPIO_Handler20Clear_Detected_EventEj+0x68>
/mnt/c/Users/Kuba/Documents/ZeroMate/examples/20-UART_game/kernel/src/drivers/gpio.cpp:179
        return;

    // BCM2835 manual: "The bit is cleared by writing a '1' to the relevant bit."
    mGPIO[reg] = 1 << bit;
    8ac8:	e51b300c 	ldr	r3, [fp, #-12]
    8acc:	e3a02001 	mov	r2, #1
    8ad0:	e1a01312 	lsl	r1, r2, r3
    8ad4:	e51b3010 	ldr	r3, [fp, #-16]
    8ad8:	e5932000 	ldr	r2, [r3]
    8adc:	e51b3008 	ldr	r3, [fp, #-8]
    8ae0:	e1a03103 	lsl	r3, r3, #2
    8ae4:	e0823003 	add	r3, r2, r3
    8ae8:	e1a02001 	mov	r2, r1
    8aec:	e5832000 	str	r2, [r3]
    8af0:	ea000000 	b	8af8 <_ZN13CGPIO_Handler20Clear_Detected_EventEj+0x6c>
/mnt/c/Users/Kuba/Documents/ZeroMate/examples/20-UART_game/kernel/src/drivers/gpio.cpp:176
        return;
    8af4:	e320f000 	nop	{0}
/mnt/c/Users/Kuba/Documents/ZeroMate/examples/20-UART_game/kernel/src/drivers/gpio.cpp:180
    8af8:	e24bd004 	sub	sp, fp, #4
    8afc:	e8bd8800 	pop	{fp, pc}

00008b00 <_Z41__static_initialization_and_destruction_0ii>:
_Z41__static_initialization_and_destruction_0ii():
/mnt/c/Users/Kuba/Documents/ZeroMate/examples/20-UART_game/kernel/src/drivers/gpio.cpp:180
    8b00:	e92d4800 	push	{fp, lr}
    8b04:	e28db004 	add	fp, sp, #4
    8b08:	e24dd008 	sub	sp, sp, #8
    8b0c:	e50b0008 	str	r0, [fp, #-8]
    8b10:	e50b100c 	str	r1, [fp, #-12]
    8b14:	e51b3008 	ldr	r3, [fp, #-8]
    8b18:	e3530001 	cmp	r3, #1
    8b1c:	1a000006 	bne	8b3c <_Z41__static_initialization_and_destruction_0ii+0x3c>
/mnt/c/Users/Kuba/Documents/ZeroMate/examples/20-UART_game/kernel/src/drivers/gpio.cpp:180 (discriminator 1)
    8b20:	e51b300c 	ldr	r3, [fp, #-12]
    8b24:	e59f201c 	ldr	r2, [pc, #28]	; 8b48 <_Z41__static_initialization_and_destruction_0ii+0x48>
    8b28:	e1530002 	cmp	r3, r2
    8b2c:	1a000002 	bne	8b3c <_Z41__static_initialization_and_destruction_0ii+0x3c>
/mnt/c/Users/Kuba/Documents/ZeroMate/examples/20-UART_game/kernel/src/drivers/gpio.cpp:4
CGPIO_Handler sGPIO(hal::GPIO_Base);
    8b30:	e59f1014 	ldr	r1, [pc, #20]	; 8b4c <_Z41__static_initialization_and_destruction_0ii+0x4c>
    8b34:	e59f0014 	ldr	r0, [pc, #20]	; 8b50 <_Z41__static_initialization_and_destruction_0ii+0x50>
    8b38:	ebfffdfd 	bl	8334 <_ZN13CGPIO_HandlerC1Ej>
/mnt/c/Users/Kuba/Documents/ZeroMate/examples/20-UART_game/kernel/src/drivers/gpio.cpp:180
    8b3c:	e320f000 	nop	{0}
    8b40:	e24bd004 	sub	sp, fp, #4
    8b44:	e8bd8800 	pop	{fp, pc}
    8b48:	0000ffff 	strdeq	pc, [r0], -pc	; <UNPREDICTABLE>
    8b4c:	20200000 	eorcs	r0, r0, r0
    8b50:	0000aa1c 	andeq	sl, r0, ip, lsl sl

00008b54 <_GLOBAL__sub_I_sGPIO>:
_GLOBAL__sub_I_sGPIO():
/mnt/c/Users/Kuba/Documents/ZeroMate/examples/20-UART_game/kernel/src/drivers/gpio.cpp:180
    8b54:	e92d4800 	push	{fp, lr}
    8b58:	e28db004 	add	fp, sp, #4
    8b5c:	e59f1008 	ldr	r1, [pc, #8]	; 8b6c <_GLOBAL__sub_I_sGPIO+0x18>
    8b60:	e3a00001 	mov	r0, #1
    8b64:	ebffffe5 	bl	8b00 <_Z41__static_initialization_and_destruction_0ii>
    8b68:	e8bd8800 	pop	{fp, pc}
    8b6c:	0000ffff 	strdeq	pc, [r0], -pc	; <UNPREDICTABLE>

00008b70 <_ZN8CMonitorC1Ejjj>:
_ZN8CMonitorC2Ejjj():
/mnt/c/Users/Kuba/Documents/ZeroMate/examples/20-UART_game/kernel/src/drivers/monitor.cpp:5
#include <drivers/monitor.h>

CMonitor sMonitor{ 0x30000000, 80, 25 };

CMonitor::CMonitor(unsigned int monitor_base_addr, unsigned int width, unsigned int height)
    8b70:	e52db004 	push	{fp}		; (str fp, [sp, #-4]!)
    8b74:	e28db000 	add	fp, sp, #0
    8b78:	e24dd014 	sub	sp, sp, #20
    8b7c:	e50b0008 	str	r0, [fp, #-8]
    8b80:	e50b100c 	str	r1, [fp, #-12]
    8b84:	e50b2010 	str	r2, [fp, #-16]
    8b88:	e50b3014 	str	r3, [fp, #-20]	; 0xffffffec
/mnt/c/Users/Kuba/Documents/ZeroMate/examples/20-UART_game/kernel/src/drivers/monitor.cpp:6
: m_monitor{ reinterpret_cast<unsigned char*>(monitor_base_addr) }
    8b8c:	e51b200c 	ldr	r2, [fp, #-12]
/mnt/c/Users/Kuba/Documents/ZeroMate/examples/20-UART_game/kernel/src/drivers/monitor.cpp:10
, m_width{ width }
, m_height{ height }
, m_cursor{ 0, 0 }
, m_number_base{ DEFAULT_NUMBER_BASE }
    8b90:	e51b3008 	ldr	r3, [fp, #-8]
    8b94:	e5832000 	str	r2, [r3]
    8b98:	e51b3008 	ldr	r3, [fp, #-8]
    8b9c:	e51b2010 	ldr	r2, [fp, #-16]
    8ba0:	e5832004 	str	r2, [r3, #4]
    8ba4:	e51b3008 	ldr	r3, [fp, #-8]
    8ba8:	e51b2014 	ldr	r2, [fp, #-20]	; 0xffffffec
    8bac:	e5832008 	str	r2, [r3, #8]
    8bb0:	e51b3008 	ldr	r3, [fp, #-8]
    8bb4:	e3a02000 	mov	r2, #0
    8bb8:	e583200c 	str	r2, [r3, #12]
    8bbc:	e51b3008 	ldr	r3, [fp, #-8]
    8bc0:	e3a02000 	mov	r2, #0
    8bc4:	e5832010 	str	r2, [r3, #16]
    8bc8:	e51b3008 	ldr	r3, [fp, #-8]
    8bcc:	e3a0200a 	mov	r2, #10
    8bd0:	e5832014 	str	r2, [r3, #20]
/mnt/c/Users/Kuba/Documents/ZeroMate/examples/20-UART_game/kernel/src/drivers/monitor.cpp:12
{
}
    8bd4:	e51b3008 	ldr	r3, [fp, #-8]
    8bd8:	e1a00003 	mov	r0, r3
    8bdc:	e28bd000 	add	sp, fp, #0
    8be0:	e49db004 	pop	{fp}		; (ldr fp, [sp], #4)
    8be4:	e12fff1e 	bx	lr

00008be8 <_ZN8CMonitor5ClearEv>:
_ZN8CMonitor5ClearEv():
/mnt/c/Users/Kuba/Documents/ZeroMate/examples/20-UART_game/kernel/src/drivers/monitor.cpp:21
    m_cursor.y = 0;
    m_cursor.y = 0;
}

void CMonitor::Clear()
{
    8be8:	e92d4800 	push	{fp, lr}
    8bec:	e28db004 	add	fp, sp, #4
    8bf0:	e24dd010 	sub	sp, sp, #16
    8bf4:	e50b0010 	str	r0, [fp, #-16]
/mnt/c/Users/Kuba/Documents/ZeroMate/examples/20-UART_game/kernel/src/drivers/monitor.cpp:22
    Reset_Cursor();
    8bf8:	e51b0010 	ldr	r0, [fp, #-16]
    8bfc:	eb00016d 	bl	91b8 <_ZN8CMonitor12Reset_CursorEv>
/mnt/c/Users/Kuba/Documents/ZeroMate/examples/20-UART_game/kernel/src/drivers/monitor.cpp:24

    for (unsigned int y = 0; y < m_height; ++y)
    8c00:	e3a03000 	mov	r3, #0
    8c04:	e50b3008 	str	r3, [fp, #-8]
/mnt/c/Users/Kuba/Documents/ZeroMate/examples/20-UART_game/kernel/src/drivers/monitor.cpp:24 (discriminator 1)
    8c08:	e51b3010 	ldr	r3, [fp, #-16]
    8c0c:	e5933008 	ldr	r3, [r3, #8]
    8c10:	e51b2008 	ldr	r2, [fp, #-8]
    8c14:	e1520003 	cmp	r2, r3
    8c18:	2a000019 	bcs	8c84 <_ZN8CMonitor5ClearEv+0x9c>
/mnt/c/Users/Kuba/Documents/ZeroMate/examples/20-UART_game/kernel/src/drivers/monitor.cpp:26
    {
        for (unsigned int x = 0; x < m_width; ++x)
    8c1c:	e3a03000 	mov	r3, #0
    8c20:	e50b300c 	str	r3, [fp, #-12]
/mnt/c/Users/Kuba/Documents/ZeroMate/examples/20-UART_game/kernel/src/drivers/monitor.cpp:26 (discriminator 3)
    8c24:	e51b3010 	ldr	r3, [fp, #-16]
    8c28:	e5933004 	ldr	r3, [r3, #4]
    8c2c:	e51b200c 	ldr	r2, [fp, #-12]
    8c30:	e1520003 	cmp	r2, r3
    8c34:	2a00000e 	bcs	8c74 <_ZN8CMonitor5ClearEv+0x8c>
/mnt/c/Users/Kuba/Documents/ZeroMate/examples/20-UART_game/kernel/src/drivers/monitor.cpp:28 (discriminator 2)
        {
            m_monitor[(y * m_width) + x] = ' ';
    8c38:	e51b3010 	ldr	r3, [fp, #-16]
    8c3c:	e5932000 	ldr	r2, [r3]
    8c40:	e51b3010 	ldr	r3, [fp, #-16]
    8c44:	e5933004 	ldr	r3, [r3, #4]
    8c48:	e51b1008 	ldr	r1, [fp, #-8]
    8c4c:	e0010391 	mul	r1, r1, r3
    8c50:	e51b300c 	ldr	r3, [fp, #-12]
    8c54:	e0813003 	add	r3, r1, r3
    8c58:	e0823003 	add	r3, r2, r3
    8c5c:	e3a02020 	mov	r2, #32
    8c60:	e5c32000 	strb	r2, [r3]
/mnt/c/Users/Kuba/Documents/ZeroMate/examples/20-UART_game/kernel/src/drivers/monitor.cpp:26 (discriminator 2)
        for (unsigned int x = 0; x < m_width; ++x)
    8c64:	e51b300c 	ldr	r3, [fp, #-12]
    8c68:	e2833001 	add	r3, r3, #1
    8c6c:	e50b300c 	str	r3, [fp, #-12]
    8c70:	eaffffeb 	b	8c24 <_ZN8CMonitor5ClearEv+0x3c>
/mnt/c/Users/Kuba/Documents/ZeroMate/examples/20-UART_game/kernel/src/drivers/monitor.cpp:24 (discriminator 2)
    for (unsigned int y = 0; y < m_height; ++y)
    8c74:	e51b3008 	ldr	r3, [fp, #-8]
    8c78:	e2833001 	add	r3, r3, #1
    8c7c:	e50b3008 	str	r3, [fp, #-8]
    8c80:	eaffffe0 	b	8c08 <_ZN8CMonitor5ClearEv+0x20>
/mnt/c/Users/Kuba/Documents/ZeroMate/examples/20-UART_game/kernel/src/drivers/monitor.cpp:31
        }
    }
}
    8c84:	e320f000 	nop	{0}
    8c88:	e24bd004 	sub	sp, fp, #4
    8c8c:	e8bd8800 	pop	{fp, pc}

00008c90 <_ZN8CMonitor6ScrollEv>:
_ZN8CMonitor6ScrollEv():
/mnt/c/Users/Kuba/Documents/ZeroMate/examples/20-UART_game/kernel/src/drivers/monitor.cpp:49
        m_cursor.y = m_height - 1;
    }
}

void CMonitor::Scroll()
{
    8c90:	e52db004 	push	{fp}		; (str fp, [sp, #-4]!)
    8c94:	e28db000 	add	fp, sp, #0
    8c98:	e24dd01c 	sub	sp, sp, #28
    8c9c:	e50b0018 	str	r0, [fp, #-24]	; 0xffffffe8
/mnt/c/Users/Kuba/Documents/ZeroMate/examples/20-UART_game/kernel/src/drivers/monitor.cpp:50
    for (unsigned int y = 1; y < m_height; ++y)
    8ca0:	e3a03001 	mov	r3, #1
    8ca4:	e50b3008 	str	r3, [fp, #-8]
/mnt/c/Users/Kuba/Documents/ZeroMate/examples/20-UART_game/kernel/src/drivers/monitor.cpp:50 (discriminator 1)
    8ca8:	e51b3018 	ldr	r3, [fp, #-24]	; 0xffffffe8
    8cac:	e5933008 	ldr	r3, [r3, #8]
    8cb0:	e51b2008 	ldr	r2, [fp, #-8]
    8cb4:	e1520003 	cmp	r2, r3
    8cb8:	2a000024 	bcs	8d50 <_ZN8CMonitor6ScrollEv+0xc0>
/mnt/c/Users/Kuba/Documents/ZeroMate/examples/20-UART_game/kernel/src/drivers/monitor.cpp:52
    {
        for (unsigned int x = 0; x < m_width; ++x)
    8cbc:	e3a03000 	mov	r3, #0
    8cc0:	e50b300c 	str	r3, [fp, #-12]
/mnt/c/Users/Kuba/Documents/ZeroMate/examples/20-UART_game/kernel/src/drivers/monitor.cpp:52 (discriminator 3)
    8cc4:	e51b3018 	ldr	r3, [fp, #-24]	; 0xffffffe8
    8cc8:	e5933004 	ldr	r3, [r3, #4]
    8ccc:	e51b200c 	ldr	r2, [fp, #-12]
    8cd0:	e1520003 	cmp	r2, r3
    8cd4:	2a000019 	bcs	8d40 <_ZN8CMonitor6ScrollEv+0xb0>
/mnt/c/Users/Kuba/Documents/ZeroMate/examples/20-UART_game/kernel/src/drivers/monitor.cpp:54 (discriminator 2)
        {
            m_monitor[((y - 1) * m_width) + x] = m_monitor[(y * m_width) + x];
    8cd8:	e51b3018 	ldr	r3, [fp, #-24]	; 0xffffffe8
    8cdc:	e5932000 	ldr	r2, [r3]
    8ce0:	e51b3018 	ldr	r3, [fp, #-24]	; 0xffffffe8
    8ce4:	e5933004 	ldr	r3, [r3, #4]
    8ce8:	e51b1008 	ldr	r1, [fp, #-8]
    8cec:	e0010391 	mul	r1, r1, r3
    8cf0:	e51b300c 	ldr	r3, [fp, #-12]
    8cf4:	e0813003 	add	r3, r1, r3
    8cf8:	e0822003 	add	r2, r2, r3
    8cfc:	e51b3018 	ldr	r3, [fp, #-24]	; 0xffffffe8
    8d00:	e5931000 	ldr	r1, [r3]
    8d04:	e51b3008 	ldr	r3, [fp, #-8]
    8d08:	e2433001 	sub	r3, r3, #1
    8d0c:	e51b0018 	ldr	r0, [fp, #-24]	; 0xffffffe8
    8d10:	e5900004 	ldr	r0, [r0, #4]
    8d14:	e0000390 	mul	r0, r0, r3
    8d18:	e51b300c 	ldr	r3, [fp, #-12]
    8d1c:	e0803003 	add	r3, r0, r3
    8d20:	e0813003 	add	r3, r1, r3
    8d24:	e5d22000 	ldrb	r2, [r2]
    8d28:	e6ef2072 	uxtb	r2, r2
    8d2c:	e5c32000 	strb	r2, [r3]
/mnt/c/Users/Kuba/Documents/ZeroMate/examples/20-UART_game/kernel/src/drivers/monitor.cpp:52 (discriminator 2)
        for (unsigned int x = 0; x < m_width; ++x)
    8d30:	e51b300c 	ldr	r3, [fp, #-12]
    8d34:	e2833001 	add	r3, r3, #1
    8d38:	e50b300c 	str	r3, [fp, #-12]
    8d3c:	eaffffe0 	b	8cc4 <_ZN8CMonitor6ScrollEv+0x34>
/mnt/c/Users/Kuba/Documents/ZeroMate/examples/20-UART_game/kernel/src/drivers/monitor.cpp:50 (discriminator 2)
    for (unsigned int y = 1; y < m_height; ++y)
    8d40:	e51b3008 	ldr	r3, [fp, #-8]
    8d44:	e2833001 	add	r3, r3, #1
    8d48:	e50b3008 	str	r3, [fp, #-8]
    8d4c:	eaffffd5 	b	8ca8 <_ZN8CMonitor6ScrollEv+0x18>
/mnt/c/Users/Kuba/Documents/ZeroMate/examples/20-UART_game/kernel/src/drivers/monitor.cpp:58
        }
    }

    for (unsigned int x = 0; x < m_width; ++x)
    8d50:	e3a03000 	mov	r3, #0
    8d54:	e50b3010 	str	r3, [fp, #-16]
/mnt/c/Users/Kuba/Documents/ZeroMate/examples/20-UART_game/kernel/src/drivers/monitor.cpp:58 (discriminator 3)
    8d58:	e51b3018 	ldr	r3, [fp, #-24]	; 0xffffffe8
    8d5c:	e5933004 	ldr	r3, [r3, #4]
    8d60:	e51b2010 	ldr	r2, [fp, #-16]
    8d64:	e1520003 	cmp	r2, r3
    8d68:	2a000010 	bcs	8db0 <_ZN8CMonitor6ScrollEv+0x120>
/mnt/c/Users/Kuba/Documents/ZeroMate/examples/20-UART_game/kernel/src/drivers/monitor.cpp:60 (discriminator 2)
    {
        m_monitor[((m_height - 1) * m_width) + x] = ' ';
    8d6c:	e51b3018 	ldr	r3, [fp, #-24]	; 0xffffffe8
    8d70:	e5932000 	ldr	r2, [r3]
    8d74:	e51b3018 	ldr	r3, [fp, #-24]	; 0xffffffe8
    8d78:	e5933008 	ldr	r3, [r3, #8]
    8d7c:	e2433001 	sub	r3, r3, #1
    8d80:	e51b1018 	ldr	r1, [fp, #-24]	; 0xffffffe8
    8d84:	e5911004 	ldr	r1, [r1, #4]
    8d88:	e0010391 	mul	r1, r1, r3
    8d8c:	e51b3010 	ldr	r3, [fp, #-16]
    8d90:	e0813003 	add	r3, r1, r3
    8d94:	e0823003 	add	r3, r2, r3
    8d98:	e3a02020 	mov	r2, #32
    8d9c:	e5c32000 	strb	r2, [r3]
/mnt/c/Users/Kuba/Documents/ZeroMate/examples/20-UART_game/kernel/src/drivers/monitor.cpp:58 (discriminator 2)
    for (unsigned int x = 0; x < m_width; ++x)
    8da0:	e51b3010 	ldr	r3, [fp, #-16]
    8da4:	e2833001 	add	r3, r3, #1
    8da8:	e50b3010 	str	r3, [fp, #-16]
    8dac:	eaffffe9 	b	8d58 <_ZN8CMonitor6ScrollEv+0xc8>
/mnt/c/Users/Kuba/Documents/ZeroMate/examples/20-UART_game/kernel/src/drivers/monitor.cpp:62
    }
}
    8db0:	e320f000 	nop	{0}
    8db4:	e28bd000 	add	sp, fp, #0
    8db8:	e49db004 	pop	{fp}		; (ldr fp, [sp], #4)
    8dbc:	e12fff1e 	bx	lr

00008dc0 <_ZN8CMonitorlsEc>:
_ZN8CMonitorlsEc():
/mnt/c/Users/Kuba/Documents/ZeroMate/examples/20-UART_game/kernel/src/drivers/monitor.cpp:70
{
    m_number_base = DEFAULT_NUMBER_BASE;
}

CMonitor& CMonitor::operator<<(char c)
{
    8dc0:	e92d4800 	push	{fp, lr}
    8dc4:	e28db004 	add	fp, sp, #4
    8dc8:	e24dd008 	sub	sp, sp, #8
    8dcc:	e50b0008 	str	r0, [fp, #-8]
    8dd0:	e1a03001 	mov	r3, r1
    8dd4:	e54b3009 	strb	r3, [fp, #-9]
/mnt/c/Users/Kuba/Documents/ZeroMate/examples/20-UART_game/kernel/src/drivers/monitor.cpp:71
    if (c != '\n')
    8dd8:	e55b3009 	ldrb	r3, [fp, #-9]
    8ddc:	e353000a 	cmp	r3, #10
    8de0:	0a000012 	beq	8e30 <_ZN8CMonitorlsEc+0x70>
/mnt/c/Users/Kuba/Documents/ZeroMate/examples/20-UART_game/kernel/src/drivers/monitor.cpp:73
    {
        m_monitor[(m_cursor.y * m_width) + m_cursor.x] = static_cast<unsigned char>(c);
    8de4:	e51b3008 	ldr	r3, [fp, #-8]
    8de8:	e5932000 	ldr	r2, [r3]
    8dec:	e51b3008 	ldr	r3, [fp, #-8]
    8df0:	e593300c 	ldr	r3, [r3, #12]
    8df4:	e51b1008 	ldr	r1, [fp, #-8]
    8df8:	e5911004 	ldr	r1, [r1, #4]
    8dfc:	e0010391 	mul	r1, r1, r3
    8e00:	e51b3008 	ldr	r3, [fp, #-8]
    8e04:	e5933010 	ldr	r3, [r3, #16]
    8e08:	e0813003 	add	r3, r1, r3
    8e0c:	e0823003 	add	r3, r2, r3
    8e10:	e55b2009 	ldrb	r2, [fp, #-9]
    8e14:	e5c32000 	strb	r2, [r3]
/mnt/c/Users/Kuba/Documents/ZeroMate/examples/20-UART_game/kernel/src/drivers/monitor.cpp:74
        ++m_cursor.x;
    8e18:	e51b3008 	ldr	r3, [fp, #-8]
    8e1c:	e5933010 	ldr	r3, [r3, #16]
    8e20:	e2832001 	add	r2, r3, #1
    8e24:	e51b3008 	ldr	r3, [fp, #-8]
    8e28:	e5832010 	str	r2, [r3, #16]
    8e2c:	ea000007 	b	8e50 <_ZN8CMonitorlsEc+0x90>
/mnt/c/Users/Kuba/Documents/ZeroMate/examples/20-UART_game/kernel/src/drivers/monitor.cpp:78
    }
    else
    {
        m_cursor.x = 0;
    8e30:	e51b3008 	ldr	r3, [fp, #-8]
    8e34:	e3a02000 	mov	r2, #0
    8e38:	e5832010 	str	r2, [r3, #16]
/mnt/c/Users/Kuba/Documents/ZeroMate/examples/20-UART_game/kernel/src/drivers/monitor.cpp:79
        ++m_cursor.y;
    8e3c:	e51b3008 	ldr	r3, [fp, #-8]
    8e40:	e593300c 	ldr	r3, [r3, #12]
    8e44:	e2832001 	add	r2, r3, #1
    8e48:	e51b3008 	ldr	r3, [fp, #-8]
    8e4c:	e583200c 	str	r2, [r3, #12]
/mnt/c/Users/Kuba/Documents/ZeroMate/examples/20-UART_game/kernel/src/drivers/monitor.cpp:82
    }

    Adjust_Cursor();
    8e50:	e51b0008 	ldr	r0, [fp, #-8]
    8e54:	eb0000e5 	bl	91f0 <_ZN8CMonitor13Adjust_CursorEv>
/mnt/c/Users/Kuba/Documents/ZeroMate/examples/20-UART_game/kernel/src/drivers/monitor.cpp:84

    return *this;
    8e58:	e51b3008 	ldr	r3, [fp, #-8]
/mnt/c/Users/Kuba/Documents/ZeroMate/examples/20-UART_game/kernel/src/drivers/monitor.cpp:85
}
    8e5c:	e1a00003 	mov	r0, r3
    8e60:	e24bd004 	sub	sp, fp, #4
    8e64:	e8bd8800 	pop	{fp, pc}

00008e68 <_ZN8CMonitorlsEPKc>:
_ZN8CMonitorlsEPKc():
/mnt/c/Users/Kuba/Documents/ZeroMate/examples/20-UART_game/kernel/src/drivers/monitor.cpp:88

CMonitor& CMonitor::operator<<(const char* str)
{
    8e68:	e92d4800 	push	{fp, lr}
    8e6c:	e28db004 	add	fp, sp, #4
    8e70:	e24dd010 	sub	sp, sp, #16
    8e74:	e50b0010 	str	r0, [fp, #-16]
    8e78:	e50b1014 	str	r1, [fp, #-20]	; 0xffffffec
/mnt/c/Users/Kuba/Documents/ZeroMate/examples/20-UART_game/kernel/src/drivers/monitor.cpp:89
    for (unsigned int i = 0; str[i] != '\0'; ++i)
    8e7c:	e3a03000 	mov	r3, #0
    8e80:	e50b3008 	str	r3, [fp, #-8]
/mnt/c/Users/Kuba/Documents/ZeroMate/examples/20-UART_game/kernel/src/drivers/monitor.cpp:89 (discriminator 3)
    8e84:	e51b2014 	ldr	r2, [fp, #-20]	; 0xffffffec
    8e88:	e51b3008 	ldr	r3, [fp, #-8]
    8e8c:	e0823003 	add	r3, r2, r3
    8e90:	e5d33000 	ldrb	r3, [r3]
    8e94:	e3530000 	cmp	r3, #0
    8e98:	0a00000a 	beq	8ec8 <_ZN8CMonitorlsEPKc+0x60>
/mnt/c/Users/Kuba/Documents/ZeroMate/examples/20-UART_game/kernel/src/drivers/monitor.cpp:91 (discriminator 2)
    {
        *this << str[i];
    8e9c:	e51b2014 	ldr	r2, [fp, #-20]	; 0xffffffec
    8ea0:	e51b3008 	ldr	r3, [fp, #-8]
    8ea4:	e0823003 	add	r3, r2, r3
    8ea8:	e5d33000 	ldrb	r3, [r3]
    8eac:	e1a01003 	mov	r1, r3
    8eb0:	e51b0010 	ldr	r0, [fp, #-16]
    8eb4:	ebffffc1 	bl	8dc0 <_ZN8CMonitorlsEc>
/mnt/c/Users/Kuba/Documents/ZeroMate/examples/20-UART_game/kernel/src/drivers/monitor.cpp:89 (discriminator 2)
    for (unsigned int i = 0; str[i] != '\0'; ++i)
    8eb8:	e51b3008 	ldr	r3, [fp, #-8]
    8ebc:	e2833001 	add	r3, r3, #1
    8ec0:	e50b3008 	str	r3, [fp, #-8]
    8ec4:	eaffffee 	b	8e84 <_ZN8CMonitorlsEPKc+0x1c>
/mnt/c/Users/Kuba/Documents/ZeroMate/examples/20-UART_game/kernel/src/drivers/monitor.cpp:94
    }

    Reset_Number_Base();
    8ec8:	e51b0010 	ldr	r0, [fp, #-16]
    8ecc:	eb0000e9 	bl	9278 <_ZN8CMonitor17Reset_Number_BaseEv>
/mnt/c/Users/Kuba/Documents/ZeroMate/examples/20-UART_game/kernel/src/drivers/monitor.cpp:96

    return *this;
    8ed0:	e51b3010 	ldr	r3, [fp, #-16]
/mnt/c/Users/Kuba/Documents/ZeroMate/examples/20-UART_game/kernel/src/drivers/monitor.cpp:97
}
    8ed4:	e1a00003 	mov	r0, r3
    8ed8:	e24bd004 	sub	sp, fp, #4
    8edc:	e8bd8800 	pop	{fp, pc}

00008ee0 <_ZN8CMonitorlsENS_12NNumber_BaseE>:
_ZN8CMonitorlsENS_12NNumber_BaseE():
/mnt/c/Users/Kuba/Documents/ZeroMate/examples/20-UART_game/kernel/src/drivers/monitor.cpp:100

CMonitor& CMonitor::operator<<(CMonitor::NNumber_Base number_base)
{
    8ee0:	e52db004 	push	{fp}		; (str fp, [sp, #-4]!)
    8ee4:	e28db000 	add	fp, sp, #0
    8ee8:	e24dd00c 	sub	sp, sp, #12
    8eec:	e50b0008 	str	r0, [fp, #-8]
    8ef0:	e50b100c 	str	r1, [fp, #-12]
/mnt/c/Users/Kuba/Documents/ZeroMate/examples/20-UART_game/kernel/src/drivers/monitor.cpp:101
    m_number_base = number_base;
    8ef4:	e51b3008 	ldr	r3, [fp, #-8]
    8ef8:	e51b200c 	ldr	r2, [fp, #-12]
    8efc:	e5832014 	str	r2, [r3, #20]
/mnt/c/Users/Kuba/Documents/ZeroMate/examples/20-UART_game/kernel/src/drivers/monitor.cpp:103

    return *this;
    8f00:	e51b3008 	ldr	r3, [fp, #-8]
/mnt/c/Users/Kuba/Documents/ZeroMate/examples/20-UART_game/kernel/src/drivers/monitor.cpp:104
}
    8f04:	e1a00003 	mov	r0, r3
    8f08:	e28bd000 	add	sp, fp, #0
    8f0c:	e49db004 	pop	{fp}		; (ldr fp, [sp], #4)
    8f10:	e12fff1e 	bx	lr

00008f14 <_ZN8CMonitorlsEj>:
_ZN8CMonitorlsEj():
/mnt/c/Users/Kuba/Documents/ZeroMate/examples/20-UART_game/kernel/src/drivers/monitor.cpp:107

CMonitor& CMonitor::operator<<(unsigned int num)
{
    8f14:	e92d4800 	push	{fp, lr}
    8f18:	e28db004 	add	fp, sp, #4
    8f1c:	e24dd008 	sub	sp, sp, #8
    8f20:	e50b0008 	str	r0, [fp, #-8]
    8f24:	e50b100c 	str	r1, [fp, #-12]
/mnt/c/Users/Kuba/Documents/ZeroMate/examples/20-UART_game/kernel/src/drivers/monitor.cpp:112
    static constexpr unsigned int BUFFER_SIZE = 16;

    static char s_buffer[BUFFER_SIZE];

    itoa(num, s_buffer, static_cast<unsigned int>(m_number_base));
    8f28:	e51b3008 	ldr	r3, [fp, #-8]
    8f2c:	e5933014 	ldr	r3, [r3, #20]
    8f30:	e59f202c 	ldr	r2, [pc, #44]	; 8f64 <_ZN8CMonitorlsEj+0x50>
    8f34:	e51b100c 	ldr	r1, [fp, #-12]
    8f38:	e51b0008 	ldr	r0, [fp, #-8]
    8f3c:	eb000021 	bl	8fc8 <_ZN8CMonitor4itoaEjPcj>
/mnt/c/Users/Kuba/Documents/ZeroMate/examples/20-UART_game/kernel/src/drivers/monitor.cpp:113
    *this << s_buffer;
    8f40:	e59f101c 	ldr	r1, [pc, #28]	; 8f64 <_ZN8CMonitorlsEj+0x50>
    8f44:	e51b0008 	ldr	r0, [fp, #-8]
    8f48:	ebffffc6 	bl	8e68 <_ZN8CMonitorlsEPKc>
/mnt/c/Users/Kuba/Documents/ZeroMate/examples/20-UART_game/kernel/src/drivers/monitor.cpp:114
    Reset_Number_Base();
    8f4c:	e51b0008 	ldr	r0, [fp, #-8]
    8f50:	eb0000c8 	bl	9278 <_ZN8CMonitor17Reset_Number_BaseEv>
/mnt/c/Users/Kuba/Documents/ZeroMate/examples/20-UART_game/kernel/src/drivers/monitor.cpp:116

    return *this;
    8f54:	e51b3008 	ldr	r3, [fp, #-8]
/mnt/c/Users/Kuba/Documents/ZeroMate/examples/20-UART_game/kernel/src/drivers/monitor.cpp:117
}
    8f58:	e1a00003 	mov	r0, r3
    8f5c:	e24bd004 	sub	sp, fp, #4
    8f60:	e8bd8800 	pop	{fp, pc}
    8f64:	0000aa38 	andeq	sl, r0, r8, lsr sl

00008f68 <_ZN8CMonitorlsEb>:
_ZN8CMonitorlsEb():
/mnt/c/Users/Kuba/Documents/ZeroMate/examples/20-UART_game/kernel/src/drivers/monitor.cpp:120

CMonitor& CMonitor::operator<<(bool value)
{
    8f68:	e92d4800 	push	{fp, lr}
    8f6c:	e28db004 	add	fp, sp, #4
    8f70:	e24dd008 	sub	sp, sp, #8
    8f74:	e50b0008 	str	r0, [fp, #-8]
    8f78:	e1a03001 	mov	r3, r1
    8f7c:	e54b3009 	strb	r3, [fp, #-9]
/mnt/c/Users/Kuba/Documents/ZeroMate/examples/20-UART_game/kernel/src/drivers/monitor.cpp:121
    if (value)
    8f80:	e55b3009 	ldrb	r3, [fp, #-9]
    8f84:	e3530000 	cmp	r3, #0
    8f88:	0a000003 	beq	8f9c <_ZN8CMonitorlsEb+0x34>
/mnt/c/Users/Kuba/Documents/ZeroMate/examples/20-UART_game/kernel/src/drivers/monitor.cpp:123
    {
        *this << "true";
    8f8c:	e59f102c 	ldr	r1, [pc, #44]	; 8fc0 <_ZN8CMonitorlsEb+0x58>
    8f90:	e51b0008 	ldr	r0, [fp, #-8]
    8f94:	ebffffb3 	bl	8e68 <_ZN8CMonitorlsEPKc>
    8f98:	ea000002 	b	8fa8 <_ZN8CMonitorlsEb+0x40>
/mnt/c/Users/Kuba/Documents/ZeroMate/examples/20-UART_game/kernel/src/drivers/monitor.cpp:127
    }
    else
    {
        *this << "false";
    8f9c:	e59f1020 	ldr	r1, [pc, #32]	; 8fc4 <_ZN8CMonitorlsEb+0x5c>
    8fa0:	e51b0008 	ldr	r0, [fp, #-8]
    8fa4:	ebffffaf 	bl	8e68 <_ZN8CMonitorlsEPKc>
/mnt/c/Users/Kuba/Documents/ZeroMate/examples/20-UART_game/kernel/src/drivers/monitor.cpp:130
    }

    Reset_Number_Base();
    8fa8:	e51b0008 	ldr	r0, [fp, #-8]
    8fac:	eb0000b1 	bl	9278 <_ZN8CMonitor17Reset_Number_BaseEv>
/mnt/c/Users/Kuba/Documents/ZeroMate/examples/20-UART_game/kernel/src/drivers/monitor.cpp:132

    return *this;
    8fb0:	e51b3008 	ldr	r3, [fp, #-8]
/mnt/c/Users/Kuba/Documents/ZeroMate/examples/20-UART_game/kernel/src/drivers/monitor.cpp:133
}
    8fb4:	e1a00003 	mov	r0, r3
    8fb8:	e24bd004 	sub	sp, fp, #4
    8fbc:	e8bd8800 	pop	{fp, pc}
    8fc0:	0000a77c 	andeq	sl, r0, ip, ror r7
    8fc4:	0000a784 	andeq	sl, r0, r4, lsl #15

00008fc8 <_ZN8CMonitor4itoaEjPcj>:
_ZN8CMonitor4itoaEjPcj():
/mnt/c/Users/Kuba/Documents/ZeroMate/examples/20-UART_game/kernel/src/drivers/monitor.cpp:136

void CMonitor::itoa(unsigned int input, char* output, unsigned int base)
{
    8fc8:	e92d4800 	push	{fp, lr}
    8fcc:	e28db004 	add	fp, sp, #4
    8fd0:	e24dd020 	sub	sp, sp, #32
    8fd4:	e50b0018 	str	r0, [fp, #-24]	; 0xffffffe8
    8fd8:	e50b101c 	str	r1, [fp, #-28]	; 0xffffffe4
    8fdc:	e50b2020 	str	r2, [fp, #-32]	; 0xffffffe0
    8fe0:	e50b3024 	str	r3, [fp, #-36]	; 0xffffffdc
/mnt/c/Users/Kuba/Documents/ZeroMate/examples/20-UART_game/kernel/src/drivers/monitor.cpp:137
    int i = 0;
    8fe4:	e3a03000 	mov	r3, #0
    8fe8:	e50b3008 	str	r3, [fp, #-8]
/mnt/c/Users/Kuba/Documents/ZeroMate/examples/20-UART_game/kernel/src/drivers/monitor.cpp:139

    while (input > 0)
    8fec:	e51b301c 	ldr	r3, [fp, #-28]	; 0xffffffe4
    8ff0:	e3530000 	cmp	r3, #0
    8ff4:	0a000015 	beq	9050 <_ZN8CMonitor4itoaEjPcj+0x88>
/mnt/c/Users/Kuba/Documents/ZeroMate/examples/20-UART_game/kernel/src/drivers/monitor.cpp:141
    {
        output[i] = CharConvArr[input % base];
    8ff8:	e51b301c 	ldr	r3, [fp, #-28]	; 0xffffffe4
    8ffc:	e51b1024 	ldr	r1, [fp, #-36]	; 0xffffffdc
    9000:	e1a00003 	mov	r0, r3
    9004:	eb000568 	bl	a5ac <__aeabi_uidivmod>
    9008:	e1a03001 	mov	r3, r1
    900c:	e1a02003 	mov	r2, r3
    9010:	e59f3128 	ldr	r3, [pc, #296]	; 9140 <_ZN8CMonitor4itoaEjPcj+0x178>
    9014:	e0822003 	add	r2, r2, r3
    9018:	e51b3008 	ldr	r3, [fp, #-8]
    901c:	e51b1020 	ldr	r1, [fp, #-32]	; 0xffffffe0
    9020:	e0813003 	add	r3, r1, r3
    9024:	e5d22000 	ldrb	r2, [r2]
    9028:	e5c32000 	strb	r2, [r3]
/mnt/c/Users/Kuba/Documents/ZeroMate/examples/20-UART_game/kernel/src/drivers/monitor.cpp:142
        input /= base;
    902c:	e51b1024 	ldr	r1, [fp, #-36]	; 0xffffffdc
    9030:	e51b001c 	ldr	r0, [fp, #-28]	; 0xffffffe4
    9034:	eb0004e1 	bl	a3c0 <__udivsi3>
    9038:	e1a03000 	mov	r3, r0
    903c:	e50b301c 	str	r3, [fp, #-28]	; 0xffffffe4
/mnt/c/Users/Kuba/Documents/ZeroMate/examples/20-UART_game/kernel/src/drivers/monitor.cpp:144

        i++;
    9040:	e51b3008 	ldr	r3, [fp, #-8]
    9044:	e2833001 	add	r3, r3, #1
    9048:	e50b3008 	str	r3, [fp, #-8]
/mnt/c/Users/Kuba/Documents/ZeroMate/examples/20-UART_game/kernel/src/drivers/monitor.cpp:139
    while (input > 0)
    904c:	eaffffe6 	b	8fec <_ZN8CMonitor4itoaEjPcj+0x24>
/mnt/c/Users/Kuba/Documents/ZeroMate/examples/20-UART_game/kernel/src/drivers/monitor.cpp:147
    }

    if (i == 0)
    9050:	e51b3008 	ldr	r3, [fp, #-8]
    9054:	e3530000 	cmp	r3, #0
    9058:	1a000007 	bne	907c <_ZN8CMonitor4itoaEjPcj+0xb4>
/mnt/c/Users/Kuba/Documents/ZeroMate/examples/20-UART_game/kernel/src/drivers/monitor.cpp:149
    {
        output[i] = CharConvArr[0];
    905c:	e51b3008 	ldr	r3, [fp, #-8]
    9060:	e51b2020 	ldr	r2, [fp, #-32]	; 0xffffffe0
    9064:	e0823003 	add	r3, r2, r3
    9068:	e3a02030 	mov	r2, #48	; 0x30
    906c:	e5c32000 	strb	r2, [r3]
/mnt/c/Users/Kuba/Documents/ZeroMate/examples/20-UART_game/kernel/src/drivers/monitor.cpp:150
        i++;
    9070:	e51b3008 	ldr	r3, [fp, #-8]
    9074:	e2833001 	add	r3, r3, #1
    9078:	e50b3008 	str	r3, [fp, #-8]
/mnt/c/Users/Kuba/Documents/ZeroMate/examples/20-UART_game/kernel/src/drivers/monitor.cpp:153
    }

    output[i] = '\0';
    907c:	e51b3008 	ldr	r3, [fp, #-8]
    9080:	e51b2020 	ldr	r2, [fp, #-32]	; 0xffffffe0
    9084:	e0823003 	add	r3, r2, r3
    9088:	e3a02000 	mov	r2, #0
    908c:	e5c32000 	strb	r2, [r3]
/mnt/c/Users/Kuba/Documents/ZeroMate/examples/20-UART_game/kernel/src/drivers/monitor.cpp:154
    i--;
    9090:	e51b3008 	ldr	r3, [fp, #-8]
    9094:	e2433001 	sub	r3, r3, #1
    9098:	e50b3008 	str	r3, [fp, #-8]
/mnt/c/Users/Kuba/Documents/ZeroMate/examples/20-UART_game/kernel/src/drivers/monitor.cpp:156

    for (int j = 0; j <= (i / 2); j++)
    909c:	e3a03000 	mov	r3, #0
    90a0:	e50b300c 	str	r3, [fp, #-12]
/mnt/c/Users/Kuba/Documents/ZeroMate/examples/20-UART_game/kernel/src/drivers/monitor.cpp:156 (discriminator 3)
    90a4:	e51b3008 	ldr	r3, [fp, #-8]
    90a8:	e1a02fa3 	lsr	r2, r3, #31
    90ac:	e0823003 	add	r3, r2, r3
    90b0:	e1a030c3 	asr	r3, r3, #1
    90b4:	e1a02003 	mov	r2, r3
    90b8:	e51b300c 	ldr	r3, [fp, #-12]
    90bc:	e1530002 	cmp	r3, r2
    90c0:	ca00001b 	bgt	9134 <_ZN8CMonitor4itoaEjPcj+0x16c>
/mnt/c/Users/Kuba/Documents/ZeroMate/examples/20-UART_game/kernel/src/drivers/monitor.cpp:158 (discriminator 2)
    {
        char c = output[i - j];
    90c4:	e51b2008 	ldr	r2, [fp, #-8]
    90c8:	e51b300c 	ldr	r3, [fp, #-12]
    90cc:	e0423003 	sub	r3, r2, r3
    90d0:	e1a02003 	mov	r2, r3
    90d4:	e51b3020 	ldr	r3, [fp, #-32]	; 0xffffffe0
    90d8:	e0833002 	add	r3, r3, r2
    90dc:	e5d33000 	ldrb	r3, [r3]
    90e0:	e54b300d 	strb	r3, [fp, #-13]
/mnt/c/Users/Kuba/Documents/ZeroMate/examples/20-UART_game/kernel/src/drivers/monitor.cpp:159 (discriminator 2)
        output[i - j] = output[j];
    90e4:	e51b300c 	ldr	r3, [fp, #-12]
    90e8:	e51b2020 	ldr	r2, [fp, #-32]	; 0xffffffe0
    90ec:	e0822003 	add	r2, r2, r3
    90f0:	e51b1008 	ldr	r1, [fp, #-8]
    90f4:	e51b300c 	ldr	r3, [fp, #-12]
    90f8:	e0413003 	sub	r3, r1, r3
    90fc:	e1a01003 	mov	r1, r3
    9100:	e51b3020 	ldr	r3, [fp, #-32]	; 0xffffffe0
    9104:	e0833001 	add	r3, r3, r1
    9108:	e5d22000 	ldrb	r2, [r2]
    910c:	e5c32000 	strb	r2, [r3]
/mnt/c/Users/Kuba/Documents/ZeroMate/examples/20-UART_game/kernel/src/drivers/monitor.cpp:160 (discriminator 2)
        output[j] = c;
    9110:	e51b300c 	ldr	r3, [fp, #-12]
    9114:	e51b2020 	ldr	r2, [fp, #-32]	; 0xffffffe0
    9118:	e0823003 	add	r3, r2, r3
    911c:	e55b200d 	ldrb	r2, [fp, #-13]
    9120:	e5c32000 	strb	r2, [r3]
/mnt/c/Users/Kuba/Documents/ZeroMate/examples/20-UART_game/kernel/src/drivers/monitor.cpp:156 (discriminator 2)
    for (int j = 0; j <= (i / 2); j++)
    9124:	e51b300c 	ldr	r3, [fp, #-12]
    9128:	e2833001 	add	r3, r3, #1
    912c:	e50b300c 	str	r3, [fp, #-12]
    9130:	eaffffdb 	b	90a4 <_ZN8CMonitor4itoaEjPcj+0xdc>
/mnt/c/Users/Kuba/Documents/ZeroMate/examples/20-UART_game/kernel/src/drivers/monitor.cpp:162
    }
}
    9134:	e320f000 	nop	{0}
    9138:	e24bd004 	sub	sp, fp, #4
    913c:	e8bd8800 	pop	{fp, pc}
    9140:	0000a78c 	andeq	sl, r0, ip, lsl #15

00009144 <_Z41__static_initialization_and_destruction_0ii>:
_Z41__static_initialization_and_destruction_0ii():
/mnt/c/Users/Kuba/Documents/ZeroMate/examples/20-UART_game/kernel/src/drivers/monitor.cpp:162
    9144:	e92d4800 	push	{fp, lr}
    9148:	e28db004 	add	fp, sp, #4
    914c:	e24dd008 	sub	sp, sp, #8
    9150:	e50b0008 	str	r0, [fp, #-8]
    9154:	e50b100c 	str	r1, [fp, #-12]
    9158:	e51b3008 	ldr	r3, [fp, #-8]
    915c:	e3530001 	cmp	r3, #1
    9160:	1a000008 	bne	9188 <_Z41__static_initialization_and_destruction_0ii+0x44>
/mnt/c/Users/Kuba/Documents/ZeroMate/examples/20-UART_game/kernel/src/drivers/monitor.cpp:162 (discriminator 1)
    9164:	e51b300c 	ldr	r3, [fp, #-12]
    9168:	e59f2024 	ldr	r2, [pc, #36]	; 9194 <_Z41__static_initialization_and_destruction_0ii+0x50>
    916c:	e1530002 	cmp	r3, r2
    9170:	1a000004 	bne	9188 <_Z41__static_initialization_and_destruction_0ii+0x44>
/mnt/c/Users/Kuba/Documents/ZeroMate/examples/20-UART_game/kernel/src/drivers/monitor.cpp:3
CMonitor sMonitor{ 0x30000000, 80, 25 };
    9174:	e3a03019 	mov	r3, #25
    9178:	e3a02050 	mov	r2, #80	; 0x50
    917c:	e3a01203 	mov	r1, #805306368	; 0x30000000
    9180:	e59f0010 	ldr	r0, [pc, #16]	; 9198 <_Z41__static_initialization_and_destruction_0ii+0x54>
    9184:	ebfffe79 	bl	8b70 <_ZN8CMonitorC1Ejjj>
/mnt/c/Users/Kuba/Documents/ZeroMate/examples/20-UART_game/kernel/src/drivers/monitor.cpp:162
}
    9188:	e320f000 	nop	{0}
    918c:	e24bd004 	sub	sp, fp, #4
    9190:	e8bd8800 	pop	{fp, pc}
    9194:	0000ffff 	strdeq	pc, [r0], -pc	; <UNPREDICTABLE>
    9198:	0000aa20 	andeq	sl, r0, r0, lsr #20

0000919c <_GLOBAL__sub_I_sMonitor>:
_GLOBAL__sub_I_sMonitor():
/mnt/c/Users/Kuba/Documents/ZeroMate/examples/20-UART_game/kernel/src/drivers/monitor.cpp:162
    919c:	e92d4800 	push	{fp, lr}
    91a0:	e28db004 	add	fp, sp, #4
    91a4:	e59f1008 	ldr	r1, [pc, #8]	; 91b4 <_GLOBAL__sub_I_sMonitor+0x18>
    91a8:	e3a00001 	mov	r0, #1
    91ac:	ebffffe4 	bl	9144 <_Z41__static_initialization_and_destruction_0ii>
    91b0:	e8bd8800 	pop	{fp, pc}
    91b4:	0000ffff 	strdeq	pc, [r0], -pc	; <UNPREDICTABLE>

000091b8 <_ZN8CMonitor12Reset_CursorEv>:
_ZN8CMonitor12Reset_CursorEv():
/mnt/c/Users/Kuba/Documents/ZeroMate/examples/20-UART_game/kernel/src/drivers/monitor.cpp:15
{
    91b8:	e52db004 	push	{fp}		; (str fp, [sp, #-4]!)
    91bc:	e28db000 	add	fp, sp, #0
    91c0:	e24dd00c 	sub	sp, sp, #12
    91c4:	e50b0008 	str	r0, [fp, #-8]
/mnt/c/Users/Kuba/Documents/ZeroMate/examples/20-UART_game/kernel/src/drivers/monitor.cpp:16
    m_cursor.y = 0;
    91c8:	e51b3008 	ldr	r3, [fp, #-8]
    91cc:	e3a02000 	mov	r2, #0
    91d0:	e583200c 	str	r2, [r3, #12]
/mnt/c/Users/Kuba/Documents/ZeroMate/examples/20-UART_game/kernel/src/drivers/monitor.cpp:17
    m_cursor.y = 0;
    91d4:	e51b3008 	ldr	r3, [fp, #-8]
    91d8:	e3a02000 	mov	r2, #0
    91dc:	e583200c 	str	r2, [r3, #12]
/mnt/c/Users/Kuba/Documents/ZeroMate/examples/20-UART_game/kernel/src/drivers/monitor.cpp:18
}
    91e0:	e320f000 	nop	{0}
    91e4:	e28bd000 	add	sp, fp, #0
    91e8:	e49db004 	pop	{fp}		; (ldr fp, [sp], #4)
    91ec:	e12fff1e 	bx	lr

000091f0 <_ZN8CMonitor13Adjust_CursorEv>:
_ZN8CMonitor13Adjust_CursorEv():
/mnt/c/Users/Kuba/Documents/ZeroMate/examples/20-UART_game/kernel/src/drivers/monitor.cpp:34
{
    91f0:	e92d4800 	push	{fp, lr}
    91f4:	e28db004 	add	fp, sp, #4
    91f8:	e24dd008 	sub	sp, sp, #8
    91fc:	e50b0008 	str	r0, [fp, #-8]
/mnt/c/Users/Kuba/Documents/ZeroMate/examples/20-UART_game/kernel/src/drivers/monitor.cpp:35
    if (m_cursor.x >= m_width)
    9200:	e51b3008 	ldr	r3, [fp, #-8]
    9204:	e5932010 	ldr	r2, [r3, #16]
    9208:	e51b3008 	ldr	r3, [fp, #-8]
    920c:	e5933004 	ldr	r3, [r3, #4]
    9210:	e1520003 	cmp	r2, r3
    9214:	3a000007 	bcc	9238 <_ZN8CMonitor13Adjust_CursorEv+0x48>
/mnt/c/Users/Kuba/Documents/ZeroMate/examples/20-UART_game/kernel/src/drivers/monitor.cpp:37
        m_cursor.x = 0;
    9218:	e51b3008 	ldr	r3, [fp, #-8]
    921c:	e3a02000 	mov	r2, #0
    9220:	e5832010 	str	r2, [r3, #16]
/mnt/c/Users/Kuba/Documents/ZeroMate/examples/20-UART_game/kernel/src/drivers/monitor.cpp:38
        ++m_cursor.y;
    9224:	e51b3008 	ldr	r3, [fp, #-8]
    9228:	e593300c 	ldr	r3, [r3, #12]
    922c:	e2832001 	add	r2, r3, #1
    9230:	e51b3008 	ldr	r3, [fp, #-8]
    9234:	e583200c 	str	r2, [r3, #12]
/mnt/c/Users/Kuba/Documents/ZeroMate/examples/20-UART_game/kernel/src/drivers/monitor.cpp:41
    if (m_cursor.y >= m_height)
    9238:	e51b3008 	ldr	r3, [fp, #-8]
    923c:	e593200c 	ldr	r2, [r3, #12]
    9240:	e51b3008 	ldr	r3, [fp, #-8]
    9244:	e5933008 	ldr	r3, [r3, #8]
    9248:	e1520003 	cmp	r2, r3
    924c:	3a000006 	bcc	926c <_ZN8CMonitor13Adjust_CursorEv+0x7c>
/mnt/c/Users/Kuba/Documents/ZeroMate/examples/20-UART_game/kernel/src/drivers/monitor.cpp:43
        Scroll();
    9250:	e51b0008 	ldr	r0, [fp, #-8]
    9254:	ebfffe8d 	bl	8c90 <_ZN8CMonitor6ScrollEv>
/mnt/c/Users/Kuba/Documents/ZeroMate/examples/20-UART_game/kernel/src/drivers/monitor.cpp:44
        m_cursor.y = m_height - 1;
    9258:	e51b3008 	ldr	r3, [fp, #-8]
    925c:	e5933008 	ldr	r3, [r3, #8]
    9260:	e2432001 	sub	r2, r3, #1
    9264:	e51b3008 	ldr	r3, [fp, #-8]
    9268:	e583200c 	str	r2, [r3, #12]
/mnt/c/Users/Kuba/Documents/ZeroMate/examples/20-UART_game/kernel/src/drivers/monitor.cpp:46
}
    926c:	e320f000 	nop	{0}
    9270:	e24bd004 	sub	sp, fp, #4
    9274:	e8bd8800 	pop	{fp, pc}

00009278 <_ZN8CMonitor17Reset_Number_BaseEv>:
_ZN8CMonitor17Reset_Number_BaseEv():
/mnt/c/Users/Kuba/Documents/ZeroMate/examples/20-UART_game/kernel/src/drivers/monitor.cpp:65
{
    9278:	e52db004 	push	{fp}		; (str fp, [sp, #-4]!)
    927c:	e28db000 	add	fp, sp, #0
    9280:	e24dd00c 	sub	sp, sp, #12
    9284:	e50b0008 	str	r0, [fp, #-8]
/mnt/c/Users/Kuba/Documents/ZeroMate/examples/20-UART_game/kernel/src/drivers/monitor.cpp:66
    m_number_base = DEFAULT_NUMBER_BASE;
    9288:	e51b3008 	ldr	r3, [fp, #-8]
    928c:	e3a0200a 	mov	r2, #10
    9290:	e5832014 	str	r2, [r3, #20]
/mnt/c/Users/Kuba/Documents/ZeroMate/examples/20-UART_game/kernel/src/drivers/monitor.cpp:67
}
    9294:	e320f000 	nop	{0}
    9298:	e28bd000 	add	sp, fp, #0
    929c:	e49db004 	pop	{fp}		; (ldr fp, [sp], #4)
    92a0:	e12fff1e 	bx	lr

000092a4 <_ZN5CUARTC1ER4CAUX>:
_ZN5CUARTC2ER4CAUX():
/mnt/c/Users/Kuba/Documents/ZeroMate/examples/20-UART_game/kernel/src/drivers/uart.cpp:8
#include <drivers/monitor.h>
#include <stdstring.h>

CUART sUART0(sAUX);

CUART::CUART(CAUX& aux)
    92a4:	e92d4800 	push	{fp, lr}
    92a8:	e28db004 	add	fp, sp, #4
    92ac:	e24dd008 	sub	sp, sp, #8
    92b0:	e50b0008 	str	r0, [fp, #-8]
    92b4:	e50b100c 	str	r1, [fp, #-12]
/mnt/c/Users/Kuba/Documents/ZeroMate/examples/20-UART_game/kernel/src/drivers/uart.cpp:9
: mAUX(aux)
    92b8:	e51b3008 	ldr	r3, [fp, #-8]
    92bc:	e51b200c 	ldr	r2, [fp, #-12]
    92c0:	e5832000 	str	r2, [r3]
/mnt/c/Users/Kuba/Documents/ZeroMate/examples/20-UART_game/kernel/src/drivers/uart.cpp:11
{
    mAUX.Enable(hal::AUX_Peripherals::MiniUART);
    92c4:	e51b3008 	ldr	r3, [fp, #-8]
    92c8:	e5933000 	ldr	r3, [r3]
    92cc:	e3a01000 	mov	r1, #0
    92d0:	e1a00003 	mov	r0, r3
    92d4:	ebfffbb1 	bl	81a0 <_ZN4CAUX6EnableEN3hal15AUX_PeripheralsE>
/mnt/c/Users/Kuba/Documents/ZeroMate/examples/20-UART_game/kernel/src/drivers/uart.cpp:13
    // mAUX.Set_Register(hal::AUX_Reg::ENABLES, mAUX.Get_Register(hal::AUX_Reg::ENABLES) | 0x01);
    mAUX.Set_Register(hal::AUX_Reg::MU_IIR, 0);
    92d8:	e51b3008 	ldr	r3, [fp, #-8]
    92dc:	e5933000 	ldr	r3, [r3]
    92e0:	e3a02000 	mov	r2, #0
    92e4:	e3a01012 	mov	r1, #18
    92e8:	e1a00003 	mov	r0, r3
    92ec:	ebfffbd4 	bl	8244 <_ZN4CAUX12Set_RegisterEN3hal7AUX_RegEj>
/mnt/c/Users/Kuba/Documents/ZeroMate/examples/20-UART_game/kernel/src/drivers/uart.cpp:14
    mAUX.Set_Register(hal::AUX_Reg::MU_IER, 0);
    92f0:	e51b3008 	ldr	r3, [fp, #-8]
    92f4:	e5933000 	ldr	r3, [r3]
    92f8:	e3a02000 	mov	r2, #0
    92fc:	e3a01011 	mov	r1, #17
    9300:	e1a00003 	mov	r0, r3
    9304:	ebfffbce 	bl	8244 <_ZN4CAUX12Set_RegisterEN3hal7AUX_RegEj>
/mnt/c/Users/Kuba/Documents/ZeroMate/examples/20-UART_game/kernel/src/drivers/uart.cpp:15
    mAUX.Set_Register(hal::AUX_Reg::MU_MCR, 0);
    9308:	e51b3008 	ldr	r3, [fp, #-8]
    930c:	e5933000 	ldr	r3, [r3]
    9310:	e3a02000 	mov	r2, #0
    9314:	e3a01014 	mov	r1, #20
    9318:	e1a00003 	mov	r0, r3
    931c:	ebfffbc8 	bl	8244 <_ZN4CAUX12Set_RegisterEN3hal7AUX_RegEj>
/mnt/c/Users/Kuba/Documents/ZeroMate/examples/20-UART_game/kernel/src/drivers/uart.cpp:16
    mAUX.Set_Register(hal::AUX_Reg::MU_CNTL, 3); // RX and TX enabled
    9320:	e51b3008 	ldr	r3, [fp, #-8]
    9324:	e5933000 	ldr	r3, [r3]
    9328:	e3a02003 	mov	r2, #3
    932c:	e3a01018 	mov	r1, #24
    9330:	e1a00003 	mov	r0, r3
    9334:	ebfffbc2 	bl	8244 <_ZN4CAUX12Set_RegisterEN3hal7AUX_RegEj>
/mnt/c/Users/Kuba/Documents/ZeroMate/examples/20-UART_game/kernel/src/drivers/uart.cpp:17
}
    9338:	e51b3008 	ldr	r3, [fp, #-8]
    933c:	e1a00003 	mov	r0, r3
    9340:	e24bd004 	sub	sp, fp, #4
    9344:	e8bd8800 	pop	{fp, pc}

00009348 <_ZN5CUART15Set_Char_LengthE17NUART_Char_Length>:
_ZN5CUART15Set_Char_LengthE17NUART_Char_Length():
/mnt/c/Users/Kuba/Documents/ZeroMate/examples/20-UART_game/kernel/src/drivers/uart.cpp:20

void CUART::Set_Char_Length(NUART_Char_Length len)
{
    9348:	e92d4810 	push	{r4, fp, lr}
    934c:	e28db008 	add	fp, sp, #8
    9350:	e24dd00c 	sub	sp, sp, #12
    9354:	e50b0010 	str	r0, [fp, #-16]
    9358:	e50b1014 	str	r1, [fp, #-20]	; 0xffffffec
/mnt/c/Users/Kuba/Documents/ZeroMate/examples/20-UART_game/kernel/src/drivers/uart.cpp:21
    mAUX.Set_Register(hal::AUX_Reg::MU_LCR,
    935c:	e51b3010 	ldr	r3, [fp, #-16]
    9360:	e5934000 	ldr	r4, [r3]
/mnt/c/Users/Kuba/Documents/ZeroMate/examples/20-UART_game/kernel/src/drivers/uart.cpp:22
                      (mAUX.Get_Register(hal::AUX_Reg::MU_LCR) & 0xFFFFFFFE) | static_cast<unsigned int>(len));
    9364:	e51b3010 	ldr	r3, [fp, #-16]
    9368:	e5933000 	ldr	r3, [r3]
    936c:	e3a01013 	mov	r1, #19
    9370:	e1a00003 	mov	r0, r3
    9374:	ebfffbc3 	bl	8288 <_ZN4CAUX12Get_RegisterEN3hal7AUX_RegE>
    9378:	e1a03000 	mov	r3, r0
    937c:	e3c32001 	bic	r2, r3, #1
    9380:	e51b3014 	ldr	r3, [fp, #-20]	; 0xffffffec
/mnt/c/Users/Kuba/Documents/ZeroMate/examples/20-UART_game/kernel/src/drivers/uart.cpp:21
    mAUX.Set_Register(hal::AUX_Reg::MU_LCR,
    9384:	e1823003 	orr	r3, r2, r3
    9388:	e1a02003 	mov	r2, r3
    938c:	e3a01013 	mov	r1, #19
    9390:	e1a00004 	mov	r0, r4
    9394:	ebfffbaa 	bl	8244 <_ZN4CAUX12Set_RegisterEN3hal7AUX_RegEj>
/mnt/c/Users/Kuba/Documents/ZeroMate/examples/20-UART_game/kernel/src/drivers/uart.cpp:23
}
    9398:	e320f000 	nop	{0}
    939c:	e24bd008 	sub	sp, fp, #8
    93a0:	e8bd8810 	pop	{r4, fp, pc}

000093a4 <_ZN5CUART13Set_Baud_RateE15NUART_Baud_Rate>:
_ZN5CUART13Set_Baud_RateE15NUART_Baud_Rate():
/mnt/c/Users/Kuba/Documents/ZeroMate/examples/20-UART_game/kernel/src/drivers/uart.cpp:26

void CUART::Set_Baud_Rate(NUART_Baud_Rate rate)
{
    93a4:	e92d4800 	push	{fp, lr}
    93a8:	e28db004 	add	fp, sp, #4
    93ac:	e24dd010 	sub	sp, sp, #16
    93b0:	e50b0010 	str	r0, [fp, #-16]
    93b4:	e50b1014 	str	r1, [fp, #-20]	; 0xffffffec
/mnt/c/Users/Kuba/Documents/ZeroMate/examples/20-UART_game/kernel/src/drivers/uart.cpp:27
    constexpr unsigned int Clock_Rate = 250000000; // taktovaci frekvence hlavniho jadra
    93b8:	e59f3070 	ldr	r3, [pc, #112]	; 9430 <_ZN5CUART13Set_Baud_RateE15NUART_Baud_Rate+0x8c>
    93bc:	e50b3008 	str	r3, [fp, #-8]
/mnt/c/Users/Kuba/Documents/ZeroMate/examples/20-UART_game/kernel/src/drivers/uart.cpp:28
    const unsigned int val = ((Clock_Rate / static_cast<unsigned int>(rate)) / 8) - 1;
    93c0:	e51b3014 	ldr	r3, [fp, #-20]	; 0xffffffec
    93c4:	e1a01003 	mov	r1, r3
    93c8:	e59f0064 	ldr	r0, [pc, #100]	; 9434 <_ZN5CUART13Set_Baud_RateE15NUART_Baud_Rate+0x90>
    93cc:	eb0003fb 	bl	a3c0 <__udivsi3>
    93d0:	e1a03000 	mov	r3, r0
    93d4:	e2433001 	sub	r3, r3, #1
    93d8:	e50b300c 	str	r3, [fp, #-12]
/mnt/c/Users/Kuba/Documents/ZeroMate/examples/20-UART_game/kernel/src/drivers/uart.cpp:30

    mAUX.Set_Register(hal::AUX_Reg::MU_CNTL, 0);
    93dc:	e51b3010 	ldr	r3, [fp, #-16]
    93e0:	e5933000 	ldr	r3, [r3]
    93e4:	e3a02000 	mov	r2, #0
    93e8:	e3a01018 	mov	r1, #24
    93ec:	e1a00003 	mov	r0, r3
    93f0:	ebfffb93 	bl	8244 <_ZN4CAUX12Set_RegisterEN3hal7AUX_RegEj>
/mnt/c/Users/Kuba/Documents/ZeroMate/examples/20-UART_game/kernel/src/drivers/uart.cpp:32

    mAUX.Set_Register(hal::AUX_Reg::MU_BAUD, val);
    93f4:	e51b3010 	ldr	r3, [fp, #-16]
    93f8:	e5933000 	ldr	r3, [r3]
    93fc:	e51b200c 	ldr	r2, [fp, #-12]
    9400:	e3a0101a 	mov	r1, #26
    9404:	e1a00003 	mov	r0, r3
    9408:	ebfffb8d 	bl	8244 <_ZN4CAUX12Set_RegisterEN3hal7AUX_RegEj>
/mnt/c/Users/Kuba/Documents/ZeroMate/examples/20-UART_game/kernel/src/drivers/uart.cpp:34

    mAUX.Set_Register(hal::AUX_Reg::MU_CNTL, 3);
    940c:	e51b3010 	ldr	r3, [fp, #-16]
    9410:	e5933000 	ldr	r3, [r3]
    9414:	e3a02003 	mov	r2, #3
    9418:	e3a01018 	mov	r1, #24
    941c:	e1a00003 	mov	r0, r3
    9420:	ebfffb87 	bl	8244 <_ZN4CAUX12Set_RegisterEN3hal7AUX_RegEj>
/mnt/c/Users/Kuba/Documents/ZeroMate/examples/20-UART_game/kernel/src/drivers/uart.cpp:35
}
    9424:	e320f000 	nop	{0}
    9428:	e24bd004 	sub	sp, fp, #4
    942c:	e8bd8800 	pop	{fp, pc}
    9430:	0ee6b280 	cdpeq	2, 14, cr11, cr6, cr0, {4}
    9434:	01dcd650 	bicseq	sp, ip, r0, asr r6

00009438 <_ZN5CUART5WriteEc>:
_ZN5CUART5WriteEc():
/mnt/c/Users/Kuba/Documents/ZeroMate/examples/20-UART_game/kernel/src/drivers/uart.cpp:38

void CUART::Write(char c)
{
    9438:	e92d4800 	push	{fp, lr}
    943c:	e28db004 	add	fp, sp, #4
    9440:	e24dd008 	sub	sp, sp, #8
    9444:	e50b0008 	str	r0, [fp, #-8]
    9448:	e1a03001 	mov	r3, r1
    944c:	e54b3009 	strb	r3, [fp, #-9]
/mnt/c/Users/Kuba/Documents/ZeroMate/examples/20-UART_game/kernel/src/drivers/uart.cpp:40
    // dokud ma status registr priznak "vystupni fronta plna", nelze prenaset dalsi bit
    while (!(mAUX.Get_Register(hal::AUX_Reg::MU_LSR) & (1 << 5)))
    9450:	e51b3008 	ldr	r3, [fp, #-8]
    9454:	e5933000 	ldr	r3, [r3]
    9458:	e3a01015 	mov	r1, #21
    945c:	e1a00003 	mov	r0, r3
    9460:	ebfffb88 	bl	8288 <_ZN4CAUX12Get_RegisterEN3hal7AUX_RegE>
    9464:	e1a03000 	mov	r3, r0
    9468:	e2033020 	and	r3, r3, #32
    946c:	e3530000 	cmp	r3, #0
    9470:	03a03001 	moveq	r3, #1
    9474:	13a03000 	movne	r3, #0
    9478:	e6ef3073 	uxtb	r3, r3
    947c:	e3530000 	cmp	r3, #0
    9480:	0a000000 	beq	9488 <_ZN5CUART5WriteEc+0x50>
    9484:	eafffff1 	b	9450 <_ZN5CUART5WriteEc+0x18>
/mnt/c/Users/Kuba/Documents/ZeroMate/examples/20-UART_game/kernel/src/drivers/uart.cpp:43
        ;

    mAUX.Set_Register(hal::AUX_Reg::MU_IO, c);
    9488:	e51b3008 	ldr	r3, [fp, #-8]
    948c:	e5933000 	ldr	r3, [r3]
    9490:	e55b2009 	ldrb	r2, [fp, #-9]
    9494:	e3a01010 	mov	r1, #16
    9498:	e1a00003 	mov	r0, r3
    949c:	ebfffb68 	bl	8244 <_ZN4CAUX12Set_RegisterEN3hal7AUX_RegEj>
/mnt/c/Users/Kuba/Documents/ZeroMate/examples/20-UART_game/kernel/src/drivers/uart.cpp:44
}
    94a0:	e320f000 	nop	{0}
    94a4:	e24bd004 	sub	sp, fp, #4
    94a8:	e8bd8800 	pop	{fp, pc}

000094ac <_ZN5CUART5WriteEPKc>:
_ZN5CUART5WriteEPKc():
/mnt/c/Users/Kuba/Documents/ZeroMate/examples/20-UART_game/kernel/src/drivers/uart.cpp:47

void CUART::Write(const char* str)
{
    94ac:	e92d4800 	push	{fp, lr}
    94b0:	e28db004 	add	fp, sp, #4
    94b4:	e24dd010 	sub	sp, sp, #16
    94b8:	e50b0010 	str	r0, [fp, #-16]
    94bc:	e50b1014 	str	r1, [fp, #-20]	; 0xffffffec
/mnt/c/Users/Kuba/Documents/ZeroMate/examples/20-UART_game/kernel/src/drivers/uart.cpp:50
    int i;

    for (i = 0; str[i] != '\0'; i++)
    94c0:	e3a03000 	mov	r3, #0
    94c4:	e50b3008 	str	r3, [fp, #-8]
/mnt/c/Users/Kuba/Documents/ZeroMate/examples/20-UART_game/kernel/src/drivers/uart.cpp:50 (discriminator 3)
    94c8:	e51b3008 	ldr	r3, [fp, #-8]
    94cc:	e51b2014 	ldr	r2, [fp, #-20]	; 0xffffffec
    94d0:	e0823003 	add	r3, r2, r3
    94d4:	e5d33000 	ldrb	r3, [r3]
    94d8:	e3530000 	cmp	r3, #0
    94dc:	0a00000a 	beq	950c <_ZN5CUART5WriteEPKc+0x60>
/mnt/c/Users/Kuba/Documents/ZeroMate/examples/20-UART_game/kernel/src/drivers/uart.cpp:51 (discriminator 2)
        Write(str[i]);
    94e0:	e51b3008 	ldr	r3, [fp, #-8]
    94e4:	e51b2014 	ldr	r2, [fp, #-20]	; 0xffffffec
    94e8:	e0823003 	add	r3, r2, r3
    94ec:	e5d33000 	ldrb	r3, [r3]
    94f0:	e1a01003 	mov	r1, r3
    94f4:	e51b0010 	ldr	r0, [fp, #-16]
    94f8:	ebffffce 	bl	9438 <_ZN5CUART5WriteEc>
/mnt/c/Users/Kuba/Documents/ZeroMate/examples/20-UART_game/kernel/src/drivers/uart.cpp:50 (discriminator 2)
    for (i = 0; str[i] != '\0'; i++)
    94fc:	e51b3008 	ldr	r3, [fp, #-8]
    9500:	e2833001 	add	r3, r3, #1
    9504:	e50b3008 	str	r3, [fp, #-8]
    9508:	eaffffee 	b	94c8 <_ZN5CUART5WriteEPKc+0x1c>
/mnt/c/Users/Kuba/Documents/ZeroMate/examples/20-UART_game/kernel/src/drivers/uart.cpp:52
}
    950c:	e320f000 	nop	{0}
    9510:	e24bd004 	sub	sp, fp, #4
    9514:	e8bd8800 	pop	{fp, pc}

00009518 <_ZN5CUART5WriteEPKcj>:
_ZN5CUART5WriteEPKcj():
/mnt/c/Users/Kuba/Documents/ZeroMate/examples/20-UART_game/kernel/src/drivers/uart.cpp:55

void CUART::Write(const char* str, unsigned int len)
{
    9518:	e92d4800 	push	{fp, lr}
    951c:	e28db004 	add	fp, sp, #4
    9520:	e24dd018 	sub	sp, sp, #24
    9524:	e50b0010 	str	r0, [fp, #-16]
    9528:	e50b1014 	str	r1, [fp, #-20]	; 0xffffffec
    952c:	e50b2018 	str	r2, [fp, #-24]	; 0xffffffe8
/mnt/c/Users/Kuba/Documents/ZeroMate/examples/20-UART_game/kernel/src/drivers/uart.cpp:58
    unsigned int i;

    for (i = 0; i < len; i++)
    9530:	e3a03000 	mov	r3, #0
    9534:	e50b3008 	str	r3, [fp, #-8]
/mnt/c/Users/Kuba/Documents/ZeroMate/examples/20-UART_game/kernel/src/drivers/uart.cpp:58 (discriminator 3)
    9538:	e51b2008 	ldr	r2, [fp, #-8]
    953c:	e51b3018 	ldr	r3, [fp, #-24]	; 0xffffffe8
    9540:	e1520003 	cmp	r2, r3
    9544:	2a00000a 	bcs	9574 <_ZN5CUART5WriteEPKcj+0x5c>
/mnt/c/Users/Kuba/Documents/ZeroMate/examples/20-UART_game/kernel/src/drivers/uart.cpp:59 (discriminator 2)
        Write(str[i]);
    9548:	e51b2014 	ldr	r2, [fp, #-20]	; 0xffffffec
    954c:	e51b3008 	ldr	r3, [fp, #-8]
    9550:	e0823003 	add	r3, r2, r3
    9554:	e5d33000 	ldrb	r3, [r3]
    9558:	e1a01003 	mov	r1, r3
    955c:	e51b0010 	ldr	r0, [fp, #-16]
    9560:	ebffffb4 	bl	9438 <_ZN5CUART5WriteEc>
/mnt/c/Users/Kuba/Documents/ZeroMate/examples/20-UART_game/kernel/src/drivers/uart.cpp:58 (discriminator 2)
    for (i = 0; i < len; i++)
    9564:	e51b3008 	ldr	r3, [fp, #-8]
    9568:	e2833001 	add	r3, r3, #1
    956c:	e50b3008 	str	r3, [fp, #-8]
    9570:	eafffff0 	b	9538 <_ZN5CUART5WriteEPKcj+0x20>
/mnt/c/Users/Kuba/Documents/ZeroMate/examples/20-UART_game/kernel/src/drivers/uart.cpp:60
}
    9574:	e320f000 	nop	{0}
    9578:	e24bd004 	sub	sp, fp, #4
    957c:	e8bd8800 	pop	{fp, pc}

00009580 <_ZN5CUART5WriteEj>:
_ZN5CUART5WriteEj():
/mnt/c/Users/Kuba/Documents/ZeroMate/examples/20-UART_game/kernel/src/drivers/uart.cpp:63

void CUART::Write(unsigned int num)
{
    9580:	e92d4800 	push	{fp, lr}
    9584:	e28db004 	add	fp, sp, #4
    9588:	e24dd008 	sub	sp, sp, #8
    958c:	e50b0008 	str	r0, [fp, #-8]
    9590:	e50b100c 	str	r1, [fp, #-12]
/mnt/c/Users/Kuba/Documents/ZeroMate/examples/20-UART_game/kernel/src/drivers/uart.cpp:66
    static char buf[16];

    itoa(num, buf, 10);
    9594:	e3a0200a 	mov	r2, #10
    9598:	e59f101c 	ldr	r1, [pc, #28]	; 95bc <_ZN5CUART5WriteEj+0x3c>
    959c:	e51b000c 	ldr	r0, [fp, #-12]
    95a0:	eb000258 	bl	9f08 <_Z4itoajPcj>
/mnt/c/Users/Kuba/Documents/ZeroMate/examples/20-UART_game/kernel/src/drivers/uart.cpp:67
    Write(buf);
    95a4:	e59f1010 	ldr	r1, [pc, #16]	; 95bc <_ZN5CUART5WriteEj+0x3c>
    95a8:	e51b0008 	ldr	r0, [fp, #-8]
    95ac:	ebffffbe 	bl	94ac <_ZN5CUART5WriteEPKc>
/mnt/c/Users/Kuba/Documents/ZeroMate/examples/20-UART_game/kernel/src/drivers/uart.cpp:68
}
    95b0:	e320f000 	nop	{0}
    95b4:	e24bd004 	sub	sp, fp, #4
    95b8:	e8bd8800 	pop	{fp, pc}
    95bc:	0000aa4c 	andeq	sl, r0, ip, asr #20

000095c0 <_ZN5CUART9Write_HexEj>:
_ZN5CUART9Write_HexEj():
/mnt/c/Users/Kuba/Documents/ZeroMate/examples/20-UART_game/kernel/src/drivers/uart.cpp:71

void CUART::Write_Hex(unsigned int num)
{
    95c0:	e92d4800 	push	{fp, lr}
    95c4:	e28db004 	add	fp, sp, #4
    95c8:	e24dd008 	sub	sp, sp, #8
    95cc:	e50b0008 	str	r0, [fp, #-8]
    95d0:	e50b100c 	str	r1, [fp, #-12]
/mnt/c/Users/Kuba/Documents/ZeroMate/examples/20-UART_game/kernel/src/drivers/uart.cpp:74
    static char buf[16];

    itoa(num, buf, 16);
    95d4:	e3a02010 	mov	r2, #16
    95d8:	e59f101c 	ldr	r1, [pc, #28]	; 95fc <_ZN5CUART9Write_HexEj+0x3c>
    95dc:	e51b000c 	ldr	r0, [fp, #-12]
    95e0:	eb000248 	bl	9f08 <_Z4itoajPcj>
/mnt/c/Users/Kuba/Documents/ZeroMate/examples/20-UART_game/kernel/src/drivers/uart.cpp:75
    Write(buf);
    95e4:	e59f1010 	ldr	r1, [pc, #16]	; 95fc <_ZN5CUART9Write_HexEj+0x3c>
    95e8:	e51b0008 	ldr	r0, [fp, #-8]
    95ec:	ebffffae 	bl	94ac <_ZN5CUART5WriteEPKc>
/mnt/c/Users/Kuba/Documents/ZeroMate/examples/20-UART_game/kernel/src/drivers/uart.cpp:76
}
    95f0:	e320f000 	nop	{0}
    95f4:	e24bd004 	sub	sp, fp, #4
    95f8:	e8bd8800 	pop	{fp, pc}
    95fc:	0000aa5c 	andeq	sl, r0, ip, asr sl

00009600 <_ZN5CUART4ReadEPc>:
_ZN5CUART4ReadEPc():
/mnt/c/Users/Kuba/Documents/ZeroMate/examples/20-UART_game/kernel/src/drivers/uart.cpp:79

void CUART::Read(char* c)
{
    9600:	e92d4800 	push	{fp, lr}
    9604:	e28db004 	add	fp, sp, #4
    9608:	e24dd008 	sub	sp, sp, #8
    960c:	e50b0008 	str	r0, [fp, #-8]
    9610:	e50b100c 	str	r1, [fp, #-12]
/mnt/c/Users/Kuba/Documents/ZeroMate/examples/20-UART_game/kernel/src/drivers/uart.cpp:80
    while (!(mAUX.Get_Register(hal::AUX_Reg::MU_LSR) & 1)) {
    9614:	e51b3008 	ldr	r3, [fp, #-8]
    9618:	e5933000 	ldr	r3, [r3]
    961c:	e3a01015 	mov	r1, #21
    9620:	e1a00003 	mov	r0, r3
    9624:	ebfffb17 	bl	8288 <_ZN4CAUX12Get_RegisterEN3hal7AUX_RegE>
    9628:	e1a03000 	mov	r3, r0
    962c:	e2033001 	and	r3, r3, #1
    9630:	e3530000 	cmp	r3, #0
    9634:	03a03001 	moveq	r3, #1
    9638:	13a03000 	movne	r3, #0
    963c:	e6ef3073 	uxtb	r3, r3
    9640:	e3530000 	cmp	r3, #0
    9644:	0a000000 	beq	964c <_ZN5CUART4ReadEPc+0x4c>
    9648:	eafffff1 	b	9614 <_ZN5CUART4ReadEPc+0x14>
/mnt/c/Users/Kuba/Documents/ZeroMate/examples/20-UART_game/kernel/src/drivers/uart.cpp:84
        ;
    }
    
    *c = mAUX.Get_Register(hal::AUX_Reg::MU_IO) & 0xFF;
    964c:	e51b3008 	ldr	r3, [fp, #-8]
    9650:	e5933000 	ldr	r3, [r3]
    9654:	e3a01010 	mov	r1, #16
    9658:	e1a00003 	mov	r0, r3
    965c:	ebfffb09 	bl	8288 <_ZN4CAUX12Get_RegisterEN3hal7AUX_RegE>
    9660:	e1a03000 	mov	r3, r0
    9664:	e6ef2073 	uxtb	r2, r3
    9668:	e51b300c 	ldr	r3, [fp, #-12]
    966c:	e5c32000 	strb	r2, [r3]
/mnt/c/Users/Kuba/Documents/ZeroMate/examples/20-UART_game/kernel/src/drivers/uart.cpp:85
}
    9670:	e320f000 	nop	{0}
    9674:	e24bd004 	sub	sp, fp, #4
    9678:	e8bd8800 	pop	{fp, pc}

0000967c <_ZN5CUART18Enable_Receive_IntEv>:
_ZN5CUART18Enable_Receive_IntEv():
/mnt/c/Users/Kuba/Documents/ZeroMate/examples/20-UART_game/kernel/src/drivers/uart.cpp:88

void CUART::Enable_Receive_Int()
{
    967c:	e92d4810 	push	{r4, fp, lr}
    9680:	e28db008 	add	fp, sp, #8
    9684:	e24dd00c 	sub	sp, sp, #12
    9688:	e50b0010 	str	r0, [fp, #-16]
/mnt/c/Users/Kuba/Documents/ZeroMate/examples/20-UART_game/kernel/src/drivers/uart.cpp:89
    mAUX.Set_Register(hal::AUX_Reg::MU_IER, mAUX.Get_Register(hal::AUX_Reg::MU_IER) | (0b1U << 1U));
    968c:	e51b3010 	ldr	r3, [fp, #-16]
    9690:	e5934000 	ldr	r4, [r3]
    9694:	e51b3010 	ldr	r3, [fp, #-16]
    9698:	e5933000 	ldr	r3, [r3]
    969c:	e3a01011 	mov	r1, #17
    96a0:	e1a00003 	mov	r0, r3
    96a4:	ebfffaf7 	bl	8288 <_ZN4CAUX12Get_RegisterEN3hal7AUX_RegE>
    96a8:	e1a03000 	mov	r3, r0
    96ac:	e3833002 	orr	r3, r3, #2
    96b0:	e1a02003 	mov	r2, r3
    96b4:	e3a01011 	mov	r1, #17
    96b8:	e1a00004 	mov	r0, r4
    96bc:	ebfffae0 	bl	8244 <_ZN4CAUX12Set_RegisterEN3hal7AUX_RegEj>
/mnt/c/Users/Kuba/Documents/ZeroMate/examples/20-UART_game/kernel/src/drivers/uart.cpp:90
}
    96c0:	e320f000 	nop	{0}
    96c4:	e24bd008 	sub	sp, fp, #8
    96c8:	e8bd8810 	pop	{r4, fp, pc}

000096cc <_ZN5CUART19Enable_Transmit_IntEv>:
_ZN5CUART19Enable_Transmit_IntEv():
/mnt/c/Users/Kuba/Documents/ZeroMate/examples/20-UART_game/kernel/src/drivers/uart.cpp:93

void CUART::Enable_Transmit_Int()
{
    96cc:	e92d4810 	push	{r4, fp, lr}
    96d0:	e28db008 	add	fp, sp, #8
    96d4:	e24dd00c 	sub	sp, sp, #12
    96d8:	e50b0010 	str	r0, [fp, #-16]
/mnt/c/Users/Kuba/Documents/ZeroMate/examples/20-UART_game/kernel/src/drivers/uart.cpp:94
    mAUX.Set_Register(hal::AUX_Reg::MU_IER, mAUX.Get_Register(hal::AUX_Reg::MU_IER) | (0b1U << 0U));
    96dc:	e51b3010 	ldr	r3, [fp, #-16]
    96e0:	e5934000 	ldr	r4, [r3]
    96e4:	e51b3010 	ldr	r3, [fp, #-16]
    96e8:	e5933000 	ldr	r3, [r3]
    96ec:	e3a01011 	mov	r1, #17
    96f0:	e1a00003 	mov	r0, r3
    96f4:	ebfffae3 	bl	8288 <_ZN4CAUX12Get_RegisterEN3hal7AUX_RegE>
    96f8:	e1a03000 	mov	r3, r0
    96fc:	e3833001 	orr	r3, r3, #1
    9700:	e1a02003 	mov	r2, r3
    9704:	e3a01011 	mov	r1, #17
    9708:	e1a00004 	mov	r0, r4
    970c:	ebfffacc 	bl	8244 <_ZN4CAUX12Set_RegisterEN3hal7AUX_RegEj>
/mnt/c/Users/Kuba/Documents/ZeroMate/examples/20-UART_game/kernel/src/drivers/uart.cpp:95
    9710:	e320f000 	nop	{0}
    9714:	e24bd008 	sub	sp, fp, #8
    9718:	e8bd8810 	pop	{r4, fp, pc}

0000971c <_Z41__static_initialization_and_destruction_0ii>:
_Z41__static_initialization_and_destruction_0ii():
/mnt/c/Users/Kuba/Documents/ZeroMate/examples/20-UART_game/kernel/src/drivers/uart.cpp:95
    971c:	e92d4800 	push	{fp, lr}
    9720:	e28db004 	add	fp, sp, #4
    9724:	e24dd008 	sub	sp, sp, #8
    9728:	e50b0008 	str	r0, [fp, #-8]
    972c:	e50b100c 	str	r1, [fp, #-12]
    9730:	e51b3008 	ldr	r3, [fp, #-8]
    9734:	e3530001 	cmp	r3, #1
    9738:	1a000006 	bne	9758 <_Z41__static_initialization_and_destruction_0ii+0x3c>
/mnt/c/Users/Kuba/Documents/ZeroMate/examples/20-UART_game/kernel/src/drivers/uart.cpp:95 (discriminator 1)
    973c:	e51b300c 	ldr	r3, [fp, #-12]
    9740:	e59f201c 	ldr	r2, [pc, #28]	; 9764 <_Z41__static_initialization_and_destruction_0ii+0x48>
    9744:	e1530002 	cmp	r3, r2
    9748:	1a000002 	bne	9758 <_Z41__static_initialization_and_destruction_0ii+0x3c>
/mnt/c/Users/Kuba/Documents/ZeroMate/examples/20-UART_game/kernel/src/drivers/uart.cpp:6
CUART sUART0(sAUX);
    974c:	e59f1014 	ldr	r1, [pc, #20]	; 9768 <_Z41__static_initialization_and_destruction_0ii+0x4c>
    9750:	e59f0014 	ldr	r0, [pc, #20]	; 976c <_Z41__static_initialization_and_destruction_0ii+0x50>
    9754:	ebfffed2 	bl	92a4 <_ZN5CUARTC1ER4CAUX>
/mnt/c/Users/Kuba/Documents/ZeroMate/examples/20-UART_game/kernel/src/drivers/uart.cpp:95
    9758:	e320f000 	nop	{0}
    975c:	e24bd004 	sub	sp, fp, #4
    9760:	e8bd8800 	pop	{fp, pc}
    9764:	0000ffff 	strdeq	pc, [r0], -pc	; <UNPREDICTABLE>
    9768:	0000aa18 	andeq	sl, r0, r8, lsl sl
    976c:	0000aa48 	andeq	sl, r0, r8, asr #20

00009770 <_GLOBAL__sub_I_sUART0>:
_GLOBAL__sub_I_sUART0():
/mnt/c/Users/Kuba/Documents/ZeroMate/examples/20-UART_game/kernel/src/drivers/uart.cpp:95
    9770:	e92d4800 	push	{fp, lr}
    9774:	e28db004 	add	fp, sp, #4
    9778:	e59f1008 	ldr	r1, [pc, #8]	; 9788 <_GLOBAL__sub_I_sUART0+0x18>
    977c:	e3a00001 	mov	r0, #1
    9780:	ebffffe5 	bl	971c <_Z41__static_initialization_and_destruction_0ii>
    9784:	e8bd8800 	pop	{fp, pc}
    9788:	0000ffff 	strdeq	pc, [r0], -pc	; <UNPREDICTABLE>

0000978c <_Z13Guessing_Gamec>:
_Z13Guessing_Gamec():
/mnt/c/Users/Kuba/Documents/ZeroMate/examples/20-UART_game/kernel/src/interrupt_controller.cpp:13
volatile unsigned int max_num = 100;
volatile unsigned int min_num = 1;
volatile unsigned int middle;

void Guessing_Game(char c)
{
    978c:	e92d4800 	push	{fp, lr}
    9790:	e28db004 	add	fp, sp, #4
    9794:	e24dd010 	sub	sp, sp, #16
    9798:	e1a03000 	mov	r3, r0
    979c:	e54b300d 	strb	r3, [fp, #-13]
/mnt/c/Users/Kuba/Documents/ZeroMate/examples/20-UART_game/kernel/src/interrupt_controller.cpp:16
    bool greater;

    switch (game_state)
    97a0:	e59f32e4 	ldr	r3, [pc, #740]	; 9a8c <_Z13Guessing_Gamec+0x300>
    97a4:	e5933000 	ldr	r3, [r3]
    97a8:	e3530003 	cmp	r3, #3
    97ac:	979ff103 	ldrls	pc, [pc, r3, lsl #2]
    97b0:	ea0000b1 	b	9a7c <_Z13Guessing_Gamec+0x2f0>
    97b4:	000097c4 	andeq	r9, r0, r4, asr #15
    97b8:	00009814 	andeq	r9, r0, r4, lsl r8
    97bc:	0000987c 	andeq	r9, r0, ip, ror r8
    97c0:	000099c8 	andeq	r9, r0, r8, asr #19
/mnt/c/Users/Kuba/Documents/ZeroMate/examples/20-UART_game/kernel/src/interrupt_controller.cpp:19
    {
        case 0:
            if (c == 'y' || c == 'Y')
    97c4:	e55b300d 	ldrb	r3, [fp, #-13]
    97c8:	e3530079 	cmp	r3, #121	; 0x79
    97cc:	0a000002 	beq	97dc <_Z13Guessing_Gamec+0x50>
/mnt/c/Users/Kuba/Documents/ZeroMate/examples/20-UART_game/kernel/src/interrupt_controller.cpp:19 (discriminator 1)
    97d0:	e55b300d 	ldrb	r3, [fp, #-13]
    97d4:	e3530059 	cmp	r3, #89	; 0x59
    97d8:	1a000006 	bne	97f8 <_Z13Guessing_Gamec+0x6c>
/mnt/c/Users/Kuba/Documents/ZeroMate/examples/20-UART_game/kernel/src/interrupt_controller.cpp:21
            {
                game_state = 1;
    97dc:	e59f32a8 	ldr	r3, [pc, #680]	; 9a8c <_Z13Guessing_Gamec+0x300>
    97e0:	e3a02001 	mov	r2, #1
    97e4:	e5832000 	str	r2, [r3]
/mnt/c/Users/Kuba/Documents/ZeroMate/examples/20-UART_game/kernel/src/interrupt_controller.cpp:22
                sUART0.Write("Awesome! Let's get started then...\n\r");
    97e8:	e59f12a0 	ldr	r1, [pc, #672]	; 9a90 <_Z13Guessing_Gamec+0x304>
    97ec:	e59f02a0 	ldr	r0, [pc, #672]	; 9a94 <_Z13Guessing_Gamec+0x308>
    97f0:	ebffff2d 	bl	94ac <_ZN5CUART5WriteEPKc>
    97f4:	ea000006 	b	9814 <_Z13Guessing_Gamec+0x88>
/mnt/c/Users/Kuba/Documents/ZeroMate/examples/20-UART_game/kernel/src/interrupt_controller.cpp:26
            }
            else
            {
                sUART0.Write("Don't worry, we can always play the game next time! Have a good one :)");
    97f8:	e59f1298 	ldr	r1, [pc, #664]	; 9a98 <_Z13Guessing_Gamec+0x30c>
    97fc:	e59f0290 	ldr	r0, [pc, #656]	; 9a94 <_Z13Guessing_Gamec+0x308>
    9800:	ebffff29 	bl	94ac <_ZN5CUART5WriteEPKc>
/mnt/c/Users/Kuba/Documents/ZeroMate/examples/20-UART_game/kernel/src/interrupt_controller.cpp:27
                game_state = 0xFFFFFFFFU;
    9804:	e59f3280 	ldr	r3, [pc, #640]	; 9a8c <_Z13Guessing_Gamec+0x300>
    9808:	e3e02000 	mvn	r2, #0
    980c:	e5832000 	str	r2, [r3]
/mnt/c/Users/Kuba/Documents/ZeroMate/examples/20-UART_game/kernel/src/interrupt_controller.cpp:28
                break;
    9810:	ea00009a 	b	9a80 <_Z13Guessing_Gamec+0x2f4>
/mnt/c/Users/Kuba/Documents/ZeroMate/examples/20-UART_game/kernel/src/interrupt_controller.cpp:32
            }

        case 1:
            sUART0.Write("Is your number greater than ");
    9814:	e59f1280 	ldr	r1, [pc, #640]	; 9a9c <_Z13Guessing_Gamec+0x310>
    9818:	e59f0274 	ldr	r0, [pc, #628]	; 9a94 <_Z13Guessing_Gamec+0x308>
    981c:	ebffff22 	bl	94ac <_ZN5CUART5WriteEPKc>
/mnt/c/Users/Kuba/Documents/ZeroMate/examples/20-UART_game/kernel/src/interrupt_controller.cpp:33
            middle = min_num + (max_num - min_num) / 2;
    9820:	e59f3278 	ldr	r3, [pc, #632]	; 9aa0 <_Z13Guessing_Gamec+0x314>
    9824:	e5932000 	ldr	r2, [r3]
    9828:	e59f3274 	ldr	r3, [pc, #628]	; 9aa4 <_Z13Guessing_Gamec+0x318>
    982c:	e5933000 	ldr	r3, [r3]
    9830:	e0423003 	sub	r3, r2, r3
    9834:	e1a020a3 	lsr	r2, r3, #1
    9838:	e59f3264 	ldr	r3, [pc, #612]	; 9aa4 <_Z13Guessing_Gamec+0x318>
    983c:	e5933000 	ldr	r3, [r3]
    9840:	e0823003 	add	r3, r2, r3
    9844:	e59f225c 	ldr	r2, [pc, #604]	; 9aa8 <_Z13Guessing_Gamec+0x31c>
    9848:	e5823000 	str	r3, [r2]
/mnt/c/Users/Kuba/Documents/ZeroMate/examples/20-UART_game/kernel/src/interrupt_controller.cpp:34
            sUART0.Write(middle);
    984c:	e59f3254 	ldr	r3, [pc, #596]	; 9aa8 <_Z13Guessing_Gamec+0x31c>
    9850:	e5933000 	ldr	r3, [r3]
    9854:	e1a01003 	mov	r1, r3
    9858:	e59f0234 	ldr	r0, [pc, #564]	; 9a94 <_Z13Guessing_Gamec+0x308>
    985c:	ebffff47 	bl	9580 <_ZN5CUART5WriteEj>
/mnt/c/Users/Kuba/Documents/ZeroMate/examples/20-UART_game/kernel/src/interrupt_controller.cpp:35
            sUART0.Write("? [y/n]: ");
    9860:	e59f1244 	ldr	r1, [pc, #580]	; 9aac <_Z13Guessing_Gamec+0x320>
    9864:	e59f0228 	ldr	r0, [pc, #552]	; 9a94 <_Z13Guessing_Gamec+0x308>
    9868:	ebffff0f 	bl	94ac <_ZN5CUART5WriteEPKc>
/mnt/c/Users/Kuba/Documents/ZeroMate/examples/20-UART_game/kernel/src/interrupt_controller.cpp:36
            game_state = 2;
    986c:	e59f3218 	ldr	r3, [pc, #536]	; 9a8c <_Z13Guessing_Gamec+0x300>
    9870:	e3a02002 	mov	r2, #2
    9874:	e5832000 	str	r2, [r3]
/mnt/c/Users/Kuba/Documents/ZeroMate/examples/20-UART_game/kernel/src/interrupt_controller.cpp:37
            break;
    9878:	ea000080 	b	9a80 <_Z13Guessing_Gamec+0x2f4>
/mnt/c/Users/Kuba/Documents/ZeroMate/examples/20-UART_game/kernel/src/interrupt_controller.cpp:40

        case 2:
            if (c == 'y' || c == 'Y')
    987c:	e55b300d 	ldrb	r3, [fp, #-13]
    9880:	e3530079 	cmp	r3, #121	; 0x79
    9884:	0a000002 	beq	9894 <_Z13Guessing_Gamec+0x108>
/mnt/c/Users/Kuba/Documents/ZeroMate/examples/20-UART_game/kernel/src/interrupt_controller.cpp:40 (discriminator 1)
    9888:	e55b300d 	ldrb	r3, [fp, #-13]
    988c:	e3530059 	cmp	r3, #89	; 0x59
    9890:	1a00000a 	bne	98c0 <_Z13Guessing_Gamec+0x134>
/mnt/c/Users/Kuba/Documents/ZeroMate/examples/20-UART_game/kernel/src/interrupt_controller.cpp:42
            {
                min_num += middle + 1;
    9894:	e59f320c 	ldr	r3, [pc, #524]	; 9aa8 <_Z13Guessing_Gamec+0x31c>
    9898:	e5933000 	ldr	r3, [r3]
    989c:	e2832001 	add	r2, r3, #1
    98a0:	e59f31fc 	ldr	r3, [pc, #508]	; 9aa4 <_Z13Guessing_Gamec+0x318>
    98a4:	e5933000 	ldr	r3, [r3]
    98a8:	e0823003 	add	r3, r2, r3
    98ac:	e59f21f0 	ldr	r2, [pc, #496]	; 9aa4 <_Z13Guessing_Gamec+0x318>
    98b0:	e5823000 	str	r3, [r2]
/mnt/c/Users/Kuba/Documents/ZeroMate/examples/20-UART_game/kernel/src/interrupt_controller.cpp:43
                greater = true;
    98b4:	e3a03001 	mov	r3, #1
    98b8:	e54b3005 	strb	r3, [fp, #-5]
    98bc:	ea000006 	b	98dc <_Z13Guessing_Gamec+0x150>
/mnt/c/Users/Kuba/Documents/ZeroMate/examples/20-UART_game/kernel/src/interrupt_controller.cpp:47
            }
            else
            {
                max_num = middle - 1;
    98c0:	e59f31e0 	ldr	r3, [pc, #480]	; 9aa8 <_Z13Guessing_Gamec+0x31c>
    98c4:	e5933000 	ldr	r3, [r3]
    98c8:	e2433001 	sub	r3, r3, #1
    98cc:	e59f21cc 	ldr	r2, [pc, #460]	; 9aa0 <_Z13Guessing_Gamec+0x314>
    98d0:	e5823000 	str	r3, [r2]
/mnt/c/Users/Kuba/Documents/ZeroMate/examples/20-UART_game/kernel/src/interrupt_controller.cpp:48
                greater = false;
    98d4:	e3a03000 	mov	r3, #0
    98d8:	e54b3005 	strb	r3, [fp, #-5]
/mnt/c/Users/Kuba/Documents/ZeroMate/examples/20-UART_game/kernel/src/interrupt_controller.cpp:51
            }

            if (min_num > max_num)
    98dc:	e59f31c0 	ldr	r3, [pc, #448]	; 9aa4 <_Z13Guessing_Gamec+0x318>
    98e0:	e5932000 	ldr	r2, [r3]
    98e4:	e59f31b4 	ldr	r3, [pc, #436]	; 9aa0 <_Z13Guessing_Gamec+0x314>
    98e8:	e5933000 	ldr	r3, [r3]
    98ec:	e1520003 	cmp	r2, r3
    98f0:	83a03001 	movhi	r3, #1
    98f4:	93a03000 	movls	r3, #0
    98f8:	e6ef3073 	uxtb	r3, r3
    98fc:	e3530000 	cmp	r3, #0
    9900:	0a000019 	beq	996c <_Z13Guessing_Gamec+0x1e0>
/mnt/c/Users/Kuba/Documents/ZeroMate/examples/20-UART_game/kernel/src/interrupt_controller.cpp:53
            {
                sUART0.Write("The number you're thinking of must be ");
    9904:	e59f11a4 	ldr	r1, [pc, #420]	; 9ab0 <_Z13Guessing_Gamec+0x324>
    9908:	e59f0184 	ldr	r0, [pc, #388]	; 9a94 <_Z13Guessing_Gamec+0x308>
    990c:	ebfffee6 	bl	94ac <_ZN5CUART5WriteEPKc>
/mnt/c/Users/Kuba/Documents/ZeroMate/examples/20-UART_game/kernel/src/interrupt_controller.cpp:54
                sUART0.Write(greater ? (middle + 1) : (middle - 1));
    9910:	e55b3005 	ldrb	r3, [fp, #-5]
    9914:	e3530000 	cmp	r3, #0
    9918:	0a000003 	beq	992c <_Z13Guessing_Gamec+0x1a0>
/mnt/c/Users/Kuba/Documents/ZeroMate/examples/20-UART_game/kernel/src/interrupt_controller.cpp:54 (discriminator 1)
    991c:	e59f3184 	ldr	r3, [pc, #388]	; 9aa8 <_Z13Guessing_Gamec+0x31c>
    9920:	e5933000 	ldr	r3, [r3]
    9924:	e2833001 	add	r3, r3, #1
    9928:	ea000002 	b	9938 <_Z13Guessing_Gamec+0x1ac>
/mnt/c/Users/Kuba/Documents/ZeroMate/examples/20-UART_game/kernel/src/interrupt_controller.cpp:54 (discriminator 2)
    992c:	e59f3174 	ldr	r3, [pc, #372]	; 9aa8 <_Z13Guessing_Gamec+0x31c>
    9930:	e5933000 	ldr	r3, [r3]
    9934:	e2433001 	sub	r3, r3, #1
/mnt/c/Users/Kuba/Documents/ZeroMate/examples/20-UART_game/kernel/src/interrupt_controller.cpp:54 (discriminator 4)
    9938:	e1a01003 	mov	r1, r3
    993c:	e59f0150 	ldr	r0, [pc, #336]	; 9a94 <_Z13Guessing_Gamec+0x308>
    9940:	ebffff0e 	bl	9580 <_ZN5CUART5WriteEj>
/mnt/c/Users/Kuba/Documents/ZeroMate/examples/20-UART_game/kernel/src/interrupt_controller.cpp:55 (discriminator 4)
                sUART0.Write("!\n\r");
    9944:	e59f1168 	ldr	r1, [pc, #360]	; 9ab4 <_Z13Guessing_Gamec+0x328>
    9948:	e59f0144 	ldr	r0, [pc, #324]	; 9a94 <_Z13Guessing_Gamec+0x308>
    994c:	ebfffed6 	bl	94ac <_ZN5CUART5WriteEPKc>
/mnt/c/Users/Kuba/Documents/ZeroMate/examples/20-UART_game/kernel/src/interrupt_controller.cpp:56 (discriminator 4)
                sUART0.Write("Do you wanna play again? [y/n]: ");
    9950:	e59f1160 	ldr	r1, [pc, #352]	; 9ab8 <_Z13Guessing_Gamec+0x32c>
    9954:	e59f0138 	ldr	r0, [pc, #312]	; 9a94 <_Z13Guessing_Gamec+0x308>
    9958:	ebfffed3 	bl	94ac <_ZN5CUART5WriteEPKc>
/mnt/c/Users/Kuba/Documents/ZeroMate/examples/20-UART_game/kernel/src/interrupt_controller.cpp:57 (discriminator 4)
                game_state = 3;
    995c:	e59f3128 	ldr	r3, [pc, #296]	; 9a8c <_Z13Guessing_Gamec+0x300>
    9960:	e3a02003 	mov	r2, #3
    9964:	e5832000 	str	r2, [r3]
/mnt/c/Users/Kuba/Documents/ZeroMate/examples/20-UART_game/kernel/src/interrupt_controller.cpp:58 (discriminator 4)
                break;
    9968:	ea000044 	b	9a80 <_Z13Guessing_Gamec+0x2f4>
/mnt/c/Users/Kuba/Documents/ZeroMate/examples/20-UART_game/kernel/src/interrupt_controller.cpp:61
            }

            middle = min_num + (max_num - min_num) / 2;
    996c:	e59f312c 	ldr	r3, [pc, #300]	; 9aa0 <_Z13Guessing_Gamec+0x314>
    9970:	e5932000 	ldr	r2, [r3]
    9974:	e59f3128 	ldr	r3, [pc, #296]	; 9aa4 <_Z13Guessing_Gamec+0x318>
    9978:	e5933000 	ldr	r3, [r3]
    997c:	e0423003 	sub	r3, r2, r3
    9980:	e1a020a3 	lsr	r2, r3, #1
    9984:	e59f3118 	ldr	r3, [pc, #280]	; 9aa4 <_Z13Guessing_Gamec+0x318>
    9988:	e5933000 	ldr	r3, [r3]
    998c:	e0823003 	add	r3, r2, r3
    9990:	e59f2110 	ldr	r2, [pc, #272]	; 9aa8 <_Z13Guessing_Gamec+0x31c>
    9994:	e5823000 	str	r3, [r2]
/mnt/c/Users/Kuba/Documents/ZeroMate/examples/20-UART_game/kernel/src/interrupt_controller.cpp:62
            sUART0.Write("Is your number greater than ");
    9998:	e59f10fc 	ldr	r1, [pc, #252]	; 9a9c <_Z13Guessing_Gamec+0x310>
    999c:	e59f00f0 	ldr	r0, [pc, #240]	; 9a94 <_Z13Guessing_Gamec+0x308>
    99a0:	ebfffec1 	bl	94ac <_ZN5CUART5WriteEPKc>
/mnt/c/Users/Kuba/Documents/ZeroMate/examples/20-UART_game/kernel/src/interrupt_controller.cpp:63
            sUART0.Write(middle);
    99a4:	e59f30fc 	ldr	r3, [pc, #252]	; 9aa8 <_Z13Guessing_Gamec+0x31c>
    99a8:	e5933000 	ldr	r3, [r3]
    99ac:	e1a01003 	mov	r1, r3
    99b0:	e59f00dc 	ldr	r0, [pc, #220]	; 9a94 <_Z13Guessing_Gamec+0x308>
    99b4:	ebfffef1 	bl	9580 <_ZN5CUART5WriteEj>
/mnt/c/Users/Kuba/Documents/ZeroMate/examples/20-UART_game/kernel/src/interrupt_controller.cpp:64
            sUART0.Write("? [y/n]: ");
    99b8:	e59f10ec 	ldr	r1, [pc, #236]	; 9aac <_Z13Guessing_Gamec+0x320>
    99bc:	e59f00d0 	ldr	r0, [pc, #208]	; 9a94 <_Z13Guessing_Gamec+0x308>
    99c0:	ebfffeb9 	bl	94ac <_ZN5CUART5WriteEPKc>
/mnt/c/Users/Kuba/Documents/ZeroMate/examples/20-UART_game/kernel/src/interrupt_controller.cpp:66

            break;
    99c4:	ea00002d 	b	9a80 <_Z13Guessing_Gamec+0x2f4>
/mnt/c/Users/Kuba/Documents/ZeroMate/examples/20-UART_game/kernel/src/interrupt_controller.cpp:69

        case 3:
            if (c == 'y' || c == 'Y')
    99c8:	e55b300d 	ldrb	r3, [fp, #-13]
    99cc:	e3530079 	cmp	r3, #121	; 0x79
    99d0:	0a000002 	beq	99e0 <_Z13Guessing_Gamec+0x254>
/mnt/c/Users/Kuba/Documents/ZeroMate/examples/20-UART_game/kernel/src/interrupt_controller.cpp:69 (discriminator 1)
    99d4:	e55b300d 	ldrb	r3, [fp, #-13]
    99d8:	e3530059 	cmp	r3, #89	; 0x59
    99dc:	1a00001f 	bne	9a60 <_Z13Guessing_Gamec+0x2d4>
/mnt/c/Users/Kuba/Documents/ZeroMate/examples/20-UART_game/kernel/src/interrupt_controller.cpp:71
            {
                min_num = 1;
    99e0:	e59f30bc 	ldr	r3, [pc, #188]	; 9aa4 <_Z13Guessing_Gamec+0x318>
    99e4:	e3a02001 	mov	r2, #1
    99e8:	e5832000 	str	r2, [r3]
/mnt/c/Users/Kuba/Documents/ZeroMate/examples/20-UART_game/kernel/src/interrupt_controller.cpp:72
                max_num = 100;
    99ec:	e59f30ac 	ldr	r3, [pc, #172]	; 9aa0 <_Z13Guessing_Gamec+0x314>
    99f0:	e3a02064 	mov	r2, #100	; 0x64
    99f4:	e5832000 	str	r2, [r3]
/mnt/c/Users/Kuba/Documents/ZeroMate/examples/20-UART_game/kernel/src/interrupt_controller.cpp:74
                
                sUART0.Write("Is your number greater than ");
    99f8:	e59f109c 	ldr	r1, [pc, #156]	; 9a9c <_Z13Guessing_Gamec+0x310>
    99fc:	e59f0090 	ldr	r0, [pc, #144]	; 9a94 <_Z13Guessing_Gamec+0x308>
    9a00:	ebfffea9 	bl	94ac <_ZN5CUART5WriteEPKc>
/mnt/c/Users/Kuba/Documents/ZeroMate/examples/20-UART_game/kernel/src/interrupt_controller.cpp:75
                middle = min_num + (max_num - min_num) / 2;
    9a04:	e59f3094 	ldr	r3, [pc, #148]	; 9aa0 <_Z13Guessing_Gamec+0x314>
    9a08:	e5932000 	ldr	r2, [r3]
    9a0c:	e59f3090 	ldr	r3, [pc, #144]	; 9aa4 <_Z13Guessing_Gamec+0x318>
    9a10:	e5933000 	ldr	r3, [r3]
    9a14:	e0423003 	sub	r3, r2, r3
    9a18:	e1a020a3 	lsr	r2, r3, #1
    9a1c:	e59f3080 	ldr	r3, [pc, #128]	; 9aa4 <_Z13Guessing_Gamec+0x318>
    9a20:	e5933000 	ldr	r3, [r3]
    9a24:	e0823003 	add	r3, r2, r3
    9a28:	e59f2078 	ldr	r2, [pc, #120]	; 9aa8 <_Z13Guessing_Gamec+0x31c>
    9a2c:	e5823000 	str	r3, [r2]
/mnt/c/Users/Kuba/Documents/ZeroMate/examples/20-UART_game/kernel/src/interrupt_controller.cpp:76
                sUART0.Write(middle);
    9a30:	e59f3070 	ldr	r3, [pc, #112]	; 9aa8 <_Z13Guessing_Gamec+0x31c>
    9a34:	e5933000 	ldr	r3, [r3]
    9a38:	e1a01003 	mov	r1, r3
    9a3c:	e59f0050 	ldr	r0, [pc, #80]	; 9a94 <_Z13Guessing_Gamec+0x308>
    9a40:	ebfffece 	bl	9580 <_ZN5CUART5WriteEj>
/mnt/c/Users/Kuba/Documents/ZeroMate/examples/20-UART_game/kernel/src/interrupt_controller.cpp:77
                sUART0.Write("? [y/n]: ");
    9a44:	e59f1060 	ldr	r1, [pc, #96]	; 9aac <_Z13Guessing_Gamec+0x320>
    9a48:	e59f0044 	ldr	r0, [pc, #68]	; 9a94 <_Z13Guessing_Gamec+0x308>
    9a4c:	ebfffe96 	bl	94ac <_ZN5CUART5WriteEPKc>
/mnt/c/Users/Kuba/Documents/ZeroMate/examples/20-UART_game/kernel/src/interrupt_controller.cpp:78
                game_state = 2;
    9a50:	e59f3034 	ldr	r3, [pc, #52]	; 9a8c <_Z13Guessing_Gamec+0x300>
    9a54:	e3a02002 	mov	r2, #2
    9a58:	e5832000 	str	r2, [r3]
/mnt/c/Users/Kuba/Documents/ZeroMate/examples/20-UART_game/kernel/src/interrupt_controller.cpp:85
            else
            {
                sUART0.Write("See you next time!\n\r");
                game_state = 0xFFFFFFFFU;
            }
            break;
    9a5c:	ea000007 	b	9a80 <_Z13Guessing_Gamec+0x2f4>
/mnt/c/Users/Kuba/Documents/ZeroMate/examples/20-UART_game/kernel/src/interrupt_controller.cpp:82
                sUART0.Write("See you next time!\n\r");
    9a60:	e59f1054 	ldr	r1, [pc, #84]	; 9abc <_Z13Guessing_Gamec+0x330>
    9a64:	e59f0028 	ldr	r0, [pc, #40]	; 9a94 <_Z13Guessing_Gamec+0x308>
    9a68:	ebfffe8f 	bl	94ac <_ZN5CUART5WriteEPKc>
/mnt/c/Users/Kuba/Documents/ZeroMate/examples/20-UART_game/kernel/src/interrupt_controller.cpp:83
                game_state = 0xFFFFFFFFU;
    9a6c:	e59f3018 	ldr	r3, [pc, #24]	; 9a8c <_Z13Guessing_Gamec+0x300>
    9a70:	e3e02000 	mvn	r2, #0
    9a74:	e5832000 	str	r2, [r3]
/mnt/c/Users/Kuba/Documents/ZeroMate/examples/20-UART_game/kernel/src/interrupt_controller.cpp:85
            break;
    9a78:	ea000000 	b	9a80 <_Z13Guessing_Gamec+0x2f4>
/mnt/c/Users/Kuba/Documents/ZeroMate/examples/20-UART_game/kernel/src/interrupt_controller.cpp:88

        default:
            break;
    9a7c:	e320f000 	nop	{0}
/mnt/c/Users/Kuba/Documents/ZeroMate/examples/20-UART_game/kernel/src/interrupt_controller.cpp:90
    }
}
    9a80:	e320f000 	nop	{0}
    9a84:	e24bd004 	sub	sp, fp, #4
    9a88:	e8bd8800 	pop	{fp, pc}
    9a8c:	0000aa6c 	andeq	sl, r0, ip, ror #20
    9a90:	0000a7d8 	ldrdeq	sl, [r0], -r8
    9a94:	0000aa48 	andeq	sl, r0, r8, asr #20
    9a98:	0000a800 	andeq	sl, r0, r0, lsl #16
    9a9c:	0000a848 	andeq	sl, r0, r8, asr #16
    9aa0:	0000aa10 	andeq	sl, r0, r0, lsl sl
    9aa4:	0000aa14 	andeq	sl, r0, r4, lsl sl
    9aa8:	0000aa70 	andeq	sl, r0, r0, ror sl
    9aac:	0000a868 	andeq	sl, r0, r8, ror #16
    9ab0:	0000a874 	andeq	sl, r0, r4, ror r8
    9ab4:	0000a89c 	muleq	r0, ip, r8
    9ab8:	0000a8a0 	andeq	sl, r0, r0, lsr #17
    9abc:	0000a8c4 	andeq	sl, r0, r4, asr #17

00009ac0 <software_interrupt_handler>:
software_interrupt_handler():
/mnt/c/Users/Kuba/Documents/ZeroMate/examples/20-UART_game/kernel/src/interrupt_controller.cpp:93

extern "C" void __attribute__((interrupt("SWI"))) software_interrupt_handler()
{
    9ac0:	e52db004 	push	{fp}		; (str fp, [sp, #-4]!)
    9ac4:	e28db000 	add	fp, sp, #0
/mnt/c/Users/Kuba/Documents/ZeroMate/examples/20-UART_game/kernel/src/interrupt_controller.cpp:94
}
    9ac8:	e320f000 	nop	{0}
    9acc:	e28bd000 	add	sp, fp, #0
    9ad0:	e49db004 	pop	{fp}		; (ldr fp, [sp], #4)
    9ad4:	e1b0f00e 	movs	pc, lr

00009ad8 <irq_handler>:
irq_handler():
/mnt/c/Users/Kuba/Documents/ZeroMate/examples/20-UART_game/kernel/src/interrupt_controller.cpp:97

extern "C" void __attribute__((interrupt("IRQ"))) irq_handler()
{
    9ad8:	e24ee004 	sub	lr, lr, #4
    9adc:	e92d580f 	push	{r0, r1, r2, r3, fp, ip, lr}
    9ae0:	e28db018 	add	fp, sp, #24
    9ae4:	e24dd00c 	sub	sp, sp, #12
/mnt/c/Users/Kuba/Documents/ZeroMate/examples/20-UART_game/kernel/src/interrupt_controller.cpp:100
    char c;
    
    sUART0.Read(&c);
    9ae8:	e24b301d 	sub	r3, fp, #29
    9aec:	e1a01003 	mov	r1, r3
    9af0:	e59f0018 	ldr	r0, [pc, #24]	; 9b10 <irq_handler+0x38>
    9af4:	ebfffec1 	bl	9600 <_ZN5CUART4ReadEPc>
/mnt/c/Users/Kuba/Documents/ZeroMate/examples/20-UART_game/kernel/src/interrupt_controller.cpp:101
    Guessing_Game(c);
    9af8:	e55b301d 	ldrb	r3, [fp, #-29]	; 0xffffffe3
    9afc:	e1a00003 	mov	r0, r3
    9b00:	ebffff21 	bl	978c <_Z13Guessing_Gamec>
/mnt/c/Users/Kuba/Documents/ZeroMate/examples/20-UART_game/kernel/src/interrupt_controller.cpp:102
}
    9b04:	e320f000 	nop	{0}
    9b08:	e24bd018 	sub	sp, fp, #24
    9b0c:	e8fd980f 	ldm	sp!, {r0, r1, r2, r3, fp, ip, pc}^
    9b10:	0000aa48 	andeq	sl, r0, r8, asr #20

00009b14 <fast_interrupt_handler>:
fast_interrupt_handler():
/mnt/c/Users/Kuba/Documents/ZeroMate/examples/20-UART_game/kernel/src/interrupt_controller.cpp:105

extern "C" void __attribute__((interrupt("FIQ"))) fast_interrupt_handler()
{
    9b14:	e24db004 	sub	fp, sp, #4
/mnt/c/Users/Kuba/Documents/ZeroMate/examples/20-UART_game/kernel/src/interrupt_controller.cpp:106
}
    9b18:	e320f000 	nop	{0}
    9b1c:	e28bd004 	add	sp, fp, #4
    9b20:	e25ef004 	subs	pc, lr, #4

00009b24 <_ZN21CInterrupt_ControllerC1Em>:
_ZN21CInterrupt_ControllerC2Em():
/mnt/c/Users/Kuba/Documents/ZeroMate/examples/20-UART_game/kernel/src/interrupt_controller.cpp:110

CInterrupt_Controller sInterruptCtl(hal::Interrupt_Controller_Base);

CInterrupt_Controller::CInterrupt_Controller(unsigned long base)
    9b24:	e52db004 	push	{fp}		; (str fp, [sp, #-4]!)
    9b28:	e28db000 	add	fp, sp, #0
    9b2c:	e24dd00c 	sub	sp, sp, #12
    9b30:	e50b0008 	str	r0, [fp, #-8]
    9b34:	e50b100c 	str	r1, [fp, #-12]
/mnt/c/Users/Kuba/Documents/ZeroMate/examples/20-UART_game/kernel/src/interrupt_controller.cpp:111
: mInterrupt_Regs(reinterpret_cast<unsigned int*>(base))
    9b38:	e51b200c 	ldr	r2, [fp, #-12]
    9b3c:	e51b3008 	ldr	r3, [fp, #-8]
    9b40:	e5832000 	str	r2, [r3]
/mnt/c/Users/Kuba/Documents/ZeroMate/examples/20-UART_game/kernel/src/interrupt_controller.cpp:113
{
}
    9b44:	e51b3008 	ldr	r3, [fp, #-8]
    9b48:	e1a00003 	mov	r0, r3
    9b4c:	e28bd000 	add	sp, fp, #0
    9b50:	e49db004 	pop	{fp}		; (ldr fp, [sp], #4)
    9b54:	e12fff1e 	bx	lr

00009b58 <_ZN21CInterrupt_Controller4RegsEN3hal24Interrupt_Controller_RegE>:
_ZN21CInterrupt_Controller4RegsEN3hal24Interrupt_Controller_RegE():
/mnt/c/Users/Kuba/Documents/ZeroMate/examples/20-UART_game/kernel/src/interrupt_controller.cpp:116

volatile unsigned int& CInterrupt_Controller::Regs(hal::Interrupt_Controller_Reg reg)
{
    9b58:	e52db004 	push	{fp}		; (str fp, [sp, #-4]!)
    9b5c:	e28db000 	add	fp, sp, #0
    9b60:	e24dd00c 	sub	sp, sp, #12
    9b64:	e50b0008 	str	r0, [fp, #-8]
    9b68:	e50b100c 	str	r1, [fp, #-12]
/mnt/c/Users/Kuba/Documents/ZeroMate/examples/20-UART_game/kernel/src/interrupt_controller.cpp:117
    return mInterrupt_Regs[static_cast<unsigned int>(reg)];
    9b6c:	e51b3008 	ldr	r3, [fp, #-8]
    9b70:	e5932000 	ldr	r2, [r3]
    9b74:	e51b300c 	ldr	r3, [fp, #-12]
    9b78:	e1a03103 	lsl	r3, r3, #2
    9b7c:	e0823003 	add	r3, r2, r3
/mnt/c/Users/Kuba/Documents/ZeroMate/examples/20-UART_game/kernel/src/interrupt_controller.cpp:118
}
    9b80:	e1a00003 	mov	r0, r3
    9b84:	e28bd000 	add	sp, fp, #0
    9b88:	e49db004 	pop	{fp}		; (ldr fp, [sp], #4)
    9b8c:	e12fff1e 	bx	lr

00009b90 <_ZN21CInterrupt_Controller16Enable_Basic_IRQEN3hal16IRQ_Basic_SourceE>:
_ZN21CInterrupt_Controller16Enable_Basic_IRQEN3hal16IRQ_Basic_SourceE():
/mnt/c/Users/Kuba/Documents/ZeroMate/examples/20-UART_game/kernel/src/interrupt_controller.cpp:121

void CInterrupt_Controller::Enable_Basic_IRQ(hal::IRQ_Basic_Source source_idx)
{
    9b90:	e92d4810 	push	{r4, fp, lr}
    9b94:	e28db008 	add	fp, sp, #8
    9b98:	e24dd00c 	sub	sp, sp, #12
    9b9c:	e50b0010 	str	r0, [fp, #-16]
    9ba0:	e50b1014 	str	r1, [fp, #-20]	; 0xffffffec
/mnt/c/Users/Kuba/Documents/ZeroMate/examples/20-UART_game/kernel/src/interrupt_controller.cpp:122
    Regs(hal::Interrupt_Controller_Reg::IRQ_Basic_Enable) = (1 << static_cast<unsigned int>(source_idx));
    9ba4:	e51b3014 	ldr	r3, [fp, #-20]	; 0xffffffec
    9ba8:	e3a02001 	mov	r2, #1
    9bac:	e1a04312 	lsl	r4, r2, r3
    9bb0:	e3a01006 	mov	r1, #6
    9bb4:	e51b0010 	ldr	r0, [fp, #-16]
    9bb8:	ebffffe6 	bl	9b58 <_ZN21CInterrupt_Controller4RegsEN3hal24Interrupt_Controller_RegE>
    9bbc:	e1a03000 	mov	r3, r0
    9bc0:	e1a02004 	mov	r2, r4
    9bc4:	e5832000 	str	r2, [r3]
/mnt/c/Users/Kuba/Documents/ZeroMate/examples/20-UART_game/kernel/src/interrupt_controller.cpp:123
}
    9bc8:	e320f000 	nop	{0}
    9bcc:	e24bd008 	sub	sp, fp, #8
    9bd0:	e8bd8810 	pop	{r4, fp, pc}

00009bd4 <_ZN21CInterrupt_Controller17Disable_Basic_IRQEN3hal16IRQ_Basic_SourceE>:
_ZN21CInterrupt_Controller17Disable_Basic_IRQEN3hal16IRQ_Basic_SourceE():
/mnt/c/Users/Kuba/Documents/ZeroMate/examples/20-UART_game/kernel/src/interrupt_controller.cpp:126

void CInterrupt_Controller::Disable_Basic_IRQ(hal::IRQ_Basic_Source source_idx)
{
    9bd4:	e92d4810 	push	{r4, fp, lr}
    9bd8:	e28db008 	add	fp, sp, #8
    9bdc:	e24dd00c 	sub	sp, sp, #12
    9be0:	e50b0010 	str	r0, [fp, #-16]
    9be4:	e50b1014 	str	r1, [fp, #-20]	; 0xffffffec
/mnt/c/Users/Kuba/Documents/ZeroMate/examples/20-UART_game/kernel/src/interrupt_controller.cpp:127
    Regs(hal::Interrupt_Controller_Reg::IRQ_Basic_Disable) = (1 << static_cast<unsigned int>(source_idx));
    9be8:	e51b3014 	ldr	r3, [fp, #-20]	; 0xffffffec
    9bec:	e3a02001 	mov	r2, #1
    9bf0:	e1a04312 	lsl	r4, r2, r3
    9bf4:	e3a01009 	mov	r1, #9
    9bf8:	e51b0010 	ldr	r0, [fp, #-16]
    9bfc:	ebffffd5 	bl	9b58 <_ZN21CInterrupt_Controller4RegsEN3hal24Interrupt_Controller_RegE>
    9c00:	e1a03000 	mov	r3, r0
    9c04:	e1a02004 	mov	r2, r4
    9c08:	e5832000 	str	r2, [r3]
/mnt/c/Users/Kuba/Documents/ZeroMate/examples/20-UART_game/kernel/src/interrupt_controller.cpp:128
}
    9c0c:	e320f000 	nop	{0}
    9c10:	e24bd008 	sub	sp, fp, #8
    9c14:	e8bd8810 	pop	{r4, fp, pc}

00009c18 <_ZN21CInterrupt_Controller10Enable_IRQEN3hal10IRQ_SourceE>:
_ZN21CInterrupt_Controller10Enable_IRQEN3hal10IRQ_SourceE():
/mnt/c/Users/Kuba/Documents/ZeroMate/examples/20-UART_game/kernel/src/interrupt_controller.cpp:131

void CInterrupt_Controller::Enable_IRQ(hal::IRQ_Source source_idx)
{
    9c18:	e92d4810 	push	{r4, fp, lr}
    9c1c:	e28db008 	add	fp, sp, #8
    9c20:	e24dd014 	sub	sp, sp, #20
    9c24:	e50b0018 	str	r0, [fp, #-24]	; 0xffffffe8
    9c28:	e50b101c 	str	r1, [fp, #-28]	; 0xffffffe4
/mnt/c/Users/Kuba/Documents/ZeroMate/examples/20-UART_game/kernel/src/interrupt_controller.cpp:132
    const unsigned int idx_base = static_cast<unsigned int>(source_idx);
    9c2c:	e51b301c 	ldr	r3, [fp, #-28]	; 0xffffffe4
    9c30:	e50b3010 	str	r3, [fp, #-16]
/mnt/c/Users/Kuba/Documents/ZeroMate/examples/20-UART_game/kernel/src/interrupt_controller.cpp:135

    Regs(idx_base < 32 ? hal::Interrupt_Controller_Reg::IRQ_Enable_1 : hal::Interrupt_Controller_Reg::IRQ_Enable_2) =
    (1 << (idx_base % 32));
    9c34:	e51b3010 	ldr	r3, [fp, #-16]
    9c38:	e203301f 	and	r3, r3, #31
    9c3c:	e3a02001 	mov	r2, #1
    9c40:	e1a04312 	lsl	r4, r2, r3
/mnt/c/Users/Kuba/Documents/ZeroMate/examples/20-UART_game/kernel/src/interrupt_controller.cpp:134
    Regs(idx_base < 32 ? hal::Interrupt_Controller_Reg::IRQ_Enable_1 : hal::Interrupt_Controller_Reg::IRQ_Enable_2) =
    9c44:	e51b3010 	ldr	r3, [fp, #-16]
    9c48:	e353001f 	cmp	r3, #31
    9c4c:	8a000001 	bhi	9c58 <_ZN21CInterrupt_Controller10Enable_IRQEN3hal10IRQ_SourceE+0x40>
/mnt/c/Users/Kuba/Documents/ZeroMate/examples/20-UART_game/kernel/src/interrupt_controller.cpp:134 (discriminator 1)
    9c50:	e3a03004 	mov	r3, #4
    9c54:	ea000000 	b	9c5c <_ZN21CInterrupt_Controller10Enable_IRQEN3hal10IRQ_SourceE+0x44>
/mnt/c/Users/Kuba/Documents/ZeroMate/examples/20-UART_game/kernel/src/interrupt_controller.cpp:134 (discriminator 2)
    9c58:	e3a03005 	mov	r3, #5
/mnt/c/Users/Kuba/Documents/ZeroMate/examples/20-UART_game/kernel/src/interrupt_controller.cpp:134 (discriminator 4)
    9c5c:	e1a01003 	mov	r1, r3
    9c60:	e51b0018 	ldr	r0, [fp, #-24]	; 0xffffffe8
    9c64:	ebffffbb 	bl	9b58 <_ZN21CInterrupt_Controller4RegsEN3hal24Interrupt_Controller_RegE>
    9c68:	e1a03000 	mov	r3, r0
/mnt/c/Users/Kuba/Documents/ZeroMate/examples/20-UART_game/kernel/src/interrupt_controller.cpp:135 (discriminator 4)
    (1 << (idx_base % 32));
    9c6c:	e1a02004 	mov	r2, r4
/mnt/c/Users/Kuba/Documents/ZeroMate/examples/20-UART_game/kernel/src/interrupt_controller.cpp:134 (discriminator 4)
    Regs(idx_base < 32 ? hal::Interrupt_Controller_Reg::IRQ_Enable_1 : hal::Interrupt_Controller_Reg::IRQ_Enable_2) =
    9c70:	e5832000 	str	r2, [r3]
/mnt/c/Users/Kuba/Documents/ZeroMate/examples/20-UART_game/kernel/src/interrupt_controller.cpp:136 (discriminator 4)
}
    9c74:	e320f000 	nop	{0}
    9c78:	e24bd008 	sub	sp, fp, #8
    9c7c:	e8bd8810 	pop	{r4, fp, pc}

00009c80 <_ZN21CInterrupt_Controller11Disable_IRQEN3hal10IRQ_SourceE>:
_ZN21CInterrupt_Controller11Disable_IRQEN3hal10IRQ_SourceE():
/mnt/c/Users/Kuba/Documents/ZeroMate/examples/20-UART_game/kernel/src/interrupt_controller.cpp:139

void CInterrupt_Controller::Disable_IRQ(hal::IRQ_Source source_idx)
{
    9c80:	e92d4810 	push	{r4, fp, lr}
    9c84:	e28db008 	add	fp, sp, #8
    9c88:	e24dd014 	sub	sp, sp, #20
    9c8c:	e50b0018 	str	r0, [fp, #-24]	; 0xffffffe8
    9c90:	e50b101c 	str	r1, [fp, #-28]	; 0xffffffe4
/mnt/c/Users/Kuba/Documents/ZeroMate/examples/20-UART_game/kernel/src/interrupt_controller.cpp:140
    const unsigned int idx_base = static_cast<unsigned int>(source_idx);
    9c94:	e51b301c 	ldr	r3, [fp, #-28]	; 0xffffffe4
    9c98:	e50b3010 	str	r3, [fp, #-16]
/mnt/c/Users/Kuba/Documents/ZeroMate/examples/20-UART_game/kernel/src/interrupt_controller.cpp:143

    Regs(idx_base < 32 ? hal::Interrupt_Controller_Reg::IRQ_Disable_1 : hal::Interrupt_Controller_Reg::IRQ_Disable_2) =
    (1 << (idx_base % 32));
    9c9c:	e51b3010 	ldr	r3, [fp, #-16]
    9ca0:	e203301f 	and	r3, r3, #31
    9ca4:	e3a02001 	mov	r2, #1
    9ca8:	e1a04312 	lsl	r4, r2, r3
/mnt/c/Users/Kuba/Documents/ZeroMate/examples/20-UART_game/kernel/src/interrupt_controller.cpp:142
    Regs(idx_base < 32 ? hal::Interrupt_Controller_Reg::IRQ_Disable_1 : hal::Interrupt_Controller_Reg::IRQ_Disable_2) =
    9cac:	e51b3010 	ldr	r3, [fp, #-16]
    9cb0:	e353001f 	cmp	r3, #31
    9cb4:	8a000001 	bhi	9cc0 <_ZN21CInterrupt_Controller11Disable_IRQEN3hal10IRQ_SourceE+0x40>
/mnt/c/Users/Kuba/Documents/ZeroMate/examples/20-UART_game/kernel/src/interrupt_controller.cpp:142 (discriminator 1)
    9cb8:	e3a03007 	mov	r3, #7
    9cbc:	ea000000 	b	9cc4 <_ZN21CInterrupt_Controller11Disable_IRQEN3hal10IRQ_SourceE+0x44>
/mnt/c/Users/Kuba/Documents/ZeroMate/examples/20-UART_game/kernel/src/interrupt_controller.cpp:142 (discriminator 2)
    9cc0:	e3a03008 	mov	r3, #8
/mnt/c/Users/Kuba/Documents/ZeroMate/examples/20-UART_game/kernel/src/interrupt_controller.cpp:142 (discriminator 4)
    9cc4:	e1a01003 	mov	r1, r3
    9cc8:	e51b0018 	ldr	r0, [fp, #-24]	; 0xffffffe8
    9ccc:	ebffffa1 	bl	9b58 <_ZN21CInterrupt_Controller4RegsEN3hal24Interrupt_Controller_RegE>
    9cd0:	e1a03000 	mov	r3, r0
/mnt/c/Users/Kuba/Documents/ZeroMate/examples/20-UART_game/kernel/src/interrupt_controller.cpp:143 (discriminator 4)
    (1 << (idx_base % 32));
    9cd4:	e1a02004 	mov	r2, r4
/mnt/c/Users/Kuba/Documents/ZeroMate/examples/20-UART_game/kernel/src/interrupt_controller.cpp:142 (discriminator 4)
    Regs(idx_base < 32 ? hal::Interrupt_Controller_Reg::IRQ_Disable_1 : hal::Interrupt_Controller_Reg::IRQ_Disable_2) =
    9cd8:	e5832000 	str	r2, [r3]
/mnt/c/Users/Kuba/Documents/ZeroMate/examples/20-UART_game/kernel/src/interrupt_controller.cpp:144 (discriminator 4)
}
    9cdc:	e320f000 	nop	{0}
    9ce0:	e24bd008 	sub	sp, fp, #8
    9ce4:	e8bd8810 	pop	{r4, fp, pc}

00009ce8 <_Z41__static_initialization_and_destruction_0ii>:
_Z41__static_initialization_and_destruction_0ii():
/mnt/c/Users/Kuba/Documents/ZeroMate/examples/20-UART_game/kernel/src/interrupt_controller.cpp:144
    9ce8:	e92d4800 	push	{fp, lr}
    9cec:	e28db004 	add	fp, sp, #4
    9cf0:	e24dd008 	sub	sp, sp, #8
    9cf4:	e50b0008 	str	r0, [fp, #-8]
    9cf8:	e50b100c 	str	r1, [fp, #-12]
    9cfc:	e51b3008 	ldr	r3, [fp, #-8]
    9d00:	e3530001 	cmp	r3, #1
    9d04:	1a000006 	bne	9d24 <_Z41__static_initialization_and_destruction_0ii+0x3c>
/mnt/c/Users/Kuba/Documents/ZeroMate/examples/20-UART_game/kernel/src/interrupt_controller.cpp:144 (discriminator 1)
    9d08:	e51b300c 	ldr	r3, [fp, #-12]
    9d0c:	e59f201c 	ldr	r2, [pc, #28]	; 9d30 <_Z41__static_initialization_and_destruction_0ii+0x48>
    9d10:	e1530002 	cmp	r3, r2
    9d14:	1a000002 	bne	9d24 <_Z41__static_initialization_and_destruction_0ii+0x3c>
/mnt/c/Users/Kuba/Documents/ZeroMate/examples/20-UART_game/kernel/src/interrupt_controller.cpp:108
CInterrupt_Controller sInterruptCtl(hal::Interrupt_Controller_Base);
    9d18:	e59f1014 	ldr	r1, [pc, #20]	; 9d34 <_Z41__static_initialization_and_destruction_0ii+0x4c>
    9d1c:	e59f0014 	ldr	r0, [pc, #20]	; 9d38 <_Z41__static_initialization_and_destruction_0ii+0x50>
    9d20:	ebffff7f 	bl	9b24 <_ZN21CInterrupt_ControllerC1Em>
/mnt/c/Users/Kuba/Documents/ZeroMate/examples/20-UART_game/kernel/src/interrupt_controller.cpp:144
}
    9d24:	e320f000 	nop	{0}
    9d28:	e24bd004 	sub	sp, fp, #4
    9d2c:	e8bd8800 	pop	{fp, pc}
    9d30:	0000ffff 	strdeq	pc, [r0], -pc	; <UNPREDICTABLE>
    9d34:	2000b200 	andcs	fp, r0, r0, lsl #4
    9d38:	0000aa74 	andeq	sl, r0, r4, ror sl

00009d3c <_GLOBAL__sub_I_game_state>:
_GLOBAL__sub_I_game_state():
/mnt/c/Users/Kuba/Documents/ZeroMate/examples/20-UART_game/kernel/src/interrupt_controller.cpp:144
    9d3c:	e92d4800 	push	{fp, lr}
    9d40:	e28db004 	add	fp, sp, #4
    9d44:	e59f1008 	ldr	r1, [pc, #8]	; 9d54 <_GLOBAL__sub_I_game_state+0x18>
    9d48:	e3a00001 	mov	r0, #1
    9d4c:	ebffffe5 	bl	9ce8 <_Z41__static_initialization_and_destruction_0ii>
    9d50:	e8bd8800 	pop	{fp, pc}
    9d54:	0000ffff 	strdeq	pc, [r0], -pc	; <UNPREDICTABLE>

00009d58 <_kernel_main>:
_kernel_main():
/mnt/c/Users/Kuba/Documents/ZeroMate/examples/20-UART_game/kernel/src/main.cpp:6
#include <drivers/gpio.h>
#include <drivers/uart.h>
#include <interrupt_controller.h>

extern "C" int _kernel_main(void)
{
    9d58:	e92d4800 	push	{fp, lr}
    9d5c:	e28db004 	add	fp, sp, #4
/mnt/c/Users/Kuba/Documents/ZeroMate/examples/20-UART_game/kernel/src/main.cpp:7
    sInterruptCtl.Enable_IRQ(hal::IRQ_Source::AUX);
    9d60:	e3a0101d 	mov	r1, #29
    9d64:	e59f004c 	ldr	r0, [pc, #76]	; 9db8 <_kernel_main+0x60>
    9d68:	ebffffaa 	bl	9c18 <_ZN21CInterrupt_Controller10Enable_IRQEN3hal10IRQ_SourceE>
/mnt/c/Users/Kuba/Documents/ZeroMate/examples/20-UART_game/kernel/src/main.cpp:9

    sUART0.Set_Baud_Rate(NUART_Baud_Rate::BR_115200);
    9d6c:	e59f1048 	ldr	r1, [pc, #72]	; 9dbc <_kernel_main+0x64>
    9d70:	e59f0048 	ldr	r0, [pc, #72]	; 9dc0 <_kernel_main+0x68>
    9d74:	ebfffd8a 	bl	93a4 <_ZN5CUART13Set_Baud_RateE15NUART_Baud_Rate>
/mnt/c/Users/Kuba/Documents/ZeroMate/examples/20-UART_game/kernel/src/main.cpp:10
    sUART0.Set_Char_Length(NUART_Char_Length::Char_8);
    9d78:	e3a01001 	mov	r1, #1
    9d7c:	e59f003c 	ldr	r0, [pc, #60]	; 9dc0 <_kernel_main+0x68>
    9d80:	ebfffd70 	bl	9348 <_ZN5CUART15Set_Char_LengthE17NUART_Char_Length>
/mnt/c/Users/Kuba/Documents/ZeroMate/examples/20-UART_game/kernel/src/main.cpp:12
    
    sUART0.Enable_Receive_Int();
    9d84:	e59f0034 	ldr	r0, [pc, #52]	; 9dc0 <_kernel_main+0x68>
    9d88:	ebfffe3b 	bl	967c <_ZN5CUART18Enable_Receive_IntEv>
/mnt/c/Users/Kuba/Documents/ZeroMate/examples/20-UART_game/kernel/src/main.cpp:14

    enable_irq();
    9d8c:	eb00000f 	bl	9dd0 <enable_irq>
/mnt/c/Users/Kuba/Documents/ZeroMate/examples/20-UART_game/kernel/src/main.cpp:16

    sUART0.Write("Welcome to a guessing game!\r\n");
    9d90:	e59f102c 	ldr	r1, [pc, #44]	; 9dc4 <_kernel_main+0x6c>
    9d94:	e59f0024 	ldr	r0, [pc, #36]	; 9dc0 <_kernel_main+0x68>
    9d98:	ebfffdc3 	bl	94ac <_ZN5CUART5WriteEPKc>
/mnt/c/Users/Kuba/Documents/ZeroMate/examples/20-UART_game/kernel/src/main.cpp:17
    sUART0.Write("---------------------------\r\n");
    9d9c:	e59f1024 	ldr	r1, [pc, #36]	; 9dc8 <_kernel_main+0x70>
    9da0:	e59f0018 	ldr	r0, [pc, #24]	; 9dc0 <_kernel_main+0x68>
    9da4:	ebfffdc0 	bl	94ac <_ZN5CUART5WriteEPKc>
/mnt/c/Users/Kuba/Documents/ZeroMate/examples/20-UART_game/kernel/src/main.cpp:18
    sUART0.Write("Think of a number between 1 and 100 and I'm gonna guess what it is. All you gotta do is to tell me whether my guess is larger than your number of choice or not, okay? [y/n]: ");
    9da8:	e59f101c 	ldr	r1, [pc, #28]	; 9dcc <_kernel_main+0x74>
    9dac:	e59f000c 	ldr	r0, [pc, #12]	; 9dc0 <_kernel_main+0x68>
    9db0:	ebfffdbd 	bl	94ac <_ZN5CUART5WriteEPKc>
/mnt/c/Users/Kuba/Documents/ZeroMate/examples/20-UART_game/kernel/src/main.cpp:20 (discriminator 1)

    while (1)
    9db4:	eafffffe 	b	9db4 <_kernel_main+0x5c>
    9db8:	0000aa74 	andeq	sl, r0, r4, ror sl
    9dbc:	0001c200 	andeq	ip, r1, r0, lsl #4
    9dc0:	0000aa48 	andeq	sl, r0, r8, asr #20
    9dc4:	0000a8f8 	strdeq	sl, [r0], -r8
    9dc8:	0000a918 	andeq	sl, r0, r8, lsl r9
    9dcc:	0000a938 	andeq	sl, r0, r8, lsr r9

00009dd0 <enable_irq>:
enable_irq():
/mnt/c/Users/Kuba/Documents/ZeroMate/examples/20-UART_game/kernel/src/start.s:90
;@ tady budou ostatni symboly, ktere nevyzaduji zadne specialni misto
.section .text

.global enable_irq
enable_irq:
    mrs r0, cpsr		;@ presun ridiciho registru (CPSR) do general purpose registru (R0)
    9dd0:	e10f0000 	mrs	r0, CPSR
/mnt/c/Users/Kuba/Documents/ZeroMate/examples/20-UART_game/kernel/src/start.s:91
    bic r0, r0, #0x80	;@ vypne bit 7 v registru r0 ("IRQ mask bit")
    9dd4:	e3c00080 	bic	r0, r0, #128	; 0x80
/mnt/c/Users/Kuba/Documents/ZeroMate/examples/20-UART_game/kernel/src/start.s:92
    msr cpsr_c, r0		;@ nacteme upraveny general purpose (R0) registr do ridiciho (CPSR)
    9dd8:	e121f000 	msr	CPSR_c, r0
/mnt/c/Users/Kuba/Documents/ZeroMate/examples/20-UART_game/kernel/src/start.s:93
    cpsie i				;@ povoli preruseni
    9ddc:	f1080080 	cpsie	i
/mnt/c/Users/Kuba/Documents/ZeroMate/examples/20-UART_game/kernel/src/start.s:94
    bx lr
    9de0:	e12fff1e 	bx	lr

00009de4 <undefined_instruction_handler>:
undefined_instruction_handler():
/mnt/c/Users/Kuba/Documents/ZeroMate/examples/20-UART_game/kernel/src/start.s:97

undefined_instruction_handler:
	b hang
    9de4:	eafff8a9 	b	8090 <hang>

00009de8 <prefetch_abort_handler>:
prefetch_abort_handler():
/mnt/c/Users/Kuba/Documents/ZeroMate/examples/20-UART_game/kernel/src/start.s:102

prefetch_abort_handler:
	;@ tady pak muzeme osetrit, kdyz program zasahne do mista, ktere nema mapovane ve svem virtualnim adr. prostoru
	;@ a treba vyvolat nasi obdobu segfaultu
	b hang
    9de8:	eafff8a8 	b	8090 <hang>

00009dec <data_abort_handler>:
data_abort_handler():
/mnt/c/Users/Kuba/Documents/ZeroMate/examples/20-UART_game/kernel/src/start.s:107

data_abort_handler:
	;@ tady pak muzeme osetrit, kdyz program zasahne do mista, ktere nema mapovane ve svem virtualnim adr. prostoru
	;@ a treba vyvolat nasi obdobu segfaultu
	b hang
    9dec:	eafff8a7 	b	8090 <hang>

00009df0 <_c_startup>:
_c_startup():
/mnt/c/Users/Kuba/Documents/ZeroMate/examples/20-UART_game/kernel/src/startup.cpp:21
extern "C" dtor_ptr __DTOR_LIST__[0];
// konec pole destruktoru
extern "C" dtor_ptr __DTOR_END__[0];

extern "C" int _c_startup(void)
{
    9df0:	e52db004 	push	{fp}		; (str fp, [sp, #-4]!)
    9df4:	e28db000 	add	fp, sp, #0
    9df8:	e24dd00c 	sub	sp, sp, #12
/mnt/c/Users/Kuba/Documents/ZeroMate/examples/20-UART_game/kernel/src/startup.cpp:25
    int* i;

    // vynulujeme .bss sekci
    for (i = (int*)_bss_start; i < (int*)_bss_end; i++)
    9dfc:	e59f304c 	ldr	r3, [pc, #76]	; 9e50 <_c_startup+0x60>
    9e00:	e5933000 	ldr	r3, [r3]
    9e04:	e50b3008 	str	r3, [fp, #-8]
/mnt/c/Users/Kuba/Documents/ZeroMate/examples/20-UART_game/kernel/src/startup.cpp:25 (discriminator 3)
    9e08:	e59f3044 	ldr	r3, [pc, #68]	; 9e54 <_c_startup+0x64>
    9e0c:	e5933000 	ldr	r3, [r3]
    9e10:	e1a02003 	mov	r2, r3
    9e14:	e51b3008 	ldr	r3, [fp, #-8]
    9e18:	e1530002 	cmp	r3, r2
    9e1c:	2a000006 	bcs	9e3c <_c_startup+0x4c>
/mnt/c/Users/Kuba/Documents/ZeroMate/examples/20-UART_game/kernel/src/startup.cpp:26 (discriminator 2)
        *i = 0;
    9e20:	e51b3008 	ldr	r3, [fp, #-8]
    9e24:	e3a02000 	mov	r2, #0
    9e28:	e5832000 	str	r2, [r3]
/mnt/c/Users/Kuba/Documents/ZeroMate/examples/20-UART_game/kernel/src/startup.cpp:25 (discriminator 2)
    for (i = (int*)_bss_start; i < (int*)_bss_end; i++)
    9e2c:	e51b3008 	ldr	r3, [fp, #-8]
    9e30:	e2833004 	add	r3, r3, #4
    9e34:	e50b3008 	str	r3, [fp, #-8]
    9e38:	eafffff2 	b	9e08 <_c_startup+0x18>
/mnt/c/Users/Kuba/Documents/ZeroMate/examples/20-UART_game/kernel/src/startup.cpp:28

    return 0;
    9e3c:	e3a03000 	mov	r3, #0
/mnt/c/Users/Kuba/Documents/ZeroMate/examples/20-UART_game/kernel/src/startup.cpp:29
}
    9e40:	e1a00003 	mov	r0, r3
    9e44:	e28bd000 	add	sp, fp, #0
    9e48:	e49db004 	pop	{fp}		; (ldr fp, [sp], #4)
    9e4c:	e12fff1e 	bx	lr
    9e50:	0000aa18 	andeq	sl, r0, r8, lsl sl
    9e54:	0000aa88 	andeq	sl, r0, r8, lsl #21

00009e58 <_cpp_startup>:
_cpp_startup():
/mnt/c/Users/Kuba/Documents/ZeroMate/examples/20-UART_game/kernel/src/startup.cpp:32

extern "C" int _cpp_startup(void)
{
    9e58:	e92d4800 	push	{fp, lr}
    9e5c:	e28db004 	add	fp, sp, #4
    9e60:	e24dd008 	sub	sp, sp, #8
/mnt/c/Users/Kuba/Documents/ZeroMate/examples/20-UART_game/kernel/src/startup.cpp:37
    ctor_ptr* fnptr;

    // zavolame konstruktory globalnich C++ trid
    // v poli __CTOR_LIST__ jsou ukazatele na vygenerovane stuby volani konstruktoru
    for (fnptr = __CTOR_LIST__; fnptr < __CTOR_END__; fnptr++)
    9e64:	e59f303c 	ldr	r3, [pc, #60]	; 9ea8 <_cpp_startup+0x50>
    9e68:	e50b3008 	str	r3, [fp, #-8]
/mnt/c/Users/Kuba/Documents/ZeroMate/examples/20-UART_game/kernel/src/startup.cpp:37 (discriminator 3)
    9e6c:	e51b3008 	ldr	r3, [fp, #-8]
    9e70:	e59f2034 	ldr	r2, [pc, #52]	; 9eac <_cpp_startup+0x54>
    9e74:	e1530002 	cmp	r3, r2
    9e78:	2a000006 	bcs	9e98 <_cpp_startup+0x40>
/mnt/c/Users/Kuba/Documents/ZeroMate/examples/20-UART_game/kernel/src/startup.cpp:38 (discriminator 2)
        (*fnptr)();
    9e7c:	e51b3008 	ldr	r3, [fp, #-8]
    9e80:	e5933000 	ldr	r3, [r3]
    9e84:	e12fff33 	blx	r3
/mnt/c/Users/Kuba/Documents/ZeroMate/examples/20-UART_game/kernel/src/startup.cpp:37 (discriminator 2)
    for (fnptr = __CTOR_LIST__; fnptr < __CTOR_END__; fnptr++)
    9e88:	e51b3008 	ldr	r3, [fp, #-8]
    9e8c:	e2833004 	add	r3, r3, #4
    9e90:	e50b3008 	str	r3, [fp, #-8]
    9e94:	eafffff4 	b	9e6c <_cpp_startup+0x14>
/mnt/c/Users/Kuba/Documents/ZeroMate/examples/20-UART_game/kernel/src/startup.cpp:40

    return 0;
    9e98:	e3a03000 	mov	r3, #0
/mnt/c/Users/Kuba/Documents/ZeroMate/examples/20-UART_game/kernel/src/startup.cpp:41
}
    9e9c:	e1a00003 	mov	r0, r3
    9ea0:	e24bd004 	sub	sp, fp, #4
    9ea4:	e8bd8800 	pop	{fp, pc}
    9ea8:	0000a9fc 	strdeq	sl, [r0], -ip
    9eac:	0000aa10 	andeq	sl, r0, r0, lsl sl

00009eb0 <_cpp_shutdown>:
_cpp_shutdown():
/mnt/c/Users/Kuba/Documents/ZeroMate/examples/20-UART_game/kernel/src/startup.cpp:44

extern "C" int _cpp_shutdown(void)
{
    9eb0:	e92d4800 	push	{fp, lr}
    9eb4:	e28db004 	add	fp, sp, #4
    9eb8:	e24dd008 	sub	sp, sp, #8
/mnt/c/Users/Kuba/Documents/ZeroMate/examples/20-UART_game/kernel/src/startup.cpp:48
    dtor_ptr* fnptr;

    // zavolame destruktory globalnich C++ trid
    for (fnptr = __DTOR_LIST__; fnptr < __DTOR_END__; fnptr++)
    9ebc:	e59f303c 	ldr	r3, [pc, #60]	; 9f00 <_cpp_shutdown+0x50>
    9ec0:	e50b3008 	str	r3, [fp, #-8]
/mnt/c/Users/Kuba/Documents/ZeroMate/examples/20-UART_game/kernel/src/startup.cpp:48 (discriminator 3)
    9ec4:	e51b3008 	ldr	r3, [fp, #-8]
    9ec8:	e59f2034 	ldr	r2, [pc, #52]	; 9f04 <_cpp_shutdown+0x54>
    9ecc:	e1530002 	cmp	r3, r2
    9ed0:	2a000006 	bcs	9ef0 <_cpp_shutdown+0x40>
/mnt/c/Users/Kuba/Documents/ZeroMate/examples/20-UART_game/kernel/src/startup.cpp:49 (discriminator 2)
        (*fnptr)();
    9ed4:	e51b3008 	ldr	r3, [fp, #-8]
    9ed8:	e5933000 	ldr	r3, [r3]
    9edc:	e12fff33 	blx	r3
/mnt/c/Users/Kuba/Documents/ZeroMate/examples/20-UART_game/kernel/src/startup.cpp:48 (discriminator 2)
    for (fnptr = __DTOR_LIST__; fnptr < __DTOR_END__; fnptr++)
    9ee0:	e51b3008 	ldr	r3, [fp, #-8]
    9ee4:	e2833004 	add	r3, r3, #4
    9ee8:	e50b3008 	str	r3, [fp, #-8]
    9eec:	eafffff4 	b	9ec4 <_cpp_shutdown+0x14>
/mnt/c/Users/Kuba/Documents/ZeroMate/examples/20-UART_game/kernel/src/startup.cpp:51

    return 0;
    9ef0:	e3a03000 	mov	r3, #0
/mnt/c/Users/Kuba/Documents/ZeroMate/examples/20-UART_game/kernel/src/startup.cpp:52
}
    9ef4:	e1a00003 	mov	r0, r3
    9ef8:	e24bd004 	sub	sp, fp, #4
    9efc:	e8bd8800 	pop	{fp, pc}
    9f00:	0000aa10 	andeq	sl, r0, r0, lsl sl
    9f04:	0000aa10 	andeq	sl, r0, r0, lsl sl

00009f08 <_Z4itoajPcj>:
_Z4itoajPcj():
/mnt/c/Users/Kuba/Documents/ZeroMate/examples/20-UART_game/stdlib/src/stdstring.cpp:9
{
    const char CharConvArr[] = "0123456789ABCDEF";
}

void itoa(unsigned int input, char* output, unsigned int base)
{
    9f08:	e92d4800 	push	{fp, lr}
    9f0c:	e28db004 	add	fp, sp, #4
    9f10:	e24dd020 	sub	sp, sp, #32
    9f14:	e50b0018 	str	r0, [fp, #-24]	; 0xffffffe8
    9f18:	e50b101c 	str	r1, [fp, #-28]	; 0xffffffe4
    9f1c:	e50b2020 	str	r2, [fp, #-32]	; 0xffffffe0
/mnt/c/Users/Kuba/Documents/ZeroMate/examples/20-UART_game/stdlib/src/stdstring.cpp:10
    int i = 0;
    9f20:	e3a03000 	mov	r3, #0
    9f24:	e50b3008 	str	r3, [fp, #-8]
/mnt/c/Users/Kuba/Documents/ZeroMate/examples/20-UART_game/stdlib/src/stdstring.cpp:12

    while (input > 0)
    9f28:	e51b3018 	ldr	r3, [fp, #-24]	; 0xffffffe8
    9f2c:	e3530000 	cmp	r3, #0
    9f30:	0a000014 	beq	9f88 <_Z4itoajPcj+0x80>
/mnt/c/Users/Kuba/Documents/ZeroMate/examples/20-UART_game/stdlib/src/stdstring.cpp:14
    {
        output[i] = CharConvArr[input % base];
    9f34:	e51b3018 	ldr	r3, [fp, #-24]	; 0xffffffe8
    9f38:	e51b1020 	ldr	r1, [fp, #-32]	; 0xffffffe0
    9f3c:	e1a00003 	mov	r0, r3
    9f40:	eb000199 	bl	a5ac <__aeabi_uidivmod>
    9f44:	e1a03001 	mov	r3, r1
    9f48:	e1a01003 	mov	r1, r3
    9f4c:	e51b3008 	ldr	r3, [fp, #-8]
    9f50:	e51b201c 	ldr	r2, [fp, #-28]	; 0xffffffe4
    9f54:	e0823003 	add	r3, r2, r3
    9f58:	e59f2118 	ldr	r2, [pc, #280]	; a078 <_Z4itoajPcj+0x170>
    9f5c:	e7d22001 	ldrb	r2, [r2, r1]
    9f60:	e5c32000 	strb	r2, [r3]
/mnt/c/Users/Kuba/Documents/ZeroMate/examples/20-UART_game/stdlib/src/stdstring.cpp:15
        input /= base;
    9f64:	e51b1020 	ldr	r1, [fp, #-32]	; 0xffffffe0
    9f68:	e51b0018 	ldr	r0, [fp, #-24]	; 0xffffffe8
    9f6c:	eb000113 	bl	a3c0 <__udivsi3>
    9f70:	e1a03000 	mov	r3, r0
    9f74:	e50b3018 	str	r3, [fp, #-24]	; 0xffffffe8
/mnt/c/Users/Kuba/Documents/ZeroMate/examples/20-UART_game/stdlib/src/stdstring.cpp:16
        i++;
    9f78:	e51b3008 	ldr	r3, [fp, #-8]
    9f7c:	e2833001 	add	r3, r3, #1
    9f80:	e50b3008 	str	r3, [fp, #-8]
/mnt/c/Users/Kuba/Documents/ZeroMate/examples/20-UART_game/stdlib/src/stdstring.cpp:12
    while (input > 0)
    9f84:	eaffffe7 	b	9f28 <_Z4itoajPcj+0x20>
/mnt/c/Users/Kuba/Documents/ZeroMate/examples/20-UART_game/stdlib/src/stdstring.cpp:19
    }

    if (i == 0)
    9f88:	e51b3008 	ldr	r3, [fp, #-8]
    9f8c:	e3530000 	cmp	r3, #0
    9f90:	1a000007 	bne	9fb4 <_Z4itoajPcj+0xac>
/mnt/c/Users/Kuba/Documents/ZeroMate/examples/20-UART_game/stdlib/src/stdstring.cpp:21
    {
        output[i] = CharConvArr[0];
    9f94:	e51b3008 	ldr	r3, [fp, #-8]
    9f98:	e51b201c 	ldr	r2, [fp, #-28]	; 0xffffffe4
    9f9c:	e0823003 	add	r3, r2, r3
    9fa0:	e3a02030 	mov	r2, #48	; 0x30
    9fa4:	e5c32000 	strb	r2, [r3]
/mnt/c/Users/Kuba/Documents/ZeroMate/examples/20-UART_game/stdlib/src/stdstring.cpp:22
        i++;
    9fa8:	e51b3008 	ldr	r3, [fp, #-8]
    9fac:	e2833001 	add	r3, r3, #1
    9fb0:	e50b3008 	str	r3, [fp, #-8]
/mnt/c/Users/Kuba/Documents/ZeroMate/examples/20-UART_game/stdlib/src/stdstring.cpp:25
    }

    output[i] = '\0';
    9fb4:	e51b3008 	ldr	r3, [fp, #-8]
    9fb8:	e51b201c 	ldr	r2, [fp, #-28]	; 0xffffffe4
    9fbc:	e0823003 	add	r3, r2, r3
    9fc0:	e3a02000 	mov	r2, #0
    9fc4:	e5c32000 	strb	r2, [r3]
/mnt/c/Users/Kuba/Documents/ZeroMate/examples/20-UART_game/stdlib/src/stdstring.cpp:26
    i--;
    9fc8:	e51b3008 	ldr	r3, [fp, #-8]
    9fcc:	e2433001 	sub	r3, r3, #1
    9fd0:	e50b3008 	str	r3, [fp, #-8]
/mnt/c/Users/Kuba/Documents/ZeroMate/examples/20-UART_game/stdlib/src/stdstring.cpp:28

    for (int j = 0; j <= i / 2; j++)
    9fd4:	e3a03000 	mov	r3, #0
    9fd8:	e50b300c 	str	r3, [fp, #-12]
/mnt/c/Users/Kuba/Documents/ZeroMate/examples/20-UART_game/stdlib/src/stdstring.cpp:28 (discriminator 3)
    9fdc:	e51b3008 	ldr	r3, [fp, #-8]
    9fe0:	e1a02fa3 	lsr	r2, r3, #31
    9fe4:	e0823003 	add	r3, r2, r3
    9fe8:	e1a030c3 	asr	r3, r3, #1
    9fec:	e1a02003 	mov	r2, r3
    9ff0:	e51b300c 	ldr	r3, [fp, #-12]
    9ff4:	e1530002 	cmp	r3, r2
    9ff8:	ca00001b 	bgt	a06c <_Z4itoajPcj+0x164>
/mnt/c/Users/Kuba/Documents/ZeroMate/examples/20-UART_game/stdlib/src/stdstring.cpp:30 (discriminator 2)
    {
        char c = output[i - j];
    9ffc:	e51b2008 	ldr	r2, [fp, #-8]
    a000:	e51b300c 	ldr	r3, [fp, #-12]
    a004:	e0423003 	sub	r3, r2, r3
    a008:	e1a02003 	mov	r2, r3
    a00c:	e51b301c 	ldr	r3, [fp, #-28]	; 0xffffffe4
    a010:	e0833002 	add	r3, r3, r2
    a014:	e5d33000 	ldrb	r3, [r3]
    a018:	e54b300d 	strb	r3, [fp, #-13]
/mnt/c/Users/Kuba/Documents/ZeroMate/examples/20-UART_game/stdlib/src/stdstring.cpp:31 (discriminator 2)
        output[i - j] = output[j];
    a01c:	e51b300c 	ldr	r3, [fp, #-12]
    a020:	e51b201c 	ldr	r2, [fp, #-28]	; 0xffffffe4
    a024:	e0822003 	add	r2, r2, r3
    a028:	e51b1008 	ldr	r1, [fp, #-8]
    a02c:	e51b300c 	ldr	r3, [fp, #-12]
    a030:	e0413003 	sub	r3, r1, r3
    a034:	e1a01003 	mov	r1, r3
    a038:	e51b301c 	ldr	r3, [fp, #-28]	; 0xffffffe4
    a03c:	e0833001 	add	r3, r3, r1
    a040:	e5d22000 	ldrb	r2, [r2]
    a044:	e5c32000 	strb	r2, [r3]
/mnt/c/Users/Kuba/Documents/ZeroMate/examples/20-UART_game/stdlib/src/stdstring.cpp:32 (discriminator 2)
        output[j] = c;
    a048:	e51b300c 	ldr	r3, [fp, #-12]
    a04c:	e51b201c 	ldr	r2, [fp, #-28]	; 0xffffffe4
    a050:	e0823003 	add	r3, r2, r3
    a054:	e55b200d 	ldrb	r2, [fp, #-13]
    a058:	e5c32000 	strb	r2, [r3]
/mnt/c/Users/Kuba/Documents/ZeroMate/examples/20-UART_game/stdlib/src/stdstring.cpp:28 (discriminator 2)
    for (int j = 0; j <= i / 2; j++)
    a05c:	e51b300c 	ldr	r3, [fp, #-12]
    a060:	e2833001 	add	r3, r3, #1
    a064:	e50b300c 	str	r3, [fp, #-12]
    a068:	eaffffdb 	b	9fdc <_Z4itoajPcj+0xd4>
/mnt/c/Users/Kuba/Documents/ZeroMate/examples/20-UART_game/stdlib/src/stdstring.cpp:34
    }
}
    a06c:	e320f000 	nop	{0}
    a070:	e24bd004 	sub	sp, fp, #4
    a074:	e8bd8800 	pop	{fp, pc}
    a078:	0000a9e8 	andeq	sl, r0, r8, ror #19

0000a07c <_Z4atoiPKc>:
_Z4atoiPKc():
/mnt/c/Users/Kuba/Documents/ZeroMate/examples/20-UART_game/stdlib/src/stdstring.cpp:37

int atoi(const char* input)
{
    a07c:	e52db004 	push	{fp}		; (str fp, [sp, #-4]!)
    a080:	e28db000 	add	fp, sp, #0
    a084:	e24dd014 	sub	sp, sp, #20
    a088:	e50b0010 	str	r0, [fp, #-16]
/mnt/c/Users/Kuba/Documents/ZeroMate/examples/20-UART_game/stdlib/src/stdstring.cpp:38
    int output = 0;
    a08c:	e3a03000 	mov	r3, #0
    a090:	e50b3008 	str	r3, [fp, #-8]
/mnt/c/Users/Kuba/Documents/ZeroMate/examples/20-UART_game/stdlib/src/stdstring.cpp:40

    while (*input != '\0')
    a094:	e51b3010 	ldr	r3, [fp, #-16]
    a098:	e5d33000 	ldrb	r3, [r3]
    a09c:	e3530000 	cmp	r3, #0
    a0a0:	0a000017 	beq	a104 <_Z4atoiPKc+0x88>
/mnt/c/Users/Kuba/Documents/ZeroMate/examples/20-UART_game/stdlib/src/stdstring.cpp:42
    {
        output *= 10;
    a0a4:	e51b2008 	ldr	r2, [fp, #-8]
    a0a8:	e1a03002 	mov	r3, r2
    a0ac:	e1a03103 	lsl	r3, r3, #2
    a0b0:	e0833002 	add	r3, r3, r2
    a0b4:	e1a03083 	lsl	r3, r3, #1
    a0b8:	e50b3008 	str	r3, [fp, #-8]
/mnt/c/Users/Kuba/Documents/ZeroMate/examples/20-UART_game/stdlib/src/stdstring.cpp:43
        if (*input > '9' || *input < '0')
    a0bc:	e51b3010 	ldr	r3, [fp, #-16]
    a0c0:	e5d33000 	ldrb	r3, [r3]
    a0c4:	e3530039 	cmp	r3, #57	; 0x39
    a0c8:	8a00000d 	bhi	a104 <_Z4atoiPKc+0x88>
/mnt/c/Users/Kuba/Documents/ZeroMate/examples/20-UART_game/stdlib/src/stdstring.cpp:43 (discriminator 1)
    a0cc:	e51b3010 	ldr	r3, [fp, #-16]
    a0d0:	e5d33000 	ldrb	r3, [r3]
    a0d4:	e353002f 	cmp	r3, #47	; 0x2f
    a0d8:	9a000009 	bls	a104 <_Z4atoiPKc+0x88>
/mnt/c/Users/Kuba/Documents/ZeroMate/examples/20-UART_game/stdlib/src/stdstring.cpp:46
            break;

        output += *input - '0';
    a0dc:	e51b3010 	ldr	r3, [fp, #-16]
    a0e0:	e5d33000 	ldrb	r3, [r3]
    a0e4:	e2433030 	sub	r3, r3, #48	; 0x30
    a0e8:	e51b2008 	ldr	r2, [fp, #-8]
    a0ec:	e0823003 	add	r3, r2, r3
    a0f0:	e50b3008 	str	r3, [fp, #-8]
/mnt/c/Users/Kuba/Documents/ZeroMate/examples/20-UART_game/stdlib/src/stdstring.cpp:48

        input++;
    a0f4:	e51b3010 	ldr	r3, [fp, #-16]
    a0f8:	e2833001 	add	r3, r3, #1
    a0fc:	e50b3010 	str	r3, [fp, #-16]
/mnt/c/Users/Kuba/Documents/ZeroMate/examples/20-UART_game/stdlib/src/stdstring.cpp:40
    while (*input != '\0')
    a100:	eaffffe3 	b	a094 <_Z4atoiPKc+0x18>
/mnt/c/Users/Kuba/Documents/ZeroMate/examples/20-UART_game/stdlib/src/stdstring.cpp:51
    }

    return output;
    a104:	e51b3008 	ldr	r3, [fp, #-8]
/mnt/c/Users/Kuba/Documents/ZeroMate/examples/20-UART_game/stdlib/src/stdstring.cpp:52
}
    a108:	e1a00003 	mov	r0, r3
    a10c:	e28bd000 	add	sp, fp, #0
    a110:	e49db004 	pop	{fp}		; (ldr fp, [sp], #4)
    a114:	e12fff1e 	bx	lr

0000a118 <_Z7strncpyPcPKci>:
_Z7strncpyPcPKci():
/mnt/c/Users/Kuba/Documents/ZeroMate/examples/20-UART_game/stdlib/src/stdstring.cpp:55

char* strncpy(char* dest, const char* src, int num)
{
    a118:	e52db004 	push	{fp}		; (str fp, [sp, #-4]!)
    a11c:	e28db000 	add	fp, sp, #0
    a120:	e24dd01c 	sub	sp, sp, #28
    a124:	e50b0010 	str	r0, [fp, #-16]
    a128:	e50b1014 	str	r1, [fp, #-20]	; 0xffffffec
    a12c:	e50b2018 	str	r2, [fp, #-24]	; 0xffffffe8
/mnt/c/Users/Kuba/Documents/ZeroMate/examples/20-UART_game/stdlib/src/stdstring.cpp:58
    int i;

    for (i = 0; i < num && src[i] != '\0'; i++)
    a130:	e3a03000 	mov	r3, #0
    a134:	e50b3008 	str	r3, [fp, #-8]
/mnt/c/Users/Kuba/Documents/ZeroMate/examples/20-UART_game/stdlib/src/stdstring.cpp:58 (discriminator 4)
    a138:	e51b2008 	ldr	r2, [fp, #-8]
    a13c:	e51b3018 	ldr	r3, [fp, #-24]	; 0xffffffe8
    a140:	e1520003 	cmp	r2, r3
    a144:	aa000011 	bge	a190 <_Z7strncpyPcPKci+0x78>
/mnt/c/Users/Kuba/Documents/ZeroMate/examples/20-UART_game/stdlib/src/stdstring.cpp:58 (discriminator 2)
    a148:	e51b3008 	ldr	r3, [fp, #-8]
    a14c:	e51b2014 	ldr	r2, [fp, #-20]	; 0xffffffec
    a150:	e0823003 	add	r3, r2, r3
    a154:	e5d33000 	ldrb	r3, [r3]
    a158:	e3530000 	cmp	r3, #0
    a15c:	0a00000b 	beq	a190 <_Z7strncpyPcPKci+0x78>
/mnt/c/Users/Kuba/Documents/ZeroMate/examples/20-UART_game/stdlib/src/stdstring.cpp:59 (discriminator 3)
        dest[i] = src[i];
    a160:	e51b3008 	ldr	r3, [fp, #-8]
    a164:	e51b2014 	ldr	r2, [fp, #-20]	; 0xffffffec
    a168:	e0822003 	add	r2, r2, r3
    a16c:	e51b3008 	ldr	r3, [fp, #-8]
    a170:	e51b1010 	ldr	r1, [fp, #-16]
    a174:	e0813003 	add	r3, r1, r3
    a178:	e5d22000 	ldrb	r2, [r2]
    a17c:	e5c32000 	strb	r2, [r3]
/mnt/c/Users/Kuba/Documents/ZeroMate/examples/20-UART_game/stdlib/src/stdstring.cpp:58 (discriminator 3)
    for (i = 0; i < num && src[i] != '\0'; i++)
    a180:	e51b3008 	ldr	r3, [fp, #-8]
    a184:	e2833001 	add	r3, r3, #1
    a188:	e50b3008 	str	r3, [fp, #-8]
    a18c:	eaffffe9 	b	a138 <_Z7strncpyPcPKci+0x20>
/mnt/c/Users/Kuba/Documents/ZeroMate/examples/20-UART_game/stdlib/src/stdstring.cpp:60 (discriminator 2)
    for (; i < num; i++)
    a190:	e51b2008 	ldr	r2, [fp, #-8]
    a194:	e51b3018 	ldr	r3, [fp, #-24]	; 0xffffffe8
    a198:	e1520003 	cmp	r2, r3
    a19c:	aa000008 	bge	a1c4 <_Z7strncpyPcPKci+0xac>
/mnt/c/Users/Kuba/Documents/ZeroMate/examples/20-UART_game/stdlib/src/stdstring.cpp:61 (discriminator 1)
        dest[i] = '\0';
    a1a0:	e51b3008 	ldr	r3, [fp, #-8]
    a1a4:	e51b2010 	ldr	r2, [fp, #-16]
    a1a8:	e0823003 	add	r3, r2, r3
    a1ac:	e3a02000 	mov	r2, #0
    a1b0:	e5c32000 	strb	r2, [r3]
/mnt/c/Users/Kuba/Documents/ZeroMate/examples/20-UART_game/stdlib/src/stdstring.cpp:60 (discriminator 1)
    for (; i < num; i++)
    a1b4:	e51b3008 	ldr	r3, [fp, #-8]
    a1b8:	e2833001 	add	r3, r3, #1
    a1bc:	e50b3008 	str	r3, [fp, #-8]
    a1c0:	eafffff2 	b	a190 <_Z7strncpyPcPKci+0x78>
/mnt/c/Users/Kuba/Documents/ZeroMate/examples/20-UART_game/stdlib/src/stdstring.cpp:63

    return dest;
    a1c4:	e51b3010 	ldr	r3, [fp, #-16]
/mnt/c/Users/Kuba/Documents/ZeroMate/examples/20-UART_game/stdlib/src/stdstring.cpp:64
}
    a1c8:	e1a00003 	mov	r0, r3
    a1cc:	e28bd000 	add	sp, fp, #0
    a1d0:	e49db004 	pop	{fp}		; (ldr fp, [sp], #4)
    a1d4:	e12fff1e 	bx	lr

0000a1d8 <_Z7strncmpPKcS0_i>:
_Z7strncmpPKcS0_i():
/mnt/c/Users/Kuba/Documents/ZeroMate/examples/20-UART_game/stdlib/src/stdstring.cpp:67

int strncmp(const char* s1, const char* s2, int num)
{
    a1d8:	e52db004 	push	{fp}		; (str fp, [sp, #-4]!)
    a1dc:	e28db000 	add	fp, sp, #0
    a1e0:	e24dd01c 	sub	sp, sp, #28
    a1e4:	e50b0010 	str	r0, [fp, #-16]
    a1e8:	e50b1014 	str	r1, [fp, #-20]	; 0xffffffec
    a1ec:	e50b2018 	str	r2, [fp, #-24]	; 0xffffffe8
/mnt/c/Users/Kuba/Documents/ZeroMate/examples/20-UART_game/stdlib/src/stdstring.cpp:69
    unsigned char u1, u2;
    while (num-- > 0)
    a1f0:	e51b3018 	ldr	r3, [fp, #-24]	; 0xffffffe8
    a1f4:	e2432001 	sub	r2, r3, #1
    a1f8:	e50b2018 	str	r2, [fp, #-24]	; 0xffffffe8
    a1fc:	e3530000 	cmp	r3, #0
    a200:	c3a03001 	movgt	r3, #1
    a204:	d3a03000 	movle	r3, #0
    a208:	e6ef3073 	uxtb	r3, r3
    a20c:	e3530000 	cmp	r3, #0
    a210:	0a000016 	beq	a270 <_Z7strncmpPKcS0_i+0x98>
/mnt/c/Users/Kuba/Documents/ZeroMate/examples/20-UART_game/stdlib/src/stdstring.cpp:71
    {
        u1 = (unsigned char)*s1++;
    a214:	e51b3010 	ldr	r3, [fp, #-16]
    a218:	e2832001 	add	r2, r3, #1
    a21c:	e50b2010 	str	r2, [fp, #-16]
    a220:	e5d33000 	ldrb	r3, [r3]
    a224:	e54b3005 	strb	r3, [fp, #-5]
/mnt/c/Users/Kuba/Documents/ZeroMate/examples/20-UART_game/stdlib/src/stdstring.cpp:72
        u2 = (unsigned char)*s2++;
    a228:	e51b3014 	ldr	r3, [fp, #-20]	; 0xffffffec
    a22c:	e2832001 	add	r2, r3, #1
    a230:	e50b2014 	str	r2, [fp, #-20]	; 0xffffffec
    a234:	e5d33000 	ldrb	r3, [r3]
    a238:	e54b3006 	strb	r3, [fp, #-6]
/mnt/c/Users/Kuba/Documents/ZeroMate/examples/20-UART_game/stdlib/src/stdstring.cpp:73
        if (u1 != u2)
    a23c:	e55b2005 	ldrb	r2, [fp, #-5]
    a240:	e55b3006 	ldrb	r3, [fp, #-6]
    a244:	e1520003 	cmp	r2, r3
    a248:	0a000003 	beq	a25c <_Z7strncmpPKcS0_i+0x84>
/mnt/c/Users/Kuba/Documents/ZeroMate/examples/20-UART_game/stdlib/src/stdstring.cpp:74
            return u1 - u2;
    a24c:	e55b2005 	ldrb	r2, [fp, #-5]
    a250:	e55b3006 	ldrb	r3, [fp, #-6]
    a254:	e0423003 	sub	r3, r2, r3
    a258:	ea000005 	b	a274 <_Z7strncmpPKcS0_i+0x9c>
/mnt/c/Users/Kuba/Documents/ZeroMate/examples/20-UART_game/stdlib/src/stdstring.cpp:75
        if (u1 == '\0')
    a25c:	e55b3005 	ldrb	r3, [fp, #-5]
    a260:	e3530000 	cmp	r3, #0
    a264:	1affffe1 	bne	a1f0 <_Z7strncmpPKcS0_i+0x18>
/mnt/c/Users/Kuba/Documents/ZeroMate/examples/20-UART_game/stdlib/src/stdstring.cpp:76
            return 0;
    a268:	e3a03000 	mov	r3, #0
    a26c:	ea000000 	b	a274 <_Z7strncmpPKcS0_i+0x9c>
/mnt/c/Users/Kuba/Documents/ZeroMate/examples/20-UART_game/stdlib/src/stdstring.cpp:79
    }

    return 0;
    a270:	e3a03000 	mov	r3, #0
/mnt/c/Users/Kuba/Documents/ZeroMate/examples/20-UART_game/stdlib/src/stdstring.cpp:80
}
    a274:	e1a00003 	mov	r0, r3
    a278:	e28bd000 	add	sp, fp, #0
    a27c:	e49db004 	pop	{fp}		; (ldr fp, [sp], #4)
    a280:	e12fff1e 	bx	lr

0000a284 <_Z6strlenPKc>:
_Z6strlenPKc():
/mnt/c/Users/Kuba/Documents/ZeroMate/examples/20-UART_game/stdlib/src/stdstring.cpp:83

int strlen(const char* s)
{
    a284:	e52db004 	push	{fp}		; (str fp, [sp, #-4]!)
    a288:	e28db000 	add	fp, sp, #0
    a28c:	e24dd014 	sub	sp, sp, #20
    a290:	e50b0010 	str	r0, [fp, #-16]
/mnt/c/Users/Kuba/Documents/ZeroMate/examples/20-UART_game/stdlib/src/stdstring.cpp:84
    int i = 0;
    a294:	e3a03000 	mov	r3, #0
    a298:	e50b3008 	str	r3, [fp, #-8]
/mnt/c/Users/Kuba/Documents/ZeroMate/examples/20-UART_game/stdlib/src/stdstring.cpp:86

    while (s[i] != '\0')
    a29c:	e51b3008 	ldr	r3, [fp, #-8]
    a2a0:	e51b2010 	ldr	r2, [fp, #-16]
    a2a4:	e0823003 	add	r3, r2, r3
    a2a8:	e5d33000 	ldrb	r3, [r3]
    a2ac:	e3530000 	cmp	r3, #0
    a2b0:	0a000003 	beq	a2c4 <_Z6strlenPKc+0x40>
/mnt/c/Users/Kuba/Documents/ZeroMate/examples/20-UART_game/stdlib/src/stdstring.cpp:87
        i++;
    a2b4:	e51b3008 	ldr	r3, [fp, #-8]
    a2b8:	e2833001 	add	r3, r3, #1
    a2bc:	e50b3008 	str	r3, [fp, #-8]
/mnt/c/Users/Kuba/Documents/ZeroMate/examples/20-UART_game/stdlib/src/stdstring.cpp:86
    while (s[i] != '\0')
    a2c0:	eafffff5 	b	a29c <_Z6strlenPKc+0x18>
/mnt/c/Users/Kuba/Documents/ZeroMate/examples/20-UART_game/stdlib/src/stdstring.cpp:89

    return i;
    a2c4:	e51b3008 	ldr	r3, [fp, #-8]
/mnt/c/Users/Kuba/Documents/ZeroMate/examples/20-UART_game/stdlib/src/stdstring.cpp:90
}
    a2c8:	e1a00003 	mov	r0, r3
    a2cc:	e28bd000 	add	sp, fp, #0
    a2d0:	e49db004 	pop	{fp}		; (ldr fp, [sp], #4)
    a2d4:	e12fff1e 	bx	lr

0000a2d8 <_Z5bzeroPvi>:
_Z5bzeroPvi():
/mnt/c/Users/Kuba/Documents/ZeroMate/examples/20-UART_game/stdlib/src/stdstring.cpp:93

void bzero(void* memory, int length)
{
    a2d8:	e52db004 	push	{fp}		; (str fp, [sp, #-4]!)
    a2dc:	e28db000 	add	fp, sp, #0
    a2e0:	e24dd014 	sub	sp, sp, #20
    a2e4:	e50b0010 	str	r0, [fp, #-16]
    a2e8:	e50b1014 	str	r1, [fp, #-20]	; 0xffffffec
/mnt/c/Users/Kuba/Documents/ZeroMate/examples/20-UART_game/stdlib/src/stdstring.cpp:94
    char* mem = reinterpret_cast<char*>(memory);
    a2ec:	e51b3010 	ldr	r3, [fp, #-16]
    a2f0:	e50b300c 	str	r3, [fp, #-12]
/mnt/c/Users/Kuba/Documents/ZeroMate/examples/20-UART_game/stdlib/src/stdstring.cpp:96

    for (int i = 0; i < length; i++)
    a2f4:	e3a03000 	mov	r3, #0
    a2f8:	e50b3008 	str	r3, [fp, #-8]
/mnt/c/Users/Kuba/Documents/ZeroMate/examples/20-UART_game/stdlib/src/stdstring.cpp:96 (discriminator 3)
    a2fc:	e51b2008 	ldr	r2, [fp, #-8]
    a300:	e51b3014 	ldr	r3, [fp, #-20]	; 0xffffffec
    a304:	e1520003 	cmp	r2, r3
    a308:	aa000008 	bge	a330 <_Z5bzeroPvi+0x58>
/mnt/c/Users/Kuba/Documents/ZeroMate/examples/20-UART_game/stdlib/src/stdstring.cpp:97 (discriminator 2)
        mem[i] = 0;
    a30c:	e51b3008 	ldr	r3, [fp, #-8]
    a310:	e51b200c 	ldr	r2, [fp, #-12]
    a314:	e0823003 	add	r3, r2, r3
    a318:	e3a02000 	mov	r2, #0
    a31c:	e5c32000 	strb	r2, [r3]
/mnt/c/Users/Kuba/Documents/ZeroMate/examples/20-UART_game/stdlib/src/stdstring.cpp:96 (discriminator 2)
    for (int i = 0; i < length; i++)
    a320:	e51b3008 	ldr	r3, [fp, #-8]
    a324:	e2833001 	add	r3, r3, #1
    a328:	e50b3008 	str	r3, [fp, #-8]
    a32c:	eafffff2 	b	a2fc <_Z5bzeroPvi+0x24>
/mnt/c/Users/Kuba/Documents/ZeroMate/examples/20-UART_game/stdlib/src/stdstring.cpp:98
}
    a330:	e320f000 	nop	{0}
    a334:	e28bd000 	add	sp, fp, #0
    a338:	e49db004 	pop	{fp}		; (ldr fp, [sp], #4)
    a33c:	e12fff1e 	bx	lr

0000a340 <_Z6memcpyPKvPvi>:
_Z6memcpyPKvPvi():
/mnt/c/Users/Kuba/Documents/ZeroMate/examples/20-UART_game/stdlib/src/stdstring.cpp:101

void memcpy(const void* src, void* dst, int num)
{
    a340:	e52db004 	push	{fp}		; (str fp, [sp, #-4]!)
    a344:	e28db000 	add	fp, sp, #0
    a348:	e24dd024 	sub	sp, sp, #36	; 0x24
    a34c:	e50b0018 	str	r0, [fp, #-24]	; 0xffffffe8
    a350:	e50b101c 	str	r1, [fp, #-28]	; 0xffffffe4
    a354:	e50b2020 	str	r2, [fp, #-32]	; 0xffffffe0
/mnt/c/Users/Kuba/Documents/ZeroMate/examples/20-UART_game/stdlib/src/stdstring.cpp:102
    const char* memsrc = reinterpret_cast<const char*>(src);
    a358:	e51b3018 	ldr	r3, [fp, #-24]	; 0xffffffe8
    a35c:	e50b300c 	str	r3, [fp, #-12]
/mnt/c/Users/Kuba/Documents/ZeroMate/examples/20-UART_game/stdlib/src/stdstring.cpp:103
    char* memdst = reinterpret_cast<char*>(dst);
    a360:	e51b301c 	ldr	r3, [fp, #-28]	; 0xffffffe4
    a364:	e50b3010 	str	r3, [fp, #-16]
/mnt/c/Users/Kuba/Documents/ZeroMate/examples/20-UART_game/stdlib/src/stdstring.cpp:105

    for (int i = 0; i < num; i++)
    a368:	e3a03000 	mov	r3, #0
    a36c:	e50b3008 	str	r3, [fp, #-8]
/mnt/c/Users/Kuba/Documents/ZeroMate/examples/20-UART_game/stdlib/src/stdstring.cpp:105 (discriminator 3)
    a370:	e51b2008 	ldr	r2, [fp, #-8]
    a374:	e51b3020 	ldr	r3, [fp, #-32]	; 0xffffffe0
    a378:	e1520003 	cmp	r2, r3
    a37c:	aa00000b 	bge	a3b0 <_Z6memcpyPKvPvi+0x70>
/mnt/c/Users/Kuba/Documents/ZeroMate/examples/20-UART_game/stdlib/src/stdstring.cpp:106 (discriminator 2)
        memdst[i] = memsrc[i];
    a380:	e51b3008 	ldr	r3, [fp, #-8]
    a384:	e51b200c 	ldr	r2, [fp, #-12]
    a388:	e0822003 	add	r2, r2, r3
    a38c:	e51b3008 	ldr	r3, [fp, #-8]
    a390:	e51b1010 	ldr	r1, [fp, #-16]
    a394:	e0813003 	add	r3, r1, r3
    a398:	e5d22000 	ldrb	r2, [r2]
    a39c:	e5c32000 	strb	r2, [r3]
/mnt/c/Users/Kuba/Documents/ZeroMate/examples/20-UART_game/stdlib/src/stdstring.cpp:105 (discriminator 2)
    for (int i = 0; i < num; i++)
    a3a0:	e51b3008 	ldr	r3, [fp, #-8]
    a3a4:	e2833001 	add	r3, r3, #1
    a3a8:	e50b3008 	str	r3, [fp, #-8]
    a3ac:	eaffffef 	b	a370 <_Z6memcpyPKvPvi+0x30>
/mnt/c/Users/Kuba/Documents/ZeroMate/examples/20-UART_game/stdlib/src/stdstring.cpp:107
}
    a3b0:	e320f000 	nop	{0}
    a3b4:	e28bd000 	add	sp, fp, #0
    a3b8:	e49db004 	pop	{fp}		; (ldr fp, [sp], #4)
    a3bc:	e12fff1e 	bx	lr

0000a3c0 <__udivsi3>:
__udivsi3():
/build/gcc-arm-none-eabi-hYfgK4/gcc-arm-none-eabi-10.3-2021.07/build/arm-none-eabi/arm/v5te/hard/libgcc/../../../../../../libgcc/config/arm/lib1funcs.S:1104
    a3c0:	e2512001 	subs	r2, r1, #1
/build/gcc-arm-none-eabi-hYfgK4/gcc-arm-none-eabi-10.3-2021.07/build/arm-none-eabi/arm/v5te/hard/libgcc/../../../../../../libgcc/config/arm/lib1funcs.S:1106
    a3c4:	012fff1e 	bxeq	lr
/build/gcc-arm-none-eabi-hYfgK4/gcc-arm-none-eabi-10.3-2021.07/build/arm-none-eabi/arm/v5te/hard/libgcc/../../../../../../libgcc/config/arm/lib1funcs.S:1107
    a3c8:	3a000074 	bcc	a5a0 <__udivsi3+0x1e0>
/build/gcc-arm-none-eabi-hYfgK4/gcc-arm-none-eabi-10.3-2021.07/build/arm-none-eabi/arm/v5te/hard/libgcc/../../../../../../libgcc/config/arm/lib1funcs.S:1108
    a3cc:	e1500001 	cmp	r0, r1
/build/gcc-arm-none-eabi-hYfgK4/gcc-arm-none-eabi-10.3-2021.07/build/arm-none-eabi/arm/v5te/hard/libgcc/../../../../../../libgcc/config/arm/lib1funcs.S:1109
    a3d0:	9a00006b 	bls	a584 <__udivsi3+0x1c4>
/build/gcc-arm-none-eabi-hYfgK4/gcc-arm-none-eabi-10.3-2021.07/build/arm-none-eabi/arm/v5te/hard/libgcc/../../../../../../libgcc/config/arm/lib1funcs.S:1110
    a3d4:	e1110002 	tst	r1, r2
/build/gcc-arm-none-eabi-hYfgK4/gcc-arm-none-eabi-10.3-2021.07/build/arm-none-eabi/arm/v5te/hard/libgcc/../../../../../../libgcc/config/arm/lib1funcs.S:1111
    a3d8:	0a00006c 	beq	a590 <__udivsi3+0x1d0>
/build/gcc-arm-none-eabi-hYfgK4/gcc-arm-none-eabi-10.3-2021.07/build/arm-none-eabi/arm/v5te/hard/libgcc/../../../../../../libgcc/config/arm/lib1funcs.S:1113
    a3dc:	e16f3f10 	clz	r3, r0
    a3e0:	e16f2f11 	clz	r2, r1
    a3e4:	e0423003 	sub	r3, r2, r3
    a3e8:	e273301f 	rsbs	r3, r3, #31
    a3ec:	10833083 	addne	r3, r3, r3, lsl #1
    a3f0:	e3a02000 	mov	r2, #0
    a3f4:	108ff103 	addne	pc, pc, r3, lsl #2
    a3f8:	e1a00000 	nop			; (mov r0, r0)
    a3fc:	e1500f81 	cmp	r0, r1, lsl #31
    a400:	e0a22002 	adc	r2, r2, r2
    a404:	20400f81 	subcs	r0, r0, r1, lsl #31
    a408:	e1500f01 	cmp	r0, r1, lsl #30
    a40c:	e0a22002 	adc	r2, r2, r2
    a410:	20400f01 	subcs	r0, r0, r1, lsl #30
    a414:	e1500e81 	cmp	r0, r1, lsl #29
    a418:	e0a22002 	adc	r2, r2, r2
    a41c:	20400e81 	subcs	r0, r0, r1, lsl #29
    a420:	e1500e01 	cmp	r0, r1, lsl #28
    a424:	e0a22002 	adc	r2, r2, r2
    a428:	20400e01 	subcs	r0, r0, r1, lsl #28
    a42c:	e1500d81 	cmp	r0, r1, lsl #27
    a430:	e0a22002 	adc	r2, r2, r2
    a434:	20400d81 	subcs	r0, r0, r1, lsl #27
    a438:	e1500d01 	cmp	r0, r1, lsl #26
    a43c:	e0a22002 	adc	r2, r2, r2
    a440:	20400d01 	subcs	r0, r0, r1, lsl #26
    a444:	e1500c81 	cmp	r0, r1, lsl #25
    a448:	e0a22002 	adc	r2, r2, r2
    a44c:	20400c81 	subcs	r0, r0, r1, lsl #25
    a450:	e1500c01 	cmp	r0, r1, lsl #24
    a454:	e0a22002 	adc	r2, r2, r2
    a458:	20400c01 	subcs	r0, r0, r1, lsl #24
    a45c:	e1500b81 	cmp	r0, r1, lsl #23
    a460:	e0a22002 	adc	r2, r2, r2
    a464:	20400b81 	subcs	r0, r0, r1, lsl #23
    a468:	e1500b01 	cmp	r0, r1, lsl #22
    a46c:	e0a22002 	adc	r2, r2, r2
    a470:	20400b01 	subcs	r0, r0, r1, lsl #22
    a474:	e1500a81 	cmp	r0, r1, lsl #21
    a478:	e0a22002 	adc	r2, r2, r2
    a47c:	20400a81 	subcs	r0, r0, r1, lsl #21
    a480:	e1500a01 	cmp	r0, r1, lsl #20
    a484:	e0a22002 	adc	r2, r2, r2
    a488:	20400a01 	subcs	r0, r0, r1, lsl #20
    a48c:	e1500981 	cmp	r0, r1, lsl #19
    a490:	e0a22002 	adc	r2, r2, r2
    a494:	20400981 	subcs	r0, r0, r1, lsl #19
    a498:	e1500901 	cmp	r0, r1, lsl #18
    a49c:	e0a22002 	adc	r2, r2, r2
    a4a0:	20400901 	subcs	r0, r0, r1, lsl #18
    a4a4:	e1500881 	cmp	r0, r1, lsl #17
    a4a8:	e0a22002 	adc	r2, r2, r2
    a4ac:	20400881 	subcs	r0, r0, r1, lsl #17
    a4b0:	e1500801 	cmp	r0, r1, lsl #16
    a4b4:	e0a22002 	adc	r2, r2, r2
    a4b8:	20400801 	subcs	r0, r0, r1, lsl #16
    a4bc:	e1500781 	cmp	r0, r1, lsl #15
    a4c0:	e0a22002 	adc	r2, r2, r2
    a4c4:	20400781 	subcs	r0, r0, r1, lsl #15
    a4c8:	e1500701 	cmp	r0, r1, lsl #14
    a4cc:	e0a22002 	adc	r2, r2, r2
    a4d0:	20400701 	subcs	r0, r0, r1, lsl #14
    a4d4:	e1500681 	cmp	r0, r1, lsl #13
    a4d8:	e0a22002 	adc	r2, r2, r2
    a4dc:	20400681 	subcs	r0, r0, r1, lsl #13
    a4e0:	e1500601 	cmp	r0, r1, lsl #12
    a4e4:	e0a22002 	adc	r2, r2, r2
    a4e8:	20400601 	subcs	r0, r0, r1, lsl #12
    a4ec:	e1500581 	cmp	r0, r1, lsl #11
    a4f0:	e0a22002 	adc	r2, r2, r2
    a4f4:	20400581 	subcs	r0, r0, r1, lsl #11
    a4f8:	e1500501 	cmp	r0, r1, lsl #10
    a4fc:	e0a22002 	adc	r2, r2, r2
    a500:	20400501 	subcs	r0, r0, r1, lsl #10
    a504:	e1500481 	cmp	r0, r1, lsl #9
    a508:	e0a22002 	adc	r2, r2, r2
    a50c:	20400481 	subcs	r0, r0, r1, lsl #9
    a510:	e1500401 	cmp	r0, r1, lsl #8
    a514:	e0a22002 	adc	r2, r2, r2
    a518:	20400401 	subcs	r0, r0, r1, lsl #8
    a51c:	e1500381 	cmp	r0, r1, lsl #7
    a520:	e0a22002 	adc	r2, r2, r2
    a524:	20400381 	subcs	r0, r0, r1, lsl #7
    a528:	e1500301 	cmp	r0, r1, lsl #6
    a52c:	e0a22002 	adc	r2, r2, r2
    a530:	20400301 	subcs	r0, r0, r1, lsl #6
    a534:	e1500281 	cmp	r0, r1, lsl #5
    a538:	e0a22002 	adc	r2, r2, r2
    a53c:	20400281 	subcs	r0, r0, r1, lsl #5
    a540:	e1500201 	cmp	r0, r1, lsl #4
    a544:	e0a22002 	adc	r2, r2, r2
    a548:	20400201 	subcs	r0, r0, r1, lsl #4
    a54c:	e1500181 	cmp	r0, r1, lsl #3
    a550:	e0a22002 	adc	r2, r2, r2
    a554:	20400181 	subcs	r0, r0, r1, lsl #3
    a558:	e1500101 	cmp	r0, r1, lsl #2
    a55c:	e0a22002 	adc	r2, r2, r2
    a560:	20400101 	subcs	r0, r0, r1, lsl #2
    a564:	e1500081 	cmp	r0, r1, lsl #1
    a568:	e0a22002 	adc	r2, r2, r2
    a56c:	20400081 	subcs	r0, r0, r1, lsl #1
    a570:	e1500001 	cmp	r0, r1
    a574:	e0a22002 	adc	r2, r2, r2
    a578:	20400001 	subcs	r0, r0, r1
/build/gcc-arm-none-eabi-hYfgK4/gcc-arm-none-eabi-10.3-2021.07/build/arm-none-eabi/arm/v5te/hard/libgcc/../../../../../../libgcc/config/arm/lib1funcs.S:1115
    a57c:	e1a00002 	mov	r0, r2
/build/gcc-arm-none-eabi-hYfgK4/gcc-arm-none-eabi-10.3-2021.07/build/arm-none-eabi/arm/v5te/hard/libgcc/../../../../../../libgcc/config/arm/lib1funcs.S:1116
    a580:	e12fff1e 	bx	lr
/build/gcc-arm-none-eabi-hYfgK4/gcc-arm-none-eabi-10.3-2021.07/build/arm-none-eabi/arm/v5te/hard/libgcc/../../../../../../libgcc/config/arm/lib1funcs.S:1119
    a584:	03a00001 	moveq	r0, #1
/build/gcc-arm-none-eabi-hYfgK4/gcc-arm-none-eabi-10.3-2021.07/build/arm-none-eabi/arm/v5te/hard/libgcc/../../../../../../libgcc/config/arm/lib1funcs.S:1120
    a588:	13a00000 	movne	r0, #0
/build/gcc-arm-none-eabi-hYfgK4/gcc-arm-none-eabi-10.3-2021.07/build/arm-none-eabi/arm/v5te/hard/libgcc/../../../../../../libgcc/config/arm/lib1funcs.S:1121
    a58c:	e12fff1e 	bx	lr
/build/gcc-arm-none-eabi-hYfgK4/gcc-arm-none-eabi-10.3-2021.07/build/arm-none-eabi/arm/v5te/hard/libgcc/../../../../../../libgcc/config/arm/lib1funcs.S:1123
    a590:	e16f2f11 	clz	r2, r1
    a594:	e262201f 	rsb	r2, r2, #31
/build/gcc-arm-none-eabi-hYfgK4/gcc-arm-none-eabi-10.3-2021.07/build/arm-none-eabi/arm/v5te/hard/libgcc/../../../../../../libgcc/config/arm/lib1funcs.S:1125
    a598:	e1a00230 	lsr	r0, r0, r2
/build/gcc-arm-none-eabi-hYfgK4/gcc-arm-none-eabi-10.3-2021.07/build/arm-none-eabi/arm/v5te/hard/libgcc/../../../../../../libgcc/config/arm/lib1funcs.S:1126
    a59c:	e12fff1e 	bx	lr
/build/gcc-arm-none-eabi-hYfgK4/gcc-arm-none-eabi-10.3-2021.07/build/arm-none-eabi/arm/v5te/hard/libgcc/../../../../../../libgcc/config/arm/lib1funcs.S:1130
    a5a0:	e3500000 	cmp	r0, #0
    a5a4:	13e00000 	mvnne	r0, #0
    a5a8:	ea000007 	b	a5cc <__aeabi_idiv0>

0000a5ac <__aeabi_uidivmod>:
__aeabi_uidivmod():
/build/gcc-arm-none-eabi-hYfgK4/gcc-arm-none-eabi-10.3-2021.07/build/arm-none-eabi/arm/v5te/hard/libgcc/../../../../../../libgcc/config/arm/lib1funcs.S:1161
    a5ac:	e3510000 	cmp	r1, #0
/build/gcc-arm-none-eabi-hYfgK4/gcc-arm-none-eabi-10.3-2021.07/build/arm-none-eabi/arm/v5te/hard/libgcc/../../../../../../libgcc/config/arm/lib1funcs.S:1162
    a5b0:	0afffffa 	beq	a5a0 <__udivsi3+0x1e0>
/build/gcc-arm-none-eabi-hYfgK4/gcc-arm-none-eabi-10.3-2021.07/build/arm-none-eabi/arm/v5te/hard/libgcc/../../../../../../libgcc/config/arm/lib1funcs.S:1163
    a5b4:	e92d4003 	push	{r0, r1, lr}
/build/gcc-arm-none-eabi-hYfgK4/gcc-arm-none-eabi-10.3-2021.07/build/arm-none-eabi/arm/v5te/hard/libgcc/../../../../../../libgcc/config/arm/lib1funcs.S:1164
    a5b8:	ebffff80 	bl	a3c0 <__udivsi3>
/build/gcc-arm-none-eabi-hYfgK4/gcc-arm-none-eabi-10.3-2021.07/build/arm-none-eabi/arm/v5te/hard/libgcc/../../../../../../libgcc/config/arm/lib1funcs.S:1165
    a5bc:	e8bd4006 	pop	{r1, r2, lr}
/build/gcc-arm-none-eabi-hYfgK4/gcc-arm-none-eabi-10.3-2021.07/build/arm-none-eabi/arm/v5te/hard/libgcc/../../../../../../libgcc/config/arm/lib1funcs.S:1166
    a5c0:	e0030092 	mul	r3, r2, r0
/build/gcc-arm-none-eabi-hYfgK4/gcc-arm-none-eabi-10.3-2021.07/build/arm-none-eabi/arm/v5te/hard/libgcc/../../../../../../libgcc/config/arm/lib1funcs.S:1167
    a5c4:	e0411003 	sub	r1, r1, r3
/build/gcc-arm-none-eabi-hYfgK4/gcc-arm-none-eabi-10.3-2021.07/build/arm-none-eabi/arm/v5te/hard/libgcc/../../../../../../libgcc/config/arm/lib1funcs.S:1168
    a5c8:	e12fff1e 	bx	lr

0000a5cc <__aeabi_idiv0>:
__aeabi_ldiv0():
/build/gcc-arm-none-eabi-hYfgK4/gcc-arm-none-eabi-10.3-2021.07/build/arm-none-eabi/arm/v5te/hard/libgcc/../../../../../../libgcc/config/arm/lib1funcs.S:1466
    a5cc:	e12fff1e 	bx	lr
