
./kernel:     file format elf32-littlearm


Disassembly of section .initsys:

00008000 <_start>:
_start():
    8000:	e59ff018 	ldr	pc, [pc, #24]	; 8020 <_reset_ptr>
    8004:	e59ff018 	ldr	pc, [pc, #24]	; 8024 <_undefined_instruction_ptr>
    8008:	e59ff018 	ldr	pc, [pc, #24]	; 8028 <_software_interrupt_ptr>
    800c:	e59ff018 	ldr	pc, [pc, #24]	; 802c <_prefetch_abort_ptr>
    8010:	e59ff018 	ldr	pc, [pc, #24]	; 8030 <_data_abort_ptr>
    8014:	e59ff018 	ldr	pc, [pc, #24]	; 8034 <_unused_handler_ptr>
    8018:	e59ff018 	ldr	pc, [pc, #24]	; 8038 <_irq_ptr>
    801c:	e59ff018 	ldr	pc, [pc, #24]	; 803c <_fast_interrupt_ptr>

00008020 <_reset_ptr>:
_reset_ptr():
    8020:	00008040 	andeq	r8, r0, r0, asr #32

00008024 <_undefined_instruction_ptr>:
_undefined_instruction_ptr():
    8024:	f00148bc 			; <UNDEFINED> instruction: 0xf00148bc

00008028 <_software_interrupt_ptr>:
_software_interrupt_ptr():
    8028:	f0014850 			; <UNDEFINED> instruction: 0xf0014850

0000802c <_prefetch_abort_ptr>:
_prefetch_abort_ptr():
    802c:	f00148c0 			; <UNDEFINED> instruction: 0xf00148c0

00008030 <_data_abort_ptr>:
_data_abort_ptr():
    8030:	f00148c4 			; <UNDEFINED> instruction: 0xf00148c4

00008034 <_unused_handler_ptr>:
_unused_handler_ptr():
    8034:	00008040 	andeq	r8, r0, r0, asr #32

00008038 <_irq_ptr>:
_irq_ptr():
    8038:	f001488c 			; <UNDEFINED> instruction: 0xf001488c

0000803c <_fast_interrupt_ptr>:
_fast_interrupt_ptr():
    803c:	f0014624 			; <UNDEFINED> instruction: 0xf0014624

00008040 <_reset>:
_reset():
    8040:	e3a00902 	mov	r0, #32768	; 0x8000
    8044:	e3a0180f 	mov	r1, #983040	; 0xf0000
    8048:	e8b003fc 	ldm	r0!, {r2, r3, r4, r5, r6, r7, r8, r9}
    804c:	e8a103fc 	stmia	r1!, {r2, r3, r4, r5, r6, r7, r8, r9}
    8050:	e8b003fc 	ldm	r0!, {r2, r3, r4, r5, r6, r7, r8, r9}
    8054:	e8a103fc 	stmia	r1!, {r2, r3, r4, r5, r6, r7, r8, r9}
    8058:	e3a04000 	mov	r4, #0
    805c:	e3a000d3 	mov	r0, #211	; 0xd3
    8060:	e121f000 	msr	CPSR_c, r0
    8064:	e284d902 	add	sp, r4, #32768	; 0x8000
    8068:	e3a000d2 	mov	r0, #210	; 0xd2
    806c:	e121f000 	msr	CPSR_c, r0
    8070:	e284da07 	add	sp, r4, #28672	; 0x7000
    8074:	e3a000d1 	mov	r0, #209	; 0xd1
    8078:	e121f000 	msr	CPSR_c, r0
    807c:	e284da06 	add	sp, r4, #24576	; 0x6000
    8080:	e3a000d7 	mov	r0, #215	; 0xd7
    8084:	e121f000 	msr	CPSR_c, r0
    8088:	e284da05 	add	sp, r4, #20480	; 0x5000
    808c:	e3a000df 	mov	r0, #223	; 0xdf
    8090:	e121f000 	msr	CPSR_c, r0
    8094:	e284d901 	add	sp, r4, #16384	; 0x4000
    8098:	eb001fe2 	bl	10028 <_c_startup>
    809c:	eb001ffb 	bl	10090 <_init_system_memory>

000080a0 <init_hang>:
init_hang():
    80a0:	eafffffe 	b	80a0 <init_hang>
	...

0000c000 <Page_Directory_Kernel>:
	...

00010000 <_ZL8PT_Entryj>:
_ZL8PT_Entryj():
/mnt/c/Users/Kuba/Documents/School/ZeroMate/examples/16-paging_userspace/kernel/src/initsys.cpp:14
// hlavni kernelova tabulka stranek
volatile __attribute__ ((aligned (0x4000))) __attribute__((section(".initsys.data"))) uint32_t Page_Directory_Kernel[PT_Size];

// prevod virtualni adresy na index sekce v tabulce stranek (1. uroven prekladu)
static uint32_t __attribute__((section(".initsys"))) PT_Entry(uint32_t addr)
{
   10000:	e52db004 	push	{fp}		; (str fp, [sp, #-4]!)
   10004:	e28db000 	add	fp, sp, #0
   10008:	e24dd00c 	sub	sp, sp, #12
   1000c:	e50b0008 	str	r0, [fp, #-8]
/mnt/c/Users/Kuba/Documents/School/ZeroMate/examples/16-paging_userspace/kernel/src/initsys.cpp:15
    return addr >> 20;
   10010:	e51b3008 	ldr	r3, [fp, #-8]
   10014:	e1a03a23 	lsr	r3, r3, #20
/mnt/c/Users/Kuba/Documents/School/ZeroMate/examples/16-paging_userspace/kernel/src/initsys.cpp:16
}
   10018:	e1a00003 	mov	r0, r3
   1001c:	e28bd000 	add	sp, fp, #0
   10020:	e49db004 	pop	{fp}		; (ldr fp, [sp], #4)
   10024:	e12fff1e 	bx	lr

00010028 <_c_startup>:
_c_startup():
/mnt/c/Users/Kuba/Documents/School/ZeroMate/examples/16-paging_userspace/kernel/src/initsys.cpp:21

// inicializace prostredi
// volame jeste nez zapneme strankovani = musi byt v initsys sekci, ktera je "relokovana" 1:1 na fyzickou pamet
extern "C" int __attribute__((section(".initsys"))) _c_startup(void)
{
   10028:	e52db004 	push	{fp}		; (str fp, [sp, #-4]!)
   1002c:	e28db000 	add	fp, sp, #0
   10030:	e24dd00c 	sub	sp, sp, #12
/mnt/c/Users/Kuba/Documents/School/ZeroMate/examples/16-paging_userspace/kernel/src/initsys.cpp:25
    int* i;

    // vynulujeme .bss sekci
    for (i = (int*)_phys_bss_start; i < (int*)_phys_bss_end; i++)
   10034:	e59f304c 	ldr	r3, [pc, #76]	; 10088 <_c_startup+0x60>
   10038:	e5933000 	ldr	r3, [r3]
   1003c:	e50b3008 	str	r3, [fp, #-8]
/mnt/c/Users/Kuba/Documents/School/ZeroMate/examples/16-paging_userspace/kernel/src/initsys.cpp:25 (discriminator 3)
   10040:	e59f3044 	ldr	r3, [pc, #68]	; 1008c <_c_startup+0x64>
   10044:	e5933000 	ldr	r3, [r3]
   10048:	e1a02003 	mov	r2, r3
   1004c:	e51b3008 	ldr	r3, [fp, #-8]
   10050:	e1530002 	cmp	r3, r2
   10054:	2a000006 	bcs	10074 <_c_startup+0x4c>
/mnt/c/Users/Kuba/Documents/School/ZeroMate/examples/16-paging_userspace/kernel/src/initsys.cpp:26 (discriminator 2)
        *i = 0;
   10058:	e51b3008 	ldr	r3, [fp, #-8]
   1005c:	e3a02000 	mov	r2, #0
   10060:	e5832000 	str	r2, [r3]
/mnt/c/Users/Kuba/Documents/School/ZeroMate/examples/16-paging_userspace/kernel/src/initsys.cpp:25 (discriminator 2)
    for (i = (int*)_phys_bss_start; i < (int*)_phys_bss_end; i++)
   10064:	e51b3008 	ldr	r3, [fp, #-8]
   10068:	e2833004 	add	r3, r3, #4
   1006c:	e50b3008 	str	r3, [fp, #-8]
   10070:	eafffff2 	b	10040 <_c_startup+0x18>
/mnt/c/Users/Kuba/Documents/School/ZeroMate/examples/16-paging_userspace/kernel/src/initsys.cpp:28

    return 0;
   10074:	e3a03000 	mov	r3, #0
/mnt/c/Users/Kuba/Documents/School/ZeroMate/examples/16-paging_userspace/kernel/src/initsys.cpp:29
}
   10078:	e1a00003 	mov	r0, r3
   1007c:	e28bd000 	add	sp, fp, #0
   10080:	e49db004 	pop	{fp}		; (ldr fp, [sp], #4)
   10084:	e12fff1e 	bx	lr
   10088:	0005151c 	andeq	r1, r5, ip, lsl r5
   1008c:	00051668 	andeq	r1, r5, r8, ror #12

00010090 <_init_system_memory>:
_init_system_memory():
/mnt/c/Users/Kuba/Documents/School/ZeroMate/examples/16-paging_userspace/kernel/src/initsys.cpp:32

extern "C" void __attribute__((section(".initsys"))) __attribute__((noreturn)) _init_system_memory()
{
   10090:	e92d4810 	push	{r4, fp, lr}
   10094:	e28db008 	add	fp, sp, #8
   10098:	e24dd024 	sub	sp, sp, #36	; 0x24
/mnt/c/Users/Kuba/Documents/School/ZeroMate/examples/16-paging_userspace/kernel/src/initsys.cpp:35
    // vyprazdnime tabulku stranek - budeme ji plnit konkretnimi zaznamy
    // cokoliv co konci dvema nulovymi bity vyvola pri pokusu o pristup abort
    for (uint32_t i = 0; i < PT_Size; i++)
   1009c:	e3a03000 	mov	r3, #0
   100a0:	e50b3010 	str	r3, [fp, #-16]
/mnt/c/Users/Kuba/Documents/School/ZeroMate/examples/16-paging_userspace/kernel/src/initsys.cpp:35 (discriminator 3)
   100a4:	e51b3010 	ldr	r3, [fp, #-16]
   100a8:	e3530a01 	cmp	r3, #4096	; 0x1000
   100ac:	2a000007 	bcs	100d0 <_init_system_memory+0x40>
/mnt/c/Users/Kuba/Documents/School/ZeroMate/examples/16-paging_userspace/kernel/src/initsys.cpp:36 (discriminator 2)
        Page_Directory_Kernel[i] = DL1_Flags::Access_Type_Translation_Fault;
   100b0:	e59f21d8 	ldr	r2, [pc, #472]	; 10290 <_init_system_memory+0x200>
   100b4:	e51b3010 	ldr	r3, [fp, #-16]
   100b8:	e3a01000 	mov	r1, #0
   100bc:	e7821103 	str	r1, [r2, r3, lsl #2]
/mnt/c/Users/Kuba/Documents/School/ZeroMate/examples/16-paging_userspace/kernel/src/initsys.cpp:35 (discriminator 2)
    for (uint32_t i = 0; i < PT_Size; i++)
   100c0:	e51b3010 	ldr	r3, [fp, #-16]
   100c4:	e2833001 	add	r3, r3, #1
   100c8:	e50b3010 	str	r3, [fp, #-16]
   100cc:	eafffff4 	b	100a4 <_init_system_memory+0x14>
/mnt/c/Users/Kuba/Documents/School/ZeroMate/examples/16-paging_userspace/kernel/src/initsys.cpp:42

    // docasna zalezitost - 1:1 mapovani (tzv. "identity mapping") celeho spodku pameti (mapujeme vsechno pro ted, do budoucna by mohlo stacit jen neco)
    // kdybychom tohle neudelali, v momente, kdy bychom nahrali tabulku stranek a zapnuli MMU, okamzite by doslo k page fault vyjimce (resp. abort na ARM)
    // tohle pak zase odebereme, az budeme provadet kod v higher half
    unsigned int addr;
    for (addr = 0; addr < 0x20000000; addr += PT_Region_Size)
   100d0:	e3a03000 	mov	r3, #0
   100d4:	e50b3014 	str	r3, [fp, #-20]	; 0xffffffec
/mnt/c/Users/Kuba/Documents/School/ZeroMate/examples/16-paging_userspace/kernel/src/initsys.cpp:42 (discriminator 3)
   100d8:	e51b3014 	ldr	r3, [fp, #-20]	; 0xffffffec
   100dc:	e373021e 	cmn	r3, #-536870911	; 0xe0000001
   100e0:	8a00000b 	bhi	10114 <_init_system_memory+0x84>
/mnt/c/Users/Kuba/Documents/School/ZeroMate/examples/16-paging_userspace/kernel/src/initsys.cpp:44 (discriminator 2)
    {
        Page_Directory_Kernel[PT_Entry(addr)] = addr
   100e4:	e51b0014 	ldr	r0, [fp, #-20]	; 0xffffffec
   100e8:	ebffffc4 	bl	10000 <_ZL8PT_Entryj>
   100ec:	e1a02000 	mov	r2, r0
/mnt/c/Users/Kuba/Documents/School/ZeroMate/examples/16-paging_userspace/kernel/src/initsys.cpp:51 (discriminator 2)
            | DL1_Flags::Bufferable
            | DL1_Flags::Cacheable
            | DL1_Flags::Domain_0
            | DL1_Flags::Access_Privileged_RW_User_None
            | DL1_Flags::TEX_001
            | DL1_Flags::Shareable;
   100f0:	e51b3014 	ldr	r3, [fp, #-20]	; 0xffffffec
   100f4:	e3833b45 	orr	r3, r3, #70656	; 0x11400
   100f8:	e383300e 	orr	r3, r3, #14
/mnt/c/Users/Kuba/Documents/School/ZeroMate/examples/16-paging_userspace/kernel/src/initsys.cpp:44 (discriminator 2)
        Page_Directory_Kernel[PT_Entry(addr)] = addr
   100fc:	e59f118c 	ldr	r1, [pc, #396]	; 10290 <_init_system_memory+0x200>
   10100:	e7813102 	str	r3, [r1, r2, lsl #2]
/mnt/c/Users/Kuba/Documents/School/ZeroMate/examples/16-paging_userspace/kernel/src/initsys.cpp:42 (discriminator 2)
    for (addr = 0; addr < 0x20000000; addr += PT_Region_Size)
   10104:	e51b3014 	ldr	r3, [fp, #-20]	; 0xffffffec
   10108:	e2833601 	add	r3, r3, #1048576	; 0x100000
   1010c:	e50b3014 	str	r3, [fp, #-20]	; 0xffffffec
   10110:	eafffff0 	b	100d8 <_init_system_memory+0x48>
/mnt/c/Users/Kuba/Documents/School/ZeroMate/examples/16-paging_userspace/kernel/src/initsys.cpp:55
    }

    // memory-mapped I/O pro periferie, necachovane (!), nebufferovane (!), RW jen pro privilegovany rezim (nechceme, aby nam uzivatelske procesy manipulovaly s HW primo)
    for (addr = hal::Peripheral_Base; addr < hal::Peripheral_Base + 0x20000000; addr += PT_Region_Size)
   10114:	e3a03202 	mov	r3, #536870912	; 0x20000000
   10118:	e50b3014 	str	r3, [fp, #-20]	; 0xffffffec
/mnt/c/Users/Kuba/Documents/School/ZeroMate/examples/16-paging_userspace/kernel/src/initsys.cpp:55 (discriminator 3)
   1011c:	e51b3014 	ldr	r3, [fp, #-20]	; 0xffffffec
   10120:	e3730107 	cmn	r3, #-1073741823	; 0xc0000001
   10124:	8a00000b 	bhi	10158 <_init_system_memory+0xc8>
/mnt/c/Users/Kuba/Documents/School/ZeroMate/examples/16-paging_userspace/kernel/src/initsys.cpp:57 (discriminator 2)
    {
        Page_Directory_Kernel[PT_Entry(addr)] = addr
   10128:	e51b0014 	ldr	r0, [fp, #-20]	; 0xffffffec
   1012c:	ebffffb3 	bl	10000 <_ZL8PT_Entryj>
   10130:	e1a02000 	mov	r2, r0
/mnt/c/Users/Kuba/Documents/School/ZeroMate/examples/16-paging_userspace/kernel/src/initsys.cpp:62 (discriminator 2)
                | DL1_Flags::Access_Type_Section_Address
                | DL1_Flags::Domain_0
                | DL1_Flags::Access_Privileged_RW_User_None
                | DL1_Flags::TEX_000
                | DL1_Flags::Shareable;
   10134:	e51b3014 	ldr	r3, [fp, #-20]	; 0xffffffec
   10138:	e3833b41 	orr	r3, r3, #66560	; 0x10400
   1013c:	e3833002 	orr	r3, r3, #2
/mnt/c/Users/Kuba/Documents/School/ZeroMate/examples/16-paging_userspace/kernel/src/initsys.cpp:57 (discriminator 2)
        Page_Directory_Kernel[PT_Entry(addr)] = addr
   10140:	e59f1148 	ldr	r1, [pc, #328]	; 10290 <_init_system_memory+0x200>
   10144:	e7813102 	str	r3, [r1, r2, lsl #2]
/mnt/c/Users/Kuba/Documents/School/ZeroMate/examples/16-paging_userspace/kernel/src/initsys.cpp:55 (discriminator 2)
    for (addr = hal::Peripheral_Base; addr < hal::Peripheral_Base + 0x20000000; addr += PT_Region_Size)
   10148:	e51b3014 	ldr	r3, [fp, #-20]	; 0xffffffec
   1014c:	e2833601 	add	r3, r3, #1048576	; 0x100000
   10150:	e50b3014 	str	r3, [fp, #-20]	; 0xffffffec
   10154:	eafffff0 	b	1011c <_init_system_memory+0x8c>
/mnt/c/Users/Kuba/Documents/School/ZeroMate/examples/16-paging_userspace/kernel/src/initsys.cpp:67
    }

    // kernel kod - konstantni, budeme z nej v podstate jen cist a spoustet ho
    // mapujeme 0xF0000000-0xF0FFFFFF na 0x00000000-0x00FFFFFF
    for (addr = 0xF0000000; addr < 0xF1000000; addr += PT_Region_Size)
   10158:	e3a0320f 	mov	r3, #-268435456	; 0xf0000000
   1015c:	e50b3014 	str	r3, [fp, #-20]	; 0xffffffec
/mnt/c/Users/Kuba/Documents/School/ZeroMate/examples/16-paging_userspace/kernel/src/initsys.cpp:67 (discriminator 3)
   10160:	e51b3014 	ldr	r3, [fp, #-20]	; 0xffffffec
   10164:	e35304f1 	cmp	r3, #-251658240	; 0xf1000000
   10168:	2a00000c 	bcs	101a0 <_init_system_memory+0x110>
/mnt/c/Users/Kuba/Documents/School/ZeroMate/examples/16-paging_userspace/kernel/src/initsys.cpp:69 (discriminator 2)
    {
        Page_Directory_Kernel[PT_Entry(addr)] = (addr - 0xF0000000)
   1016c:	e51b3014 	ldr	r3, [fp, #-20]	; 0xffffffec
   10170:	e2834201 	add	r4, r3, #268435456	; 0x10000000
   10174:	e51b0014 	ldr	r0, [fp, #-20]	; 0xffffffec
   10178:	ebffffa0 	bl	10000 <_ZL8PT_Entryj>
   1017c:	e1a02000 	mov	r2, r0
/mnt/c/Users/Kuba/Documents/School/ZeroMate/examples/16-paging_userspace/kernel/src/initsys.cpp:76 (discriminator 2)
                | DL1_Flags::Bufferable
                | DL1_Flags::Cacheable
                | DL1_Flags::Domain_0
                | DL1_Flags::Access_Privileged_RW_User_None
                | DL1_Flags::TEX_001
                | DL1_Flags::Shareable;
   10180:	e3843b45 	orr	r3, r4, #70656	; 0x11400
   10184:	e383300e 	orr	r3, r3, #14
/mnt/c/Users/Kuba/Documents/School/ZeroMate/examples/16-paging_userspace/kernel/src/initsys.cpp:69 (discriminator 2)
        Page_Directory_Kernel[PT_Entry(addr)] = (addr - 0xF0000000)
   10188:	e59f1100 	ldr	r1, [pc, #256]	; 10290 <_init_system_memory+0x200>
   1018c:	e7813102 	str	r3, [r1, r2, lsl #2]
/mnt/c/Users/Kuba/Documents/School/ZeroMate/examples/16-paging_userspace/kernel/src/initsys.cpp:67 (discriminator 2)
    for (addr = 0xF0000000; addr < 0xF1000000; addr += PT_Region_Size)
   10190:	e51b3014 	ldr	r3, [fp, #-20]	; 0xffffffec
   10194:	e2833601 	add	r3, r3, #1048576	; 0x100000
   10198:	e50b3014 	str	r3, [fp, #-20]	; 0xffffffec
   1019c:	eaffffef 	b	10160 <_init_system_memory+0xd0>
/mnt/c/Users/Kuba/Documents/School/ZeroMate/examples/16-paging_userspace/kernel/src/initsys.cpp:80
    }

    // mapujeme 0xC0000000-0xCFFFFFFF na 0x00000000-0x0FFFFFFF (abychom meli z kernelu pristup do veskere fyzicke pameti "jako k datum")
    for (addr = 0xC0000000; addr < 0xD0000000; addr += PT_Region_Size)
   101a0:	e3a03103 	mov	r3, #-1073741824	; 0xc0000000
   101a4:	e50b3014 	str	r3, [fp, #-20]	; 0xffffffec
/mnt/c/Users/Kuba/Documents/School/ZeroMate/examples/16-paging_userspace/kernel/src/initsys.cpp:80 (discriminator 3)
   101a8:	e51b3014 	ldr	r3, [fp, #-20]	; 0xffffffec
   101ac:	e3730213 	cmn	r3, #805306369	; 0x30000001
   101b0:	8a00000c 	bhi	101e8 <_init_system_memory+0x158>
/mnt/c/Users/Kuba/Documents/School/ZeroMate/examples/16-paging_userspace/kernel/src/initsys.cpp:82 (discriminator 2)
    {
        Page_Directory_Kernel[PT_Entry(addr)] = (addr - 0xC0000000)
   101b4:	e51b3014 	ldr	r3, [fp, #-20]	; 0xffffffec
   101b8:	e2834101 	add	r4, r3, #1073741824	; 0x40000000
   101bc:	e51b0014 	ldr	r0, [fp, #-20]	; 0xffffffec
   101c0:	ebffff8e 	bl	10000 <_ZL8PT_Entryj>
   101c4:	e1a02000 	mov	r2, r0
/mnt/c/Users/Kuba/Documents/School/ZeroMate/examples/16-paging_userspace/kernel/src/initsys.cpp:89 (discriminator 2)
                | DL1_Flags::Cacheable
                | DL1_Flags::Domain_0
                | DL1_Flags::Execute_Never
                | DL1_Flags::Access_Privileged_RW_User_None
                | DL1_Flags::TEX_000
                | DL1_Flags::Shareable;
   101c8:	e3843b41 	orr	r3, r4, #66560	; 0x10400
   101cc:	e3833016 	orr	r3, r3, #22
/mnt/c/Users/Kuba/Documents/School/ZeroMate/examples/16-paging_userspace/kernel/src/initsys.cpp:82 (discriminator 2)
        Page_Directory_Kernel[PT_Entry(addr)] = (addr - 0xC0000000)
   101d0:	e59f10b8 	ldr	r1, [pc, #184]	; 10290 <_init_system_memory+0x200>
   101d4:	e7813102 	str	r3, [r1, r2, lsl #2]
/mnt/c/Users/Kuba/Documents/School/ZeroMate/examples/16-paging_userspace/kernel/src/initsys.cpp:80 (discriminator 2)
    for (addr = 0xC0000000; addr < 0xD0000000; addr += PT_Region_Size)
   101d8:	e51b3014 	ldr	r3, [fp, #-20]	; 0xffffffec
   101dc:	e2833601 	add	r3, r3, #1048576	; 0x100000
   101e0:	e50b3014 	str	r3, [fp, #-20]	; 0xffffffec
   101e4:	eaffffef 	b	101a8 <_init_system_memory+0x118>
/mnt/c/Users/Kuba/Documents/School/ZeroMate/examples/16-paging_userspace/kernel/src/initsys.cpp:93
    }

    // systemove zasobniky (0xFFFF3000 - 0xFFFF8000), exception vektory (0xFFFF0000 - 0xFFFF001C)
    Page_Directory_Kernel[PT_Entry(0xFFF00000)] = 0
   101e8:	e59f00a4 	ldr	r0, [pc, #164]	; 10294 <_init_system_memory+0x204>
   101ec:	ebffff83 	bl	10000 <_ZL8PT_Entryj>
   101f0:	e1a03000 	mov	r3, r0
   101f4:	e59f2094 	ldr	r2, [pc, #148]	; 10290 <_init_system_memory+0x200>
   101f8:	e59f1098 	ldr	r1, [pc, #152]	; 10298 <_init_system_memory+0x208>
   101fc:	e7821103 	str	r1, [r2, r3, lsl #2]
/mnt/c/Users/Kuba/Documents/School/ZeroMate/examples/16-paging_userspace/kernel/src/initsys.cpp:104
            | DL1_Flags::TEX_000
            | DL1_Flags::Shareable;

    // velikost cache chceme na 16k - bude to pro nas ted jednodussi (zpetne kompatibilni, bez obarvovani zaznamu, ...)
    unsigned int auxctl_flags;
    asm volatile ("mrc p15, 0, %0, c1, c0,  1" : "=r" (auxctl_flags));
   10200:	ee113f30 	mrc	15, 0, r3, cr1, cr0, {1}
   10204:	e50b3018 	str	r3, [fp, #-24]	; 0xffffffe8
/mnt/c/Users/Kuba/Documents/School/ZeroMate/examples/16-paging_userspace/kernel/src/initsys.cpp:105
    auxctl_flags |= AUXCtl_Flags::Cache_Size_16k;
   10208:	e51b3018 	ldr	r3, [fp, #-24]	; 0xffffffe8
   1020c:	e3833040 	orr	r3, r3, #64	; 0x40
   10210:	e50b3018 	str	r3, [fp, #-24]	; 0xffffffe8
/mnt/c/Users/Kuba/Documents/School/ZeroMate/examples/16-paging_userspace/kernel/src/initsys.cpp:106
    asm volatile ("mcr p15, 0, %0, c1, c0,  1" :: "r" (auxctl_flags));
   10214:	e51b3018 	ldr	r3, [fp, #-24]	; 0xffffffe8
   10218:	ee013f30 	mcr	15, 0, r3, cr1, cr0, {1}
/mnt/c/Users/Kuba/Documents/School/ZeroMate/examples/16-paging_userspace/kernel/src/initsys.cpp:109

    // oznacime domenu 0 jako pouzivanou - klientsky (ne jako manazer domeny)
    unsigned int domain_access = DACR_Flags::Client << 0;
   1021c:	e3a03001 	mov	r3, #1
   10220:	e50b301c 	str	r3, [fp, #-28]	; 0xffffffe4
/mnt/c/Users/Kuba/Documents/School/ZeroMate/examples/16-paging_userspace/kernel/src/initsys.cpp:110
    asm volatile ("mcr p15, 0, %0, c3, c0, 0" :: "r" (domain_access));
   10224:	e51b301c 	ldr	r3, [fp, #-28]	; 0xffffffe4
   10228:	ee033f10 	mcr	15, 0, r3, cr3, cr0, {0}
/mnt/c/Users/Kuba/Documents/School/ZeroMate/examples/16-paging_userspace/kernel/src/initsys.cpp:114

    // tady rozdelujeme prostor na ten, ktery bude prekladat registr TTBR0 a TTBR1, nastavenim na 16k boundary zajistime,
    // ze se vsechny preklady budou cinit jen pomoci TTBR0 registru
    unsigned int ttbc = TTBC_Flags::Boundary_16k;
   1022c:	e3a03000 	mov	r3, #0
   10230:	e50b3020 	str	r3, [fp, #-32]	; 0xffffffe0
/mnt/c/Users/Kuba/Documents/School/ZeroMate/examples/16-paging_userspace/kernel/src/initsys.cpp:115
    asm volatile ("mcr p15, 0, %0, c2, c0, 2" :: "r" (ttbc));
   10234:	e51b3020 	ldr	r3, [fp, #-32]	; 0xffffffe0
   10238:	ee023f50 	mcr	15, 0, r3, cr2, cr0, {2}
/mnt/c/Users/Kuba/Documents/School/ZeroMate/examples/16-paging_userspace/kernel/src/initsys.cpp:123
    // sMonitor << "Page_Directory_Kernel Addr = 0x" << CMonitor::NNumber_Base::HEX <<  reinterpret_cast<unsigned int>(&Page_Directory_Kernel) << "\n";

    // nastavime nasi tabulku stranek do registru TTBR0 spolu s nastavenim - cachovatelne do L1, sdilena
    unsigned int ttbr0 = reinterpret_cast<volatile unsigned int>(&Page_Directory_Kernel)
        | TTBR_Flags::Inner_Cacheable
        | TTBR_Flags::Shared;
   1023c:	e59f304c 	ldr	r3, [pc, #76]	; 10290 <_init_system_memory+0x200>
/mnt/c/Users/Kuba/Documents/School/ZeroMate/examples/16-paging_userspace/kernel/src/initsys.cpp:121
    unsigned int ttbr0 = reinterpret_cast<volatile unsigned int>(&Page_Directory_Kernel)
   10240:	e3833003 	orr	r3, r3, #3
   10244:	e50b3024 	str	r3, [fp, #-36]	; 0xffffffdc
/mnt/c/Users/Kuba/Documents/School/ZeroMate/examples/16-paging_userspace/kernel/src/initsys.cpp:124
    asm volatile ("mcr p15, 0, %0, c2, c0, 0" :: "r" (ttbr0));
   10248:	e51b3024 	ldr	r3, [fp, #-36]	; 0xffffffdc
   1024c:	ee023f10 	mcr	15, 0, r3, cr2, cr0, {0}
/mnt/c/Users/Kuba/Documents/School/ZeroMate/examples/16-paging_userspace/kernel/src/initsys.cpp:127

    // invalidujeme datovou cache a prefetch buffer
    asm volatile ("mcr p15, 0, %0, c7, c5,  4" :: "r" (0) : "memory");
   10250:	e3a03000 	mov	r3, #0
   10254:	ee073f95 	mcr	15, 0, r3, cr7, cr5, {4}
/mnt/c/Users/Kuba/Documents/School/ZeroMate/examples/16-paging_userspace/kernel/src/initsys.cpp:128
    asm volatile ("mcr p15, 0, %0, c7, c6,  0" :: "r" (0) : "memory");
   10258:	e3a03000 	mov	r3, #0
   1025c:	ee073f16 	mcr	15, 0, r3, cr7, cr6, {0}
/mnt/c/Users/Kuba/Documents/School/ZeroMate/examples/16-paging_userspace/kernel/src/initsys.cpp:132

    // zapneme vsechno mozne v MMUCR registru - zapneme MMU, datovou a instrukcni cache, predikci skoku a zapneme si extended stranky
    unsigned int mmucr;
    asm volatile ("mrc p15,0,%0,c1,c0,0" : "=r" (mmucr));
   10260:	ee113f10 	mrc	15, 0, r3, cr1, cr0, {0}
   10264:	e50b3028 	str	r3, [fp, #-40]	; 0xffffffd8
/mnt/c/Users/Kuba/Documents/School/ZeroMate/examples/16-paging_userspace/kernel/src/initsys.cpp:134

    mmucr = mmucr
   10268:	e51b2028 	ldr	r2, [fp, #-40]	; 0xffffffd8
   1026c:	e59f3028 	ldr	r3, [pc, #40]	; 1029c <_init_system_memory+0x20c>
   10270:	e1823003 	orr	r3, r2, r3
   10274:	e50b3028 	str	r3, [fp, #-40]	; 0xffffffd8
/mnt/c/Users/Kuba/Documents/School/ZeroMate/examples/16-paging_userspace/kernel/src/initsys.cpp:143
        | MMUCR_Flags::Instruction_Cache_Enable
        | MMUCR_Flags::High_Exception_Vectors
        | MMUCR_Flags::Unaligned_Memory_Access_Enable // toto se muze negativne podepsat na vykonu
        | MMUCR_Flags::Disable_Subpage_AP;

    asm volatile ("mcr p15,0,%0,c1,c0,0" :: "r" (mmucr) : "memory");
   10278:	e51b3028 	ldr	r3, [fp, #-40]	; 0xffffffd8
   1027c:	ee013f10 	mcr	15, 0, r3, cr1, cr0, {0}
/mnt/c/Users/Kuba/Documents/School/ZeroMate/examples/16-paging_userspace/kernel/src/initsys.cpp:163
     */



    // skok do hlavniho kodu kernelu, ktery je relokovany na vrchi cast pameti (0xF0000000 a dal)
    asm volatile("mov lr, %[_init_system_memory_high]" : : [_init_system_memory_high] "r" ((unsigned int)&_init_system_memory_high) );
   10280:	e59f3018 	ldr	r3, [pc, #24]	; 102a0 <_init_system_memory+0x210>
   10284:	e1a0e003 	mov	lr, r3
/mnt/c/Users/Kuba/Documents/School/ZeroMate/examples/16-paging_userspace/kernel/src/initsys.cpp:164
    asm volatile("bx lr");
   10288:	e12fff1e 	bx	lr
/mnt/c/Users/Kuba/Documents/School/ZeroMate/examples/16-paging_userspace/kernel/src/initsys.cpp:168 (discriminator 1)

    // uspokojeni kompilatoru - funkce je dekorovana atributem noreturn, takze kompilator neceka, ze se z teto funkce budeme vracet
    // fakticky se sice vracime ("bx lr" vyse), ale to kompilator nevidi a jde vlastne o trochu jiny druh navratu
    while (true)
   1028c:	eafffffe 	b	1028c <_init_system_memory+0x1fc>
   10290:	0000c000 	andeq	ip, r0, r0
   10294:	fff00000 			; <UNDEFINED> instruction: 0xfff00000	; IMB
   10298:	0001080e 	andeq	r0, r1, lr, lsl #16
   1029c:	00c03805 	sbceq	r3, r0, r5, lsl #16
   102a0:	f0014dd4 			; <UNDEFINED> instruction: 0xf0014dd4

Disassembly of section .text:

f0011000 <__cxa_guard_acquire>:
__cxa_guard_acquire():
/mnt/c/Users/Kuba/Documents/School/ZeroMate/examples/16-paging_userspace/kernel/src/cxx.cpp:11
	extern "C" int __cxa_guard_acquire (__guard *);
	extern "C" void __cxa_guard_release (__guard *);
	extern "C" void __cxa_guard_abort (__guard *);

	extern "C" int __cxa_guard_acquire (__guard *g)
	{
f0011000:	e52db004 	push	{fp}		; (str fp, [sp, #-4]!)
f0011004:	e28db000 	add	fp, sp, #0
f0011008:	e24dd00c 	sub	sp, sp, #12
f001100c:	e50b0008 	str	r0, [fp, #-8]
/mnt/c/Users/Kuba/Documents/School/ZeroMate/examples/16-paging_userspace/kernel/src/cxx.cpp:12
		return !*(char *)(g);
f0011010:	e51b3008 	ldr	r3, [fp, #-8]
f0011014:	e5d33000 	ldrb	r3, [r3]
f0011018:	e3530000 	cmp	r3, #0
f001101c:	03a03001 	moveq	r3, #1
f0011020:	13a03000 	movne	r3, #0
f0011024:	e6ef3073 	uxtb	r3, r3
/mnt/c/Users/Kuba/Documents/School/ZeroMate/examples/16-paging_userspace/kernel/src/cxx.cpp:13
	}
f0011028:	e1a00003 	mov	r0, r3
f001102c:	e28bd000 	add	sp, fp, #0
f0011030:	e49db004 	pop	{fp}		; (ldr fp, [sp], #4)
f0011034:	e12fff1e 	bx	lr

f0011038 <__cxa_guard_release>:
__cxa_guard_release():
/mnt/c/Users/Kuba/Documents/School/ZeroMate/examples/16-paging_userspace/kernel/src/cxx.cpp:16

	extern "C" void __cxa_guard_release (__guard *g)
	{
f0011038:	e52db004 	push	{fp}		; (str fp, [sp, #-4]!)
f001103c:	e28db000 	add	fp, sp, #0
f0011040:	e24dd00c 	sub	sp, sp, #12
f0011044:	e50b0008 	str	r0, [fp, #-8]
/mnt/c/Users/Kuba/Documents/School/ZeroMate/examples/16-paging_userspace/kernel/src/cxx.cpp:17
		*(char *)g = 1;
f0011048:	e51b3008 	ldr	r3, [fp, #-8]
f001104c:	e3a02001 	mov	r2, #1
f0011050:	e5c32000 	strb	r2, [r3]
/mnt/c/Users/Kuba/Documents/School/ZeroMate/examples/16-paging_userspace/kernel/src/cxx.cpp:18
	}
f0011054:	e320f000 	nop	{0}
f0011058:	e28bd000 	add	sp, fp, #0
f001105c:	e49db004 	pop	{fp}		; (ldr fp, [sp], #4)
f0011060:	e12fff1e 	bx	lr

f0011064 <__cxa_guard_abort>:
__cxa_guard_abort():
/mnt/c/Users/Kuba/Documents/School/ZeroMate/examples/16-paging_userspace/kernel/src/cxx.cpp:21

	extern "C" void __cxa_guard_abort (__guard *)
	{
f0011064:	e52db004 	push	{fp}		; (str fp, [sp, #-4]!)
f0011068:	e28db000 	add	fp, sp, #0
f001106c:	e24dd00c 	sub	sp, sp, #12
f0011070:	e50b0008 	str	r0, [fp, #-8]
/mnt/c/Users/Kuba/Documents/School/ZeroMate/examples/16-paging_userspace/kernel/src/cxx.cpp:23

	}
f0011074:	e320f000 	nop	{0}
f0011078:	e28bd000 	add	sp, fp, #0
f001107c:	e49db004 	pop	{fp}		; (ldr fp, [sp], #4)
f0011080:	e12fff1e 	bx	lr

f0011084 <__dso_handle>:
__dso_handle():
/mnt/c/Users/Kuba/Documents/School/ZeroMate/examples/16-paging_userspace/kernel/src/cxx.cpp:27
}

extern "C" void __dso_handle()
{
f0011084:	e52db004 	push	{fp}		; (str fp, [sp, #-4]!)
f0011088:	e28db000 	add	fp, sp, #0
/mnt/c/Users/Kuba/Documents/School/ZeroMate/examples/16-paging_userspace/kernel/src/cxx.cpp:29
    // ignore dtors for now
}
f001108c:	e320f000 	nop	{0}
f0011090:	e28bd000 	add	sp, fp, #0
f0011094:	e49db004 	pop	{fp}		; (ldr fp, [sp], #4)
f0011098:	e12fff1e 	bx	lr

f001109c <__cxa_atexit>:
__cxa_atexit():
/mnt/c/Users/Kuba/Documents/School/ZeroMate/examples/16-paging_userspace/kernel/src/cxx.cpp:32

extern "C" void __cxa_atexit()
{
f001109c:	e52db004 	push	{fp}		; (str fp, [sp, #-4]!)
f00110a0:	e28db000 	add	fp, sp, #0
/mnt/c/Users/Kuba/Documents/School/ZeroMate/examples/16-paging_userspace/kernel/src/cxx.cpp:34
    // ignore dtors for now
}
f00110a4:	e320f000 	nop	{0}
f00110a8:	e28bd000 	add	sp, fp, #0
f00110ac:	e49db004 	pop	{fp}		; (ldr fp, [sp], #4)
f00110b0:	e12fff1e 	bx	lr

f00110b4 <__cxa_pure_virtual>:
__cxa_pure_virtual():
/mnt/c/Users/Kuba/Documents/School/ZeroMate/examples/16-paging_userspace/kernel/src/cxx.cpp:37

extern "C" void __cxa_pure_virtual()
{
f00110b4:	e52db004 	push	{fp}		; (str fp, [sp, #-4]!)
f00110b8:	e28db000 	add	fp, sp, #0
/mnt/c/Users/Kuba/Documents/School/ZeroMate/examples/16-paging_userspace/kernel/src/cxx.cpp:39
    // pure virtual method called
}
f00110bc:	e320f000 	nop	{0}
f00110c0:	e28bd000 	add	sp, fp, #0
f00110c4:	e49db004 	pop	{fp}		; (ldr fp, [sp], #4)
f00110c8:	e12fff1e 	bx	lr

f00110cc <__aeabi_unwind_cpp_pr1>:
__aeabi_unwind_cpp_pr1():
/mnt/c/Users/Kuba/Documents/School/ZeroMate/examples/16-paging_userspace/kernel/src/cxx.cpp:42

extern "C" void __aeabi_unwind_cpp_pr1()
{
f00110cc:	e52db004 	push	{fp}		; (str fp, [sp, #-4]!)
f00110d0:	e28db000 	add	fp, sp, #0
/mnt/c/Users/Kuba/Documents/School/ZeroMate/examples/16-paging_userspace/kernel/src/cxx.cpp:43 (discriminator 1)
	while (true)
f00110d4:	eafffffe 	b	f00110d4 <__aeabi_unwind_cpp_pr1+0x8>

f00110d8 <_ZN13CGPIO_HandlerC1Ej>:
_ZN13CGPIO_HandlerC2Ej():
/mnt/c/Users/Kuba/Documents/School/ZeroMate/examples/16-paging_userspace/kernel/src/drivers/gpio.cpp:8

#include <stdstring.h>

CGPIO_Handler sGPIO(hal::GPIO_Base);

CGPIO_Handler::CGPIO_Handler(unsigned int gpio_base_addr)
f00110d8:	e92d4800 	push	{fp, lr}
f00110dc:	e28db004 	add	fp, sp, #4
f00110e0:	e24dd008 	sub	sp, sp, #8
f00110e4:	e50b0008 	str	r0, [fp, #-8]
f00110e8:	e50b100c 	str	r1, [fp, #-12]
/mnt/c/Users/Kuba/Documents/School/ZeroMate/examples/16-paging_userspace/kernel/src/drivers/gpio.cpp:9
	: mGPIO(reinterpret_cast<unsigned int*>(gpio_base_addr))
f00110ec:	e51b200c 	ldr	r2, [fp, #-12]
f00110f0:	e51b3008 	ldr	r3, [fp, #-8]
f00110f4:	e5832000 	str	r2, [r3]
/mnt/c/Users/Kuba/Documents/School/ZeroMate/examples/16-paging_userspace/kernel/src/drivers/gpio.cpp:11
{
	bzero(&mPin_Reservations_Read, sizeof(mPin_Reservations_Read));
f00110f8:	e51b3008 	ldr	r3, [fp, #-8]
f00110fc:	e2833004 	add	r3, r3, #4
f0011100:	e3a01008 	mov	r1, #8
f0011104:	e1a00003 	mov	r0, r3
f0011108:	eb00155c 	bl	f0016680 <_Z5bzeroPvi>
/mnt/c/Users/Kuba/Documents/School/ZeroMate/examples/16-paging_userspace/kernel/src/drivers/gpio.cpp:12
	bzero(&mPin_Reservations_Write, sizeof(mPin_Reservations_Write));
f001110c:	e51b3008 	ldr	r3, [fp, #-8]
f0011110:	e283300c 	add	r3, r3, #12
f0011114:	e3a01008 	mov	r1, #8
f0011118:	e1a00003 	mov	r0, r3
f001111c:	eb001557 	bl	f0016680 <_Z5bzeroPvi>
/mnt/c/Users/Kuba/Documents/School/ZeroMate/examples/16-paging_userspace/kernel/src/drivers/gpio.cpp:13
}
f0011120:	e51b3008 	ldr	r3, [fp, #-8]
f0011124:	e1a00003 	mov	r0, r3
f0011128:	e24bd004 	sub	sp, fp, #4
f001112c:	e8bd8800 	pop	{fp, pc}

f0011130 <_ZNK13CGPIO_Handler19Get_GPFSEL_LocationEjRjS0_>:
_ZNK13CGPIO_Handler19Get_GPFSEL_LocationEjRjS0_():
/mnt/c/Users/Kuba/Documents/School/ZeroMate/examples/16-paging_userspace/kernel/src/drivers/gpio.cpp:16

bool CGPIO_Handler::Get_GPFSEL_Location(uint32_t pin, uint32_t& reg, uint32_t& bit_idx) const
{
f0011130:	e52db004 	push	{fp}		; (str fp, [sp, #-4]!)
f0011134:	e28db000 	add	fp, sp, #0
f0011138:	e24dd014 	sub	sp, sp, #20
f001113c:	e50b0008 	str	r0, [fp, #-8]
f0011140:	e50b100c 	str	r1, [fp, #-12]
f0011144:	e50b2010 	str	r2, [fp, #-16]
f0011148:	e50b3014 	str	r3, [fp, #-20]	; 0xffffffec
/mnt/c/Users/Kuba/Documents/School/ZeroMate/examples/16-paging_userspace/kernel/src/drivers/gpio.cpp:17
	if (pin > hal::GPIO_Pin_Count)
f001114c:	e51b300c 	ldr	r3, [fp, #-12]
f0011150:	e3530036 	cmp	r3, #54	; 0x36
f0011154:	9a000001 	bls	f0011160 <_ZNK13CGPIO_Handler19Get_GPFSEL_LocationEjRjS0_+0x30>
/mnt/c/Users/Kuba/Documents/School/ZeroMate/examples/16-paging_userspace/kernel/src/drivers/gpio.cpp:18
		return false;
f0011158:	e3a03000 	mov	r3, #0
f001115c:	ea000014 	b	f00111b4 <_ZNK13CGPIO_Handler19Get_GPFSEL_LocationEjRjS0_+0x84>
/mnt/c/Users/Kuba/Documents/School/ZeroMate/examples/16-paging_userspace/kernel/src/drivers/gpio.cpp:20
	
	reg = pin / 10;
f0011160:	e51b300c 	ldr	r3, [fp, #-12]
f0011164:	e59f2058 	ldr	r2, [pc, #88]	; f00111c4 <_ZNK13CGPIO_Handler19Get_GPFSEL_LocationEjRjS0_+0x94>
f0011168:	e0832392 	umull	r2, r3, r2, r3
f001116c:	e1a021a3 	lsr	r2, r3, #3
f0011170:	e51b3010 	ldr	r3, [fp, #-16]
f0011174:	e5832000 	str	r2, [r3]
/mnt/c/Users/Kuba/Documents/School/ZeroMate/examples/16-paging_userspace/kernel/src/drivers/gpio.cpp:31
		case 3: reg = static_cast<uint32_t>(hal::GPIO_Reg::GPFSEL3); break;
		case 4: reg = static_cast<uint32_t>(hal::GPIO_Reg::GPFSEL4); break;
		case 5: reg = static_cast<uint32_t>(hal::GPIO_Reg::GPFSEL5); break;
	}*/
	
	bit_idx = (pin % 10) * 3;
f0011178:	e51b100c 	ldr	r1, [fp, #-12]
f001117c:	e59f3040 	ldr	r3, [pc, #64]	; f00111c4 <_ZNK13CGPIO_Handler19Get_GPFSEL_LocationEjRjS0_+0x94>
f0011180:	e0832193 	umull	r2, r3, r3, r1
f0011184:	e1a021a3 	lsr	r2, r3, #3
f0011188:	e1a03002 	mov	r3, r2
f001118c:	e1a03103 	lsl	r3, r3, #2
f0011190:	e0833002 	add	r3, r3, r2
f0011194:	e1a03083 	lsl	r3, r3, #1
f0011198:	e0412003 	sub	r2, r1, r3
f001119c:	e1a03002 	mov	r3, r2
f00111a0:	e1a03083 	lsl	r3, r3, #1
f00111a4:	e0832002 	add	r2, r3, r2
f00111a8:	e51b3014 	ldr	r3, [fp, #-20]	; 0xffffffec
f00111ac:	e5832000 	str	r2, [r3]
/mnt/c/Users/Kuba/Documents/School/ZeroMate/examples/16-paging_userspace/kernel/src/drivers/gpio.cpp:33
	
	return true;
f00111b0:	e3a03001 	mov	r3, #1
/mnt/c/Users/Kuba/Documents/School/ZeroMate/examples/16-paging_userspace/kernel/src/drivers/gpio.cpp:34
}
f00111b4:	e1a00003 	mov	r0, r3
f00111b8:	e28bd000 	add	sp, fp, #0
f00111bc:	e49db004 	pop	{fp}		; (ldr fp, [sp], #4)
f00111c0:	e12fff1e 	bx	lr
f00111c4:	cccccccd 	stclgt	12, cr12, [ip], {205}	; 0xcd

f00111c8 <_ZNK13CGPIO_Handler18Get_GPCLR_LocationEjRjS0_>:
_ZNK13CGPIO_Handler18Get_GPCLR_LocationEjRjS0_():
/mnt/c/Users/Kuba/Documents/School/ZeroMate/examples/16-paging_userspace/kernel/src/drivers/gpio.cpp:37

bool CGPIO_Handler::Get_GPCLR_Location(uint32_t pin, uint32_t& reg, uint32_t& bit_idx) const
{
f00111c8:	e52db004 	push	{fp}		; (str fp, [sp, #-4]!)
f00111cc:	e28db000 	add	fp, sp, #0
f00111d0:	e24dd014 	sub	sp, sp, #20
f00111d4:	e50b0008 	str	r0, [fp, #-8]
f00111d8:	e50b100c 	str	r1, [fp, #-12]
f00111dc:	e50b2010 	str	r2, [fp, #-16]
f00111e0:	e50b3014 	str	r3, [fp, #-20]	; 0xffffffec
/mnt/c/Users/Kuba/Documents/School/ZeroMate/examples/16-paging_userspace/kernel/src/drivers/gpio.cpp:38
	if (pin > hal::GPIO_Pin_Count)
f00111e4:	e51b300c 	ldr	r3, [fp, #-12]
f00111e8:	e3530036 	cmp	r3, #54	; 0x36
f00111ec:	9a000001 	bls	f00111f8 <_ZNK13CGPIO_Handler18Get_GPCLR_LocationEjRjS0_+0x30>
/mnt/c/Users/Kuba/Documents/School/ZeroMate/examples/16-paging_userspace/kernel/src/drivers/gpio.cpp:39
		return false;
f00111f0:	e3a03000 	mov	r3, #0
f00111f4:	ea00000c 	b	f001122c <_ZNK13CGPIO_Handler18Get_GPCLR_LocationEjRjS0_+0x64>
/mnt/c/Users/Kuba/Documents/School/ZeroMate/examples/16-paging_userspace/kernel/src/drivers/gpio.cpp:41
	
	reg = static_cast<uint32_t>((pin < 32) ? hal::GPIO_Reg::GPCLR0 : hal::GPIO_Reg::GPCLR1);
f00111f8:	e51b300c 	ldr	r3, [fp, #-12]
f00111fc:	e353001f 	cmp	r3, #31
f0011200:	8a000001 	bhi	f001120c <_ZNK13CGPIO_Handler18Get_GPCLR_LocationEjRjS0_+0x44>
/mnt/c/Users/Kuba/Documents/School/ZeroMate/examples/16-paging_userspace/kernel/src/drivers/gpio.cpp:41 (discriminator 1)
f0011204:	e3a0200a 	mov	r2, #10
f0011208:	ea000000 	b	f0011210 <_ZNK13CGPIO_Handler18Get_GPCLR_LocationEjRjS0_+0x48>
/mnt/c/Users/Kuba/Documents/School/ZeroMate/examples/16-paging_userspace/kernel/src/drivers/gpio.cpp:41 (discriminator 2)
f001120c:	e3a0200b 	mov	r2, #11
/mnt/c/Users/Kuba/Documents/School/ZeroMate/examples/16-paging_userspace/kernel/src/drivers/gpio.cpp:41 (discriminator 4)
f0011210:	e51b3010 	ldr	r3, [fp, #-16]
f0011214:	e5832000 	str	r2, [r3]
/mnt/c/Users/Kuba/Documents/School/ZeroMate/examples/16-paging_userspace/kernel/src/drivers/gpio.cpp:42 (discriminator 4)
	bit_idx = pin % 32;
f0011218:	e51b300c 	ldr	r3, [fp, #-12]
f001121c:	e203201f 	and	r2, r3, #31
f0011220:	e51b3014 	ldr	r3, [fp, #-20]	; 0xffffffec
f0011224:	e5832000 	str	r2, [r3]
/mnt/c/Users/Kuba/Documents/School/ZeroMate/examples/16-paging_userspace/kernel/src/drivers/gpio.cpp:44 (discriminator 4)
	
	return true;
f0011228:	e3a03001 	mov	r3, #1
/mnt/c/Users/Kuba/Documents/School/ZeroMate/examples/16-paging_userspace/kernel/src/drivers/gpio.cpp:45
}
f001122c:	e1a00003 	mov	r0, r3
f0011230:	e28bd000 	add	sp, fp, #0
f0011234:	e49db004 	pop	{fp}		; (ldr fp, [sp], #4)
f0011238:	e12fff1e 	bx	lr

f001123c <_ZNK13CGPIO_Handler18Get_GPSET_LocationEjRjS0_>:
_ZNK13CGPIO_Handler18Get_GPSET_LocationEjRjS0_():
/mnt/c/Users/Kuba/Documents/School/ZeroMate/examples/16-paging_userspace/kernel/src/drivers/gpio.cpp:48

bool CGPIO_Handler::Get_GPSET_Location(uint32_t pin, uint32_t& reg, uint32_t& bit_idx) const
{
f001123c:	e52db004 	push	{fp}		; (str fp, [sp, #-4]!)
f0011240:	e28db000 	add	fp, sp, #0
f0011244:	e24dd014 	sub	sp, sp, #20
f0011248:	e50b0008 	str	r0, [fp, #-8]
f001124c:	e50b100c 	str	r1, [fp, #-12]
f0011250:	e50b2010 	str	r2, [fp, #-16]
f0011254:	e50b3014 	str	r3, [fp, #-20]	; 0xffffffec
/mnt/c/Users/Kuba/Documents/School/ZeroMate/examples/16-paging_userspace/kernel/src/drivers/gpio.cpp:49
	if (pin > hal::GPIO_Pin_Count)
f0011258:	e51b300c 	ldr	r3, [fp, #-12]
f001125c:	e3530036 	cmp	r3, #54	; 0x36
f0011260:	9a000001 	bls	f001126c <_ZNK13CGPIO_Handler18Get_GPSET_LocationEjRjS0_+0x30>
/mnt/c/Users/Kuba/Documents/School/ZeroMate/examples/16-paging_userspace/kernel/src/drivers/gpio.cpp:50
		return false;
f0011264:	e3a03000 	mov	r3, #0
f0011268:	ea00000c 	b	f00112a0 <_ZNK13CGPIO_Handler18Get_GPSET_LocationEjRjS0_+0x64>
/mnt/c/Users/Kuba/Documents/School/ZeroMate/examples/16-paging_userspace/kernel/src/drivers/gpio.cpp:52
	
	reg = static_cast<uint32_t>((pin < 32) ? hal::GPIO_Reg::GPSET0 : hal::GPIO_Reg::GPSET1);
f001126c:	e51b300c 	ldr	r3, [fp, #-12]
f0011270:	e353001f 	cmp	r3, #31
f0011274:	8a000001 	bhi	f0011280 <_ZNK13CGPIO_Handler18Get_GPSET_LocationEjRjS0_+0x44>
/mnt/c/Users/Kuba/Documents/School/ZeroMate/examples/16-paging_userspace/kernel/src/drivers/gpio.cpp:52 (discriminator 1)
f0011278:	e3a02007 	mov	r2, #7
f001127c:	ea000000 	b	f0011284 <_ZNK13CGPIO_Handler18Get_GPSET_LocationEjRjS0_+0x48>
/mnt/c/Users/Kuba/Documents/School/ZeroMate/examples/16-paging_userspace/kernel/src/drivers/gpio.cpp:52 (discriminator 2)
f0011280:	e3a02008 	mov	r2, #8
/mnt/c/Users/Kuba/Documents/School/ZeroMate/examples/16-paging_userspace/kernel/src/drivers/gpio.cpp:52 (discriminator 4)
f0011284:	e51b3010 	ldr	r3, [fp, #-16]
f0011288:	e5832000 	str	r2, [r3]
/mnt/c/Users/Kuba/Documents/School/ZeroMate/examples/16-paging_userspace/kernel/src/drivers/gpio.cpp:53 (discriminator 4)
	bit_idx = pin % 32;
f001128c:	e51b300c 	ldr	r3, [fp, #-12]
f0011290:	e203201f 	and	r2, r3, #31
f0011294:	e51b3014 	ldr	r3, [fp, #-20]	; 0xffffffec
f0011298:	e5832000 	str	r2, [r3]
/mnt/c/Users/Kuba/Documents/School/ZeroMate/examples/16-paging_userspace/kernel/src/drivers/gpio.cpp:55 (discriminator 4)
	
	return true;
f001129c:	e3a03001 	mov	r3, #1
/mnt/c/Users/Kuba/Documents/School/ZeroMate/examples/16-paging_userspace/kernel/src/drivers/gpio.cpp:56
}
f00112a0:	e1a00003 	mov	r0, r3
f00112a4:	e28bd000 	add	sp, fp, #0
f00112a8:	e49db004 	pop	{fp}		; (ldr fp, [sp], #4)
f00112ac:	e12fff1e 	bx	lr

f00112b0 <_ZNK13CGPIO_Handler18Get_GPLEV_LocationEjRjS0_>:
_ZNK13CGPIO_Handler18Get_GPLEV_LocationEjRjS0_():
/mnt/c/Users/Kuba/Documents/School/ZeroMate/examples/16-paging_userspace/kernel/src/drivers/gpio.cpp:59

bool CGPIO_Handler::Get_GPLEV_Location(uint32_t pin, uint32_t& reg, uint32_t& bit_idx) const
{
f00112b0:	e52db004 	push	{fp}		; (str fp, [sp, #-4]!)
f00112b4:	e28db000 	add	fp, sp, #0
f00112b8:	e24dd014 	sub	sp, sp, #20
f00112bc:	e50b0008 	str	r0, [fp, #-8]
f00112c0:	e50b100c 	str	r1, [fp, #-12]
f00112c4:	e50b2010 	str	r2, [fp, #-16]
f00112c8:	e50b3014 	str	r3, [fp, #-20]	; 0xffffffec
/mnt/c/Users/Kuba/Documents/School/ZeroMate/examples/16-paging_userspace/kernel/src/drivers/gpio.cpp:60
	if (pin > hal::GPIO_Pin_Count)
f00112cc:	e51b300c 	ldr	r3, [fp, #-12]
f00112d0:	e3530036 	cmp	r3, #54	; 0x36
f00112d4:	9a000001 	bls	f00112e0 <_ZNK13CGPIO_Handler18Get_GPLEV_LocationEjRjS0_+0x30>
/mnt/c/Users/Kuba/Documents/School/ZeroMate/examples/16-paging_userspace/kernel/src/drivers/gpio.cpp:61
		return false;
f00112d8:	e3a03000 	mov	r3, #0
f00112dc:	ea00000c 	b	f0011314 <_ZNK13CGPIO_Handler18Get_GPLEV_LocationEjRjS0_+0x64>
/mnt/c/Users/Kuba/Documents/School/ZeroMate/examples/16-paging_userspace/kernel/src/drivers/gpio.cpp:63
	
	reg = static_cast<uint32_t>((pin < 32) ? hal::GPIO_Reg::GPLEV0 : hal::GPIO_Reg::GPLEV1);
f00112e0:	e51b300c 	ldr	r3, [fp, #-12]
f00112e4:	e353001f 	cmp	r3, #31
f00112e8:	8a000001 	bhi	f00112f4 <_ZNK13CGPIO_Handler18Get_GPLEV_LocationEjRjS0_+0x44>
/mnt/c/Users/Kuba/Documents/School/ZeroMate/examples/16-paging_userspace/kernel/src/drivers/gpio.cpp:63 (discriminator 1)
f00112ec:	e3a0200d 	mov	r2, #13
f00112f0:	ea000000 	b	f00112f8 <_ZNK13CGPIO_Handler18Get_GPLEV_LocationEjRjS0_+0x48>
/mnt/c/Users/Kuba/Documents/School/ZeroMate/examples/16-paging_userspace/kernel/src/drivers/gpio.cpp:63 (discriminator 2)
f00112f4:	e3a0200e 	mov	r2, #14
/mnt/c/Users/Kuba/Documents/School/ZeroMate/examples/16-paging_userspace/kernel/src/drivers/gpio.cpp:63 (discriminator 4)
f00112f8:	e51b3010 	ldr	r3, [fp, #-16]
f00112fc:	e5832000 	str	r2, [r3]
/mnt/c/Users/Kuba/Documents/School/ZeroMate/examples/16-paging_userspace/kernel/src/drivers/gpio.cpp:64 (discriminator 4)
	bit_idx = pin % 32;
f0011300:	e51b300c 	ldr	r3, [fp, #-12]
f0011304:	e203201f 	and	r2, r3, #31
f0011308:	e51b3014 	ldr	r3, [fp, #-20]	; 0xffffffec
f001130c:	e5832000 	str	r2, [r3]
/mnt/c/Users/Kuba/Documents/School/ZeroMate/examples/16-paging_userspace/kernel/src/drivers/gpio.cpp:66 (discriminator 4)
	
	return true;
f0011310:	e3a03001 	mov	r3, #1
/mnt/c/Users/Kuba/Documents/School/ZeroMate/examples/16-paging_userspace/kernel/src/drivers/gpio.cpp:67
}
f0011314:	e1a00003 	mov	r0, r3
f0011318:	e28bd000 	add	sp, fp, #0
f001131c:	e49db004 	pop	{fp}		; (ldr fp, [sp], #4)
f0011320:	e12fff1e 	bx	lr

f0011324 <_ZN13CGPIO_Handler17Set_GPIO_FunctionEj14NGPIO_Function>:
_ZN13CGPIO_Handler17Set_GPIO_FunctionEj14NGPIO_Function():
/mnt/c/Users/Kuba/Documents/School/ZeroMate/examples/16-paging_userspace/kernel/src/drivers/gpio.cpp:70
		
void CGPIO_Handler::Set_GPIO_Function(uint32_t pin, NGPIO_Function func)
{
f0011324:	e92d4800 	push	{fp, lr}
f0011328:	e28db004 	add	fp, sp, #4
f001132c:	e24dd020 	sub	sp, sp, #32
f0011330:	e50b0018 	str	r0, [fp, #-24]	; 0xffffffe8
f0011334:	e50b101c 	str	r1, [fp, #-28]	; 0xffffffe4
f0011338:	e50b2020 	str	r2, [fp, #-32]	; 0xffffffe0
/mnt/c/Users/Kuba/Documents/School/ZeroMate/examples/16-paging_userspace/kernel/src/drivers/gpio.cpp:72
	uint32_t reg, bit;
	if (!Get_GPFSEL_Location(pin, reg, bit))
f001133c:	e24b3014 	sub	r3, fp, #20
f0011340:	e24b2010 	sub	r2, fp, #16
f0011344:	e51b101c 	ldr	r1, [fp, #-28]	; 0xffffffe4
f0011348:	e51b0018 	ldr	r0, [fp, #-24]	; 0xffffffe8
f001134c:	ebffff77 	bl	f0011130 <_ZNK13CGPIO_Handler19Get_GPFSEL_LocationEjRjS0_>
f0011350:	e1a03000 	mov	r3, r0
f0011354:	e2233001 	eor	r3, r3, #1
f0011358:	e6ef3073 	uxtb	r3, r3
f001135c:	e3530000 	cmp	r3, #0
f0011360:	1a00001e 	bne	f00113e0 <_ZN13CGPIO_Handler17Set_GPIO_FunctionEj14NGPIO_Function+0xbc>
/mnt/c/Users/Kuba/Documents/School/ZeroMate/examples/16-paging_userspace/kernel/src/drivers/gpio.cpp:75
		return;

	unsigned int mode = static_cast<unsigned int>(func);
f0011364:	e51b3020 	ldr	r3, [fp, #-32]	; 0xffffffe0
f0011368:	e50b3008 	str	r3, [fp, #-8]
/mnt/c/Users/Kuba/Documents/School/ZeroMate/examples/16-paging_userspace/kernel/src/drivers/gpio.cpp:77

	unsigned int rd = mGPIO[reg];
f001136c:	e51b3018 	ldr	r3, [fp, #-24]	; 0xffffffe8
f0011370:	e5932000 	ldr	r2, [r3]
f0011374:	e51b3010 	ldr	r3, [fp, #-16]
f0011378:	e1a03103 	lsl	r3, r3, #2
f001137c:	e0823003 	add	r3, r2, r3
f0011380:	e5933000 	ldr	r3, [r3]
f0011384:	e50b300c 	str	r3, [fp, #-12]
/mnt/c/Users/Kuba/Documents/School/ZeroMate/examples/16-paging_userspace/kernel/src/drivers/gpio.cpp:78
	rd &= ~(7 << bit);
f0011388:	e51b3014 	ldr	r3, [fp, #-20]	; 0xffffffec
f001138c:	e3a02007 	mov	r2, #7
f0011390:	e1a03312 	lsl	r3, r2, r3
f0011394:	e1e03003 	mvn	r3, r3
f0011398:	e1a02003 	mov	r2, r3
f001139c:	e51b300c 	ldr	r3, [fp, #-12]
f00113a0:	e0033002 	and	r3, r3, r2
f00113a4:	e50b300c 	str	r3, [fp, #-12]
/mnt/c/Users/Kuba/Documents/School/ZeroMate/examples/16-paging_userspace/kernel/src/drivers/gpio.cpp:79
	rd |= (mode << bit);
f00113a8:	e51b3014 	ldr	r3, [fp, #-20]	; 0xffffffec
f00113ac:	e51b2008 	ldr	r2, [fp, #-8]
f00113b0:	e1a03312 	lsl	r3, r2, r3
f00113b4:	e51b200c 	ldr	r2, [fp, #-12]
f00113b8:	e1823003 	orr	r3, r2, r3
f00113bc:	e50b300c 	str	r3, [fp, #-12]
/mnt/c/Users/Kuba/Documents/School/ZeroMate/examples/16-paging_userspace/kernel/src/drivers/gpio.cpp:81
	
	mGPIO[reg] = rd;
f00113c0:	e51b3018 	ldr	r3, [fp, #-24]	; 0xffffffe8
f00113c4:	e5932000 	ldr	r2, [r3]
f00113c8:	e51b3010 	ldr	r3, [fp, #-16]
f00113cc:	e1a03103 	lsl	r3, r3, #2
f00113d0:	e0823003 	add	r3, r2, r3
f00113d4:	e51b200c 	ldr	r2, [fp, #-12]
f00113d8:	e5832000 	str	r2, [r3]
f00113dc:	ea000000 	b	f00113e4 <_ZN13CGPIO_Handler17Set_GPIO_FunctionEj14NGPIO_Function+0xc0>
/mnt/c/Users/Kuba/Documents/School/ZeroMate/examples/16-paging_userspace/kernel/src/drivers/gpio.cpp:73
		return;
f00113e0:	e320f000 	nop	{0}
/mnt/c/Users/Kuba/Documents/School/ZeroMate/examples/16-paging_userspace/kernel/src/drivers/gpio.cpp:82
}
f00113e4:	e24bd004 	sub	sp, fp, #4
f00113e8:	e8bd8800 	pop	{fp, pc}

f00113ec <_ZNK13CGPIO_Handler17Get_GPIO_FunctionEj>:
_ZNK13CGPIO_Handler17Get_GPIO_FunctionEj():
/mnt/c/Users/Kuba/Documents/School/ZeroMate/examples/16-paging_userspace/kernel/src/drivers/gpio.cpp:85

NGPIO_Function CGPIO_Handler::Get_GPIO_Function(uint32_t pin) const
{
f00113ec:	e92d4800 	push	{fp, lr}
f00113f0:	e28db004 	add	fp, sp, #4
f00113f4:	e24dd010 	sub	sp, sp, #16
f00113f8:	e50b0010 	str	r0, [fp, #-16]
f00113fc:	e50b1014 	str	r1, [fp, #-20]	; 0xffffffec
/mnt/c/Users/Kuba/Documents/School/ZeroMate/examples/16-paging_userspace/kernel/src/drivers/gpio.cpp:87
	uint32_t reg, bit;
	if (!Get_GPFSEL_Location(pin, reg, bit))
f0011400:	e24b300c 	sub	r3, fp, #12
f0011404:	e24b2008 	sub	r2, fp, #8
f0011408:	e51b1014 	ldr	r1, [fp, #-20]	; 0xffffffec
f001140c:	e51b0010 	ldr	r0, [fp, #-16]
f0011410:	ebffff46 	bl	f0011130 <_ZNK13CGPIO_Handler19Get_GPFSEL_LocationEjRjS0_>
f0011414:	e1a03000 	mov	r3, r0
f0011418:	e2233001 	eor	r3, r3, #1
f001141c:	e6ef3073 	uxtb	r3, r3
f0011420:	e3530000 	cmp	r3, #0
f0011424:	0a000001 	beq	f0011430 <_ZNK13CGPIO_Handler17Get_GPIO_FunctionEj+0x44>
/mnt/c/Users/Kuba/Documents/School/ZeroMate/examples/16-paging_userspace/kernel/src/drivers/gpio.cpp:88
		return NGPIO_Function::Unspecified;
f0011428:	e3a03008 	mov	r3, #8
f001142c:	ea000008 	b	f0011454 <_ZNK13CGPIO_Handler17Get_GPIO_FunctionEj+0x68>
/mnt/c/Users/Kuba/Documents/School/ZeroMate/examples/16-paging_userspace/kernel/src/drivers/gpio.cpp:90
	
	return static_cast<NGPIO_Function>((mGPIO[reg] >> bit) & 7);
f0011430:	e51b3010 	ldr	r3, [fp, #-16]
f0011434:	e5932000 	ldr	r2, [r3]
f0011438:	e51b3008 	ldr	r3, [fp, #-8]
f001143c:	e1a03103 	lsl	r3, r3, #2
f0011440:	e0823003 	add	r3, r2, r3
f0011444:	e5932000 	ldr	r2, [r3]
f0011448:	e51b300c 	ldr	r3, [fp, #-12]
f001144c:	e1a03332 	lsr	r3, r2, r3
f0011450:	e2033007 	and	r3, r3, #7
/mnt/c/Users/Kuba/Documents/School/ZeroMate/examples/16-paging_userspace/kernel/src/drivers/gpio.cpp:91 (discriminator 1)
}
f0011454:	e1a00003 	mov	r0, r3
f0011458:	e24bd004 	sub	sp, fp, #4
f001145c:	e8bd8800 	pop	{fp, pc}

f0011460 <_ZN13CGPIO_Handler10Set_OutputEjb>:
_ZN13CGPIO_Handler10Set_OutputEjb():
/mnt/c/Users/Kuba/Documents/School/ZeroMate/examples/16-paging_userspace/kernel/src/drivers/gpio.cpp:94

void CGPIO_Handler::Set_Output(uint32_t pin, bool set)
{
f0011460:	e92d4800 	push	{fp, lr}
f0011464:	e28db004 	add	fp, sp, #4
f0011468:	e24dd018 	sub	sp, sp, #24
f001146c:	e50b0010 	str	r0, [fp, #-16]
f0011470:	e50b1014 	str	r1, [fp, #-20]	; 0xffffffec
f0011474:	e1a03002 	mov	r3, r2
f0011478:	e54b3015 	strb	r3, [fp, #-21]	; 0xffffffeb
/mnt/c/Users/Kuba/Documents/School/ZeroMate/examples/16-paging_userspace/kernel/src/drivers/gpio.cpp:96
	uint32_t reg, bit;
	if (!(set && Get_GPSET_Location(pin, reg, bit)) && !(!set && Get_GPCLR_Location(pin, reg, bit)))
f001147c:	e55b3015 	ldrb	r3, [fp, #-21]	; 0xffffffeb
f0011480:	e2233001 	eor	r3, r3, #1
f0011484:	e6ef3073 	uxtb	r3, r3
f0011488:	e3530000 	cmp	r3, #0
f001148c:	1a000009 	bne	f00114b8 <_ZN13CGPIO_Handler10Set_OutputEjb+0x58>
/mnt/c/Users/Kuba/Documents/School/ZeroMate/examples/16-paging_userspace/kernel/src/drivers/gpio.cpp:96 (discriminator 2)
f0011490:	e24b300c 	sub	r3, fp, #12
f0011494:	e24b2008 	sub	r2, fp, #8
f0011498:	e51b1014 	ldr	r1, [fp, #-20]	; 0xffffffec
f001149c:	e51b0010 	ldr	r0, [fp, #-16]
f00114a0:	ebffff65 	bl	f001123c <_ZNK13CGPIO_Handler18Get_GPSET_LocationEjRjS0_>
f00114a4:	e1a03000 	mov	r3, r0
f00114a8:	e2233001 	eor	r3, r3, #1
f00114ac:	e6ef3073 	uxtb	r3, r3
f00114b0:	e3530000 	cmp	r3, #0
f00114b4:	0a00000e 	beq	f00114f4 <_ZN13CGPIO_Handler10Set_OutputEjb+0x94>
/mnt/c/Users/Kuba/Documents/School/ZeroMate/examples/16-paging_userspace/kernel/src/drivers/gpio.cpp:96 (discriminator 3)
f00114b8:	e55b3015 	ldrb	r3, [fp, #-21]	; 0xffffffeb
f00114bc:	e3530000 	cmp	r3, #0
f00114c0:	1a000009 	bne	f00114ec <_ZN13CGPIO_Handler10Set_OutputEjb+0x8c>
/mnt/c/Users/Kuba/Documents/School/ZeroMate/examples/16-paging_userspace/kernel/src/drivers/gpio.cpp:96 (discriminator 6)
f00114c4:	e24b300c 	sub	r3, fp, #12
f00114c8:	e24b2008 	sub	r2, fp, #8
f00114cc:	e51b1014 	ldr	r1, [fp, #-20]	; 0xffffffec
f00114d0:	e51b0010 	ldr	r0, [fp, #-16]
f00114d4:	ebffff3b 	bl	f00111c8 <_ZNK13CGPIO_Handler18Get_GPCLR_LocationEjRjS0_>
f00114d8:	e1a03000 	mov	r3, r0
f00114dc:	e2233001 	eor	r3, r3, #1
f00114e0:	e6ef3073 	uxtb	r3, r3
f00114e4:	e3530000 	cmp	r3, #0
f00114e8:	0a000001 	beq	f00114f4 <_ZN13CGPIO_Handler10Set_OutputEjb+0x94>
/mnt/c/Users/Kuba/Documents/School/ZeroMate/examples/16-paging_userspace/kernel/src/drivers/gpio.cpp:96 (discriminator 7)
f00114ec:	e3a03001 	mov	r3, #1
f00114f0:	ea000000 	b	f00114f8 <_ZN13CGPIO_Handler10Set_OutputEjb+0x98>
/mnt/c/Users/Kuba/Documents/School/ZeroMate/examples/16-paging_userspace/kernel/src/drivers/gpio.cpp:96 (discriminator 8)
f00114f4:	e3a03000 	mov	r3, #0
/mnt/c/Users/Kuba/Documents/School/ZeroMate/examples/16-paging_userspace/kernel/src/drivers/gpio.cpp:96 (discriminator 10)
f00114f8:	e3530000 	cmp	r3, #0
f00114fc:	1a00000a 	bne	f001152c <_ZN13CGPIO_Handler10Set_OutputEjb+0xcc>
/mnt/c/Users/Kuba/Documents/School/ZeroMate/examples/16-paging_userspace/kernel/src/drivers/gpio.cpp:99
		return;
	
	mGPIO[reg] = (1 << bit);
f0011500:	e51b300c 	ldr	r3, [fp, #-12]
f0011504:	e3a02001 	mov	r2, #1
f0011508:	e1a01312 	lsl	r1, r2, r3
f001150c:	e51b3010 	ldr	r3, [fp, #-16]
f0011510:	e5932000 	ldr	r2, [r3]
f0011514:	e51b3008 	ldr	r3, [fp, #-8]
f0011518:	e1a03103 	lsl	r3, r3, #2
f001151c:	e0823003 	add	r3, r2, r3
f0011520:	e1a02001 	mov	r2, r1
f0011524:	e5832000 	str	r2, [r3]
f0011528:	ea000000 	b	f0011530 <_ZN13CGPIO_Handler10Set_OutputEjb+0xd0>
/mnt/c/Users/Kuba/Documents/School/ZeroMate/examples/16-paging_userspace/kernel/src/drivers/gpio.cpp:97
		return;
f001152c:	e320f000 	nop	{0}
/mnt/c/Users/Kuba/Documents/School/ZeroMate/examples/16-paging_userspace/kernel/src/drivers/gpio.cpp:100
}
f0011530:	e24bd004 	sub	sp, fp, #4
f0011534:	e8bd8800 	pop	{fp, pc}

f0011538 <_ZN13CGPIO_Handler9Get_InputEj>:
_ZN13CGPIO_Handler9Get_InputEj():
/mnt/c/Users/Kuba/Documents/School/ZeroMate/examples/16-paging_userspace/kernel/src/drivers/gpio.cpp:103

bool CGPIO_Handler::Get_Input(uint32_t pin)
{
f0011538:	e92d4800 	push	{fp, lr}
f001153c:	e28db004 	add	fp, sp, #4
f0011540:	e24dd010 	sub	sp, sp, #16
f0011544:	e50b0010 	str	r0, [fp, #-16]
f0011548:	e50b1014 	str	r1, [fp, #-20]	; 0xffffffec
/mnt/c/Users/Kuba/Documents/School/ZeroMate/examples/16-paging_userspace/kernel/src/drivers/gpio.cpp:105
	uint32_t reg, bit;
	if (!Get_GPLEV_Location(pin, reg, bit))
f001154c:	e24b300c 	sub	r3, fp, #12
f0011550:	e24b2008 	sub	r2, fp, #8
f0011554:	e51b1014 	ldr	r1, [fp, #-20]	; 0xffffffec
f0011558:	e51b0010 	ldr	r0, [fp, #-16]
f001155c:	ebffff53 	bl	f00112b0 <_ZNK13CGPIO_Handler18Get_GPLEV_LocationEjRjS0_>
f0011560:	e1a03000 	mov	r3, r0
f0011564:	e2233001 	eor	r3, r3, #1
f0011568:	e6ef3073 	uxtb	r3, r3
f001156c:	e3530000 	cmp	r3, #0
f0011570:	0a000001 	beq	f001157c <_ZN13CGPIO_Handler9Get_InputEj+0x44>
/mnt/c/Users/Kuba/Documents/School/ZeroMate/examples/16-paging_userspace/kernel/src/drivers/gpio.cpp:106
		return false;
f0011574:	e3a03000 	mov	r3, #0
f0011578:	ea00000c 	b	f00115b0 <_ZN13CGPIO_Handler9Get_InputEj+0x78>
/mnt/c/Users/Kuba/Documents/School/ZeroMate/examples/16-paging_userspace/kernel/src/drivers/gpio.cpp:108
	
	return (mGPIO[reg] >> bit) & 0x1;
f001157c:	e51b3010 	ldr	r3, [fp, #-16]
f0011580:	e5932000 	ldr	r2, [r3]
f0011584:	e51b3008 	ldr	r3, [fp, #-8]
f0011588:	e1a03103 	lsl	r3, r3, #2
f001158c:	e0823003 	add	r3, r2, r3
f0011590:	e5932000 	ldr	r2, [r3]
f0011594:	e51b300c 	ldr	r3, [fp, #-12]
f0011598:	e1a03332 	lsr	r3, r2, r3
f001159c:	e2033001 	and	r3, r3, #1
f00115a0:	e3530000 	cmp	r3, #0
f00115a4:	13a03001 	movne	r3, #1
f00115a8:	03a03000 	moveq	r3, #0
f00115ac:	e6ef3073 	uxtb	r3, r3
/mnt/c/Users/Kuba/Documents/School/ZeroMate/examples/16-paging_userspace/kernel/src/drivers/gpio.cpp:109 (discriminator 1)
}
f00115b0:	e1a00003 	mov	r0, r3
f00115b4:	e24bd004 	sub	sp, fp, #4
f00115b8:	e8bd8800 	pop	{fp, pc}

f00115bc <_ZN13CGPIO_Handler11Reserve_PinEjbb>:
_ZN13CGPIO_Handler11Reserve_PinEjbb():
/mnt/c/Users/Kuba/Documents/School/ZeroMate/examples/16-paging_userspace/kernel/src/drivers/gpio.cpp:112

bool CGPIO_Handler::Reserve_Pin(uint32_t pin, bool read, bool write)
{
f00115bc:	e92d48f0 	push	{r4, r5, r6, r7, fp, lr}
f00115c0:	e28db014 	add	fp, sp, #20
f00115c4:	e24dd018 	sub	sp, sp, #24
f00115c8:	e50b0020 	str	r0, [fp, #-32]	; 0xffffffe0
f00115cc:	e50b1024 	str	r1, [fp, #-36]	; 0xffffffdc
f00115d0:	e1a01002 	mov	r1, r2
f00115d4:	e1a02003 	mov	r2, r3
f00115d8:	e1a03001 	mov	r3, r1
f00115dc:	e54b3025 	strb	r3, [fp, #-37]	; 0xffffffdb
f00115e0:	e1a03002 	mov	r3, r2
f00115e4:	e54b3026 	strb	r3, [fp, #-38]	; 0xffffffda
/mnt/c/Users/Kuba/Documents/School/ZeroMate/examples/16-paging_userspace/kernel/src/drivers/gpio.cpp:115
	// TODO: zamek, tady by se neco mohlo sejit

	uint32_t bank_idx = pin / 32;
f00115e8:	e51b3024 	ldr	r3, [fp, #-36]	; 0xffffffdc
f00115ec:	e1a032a3 	lsr	r3, r3, #5
f00115f0:	e50b3018 	str	r3, [fp, #-24]	; 0xffffffe8
/mnt/c/Users/Kuba/Documents/School/ZeroMate/examples/16-paging_userspace/kernel/src/drivers/gpio.cpp:116
	uint32_t bit_idx = pin % 32;
f00115f4:	e51b3024 	ldr	r3, [fp, #-36]	; 0xffffffdc
f00115f8:	e203301f 	and	r3, r3, #31
f00115fc:	e50b301c 	str	r3, [fp, #-28]	; 0xffffffe4
/mnt/c/Users/Kuba/Documents/School/ZeroMate/examples/16-paging_userspace/kernel/src/drivers/gpio.cpp:118

	if (read && (mPin_Reservations_Read[bank_idx] >> bit_idx) & 0x1)
f0011600:	e55b3025 	ldrb	r3, [fp, #-37]	; 0xffffffdb
f0011604:	e3530000 	cmp	r3, #0
f0011608:	0a00000b 	beq	f001163c <_ZN13CGPIO_Handler11Reserve_PinEjbb+0x80>
/mnt/c/Users/Kuba/Documents/School/ZeroMate/examples/16-paging_userspace/kernel/src/drivers/gpio.cpp:118 (discriminator 1)
f001160c:	e51b2020 	ldr	r2, [fp, #-32]	; 0xffffffe0
f0011610:	e51b3018 	ldr	r3, [fp, #-24]	; 0xffffffe8
f0011614:	e1a03103 	lsl	r3, r3, #2
f0011618:	e0823003 	add	r3, r2, r3
f001161c:	e5932004 	ldr	r2, [r3, #4]
f0011620:	e51b301c 	ldr	r3, [fp, #-28]	; 0xffffffe4
f0011624:	e1a03332 	lsr	r3, r2, r3
f0011628:	e2033001 	and	r3, r3, #1
f001162c:	e3530000 	cmp	r3, #0
f0011630:	0a000001 	beq	f001163c <_ZN13CGPIO_Handler11Reserve_PinEjbb+0x80>
/mnt/c/Users/Kuba/Documents/School/ZeroMate/examples/16-paging_userspace/kernel/src/drivers/gpio.cpp:119
		return false;
f0011634:	e3a03000 	mov	r3, #0
f0011638:	ea000042 	b	f0011748 <_ZN13CGPIO_Handler11Reserve_PinEjbb+0x18c>
/mnt/c/Users/Kuba/Documents/School/ZeroMate/examples/16-paging_userspace/kernel/src/drivers/gpio.cpp:121

	if (write && (mPin_Reservations_Write[bank_idx] >> bit_idx) & 0x1)
f001163c:	e55b3026 	ldrb	r3, [fp, #-38]	; 0xffffffda
f0011640:	e3530000 	cmp	r3, #0
f0011644:	0a00000c 	beq	f001167c <_ZN13CGPIO_Handler11Reserve_PinEjbb+0xc0>
/mnt/c/Users/Kuba/Documents/School/ZeroMate/examples/16-paging_userspace/kernel/src/drivers/gpio.cpp:121 (discriminator 1)
f0011648:	e51b2020 	ldr	r2, [fp, #-32]	; 0xffffffe0
f001164c:	e51b3018 	ldr	r3, [fp, #-24]	; 0xffffffe8
f0011650:	e2833002 	add	r3, r3, #2
f0011654:	e1a03103 	lsl	r3, r3, #2
f0011658:	e0823003 	add	r3, r2, r3
f001165c:	e5932004 	ldr	r2, [r3, #4]
f0011660:	e51b301c 	ldr	r3, [fp, #-28]	; 0xffffffe4
f0011664:	e1a03332 	lsr	r3, r2, r3
f0011668:	e2033001 	and	r3, r3, #1
f001166c:	e3530000 	cmp	r3, #0
f0011670:	0a000001 	beq	f001167c <_ZN13CGPIO_Handler11Reserve_PinEjbb+0xc0>
/mnt/c/Users/Kuba/Documents/School/ZeroMate/examples/16-paging_userspace/kernel/src/drivers/gpio.cpp:122
		return false;
f0011674:	e3a03000 	mov	r3, #0
f0011678:	ea000032 	b	f0011748 <_ZN13CGPIO_Handler11Reserve_PinEjbb+0x18c>
/mnt/c/Users/Kuba/Documents/School/ZeroMate/examples/16-paging_userspace/kernel/src/drivers/gpio.cpp:124

	if (read)
f001167c:	e55b3025 	ldrb	r3, [fp, #-37]	; 0xffffffdb
f0011680:	e3530000 	cmp	r3, #0
f0011684:	0a000014 	beq	f00116dc <_ZN13CGPIO_Handler11Reserve_PinEjbb+0x120>
/mnt/c/Users/Kuba/Documents/School/ZeroMate/examples/16-paging_userspace/kernel/src/drivers/gpio.cpp:125
		mPin_Reservations_Read[bank_idx] |= 1ULL << bit_idx;
f0011688:	e51b2020 	ldr	r2, [fp, #-32]	; 0xffffffe0
f001168c:	e51b3018 	ldr	r3, [fp, #-24]	; 0xffffffe8
f0011690:	e1a03103 	lsl	r3, r3, #2
f0011694:	e0823003 	add	r3, r2, r3
f0011698:	e5930004 	ldr	r0, [r3, #4]
f001169c:	e3a02001 	mov	r2, #1
f00116a0:	e3a03000 	mov	r3, #0
f00116a4:	e51b101c 	ldr	r1, [fp, #-28]	; 0xffffffe4
f00116a8:	e241e020 	sub	lr, r1, #32
f00116ac:	e261c020 	rsb	ip, r1, #32
f00116b0:	e1a07113 	lsl	r7, r3, r1
f00116b4:	e1877e12 	orr	r7, r7, r2, lsl lr
f00116b8:	e1877c32 	orr	r7, r7, r2, lsr ip
f00116bc:	e1a06112 	lsl	r6, r2, r1
f00116c0:	e1a03006 	mov	r3, r6
f00116c4:	e1802003 	orr	r2, r0, r3
f00116c8:	e51b1020 	ldr	r1, [fp, #-32]	; 0xffffffe0
f00116cc:	e51b3018 	ldr	r3, [fp, #-24]	; 0xffffffe8
f00116d0:	e1a03103 	lsl	r3, r3, #2
f00116d4:	e0813003 	add	r3, r1, r3
f00116d8:	e5832004 	str	r2, [r3, #4]
/mnt/c/Users/Kuba/Documents/School/ZeroMate/examples/16-paging_userspace/kernel/src/drivers/gpio.cpp:127

	if (write)
f00116dc:	e55b3026 	ldrb	r3, [fp, #-38]	; 0xffffffda
f00116e0:	e3530000 	cmp	r3, #0
f00116e4:	0a000016 	beq	f0011744 <_ZN13CGPIO_Handler11Reserve_PinEjbb+0x188>
/mnt/c/Users/Kuba/Documents/School/ZeroMate/examples/16-paging_userspace/kernel/src/drivers/gpio.cpp:128
		mPin_Reservations_Write[bank_idx] |= 1ULL << bit_idx;
f00116e8:	e51b2020 	ldr	r2, [fp, #-32]	; 0xffffffe0
f00116ec:	e51b3018 	ldr	r3, [fp, #-24]	; 0xffffffe8
f00116f0:	e2833002 	add	r3, r3, #2
f00116f4:	e1a03103 	lsl	r3, r3, #2
f00116f8:	e0823003 	add	r3, r2, r3
f00116fc:	e5930004 	ldr	r0, [r3, #4]
f0011700:	e3a02001 	mov	r2, #1
f0011704:	e3a03000 	mov	r3, #0
f0011708:	e51b101c 	ldr	r1, [fp, #-28]	; 0xffffffe4
f001170c:	e241e020 	sub	lr, r1, #32
f0011710:	e261c020 	rsb	ip, r1, #32
f0011714:	e1a05113 	lsl	r5, r3, r1
f0011718:	e1855e12 	orr	r5, r5, r2, lsl lr
f001171c:	e1855c32 	orr	r5, r5, r2, lsr ip
f0011720:	e1a04112 	lsl	r4, r2, r1
f0011724:	e1a03004 	mov	r3, r4
f0011728:	e1802003 	orr	r2, r0, r3
f001172c:	e51b1020 	ldr	r1, [fp, #-32]	; 0xffffffe0
f0011730:	e51b3018 	ldr	r3, [fp, #-24]	; 0xffffffe8
f0011734:	e2833002 	add	r3, r3, #2
f0011738:	e1a03103 	lsl	r3, r3, #2
f001173c:	e0813003 	add	r3, r1, r3
f0011740:	e5832004 	str	r2, [r3, #4]
/mnt/c/Users/Kuba/Documents/School/ZeroMate/examples/16-paging_userspace/kernel/src/drivers/gpio.cpp:130

	return true;
f0011744:	e3a03001 	mov	r3, #1
/mnt/c/Users/Kuba/Documents/School/ZeroMate/examples/16-paging_userspace/kernel/src/drivers/gpio.cpp:131
}
f0011748:	e1a00003 	mov	r0, r3
f001174c:	e24bd014 	sub	sp, fp, #20
f0011750:	e8bd88f0 	pop	{r4, r5, r6, r7, fp, pc}

f0011754 <_ZN13CGPIO_Handler8Free_PinEjbb>:
_ZN13CGPIO_Handler8Free_PinEjbb():
/mnt/c/Users/Kuba/Documents/School/ZeroMate/examples/16-paging_userspace/kernel/src/drivers/gpio.cpp:134

bool CGPIO_Handler::Free_Pin(uint32_t pin, bool read, bool write)
{
f0011754:	e92d48f0 	push	{r4, r5, r6, r7, fp, lr}
f0011758:	e28db014 	add	fp, sp, #20
f001175c:	e24dd018 	sub	sp, sp, #24
f0011760:	e50b0020 	str	r0, [fp, #-32]	; 0xffffffe0
f0011764:	e50b1024 	str	r1, [fp, #-36]	; 0xffffffdc
f0011768:	e1a01002 	mov	r1, r2
f001176c:	e1a02003 	mov	r2, r3
f0011770:	e1a03001 	mov	r3, r1
f0011774:	e54b3025 	strb	r3, [fp, #-37]	; 0xffffffdb
f0011778:	e1a03002 	mov	r3, r2
f001177c:	e54b3026 	strb	r3, [fp, #-38]	; 0xffffffda
/mnt/c/Users/Kuba/Documents/School/ZeroMate/examples/16-paging_userspace/kernel/src/drivers/gpio.cpp:135
	uint32_t bank_idx = pin / 32;
f0011780:	e51b3024 	ldr	r3, [fp, #-36]	; 0xffffffdc
f0011784:	e1a032a3 	lsr	r3, r3, #5
f0011788:	e50b3018 	str	r3, [fp, #-24]	; 0xffffffe8
/mnt/c/Users/Kuba/Documents/School/ZeroMate/examples/16-paging_userspace/kernel/src/drivers/gpio.cpp:136
	uint32_t bit_idx = pin % 32;
f001178c:	e51b3024 	ldr	r3, [fp, #-36]	; 0xffffffdc
f0011790:	e203301f 	and	r3, r3, #31
f0011794:	e50b301c 	str	r3, [fp, #-28]	; 0xffffffe4
/mnt/c/Users/Kuba/Documents/School/ZeroMate/examples/16-paging_userspace/kernel/src/drivers/gpio.cpp:138

	if (read && !((mPin_Reservations_Read[bank_idx] >> bit_idx) & 0x1))
f0011798:	e55b3025 	ldrb	r3, [fp, #-37]	; 0xffffffdb
f001179c:	e3530000 	cmp	r3, #0
f00117a0:	0a00000b 	beq	f00117d4 <_ZN13CGPIO_Handler8Free_PinEjbb+0x80>
/mnt/c/Users/Kuba/Documents/School/ZeroMate/examples/16-paging_userspace/kernel/src/drivers/gpio.cpp:138 (discriminator 1)
f00117a4:	e51b2020 	ldr	r2, [fp, #-32]	; 0xffffffe0
f00117a8:	e51b3018 	ldr	r3, [fp, #-24]	; 0xffffffe8
f00117ac:	e1a03103 	lsl	r3, r3, #2
f00117b0:	e0823003 	add	r3, r2, r3
f00117b4:	e5932004 	ldr	r2, [r3, #4]
f00117b8:	e51b301c 	ldr	r3, [fp, #-28]	; 0xffffffe4
f00117bc:	e1a03332 	lsr	r3, r2, r3
f00117c0:	e2033001 	and	r3, r3, #1
f00117c4:	e3530000 	cmp	r3, #0
f00117c8:	1a000001 	bne	f00117d4 <_ZN13CGPIO_Handler8Free_PinEjbb+0x80>
/mnt/c/Users/Kuba/Documents/School/ZeroMate/examples/16-paging_userspace/kernel/src/drivers/gpio.cpp:139
		return false;
f00117cc:	e3a03000 	mov	r3, #0
f00117d0:	ea000044 	b	f00118e8 <_ZN13CGPIO_Handler8Free_PinEjbb+0x194>
/mnt/c/Users/Kuba/Documents/School/ZeroMate/examples/16-paging_userspace/kernel/src/drivers/gpio.cpp:141

	if (write && !((mPin_Reservations_Write[bank_idx] >> bit_idx) & 0x1))
f00117d4:	e55b3026 	ldrb	r3, [fp, #-38]	; 0xffffffda
f00117d8:	e3530000 	cmp	r3, #0
f00117dc:	0a00000c 	beq	f0011814 <_ZN13CGPIO_Handler8Free_PinEjbb+0xc0>
/mnt/c/Users/Kuba/Documents/School/ZeroMate/examples/16-paging_userspace/kernel/src/drivers/gpio.cpp:141 (discriminator 1)
f00117e0:	e51b2020 	ldr	r2, [fp, #-32]	; 0xffffffe0
f00117e4:	e51b3018 	ldr	r3, [fp, #-24]	; 0xffffffe8
f00117e8:	e2833002 	add	r3, r3, #2
f00117ec:	e1a03103 	lsl	r3, r3, #2
f00117f0:	e0823003 	add	r3, r2, r3
f00117f4:	e5932004 	ldr	r2, [r3, #4]
f00117f8:	e51b301c 	ldr	r3, [fp, #-28]	; 0xffffffe4
f00117fc:	e1a03332 	lsr	r3, r2, r3
f0011800:	e2033001 	and	r3, r3, #1
f0011804:	e3530000 	cmp	r3, #0
f0011808:	1a000001 	bne	f0011814 <_ZN13CGPIO_Handler8Free_PinEjbb+0xc0>
/mnt/c/Users/Kuba/Documents/School/ZeroMate/examples/16-paging_userspace/kernel/src/drivers/gpio.cpp:142
		return false;
f001180c:	e3a03000 	mov	r3, #0
f0011810:	ea000034 	b	f00118e8 <_ZN13CGPIO_Handler8Free_PinEjbb+0x194>
/mnt/c/Users/Kuba/Documents/School/ZeroMate/examples/16-paging_userspace/kernel/src/drivers/gpio.cpp:144

	if (read)
f0011814:	e55b3025 	ldrb	r3, [fp, #-37]	; 0xffffffdb
f0011818:	e3530000 	cmp	r3, #0
f001181c:	0a000015 	beq	f0011878 <_ZN13CGPIO_Handler8Free_PinEjbb+0x124>
/mnt/c/Users/Kuba/Documents/School/ZeroMate/examples/16-paging_userspace/kernel/src/drivers/gpio.cpp:145
		mPin_Reservations_Read[bank_idx] &= ~(1ULL << bit_idx);
f0011820:	e51b2020 	ldr	r2, [fp, #-32]	; 0xffffffe0
f0011824:	e51b3018 	ldr	r3, [fp, #-24]	; 0xffffffe8
f0011828:	e1a03103 	lsl	r3, r3, #2
f001182c:	e0823003 	add	r3, r2, r3
f0011830:	e5930004 	ldr	r0, [r3, #4]
f0011834:	e3a02001 	mov	r2, #1
f0011838:	e3a03000 	mov	r3, #0
f001183c:	e51b101c 	ldr	r1, [fp, #-28]	; 0xffffffe4
f0011840:	e241e020 	sub	lr, r1, #32
f0011844:	e261c020 	rsb	ip, r1, #32
f0011848:	e1a07113 	lsl	r7, r3, r1
f001184c:	e1877e12 	orr	r7, r7, r2, lsl lr
f0011850:	e1877c32 	orr	r7, r7, r2, lsr ip
f0011854:	e1a06112 	lsl	r6, r2, r1
f0011858:	e1a03006 	mov	r3, r6
f001185c:	e1e03003 	mvn	r3, r3
f0011860:	e0002003 	and	r2, r0, r3
f0011864:	e51b1020 	ldr	r1, [fp, #-32]	; 0xffffffe0
f0011868:	e51b3018 	ldr	r3, [fp, #-24]	; 0xffffffe8
f001186c:	e1a03103 	lsl	r3, r3, #2
f0011870:	e0813003 	add	r3, r1, r3
f0011874:	e5832004 	str	r2, [r3, #4]
/mnt/c/Users/Kuba/Documents/School/ZeroMate/examples/16-paging_userspace/kernel/src/drivers/gpio.cpp:147

	if (write)
f0011878:	e55b3026 	ldrb	r3, [fp, #-38]	; 0xffffffda
f001187c:	e3530000 	cmp	r3, #0
f0011880:	0a000017 	beq	f00118e4 <_ZN13CGPIO_Handler8Free_PinEjbb+0x190>
/mnt/c/Users/Kuba/Documents/School/ZeroMate/examples/16-paging_userspace/kernel/src/drivers/gpio.cpp:148
		mPin_Reservations_Write[bank_idx] &= ~(1ULL << bit_idx);
f0011884:	e51b2020 	ldr	r2, [fp, #-32]	; 0xffffffe0
f0011888:	e51b3018 	ldr	r3, [fp, #-24]	; 0xffffffe8
f001188c:	e2833002 	add	r3, r3, #2
f0011890:	e1a03103 	lsl	r3, r3, #2
f0011894:	e0823003 	add	r3, r2, r3
f0011898:	e5930004 	ldr	r0, [r3, #4]
f001189c:	e3a02001 	mov	r2, #1
f00118a0:	e3a03000 	mov	r3, #0
f00118a4:	e51b101c 	ldr	r1, [fp, #-28]	; 0xffffffe4
f00118a8:	e241e020 	sub	lr, r1, #32
f00118ac:	e261c020 	rsb	ip, r1, #32
f00118b0:	e1a05113 	lsl	r5, r3, r1
f00118b4:	e1855e12 	orr	r5, r5, r2, lsl lr
f00118b8:	e1855c32 	orr	r5, r5, r2, lsr ip
f00118bc:	e1a04112 	lsl	r4, r2, r1
f00118c0:	e1a03004 	mov	r3, r4
f00118c4:	e1e03003 	mvn	r3, r3
f00118c8:	e0002003 	and	r2, r0, r3
f00118cc:	e51b1020 	ldr	r1, [fp, #-32]	; 0xffffffe0
f00118d0:	e51b3018 	ldr	r3, [fp, #-24]	; 0xffffffe8
f00118d4:	e2833002 	add	r3, r3, #2
f00118d8:	e1a03103 	lsl	r3, r3, #2
f00118dc:	e0813003 	add	r3, r1, r3
f00118e0:	e5832004 	str	r2, [r3, #4]
/mnt/c/Users/Kuba/Documents/School/ZeroMate/examples/16-paging_userspace/kernel/src/drivers/gpio.cpp:150

	return true;
f00118e4:	e3a03001 	mov	r3, #1
/mnt/c/Users/Kuba/Documents/School/ZeroMate/examples/16-paging_userspace/kernel/src/drivers/gpio.cpp:151
}
f00118e8:	e1a00003 	mov	r0, r3
f00118ec:	e24bd014 	sub	sp, fp, #20
f00118f0:	e8bd88f0 	pop	{r4, r5, r6, r7, fp, pc}

f00118f4 <_Z41__static_initialization_and_destruction_0ii>:
_Z41__static_initialization_and_destruction_0ii():
/mnt/c/Users/Kuba/Documents/School/ZeroMate/examples/16-paging_userspace/kernel/src/drivers/gpio.cpp:151
f00118f4:	e92d4800 	push	{fp, lr}
f00118f8:	e28db004 	add	fp, sp, #4
f00118fc:	e24dd008 	sub	sp, sp, #8
f0011900:	e50b0008 	str	r0, [fp, #-8]
f0011904:	e50b100c 	str	r1, [fp, #-12]
f0011908:	e51b3008 	ldr	r3, [fp, #-8]
f001190c:	e3530001 	cmp	r3, #1
f0011910:	1a000006 	bne	f0011930 <_Z41__static_initialization_and_destruction_0ii+0x3c>
/mnt/c/Users/Kuba/Documents/School/ZeroMate/examples/16-paging_userspace/kernel/src/drivers/gpio.cpp:151 (discriminator 1)
f0011914:	e51b300c 	ldr	r3, [fp, #-12]
f0011918:	e59f201c 	ldr	r2, [pc, #28]	; f001193c <_Z41__static_initialization_and_destruction_0ii+0x48>
f001191c:	e1530002 	cmp	r3, r2
f0011920:	1a000002 	bne	f0011930 <_Z41__static_initialization_and_destruction_0ii+0x3c>
/mnt/c/Users/Kuba/Documents/School/ZeroMate/examples/16-paging_userspace/kernel/src/drivers/gpio.cpp:6
CGPIO_Handler sGPIO(hal::GPIO_Base);
f0011924:	e59f1014 	ldr	r1, [pc, #20]	; f0011940 <_Z41__static_initialization_and_destruction_0ii+0x4c>
f0011928:	e59f0014 	ldr	r0, [pc, #20]	; f0011944 <_Z41__static_initialization_and_destruction_0ii+0x50>
f001192c:	ebfffde9 	bl	f00110d8 <_ZN13CGPIO_HandlerC1Ej>
/mnt/c/Users/Kuba/Documents/School/ZeroMate/examples/16-paging_userspace/kernel/src/drivers/gpio.cpp:151
}
f0011930:	e320f000 	nop	{0}
f0011934:	e24bd004 	sub	sp, fp, #4
f0011938:	e8bd8800 	pop	{fp, pc}
f001193c:	0000ffff 	strdeq	pc, [r0], -pc	; <UNPREDICTABLE>
f0011940:	20200000 	eorcs	r0, r0, r0
f0011944:	c003a51c 	andgt	sl, r3, ip, lsl r5

f0011948 <_GLOBAL__sub_I_sGPIO>:
_GLOBAL__sub_I_sGPIO():
/mnt/c/Users/Kuba/Documents/School/ZeroMate/examples/16-paging_userspace/kernel/src/drivers/gpio.cpp:151
f0011948:	e92d4800 	push	{fp, lr}
f001194c:	e28db004 	add	fp, sp, #4
f0011950:	e59f1008 	ldr	r1, [pc, #8]	; f0011960 <_GLOBAL__sub_I_sGPIO+0x18>
f0011954:	e3a00001 	mov	r0, #1
f0011958:	ebffffe5 	bl	f00118f4 <_Z41__static_initialization_and_destruction_0ii>
f001195c:	e8bd8800 	pop	{fp, pc}
f0011960:	0000ffff 	strdeq	pc, [r0], -pc	; <UNPREDICTABLE>

f0011964 <_ZN8CMonitorC1Ejjj>:
_ZN8CMonitorC2Ejjj():
/mnt/c/Users/Kuba/Documents/School/ZeroMate/examples/16-paging_userspace/kernel/src/drivers/monitor.cpp:5
#include <drivers/monitor.h>

CMonitor sMonitor{ 0x30000000, 80, 25 };

CMonitor::CMonitor(unsigned int monitor_base_addr, unsigned int width, unsigned int height)
f0011964:	e52db004 	push	{fp}		; (str fp, [sp, #-4]!)
f0011968:	e28db000 	add	fp, sp, #0
f001196c:	e24dd014 	sub	sp, sp, #20
f0011970:	e50b0008 	str	r0, [fp, #-8]
f0011974:	e50b100c 	str	r1, [fp, #-12]
f0011978:	e50b2010 	str	r2, [fp, #-16]
f001197c:	e50b3014 	str	r3, [fp, #-20]	; 0xffffffec
/mnt/c/Users/Kuba/Documents/School/ZeroMate/examples/16-paging_userspace/kernel/src/drivers/monitor.cpp:6
: m_monitor{ reinterpret_cast<unsigned char*>(monitor_base_addr) }
f0011980:	e51b200c 	ldr	r2, [fp, #-12]
/mnt/c/Users/Kuba/Documents/School/ZeroMate/examples/16-paging_userspace/kernel/src/drivers/monitor.cpp:10
, m_width{ width }
, m_height{ height }
, m_cursor{ 0, 0 }
, m_number_base{ DEFAULT_NUMBER_BASE }
f0011984:	e51b3008 	ldr	r3, [fp, #-8]
f0011988:	e5832000 	str	r2, [r3]
f001198c:	e51b3008 	ldr	r3, [fp, #-8]
f0011990:	e51b2010 	ldr	r2, [fp, #-16]
f0011994:	e5832004 	str	r2, [r3, #4]
f0011998:	e51b3008 	ldr	r3, [fp, #-8]
f001199c:	e51b2014 	ldr	r2, [fp, #-20]	; 0xffffffec
f00119a0:	e5832008 	str	r2, [r3, #8]
f00119a4:	e51b3008 	ldr	r3, [fp, #-8]
f00119a8:	e3a02000 	mov	r2, #0
f00119ac:	e583200c 	str	r2, [r3, #12]
f00119b0:	e51b3008 	ldr	r3, [fp, #-8]
f00119b4:	e3a02000 	mov	r2, #0
f00119b8:	e5832010 	str	r2, [r3, #16]
f00119bc:	e51b3008 	ldr	r3, [fp, #-8]
f00119c0:	e3a0200a 	mov	r2, #10
f00119c4:	e5832014 	str	r2, [r3, #20]
/mnt/c/Users/Kuba/Documents/School/ZeroMate/examples/16-paging_userspace/kernel/src/drivers/monitor.cpp:12
{
}
f00119c8:	e51b3008 	ldr	r3, [fp, #-8]
f00119cc:	e1a00003 	mov	r0, r3
f00119d0:	e28bd000 	add	sp, fp, #0
f00119d4:	e49db004 	pop	{fp}		; (ldr fp, [sp], #4)
f00119d8:	e12fff1e 	bx	lr

f00119dc <_ZN8CMonitor5ClearEv>:
_ZN8CMonitor5ClearEv():
/mnt/c/Users/Kuba/Documents/School/ZeroMate/examples/16-paging_userspace/kernel/src/drivers/monitor.cpp:21
    m_cursor.y = 0;
    m_cursor.y = 0;
}

void CMonitor::Clear()
{
f00119dc:	e92d4800 	push	{fp, lr}
f00119e0:	e28db004 	add	fp, sp, #4
f00119e4:	e24dd010 	sub	sp, sp, #16
f00119e8:	e50b0010 	str	r0, [fp, #-16]
/mnt/c/Users/Kuba/Documents/School/ZeroMate/examples/16-paging_userspace/kernel/src/drivers/monitor.cpp:22
    Reset_Cursor();
f00119ec:	e51b0010 	ldr	r0, [fp, #-16]
f00119f0:	eb00016d 	bl	f0011fac <_ZN8CMonitor12Reset_CursorEv>
/mnt/c/Users/Kuba/Documents/School/ZeroMate/examples/16-paging_userspace/kernel/src/drivers/monitor.cpp:24

    for (unsigned int y = 0; y < m_height; ++y)
f00119f4:	e3a03000 	mov	r3, #0
f00119f8:	e50b3008 	str	r3, [fp, #-8]
/mnt/c/Users/Kuba/Documents/School/ZeroMate/examples/16-paging_userspace/kernel/src/drivers/monitor.cpp:24 (discriminator 1)
f00119fc:	e51b3010 	ldr	r3, [fp, #-16]
f0011a00:	e5933008 	ldr	r3, [r3, #8]
f0011a04:	e51b2008 	ldr	r2, [fp, #-8]
f0011a08:	e1520003 	cmp	r2, r3
f0011a0c:	2a000019 	bcs	f0011a78 <_ZN8CMonitor5ClearEv+0x9c>
/mnt/c/Users/Kuba/Documents/School/ZeroMate/examples/16-paging_userspace/kernel/src/drivers/monitor.cpp:26
    {
        for (unsigned int x = 0; x < m_width; ++x)
f0011a10:	e3a03000 	mov	r3, #0
f0011a14:	e50b300c 	str	r3, [fp, #-12]
/mnt/c/Users/Kuba/Documents/School/ZeroMate/examples/16-paging_userspace/kernel/src/drivers/monitor.cpp:26 (discriminator 3)
f0011a18:	e51b3010 	ldr	r3, [fp, #-16]
f0011a1c:	e5933004 	ldr	r3, [r3, #4]
f0011a20:	e51b200c 	ldr	r2, [fp, #-12]
f0011a24:	e1520003 	cmp	r2, r3
f0011a28:	2a00000e 	bcs	f0011a68 <_ZN8CMonitor5ClearEv+0x8c>
/mnt/c/Users/Kuba/Documents/School/ZeroMate/examples/16-paging_userspace/kernel/src/drivers/monitor.cpp:28 (discriminator 2)
        {
            m_monitor[(y * m_width) + x] = ' ';
f0011a2c:	e51b3010 	ldr	r3, [fp, #-16]
f0011a30:	e5932000 	ldr	r2, [r3]
f0011a34:	e51b3010 	ldr	r3, [fp, #-16]
f0011a38:	e5933004 	ldr	r3, [r3, #4]
f0011a3c:	e51b1008 	ldr	r1, [fp, #-8]
f0011a40:	e0010391 	mul	r1, r1, r3
f0011a44:	e51b300c 	ldr	r3, [fp, #-12]
f0011a48:	e0813003 	add	r3, r1, r3
f0011a4c:	e0823003 	add	r3, r2, r3
f0011a50:	e3a02020 	mov	r2, #32
f0011a54:	e5c32000 	strb	r2, [r3]
/mnt/c/Users/Kuba/Documents/School/ZeroMate/examples/16-paging_userspace/kernel/src/drivers/monitor.cpp:26 (discriminator 2)
        for (unsigned int x = 0; x < m_width; ++x)
f0011a58:	e51b300c 	ldr	r3, [fp, #-12]
f0011a5c:	e2833001 	add	r3, r3, #1
f0011a60:	e50b300c 	str	r3, [fp, #-12]
f0011a64:	eaffffeb 	b	f0011a18 <_ZN8CMonitor5ClearEv+0x3c>
/mnt/c/Users/Kuba/Documents/School/ZeroMate/examples/16-paging_userspace/kernel/src/drivers/monitor.cpp:24 (discriminator 2)
    for (unsigned int y = 0; y < m_height; ++y)
f0011a68:	e51b3008 	ldr	r3, [fp, #-8]
f0011a6c:	e2833001 	add	r3, r3, #1
f0011a70:	e50b3008 	str	r3, [fp, #-8]
f0011a74:	eaffffe0 	b	f00119fc <_ZN8CMonitor5ClearEv+0x20>
/mnt/c/Users/Kuba/Documents/School/ZeroMate/examples/16-paging_userspace/kernel/src/drivers/monitor.cpp:31
        }
    }
}
f0011a78:	e320f000 	nop	{0}
f0011a7c:	e24bd004 	sub	sp, fp, #4
f0011a80:	e8bd8800 	pop	{fp, pc}

f0011a84 <_ZN8CMonitor6ScrollEv>:
_ZN8CMonitor6ScrollEv():
/mnt/c/Users/Kuba/Documents/School/ZeroMate/examples/16-paging_userspace/kernel/src/drivers/monitor.cpp:49
        m_cursor.y = m_height - 1;
    }
}

void CMonitor::Scroll()
{
f0011a84:	e52db004 	push	{fp}		; (str fp, [sp, #-4]!)
f0011a88:	e28db000 	add	fp, sp, #0
f0011a8c:	e24dd01c 	sub	sp, sp, #28
f0011a90:	e50b0018 	str	r0, [fp, #-24]	; 0xffffffe8
/mnt/c/Users/Kuba/Documents/School/ZeroMate/examples/16-paging_userspace/kernel/src/drivers/monitor.cpp:50
    for (unsigned int y = 1; y < m_height; ++y)
f0011a94:	e3a03001 	mov	r3, #1
f0011a98:	e50b3008 	str	r3, [fp, #-8]
/mnt/c/Users/Kuba/Documents/School/ZeroMate/examples/16-paging_userspace/kernel/src/drivers/monitor.cpp:50 (discriminator 1)
f0011a9c:	e51b3018 	ldr	r3, [fp, #-24]	; 0xffffffe8
f0011aa0:	e5933008 	ldr	r3, [r3, #8]
f0011aa4:	e51b2008 	ldr	r2, [fp, #-8]
f0011aa8:	e1520003 	cmp	r2, r3
f0011aac:	2a000024 	bcs	f0011b44 <_ZN8CMonitor6ScrollEv+0xc0>
/mnt/c/Users/Kuba/Documents/School/ZeroMate/examples/16-paging_userspace/kernel/src/drivers/monitor.cpp:52
    {
        for (unsigned int x = 0; x < m_width; ++x)
f0011ab0:	e3a03000 	mov	r3, #0
f0011ab4:	e50b300c 	str	r3, [fp, #-12]
/mnt/c/Users/Kuba/Documents/School/ZeroMate/examples/16-paging_userspace/kernel/src/drivers/monitor.cpp:52 (discriminator 3)
f0011ab8:	e51b3018 	ldr	r3, [fp, #-24]	; 0xffffffe8
f0011abc:	e5933004 	ldr	r3, [r3, #4]
f0011ac0:	e51b200c 	ldr	r2, [fp, #-12]
f0011ac4:	e1520003 	cmp	r2, r3
f0011ac8:	2a000019 	bcs	f0011b34 <_ZN8CMonitor6ScrollEv+0xb0>
/mnt/c/Users/Kuba/Documents/School/ZeroMate/examples/16-paging_userspace/kernel/src/drivers/monitor.cpp:54 (discriminator 2)
        {
            m_monitor[((y - 1) * m_width) + x] = m_monitor[(y * m_width) + x];
f0011acc:	e51b3018 	ldr	r3, [fp, #-24]	; 0xffffffe8
f0011ad0:	e5932000 	ldr	r2, [r3]
f0011ad4:	e51b3018 	ldr	r3, [fp, #-24]	; 0xffffffe8
f0011ad8:	e5933004 	ldr	r3, [r3, #4]
f0011adc:	e51b1008 	ldr	r1, [fp, #-8]
f0011ae0:	e0010391 	mul	r1, r1, r3
f0011ae4:	e51b300c 	ldr	r3, [fp, #-12]
f0011ae8:	e0813003 	add	r3, r1, r3
f0011aec:	e0822003 	add	r2, r2, r3
f0011af0:	e51b3018 	ldr	r3, [fp, #-24]	; 0xffffffe8
f0011af4:	e5931000 	ldr	r1, [r3]
f0011af8:	e51b3008 	ldr	r3, [fp, #-8]
f0011afc:	e2433001 	sub	r3, r3, #1
f0011b00:	e51b0018 	ldr	r0, [fp, #-24]	; 0xffffffe8
f0011b04:	e5900004 	ldr	r0, [r0, #4]
f0011b08:	e0000390 	mul	r0, r0, r3
f0011b0c:	e51b300c 	ldr	r3, [fp, #-12]
f0011b10:	e0803003 	add	r3, r0, r3
f0011b14:	e0813003 	add	r3, r1, r3
f0011b18:	e5d22000 	ldrb	r2, [r2]
f0011b1c:	e6ef2072 	uxtb	r2, r2
f0011b20:	e5c32000 	strb	r2, [r3]
/mnt/c/Users/Kuba/Documents/School/ZeroMate/examples/16-paging_userspace/kernel/src/drivers/monitor.cpp:52 (discriminator 2)
        for (unsigned int x = 0; x < m_width; ++x)
f0011b24:	e51b300c 	ldr	r3, [fp, #-12]
f0011b28:	e2833001 	add	r3, r3, #1
f0011b2c:	e50b300c 	str	r3, [fp, #-12]
f0011b30:	eaffffe0 	b	f0011ab8 <_ZN8CMonitor6ScrollEv+0x34>
/mnt/c/Users/Kuba/Documents/School/ZeroMate/examples/16-paging_userspace/kernel/src/drivers/monitor.cpp:50 (discriminator 2)
    for (unsigned int y = 1; y < m_height; ++y)
f0011b34:	e51b3008 	ldr	r3, [fp, #-8]
f0011b38:	e2833001 	add	r3, r3, #1
f0011b3c:	e50b3008 	str	r3, [fp, #-8]
f0011b40:	eaffffd5 	b	f0011a9c <_ZN8CMonitor6ScrollEv+0x18>
/mnt/c/Users/Kuba/Documents/School/ZeroMate/examples/16-paging_userspace/kernel/src/drivers/monitor.cpp:58
        }
    }

    for (unsigned int x = 0; x < m_width; ++x)
f0011b44:	e3a03000 	mov	r3, #0
f0011b48:	e50b3010 	str	r3, [fp, #-16]
/mnt/c/Users/Kuba/Documents/School/ZeroMate/examples/16-paging_userspace/kernel/src/drivers/monitor.cpp:58 (discriminator 3)
f0011b4c:	e51b3018 	ldr	r3, [fp, #-24]	; 0xffffffe8
f0011b50:	e5933004 	ldr	r3, [r3, #4]
f0011b54:	e51b2010 	ldr	r2, [fp, #-16]
f0011b58:	e1520003 	cmp	r2, r3
f0011b5c:	2a000010 	bcs	f0011ba4 <_ZN8CMonitor6ScrollEv+0x120>
/mnt/c/Users/Kuba/Documents/School/ZeroMate/examples/16-paging_userspace/kernel/src/drivers/monitor.cpp:60 (discriminator 2)
    {
        m_monitor[((m_height - 1) * m_width) + x] = ' ';
f0011b60:	e51b3018 	ldr	r3, [fp, #-24]	; 0xffffffe8
f0011b64:	e5932000 	ldr	r2, [r3]
f0011b68:	e51b3018 	ldr	r3, [fp, #-24]	; 0xffffffe8
f0011b6c:	e5933008 	ldr	r3, [r3, #8]
f0011b70:	e2433001 	sub	r3, r3, #1
f0011b74:	e51b1018 	ldr	r1, [fp, #-24]	; 0xffffffe8
f0011b78:	e5911004 	ldr	r1, [r1, #4]
f0011b7c:	e0010391 	mul	r1, r1, r3
f0011b80:	e51b3010 	ldr	r3, [fp, #-16]
f0011b84:	e0813003 	add	r3, r1, r3
f0011b88:	e0823003 	add	r3, r2, r3
f0011b8c:	e3a02020 	mov	r2, #32
f0011b90:	e5c32000 	strb	r2, [r3]
/mnt/c/Users/Kuba/Documents/School/ZeroMate/examples/16-paging_userspace/kernel/src/drivers/monitor.cpp:58 (discriminator 2)
    for (unsigned int x = 0; x < m_width; ++x)
f0011b94:	e51b3010 	ldr	r3, [fp, #-16]
f0011b98:	e2833001 	add	r3, r3, #1
f0011b9c:	e50b3010 	str	r3, [fp, #-16]
f0011ba0:	eaffffe9 	b	f0011b4c <_ZN8CMonitor6ScrollEv+0xc8>
/mnt/c/Users/Kuba/Documents/School/ZeroMate/examples/16-paging_userspace/kernel/src/drivers/monitor.cpp:62
    }
}
f0011ba4:	e320f000 	nop	{0}
f0011ba8:	e28bd000 	add	sp, fp, #0
f0011bac:	e49db004 	pop	{fp}		; (ldr fp, [sp], #4)
f0011bb0:	e12fff1e 	bx	lr

f0011bb4 <_ZN8CMonitorlsEc>:
_ZN8CMonitorlsEc():
/mnt/c/Users/Kuba/Documents/School/ZeroMate/examples/16-paging_userspace/kernel/src/drivers/monitor.cpp:70
{
    m_number_base = DEFAULT_NUMBER_BASE;
}

CMonitor& CMonitor::operator<<(char c)
{
f0011bb4:	e92d4800 	push	{fp, lr}
f0011bb8:	e28db004 	add	fp, sp, #4
f0011bbc:	e24dd008 	sub	sp, sp, #8
f0011bc0:	e50b0008 	str	r0, [fp, #-8]
f0011bc4:	e1a03001 	mov	r3, r1
f0011bc8:	e54b3009 	strb	r3, [fp, #-9]
/mnt/c/Users/Kuba/Documents/School/ZeroMate/examples/16-paging_userspace/kernel/src/drivers/monitor.cpp:71
    if (c != '\n')
f0011bcc:	e55b3009 	ldrb	r3, [fp, #-9]
f0011bd0:	e353000a 	cmp	r3, #10
f0011bd4:	0a000012 	beq	f0011c24 <_ZN8CMonitorlsEc+0x70>
/mnt/c/Users/Kuba/Documents/School/ZeroMate/examples/16-paging_userspace/kernel/src/drivers/monitor.cpp:73
    {
        m_monitor[(m_cursor.y * m_width) + m_cursor.x] = static_cast<unsigned char>(c);
f0011bd8:	e51b3008 	ldr	r3, [fp, #-8]
f0011bdc:	e5932000 	ldr	r2, [r3]
f0011be0:	e51b3008 	ldr	r3, [fp, #-8]
f0011be4:	e593300c 	ldr	r3, [r3, #12]
f0011be8:	e51b1008 	ldr	r1, [fp, #-8]
f0011bec:	e5911004 	ldr	r1, [r1, #4]
f0011bf0:	e0010391 	mul	r1, r1, r3
f0011bf4:	e51b3008 	ldr	r3, [fp, #-8]
f0011bf8:	e5933010 	ldr	r3, [r3, #16]
f0011bfc:	e0813003 	add	r3, r1, r3
f0011c00:	e0823003 	add	r3, r2, r3
f0011c04:	e55b2009 	ldrb	r2, [fp, #-9]
f0011c08:	e5c32000 	strb	r2, [r3]
/mnt/c/Users/Kuba/Documents/School/ZeroMate/examples/16-paging_userspace/kernel/src/drivers/monitor.cpp:74
        ++m_cursor.x;
f0011c0c:	e51b3008 	ldr	r3, [fp, #-8]
f0011c10:	e5933010 	ldr	r3, [r3, #16]
f0011c14:	e2832001 	add	r2, r3, #1
f0011c18:	e51b3008 	ldr	r3, [fp, #-8]
f0011c1c:	e5832010 	str	r2, [r3, #16]
f0011c20:	ea000007 	b	f0011c44 <_ZN8CMonitorlsEc+0x90>
/mnt/c/Users/Kuba/Documents/School/ZeroMate/examples/16-paging_userspace/kernel/src/drivers/monitor.cpp:78
    }
    else
    {
        m_cursor.x = 0;
f0011c24:	e51b3008 	ldr	r3, [fp, #-8]
f0011c28:	e3a02000 	mov	r2, #0
f0011c2c:	e5832010 	str	r2, [r3, #16]
/mnt/c/Users/Kuba/Documents/School/ZeroMate/examples/16-paging_userspace/kernel/src/drivers/monitor.cpp:79
        ++m_cursor.y;
f0011c30:	e51b3008 	ldr	r3, [fp, #-8]
f0011c34:	e593300c 	ldr	r3, [r3, #12]
f0011c38:	e2832001 	add	r2, r3, #1
f0011c3c:	e51b3008 	ldr	r3, [fp, #-8]
f0011c40:	e583200c 	str	r2, [r3, #12]
/mnt/c/Users/Kuba/Documents/School/ZeroMate/examples/16-paging_userspace/kernel/src/drivers/monitor.cpp:82
    }

    Adjust_Cursor();
f0011c44:	e51b0008 	ldr	r0, [fp, #-8]
f0011c48:	eb0000e5 	bl	f0011fe4 <_ZN8CMonitor13Adjust_CursorEv>
/mnt/c/Users/Kuba/Documents/School/ZeroMate/examples/16-paging_userspace/kernel/src/drivers/monitor.cpp:84

    return *this;
f0011c4c:	e51b3008 	ldr	r3, [fp, #-8]
/mnt/c/Users/Kuba/Documents/School/ZeroMate/examples/16-paging_userspace/kernel/src/drivers/monitor.cpp:85
}
f0011c50:	e1a00003 	mov	r0, r3
f0011c54:	e24bd004 	sub	sp, fp, #4
f0011c58:	e8bd8800 	pop	{fp, pc}

f0011c5c <_ZN8CMonitorlsEPKc>:
_ZN8CMonitorlsEPKc():
/mnt/c/Users/Kuba/Documents/School/ZeroMate/examples/16-paging_userspace/kernel/src/drivers/monitor.cpp:88

CMonitor& CMonitor::operator<<(const char* str)
{
f0011c5c:	e92d4800 	push	{fp, lr}
f0011c60:	e28db004 	add	fp, sp, #4
f0011c64:	e24dd010 	sub	sp, sp, #16
f0011c68:	e50b0010 	str	r0, [fp, #-16]
f0011c6c:	e50b1014 	str	r1, [fp, #-20]	; 0xffffffec
/mnt/c/Users/Kuba/Documents/School/ZeroMate/examples/16-paging_userspace/kernel/src/drivers/monitor.cpp:89
    for (unsigned int i = 0; str[i] != '\0'; ++i)
f0011c70:	e3a03000 	mov	r3, #0
f0011c74:	e50b3008 	str	r3, [fp, #-8]
/mnt/c/Users/Kuba/Documents/School/ZeroMate/examples/16-paging_userspace/kernel/src/drivers/monitor.cpp:89 (discriminator 3)
f0011c78:	e51b2014 	ldr	r2, [fp, #-20]	; 0xffffffec
f0011c7c:	e51b3008 	ldr	r3, [fp, #-8]
f0011c80:	e0823003 	add	r3, r2, r3
f0011c84:	e5d33000 	ldrb	r3, [r3]
f0011c88:	e3530000 	cmp	r3, #0
f0011c8c:	0a00000a 	beq	f0011cbc <_ZN8CMonitorlsEPKc+0x60>
/mnt/c/Users/Kuba/Documents/School/ZeroMate/examples/16-paging_userspace/kernel/src/drivers/monitor.cpp:91 (discriminator 2)
    {
        *this << str[i];
f0011c90:	e51b2014 	ldr	r2, [fp, #-20]	; 0xffffffec
f0011c94:	e51b3008 	ldr	r3, [fp, #-8]
f0011c98:	e0823003 	add	r3, r2, r3
f0011c9c:	e5d33000 	ldrb	r3, [r3]
f0011ca0:	e1a01003 	mov	r1, r3
f0011ca4:	e51b0010 	ldr	r0, [fp, #-16]
f0011ca8:	ebffffc1 	bl	f0011bb4 <_ZN8CMonitorlsEc>
/mnt/c/Users/Kuba/Documents/School/ZeroMate/examples/16-paging_userspace/kernel/src/drivers/monitor.cpp:89 (discriminator 2)
    for (unsigned int i = 0; str[i] != '\0'; ++i)
f0011cac:	e51b3008 	ldr	r3, [fp, #-8]
f0011cb0:	e2833001 	add	r3, r3, #1
f0011cb4:	e50b3008 	str	r3, [fp, #-8]
f0011cb8:	eaffffee 	b	f0011c78 <_ZN8CMonitorlsEPKc+0x1c>
/mnt/c/Users/Kuba/Documents/School/ZeroMate/examples/16-paging_userspace/kernel/src/drivers/monitor.cpp:94
    }

    Reset_Number_Base();
f0011cbc:	e51b0010 	ldr	r0, [fp, #-16]
f0011cc0:	eb0000e9 	bl	f001206c <_ZN8CMonitor17Reset_Number_BaseEv>
/mnt/c/Users/Kuba/Documents/School/ZeroMate/examples/16-paging_userspace/kernel/src/drivers/monitor.cpp:96

    return *this;
f0011cc4:	e51b3010 	ldr	r3, [fp, #-16]
/mnt/c/Users/Kuba/Documents/School/ZeroMate/examples/16-paging_userspace/kernel/src/drivers/monitor.cpp:97
}
f0011cc8:	e1a00003 	mov	r0, r3
f0011ccc:	e24bd004 	sub	sp, fp, #4
f0011cd0:	e8bd8800 	pop	{fp, pc}

f0011cd4 <_ZN8CMonitorlsENS_12NNumber_BaseE>:
_ZN8CMonitorlsENS_12NNumber_BaseE():
/mnt/c/Users/Kuba/Documents/School/ZeroMate/examples/16-paging_userspace/kernel/src/drivers/monitor.cpp:100

CMonitor& CMonitor::operator<<(CMonitor::NNumber_Base number_base)
{
f0011cd4:	e52db004 	push	{fp}		; (str fp, [sp, #-4]!)
f0011cd8:	e28db000 	add	fp, sp, #0
f0011cdc:	e24dd00c 	sub	sp, sp, #12
f0011ce0:	e50b0008 	str	r0, [fp, #-8]
f0011ce4:	e50b100c 	str	r1, [fp, #-12]
/mnt/c/Users/Kuba/Documents/School/ZeroMate/examples/16-paging_userspace/kernel/src/drivers/monitor.cpp:101
    m_number_base = number_base;
f0011ce8:	e51b3008 	ldr	r3, [fp, #-8]
f0011cec:	e51b200c 	ldr	r2, [fp, #-12]
f0011cf0:	e5832014 	str	r2, [r3, #20]
/mnt/c/Users/Kuba/Documents/School/ZeroMate/examples/16-paging_userspace/kernel/src/drivers/monitor.cpp:103

    return *this;
f0011cf4:	e51b3008 	ldr	r3, [fp, #-8]
/mnt/c/Users/Kuba/Documents/School/ZeroMate/examples/16-paging_userspace/kernel/src/drivers/monitor.cpp:104
}
f0011cf8:	e1a00003 	mov	r0, r3
f0011cfc:	e28bd000 	add	sp, fp, #0
f0011d00:	e49db004 	pop	{fp}		; (ldr fp, [sp], #4)
f0011d04:	e12fff1e 	bx	lr

f0011d08 <_ZN8CMonitorlsEj>:
_ZN8CMonitorlsEj():
/mnt/c/Users/Kuba/Documents/School/ZeroMate/examples/16-paging_userspace/kernel/src/drivers/monitor.cpp:107

CMonitor& CMonitor::operator<<(unsigned int num)
{
f0011d08:	e92d4800 	push	{fp, lr}
f0011d0c:	e28db004 	add	fp, sp, #4
f0011d10:	e24dd008 	sub	sp, sp, #8
f0011d14:	e50b0008 	str	r0, [fp, #-8]
f0011d18:	e50b100c 	str	r1, [fp, #-12]
/mnt/c/Users/Kuba/Documents/School/ZeroMate/examples/16-paging_userspace/kernel/src/drivers/monitor.cpp:112
    static constexpr unsigned int BUFFER_SIZE = 16;

    static char s_buffer[BUFFER_SIZE];

    itoa(num, s_buffer, static_cast<unsigned int>(m_number_base));
f0011d1c:	e51b3008 	ldr	r3, [fp, #-8]
f0011d20:	e5933014 	ldr	r3, [r3, #20]
f0011d24:	e59f202c 	ldr	r2, [pc, #44]	; f0011d58 <_ZN8CMonitorlsEj+0x50>
f0011d28:	e51b100c 	ldr	r1, [fp, #-12]
f0011d2c:	e51b0008 	ldr	r0, [fp, #-8]
f0011d30:	eb000021 	bl	f0011dbc <_ZN8CMonitor4itoaEjPcj>
/mnt/c/Users/Kuba/Documents/School/ZeroMate/examples/16-paging_userspace/kernel/src/drivers/monitor.cpp:113
    *this << s_buffer;
f0011d34:	e59f101c 	ldr	r1, [pc, #28]	; f0011d58 <_ZN8CMonitorlsEj+0x50>
f0011d38:	e51b0008 	ldr	r0, [fp, #-8]
f0011d3c:	ebffffc6 	bl	f0011c5c <_ZN8CMonitorlsEPKc>
/mnt/c/Users/Kuba/Documents/School/ZeroMate/examples/16-paging_userspace/kernel/src/drivers/monitor.cpp:114
    Reset_Number_Base();
f0011d40:	e51b0008 	ldr	r0, [fp, #-8]
f0011d44:	eb0000c8 	bl	f001206c <_ZN8CMonitor17Reset_Number_BaseEv>
/mnt/c/Users/Kuba/Documents/School/ZeroMate/examples/16-paging_userspace/kernel/src/drivers/monitor.cpp:116

    return *this;
f0011d48:	e51b3008 	ldr	r3, [fp, #-8]
/mnt/c/Users/Kuba/Documents/School/ZeroMate/examples/16-paging_userspace/kernel/src/drivers/monitor.cpp:117
}
f0011d4c:	e1a00003 	mov	r0, r3
f0011d50:	e24bd004 	sub	sp, fp, #4
f0011d54:	e8bd8800 	pop	{fp, pc}
f0011d58:	c003a548 	andgt	sl, r3, r8, asr #10

f0011d5c <_ZN8CMonitorlsEb>:
_ZN8CMonitorlsEb():
/mnt/c/Users/Kuba/Documents/School/ZeroMate/examples/16-paging_userspace/kernel/src/drivers/monitor.cpp:120

CMonitor& CMonitor::operator<<(bool value)
{
f0011d5c:	e92d4800 	push	{fp, lr}
f0011d60:	e28db004 	add	fp, sp, #4
f0011d64:	e24dd008 	sub	sp, sp, #8
f0011d68:	e50b0008 	str	r0, [fp, #-8]
f0011d6c:	e1a03001 	mov	r3, r1
f0011d70:	e54b3009 	strb	r3, [fp, #-9]
/mnt/c/Users/Kuba/Documents/School/ZeroMate/examples/16-paging_userspace/kernel/src/drivers/monitor.cpp:121
    if (value)
f0011d74:	e55b3009 	ldrb	r3, [fp, #-9]
f0011d78:	e3530000 	cmp	r3, #0
f0011d7c:	0a000003 	beq	f0011d90 <_ZN8CMonitorlsEb+0x34>
/mnt/c/Users/Kuba/Documents/School/ZeroMate/examples/16-paging_userspace/kernel/src/drivers/monitor.cpp:123
    {
        *this << "true";
f0011d80:	e59f102c 	ldr	r1, [pc, #44]	; f0011db4 <_ZN8CMonitorlsEb+0x58>
f0011d84:	e51b0008 	ldr	r0, [fp, #-8]
f0011d88:	ebffffb3 	bl	f0011c5c <_ZN8CMonitorlsEPKc>
f0011d8c:	ea000002 	b	f0011d9c <_ZN8CMonitorlsEb+0x40>
/mnt/c/Users/Kuba/Documents/School/ZeroMate/examples/16-paging_userspace/kernel/src/drivers/monitor.cpp:127
    }
    else
    {
        *this << "false";
f0011d90:	e59f1020 	ldr	r1, [pc, #32]	; f0011db8 <_ZN8CMonitorlsEb+0x5c>
f0011d94:	e51b0008 	ldr	r0, [fp, #-8]
f0011d98:	ebffffaf 	bl	f0011c5c <_ZN8CMonitorlsEPKc>
/mnt/c/Users/Kuba/Documents/School/ZeroMate/examples/16-paging_userspace/kernel/src/drivers/monitor.cpp:130
    }

    Reset_Number_Base();
f0011d9c:	e51b0008 	ldr	r0, [fp, #-8]
f0011da0:	eb0000b1 	bl	f001206c <_ZN8CMonitor17Reset_Number_BaseEv>
/mnt/c/Users/Kuba/Documents/School/ZeroMate/examples/16-paging_userspace/kernel/src/drivers/monitor.cpp:132

    return *this;
f0011da4:	e51b3008 	ldr	r3, [fp, #-8]
/mnt/c/Users/Kuba/Documents/School/ZeroMate/examples/16-paging_userspace/kernel/src/drivers/monitor.cpp:133
}
f0011da8:	e1a00003 	mov	r0, r3
f0011dac:	e24bd004 	sub	sp, fp, #4
f0011db0:	e8bd8800 	pop	{fp, pc}
f0011db4:	f00169a8 			; <UNDEFINED> instruction: 0xf00169a8
f0011db8:	f00169b0 			; <UNDEFINED> instruction: 0xf00169b0

f0011dbc <_ZN8CMonitor4itoaEjPcj>:
_ZN8CMonitor4itoaEjPcj():
/mnt/c/Users/Kuba/Documents/School/ZeroMate/examples/16-paging_userspace/kernel/src/drivers/monitor.cpp:136

void CMonitor::itoa(unsigned int input, char* output, unsigned int base)
{
f0011dbc:	e92d4800 	push	{fp, lr}
f0011dc0:	e28db004 	add	fp, sp, #4
f0011dc4:	e24dd020 	sub	sp, sp, #32
f0011dc8:	e50b0018 	str	r0, [fp, #-24]	; 0xffffffe8
f0011dcc:	e50b101c 	str	r1, [fp, #-28]	; 0xffffffe4
f0011dd0:	e50b2020 	str	r2, [fp, #-32]	; 0xffffffe0
f0011dd4:	e50b3024 	str	r3, [fp, #-36]	; 0xffffffdc
/mnt/c/Users/Kuba/Documents/School/ZeroMate/examples/16-paging_userspace/kernel/src/drivers/monitor.cpp:137
    int i = 0;
f0011dd8:	e3a03000 	mov	r3, #0
f0011ddc:	e50b3008 	str	r3, [fp, #-8]
/mnt/c/Users/Kuba/Documents/School/ZeroMate/examples/16-paging_userspace/kernel/src/drivers/monitor.cpp:139

    while (input > 0)
f0011de0:	e51b301c 	ldr	r3, [fp, #-28]	; 0xffffffe4
f0011de4:	e3530000 	cmp	r3, #0
f0011de8:	0a000015 	beq	f0011e44 <_ZN8CMonitor4itoaEjPcj+0x88>
/mnt/c/Users/Kuba/Documents/School/ZeroMate/examples/16-paging_userspace/kernel/src/drivers/monitor.cpp:141
    {        
        output[i] = CharConvArr[input % base];
f0011dec:	e51b301c 	ldr	r3, [fp, #-28]	; 0xffffffe4
f0011df0:	e51b1024 	ldr	r1, [fp, #-36]	; 0xffffffdc
f0011df4:	e1a00003 	mov	r0, r3
f0011df8:	eb0012d5 	bl	f0016954 <__aeabi_uidivmod>
f0011dfc:	e1a03001 	mov	r3, r1
f0011e00:	e1a02003 	mov	r2, r3
f0011e04:	e59f3128 	ldr	r3, [pc, #296]	; f0011f34 <_ZN8CMonitor4itoaEjPcj+0x178>
f0011e08:	e0822003 	add	r2, r2, r3
f0011e0c:	e51b3008 	ldr	r3, [fp, #-8]
f0011e10:	e51b1020 	ldr	r1, [fp, #-32]	; 0xffffffe0
f0011e14:	e0813003 	add	r3, r1, r3
f0011e18:	e5d22000 	ldrb	r2, [r2]
f0011e1c:	e5c32000 	strb	r2, [r3]
/mnt/c/Users/Kuba/Documents/School/ZeroMate/examples/16-paging_userspace/kernel/src/drivers/monitor.cpp:142
        input /= base;
f0011e20:	e51b1024 	ldr	r1, [fp, #-36]	; 0xffffffdc
f0011e24:	e51b001c 	ldr	r0, [fp, #-28]	; 0xffffffe4
f0011e28:	eb00124e 	bl	f0016768 <__udivsi3>
f0011e2c:	e1a03000 	mov	r3, r0
f0011e30:	e50b301c 	str	r3, [fp, #-28]	; 0xffffffe4
/mnt/c/Users/Kuba/Documents/School/ZeroMate/examples/16-paging_userspace/kernel/src/drivers/monitor.cpp:144
        
        i++;
f0011e34:	e51b3008 	ldr	r3, [fp, #-8]
f0011e38:	e2833001 	add	r3, r3, #1
f0011e3c:	e50b3008 	str	r3, [fp, #-8]
/mnt/c/Users/Kuba/Documents/School/ZeroMate/examples/16-paging_userspace/kernel/src/drivers/monitor.cpp:139
    while (input > 0)
f0011e40:	eaffffe6 	b	f0011de0 <_ZN8CMonitor4itoaEjPcj+0x24>
/mnt/c/Users/Kuba/Documents/School/ZeroMate/examples/16-paging_userspace/kernel/src/drivers/monitor.cpp:147
    }

    if (i == 0)
f0011e44:	e51b3008 	ldr	r3, [fp, #-8]
f0011e48:	e3530000 	cmp	r3, #0
f0011e4c:	1a000007 	bne	f0011e70 <_ZN8CMonitor4itoaEjPcj+0xb4>
/mnt/c/Users/Kuba/Documents/School/ZeroMate/examples/16-paging_userspace/kernel/src/drivers/monitor.cpp:149
    {
        output[i] = CharConvArr[0];
f0011e50:	e51b3008 	ldr	r3, [fp, #-8]
f0011e54:	e51b2020 	ldr	r2, [fp, #-32]	; 0xffffffe0
f0011e58:	e0823003 	add	r3, r2, r3
f0011e5c:	e3a02030 	mov	r2, #48	; 0x30
f0011e60:	e5c32000 	strb	r2, [r3]
/mnt/c/Users/Kuba/Documents/School/ZeroMate/examples/16-paging_userspace/kernel/src/drivers/monitor.cpp:150
        i++;
f0011e64:	e51b3008 	ldr	r3, [fp, #-8]
f0011e68:	e2833001 	add	r3, r3, #1
f0011e6c:	e50b3008 	str	r3, [fp, #-8]
/mnt/c/Users/Kuba/Documents/School/ZeroMate/examples/16-paging_userspace/kernel/src/drivers/monitor.cpp:153
    }

    output[i] = '\0';
f0011e70:	e51b3008 	ldr	r3, [fp, #-8]
f0011e74:	e51b2020 	ldr	r2, [fp, #-32]	; 0xffffffe0
f0011e78:	e0823003 	add	r3, r2, r3
f0011e7c:	e3a02000 	mov	r2, #0
f0011e80:	e5c32000 	strb	r2, [r3]
/mnt/c/Users/Kuba/Documents/School/ZeroMate/examples/16-paging_userspace/kernel/src/drivers/monitor.cpp:154
    i--;
f0011e84:	e51b3008 	ldr	r3, [fp, #-8]
f0011e88:	e2433001 	sub	r3, r3, #1
f0011e8c:	e50b3008 	str	r3, [fp, #-8]
/mnt/c/Users/Kuba/Documents/School/ZeroMate/examples/16-paging_userspace/kernel/src/drivers/monitor.cpp:156

    for (int j = 0; j <= (i / 2); j++)
f0011e90:	e3a03000 	mov	r3, #0
f0011e94:	e50b300c 	str	r3, [fp, #-12]
/mnt/c/Users/Kuba/Documents/School/ZeroMate/examples/16-paging_userspace/kernel/src/drivers/monitor.cpp:156 (discriminator 3)
f0011e98:	e51b3008 	ldr	r3, [fp, #-8]
f0011e9c:	e1a02fa3 	lsr	r2, r3, #31
f0011ea0:	e0823003 	add	r3, r2, r3
f0011ea4:	e1a030c3 	asr	r3, r3, #1
f0011ea8:	e1a02003 	mov	r2, r3
f0011eac:	e51b300c 	ldr	r3, [fp, #-12]
f0011eb0:	e1530002 	cmp	r3, r2
f0011eb4:	ca00001b 	bgt	f0011f28 <_ZN8CMonitor4itoaEjPcj+0x16c>
/mnt/c/Users/Kuba/Documents/School/ZeroMate/examples/16-paging_userspace/kernel/src/drivers/monitor.cpp:158 (discriminator 2)
    {
        char c = output[i - j];
f0011eb8:	e51b2008 	ldr	r2, [fp, #-8]
f0011ebc:	e51b300c 	ldr	r3, [fp, #-12]
f0011ec0:	e0423003 	sub	r3, r2, r3
f0011ec4:	e1a02003 	mov	r2, r3
f0011ec8:	e51b3020 	ldr	r3, [fp, #-32]	; 0xffffffe0
f0011ecc:	e0833002 	add	r3, r3, r2
f0011ed0:	e5d33000 	ldrb	r3, [r3]
f0011ed4:	e54b300d 	strb	r3, [fp, #-13]
/mnt/c/Users/Kuba/Documents/School/ZeroMate/examples/16-paging_userspace/kernel/src/drivers/monitor.cpp:159 (discriminator 2)
        output[i - j] = output[j];
f0011ed8:	e51b300c 	ldr	r3, [fp, #-12]
f0011edc:	e51b2020 	ldr	r2, [fp, #-32]	; 0xffffffe0
f0011ee0:	e0822003 	add	r2, r2, r3
f0011ee4:	e51b1008 	ldr	r1, [fp, #-8]
f0011ee8:	e51b300c 	ldr	r3, [fp, #-12]
f0011eec:	e0413003 	sub	r3, r1, r3
f0011ef0:	e1a01003 	mov	r1, r3
f0011ef4:	e51b3020 	ldr	r3, [fp, #-32]	; 0xffffffe0
f0011ef8:	e0833001 	add	r3, r3, r1
f0011efc:	e5d22000 	ldrb	r2, [r2]
f0011f00:	e5c32000 	strb	r2, [r3]
/mnt/c/Users/Kuba/Documents/School/ZeroMate/examples/16-paging_userspace/kernel/src/drivers/monitor.cpp:160 (discriminator 2)
        output[j] = c;
f0011f04:	e51b300c 	ldr	r3, [fp, #-12]
f0011f08:	e51b2020 	ldr	r2, [fp, #-32]	; 0xffffffe0
f0011f0c:	e0823003 	add	r3, r2, r3
f0011f10:	e55b200d 	ldrb	r2, [fp, #-13]
f0011f14:	e5c32000 	strb	r2, [r3]
/mnt/c/Users/Kuba/Documents/School/ZeroMate/examples/16-paging_userspace/kernel/src/drivers/monitor.cpp:156 (discriminator 2)
    for (int j = 0; j <= (i / 2); j++)
f0011f18:	e51b300c 	ldr	r3, [fp, #-12]
f0011f1c:	e2833001 	add	r3, r3, #1
f0011f20:	e50b300c 	str	r3, [fp, #-12]
f0011f24:	eaffffdb 	b	f0011e98 <_ZN8CMonitor4itoaEjPcj+0xdc>
/mnt/c/Users/Kuba/Documents/School/ZeroMate/examples/16-paging_userspace/kernel/src/drivers/monitor.cpp:162
    }
}
f0011f28:	e320f000 	nop	{0}
f0011f2c:	e24bd004 	sub	sp, fp, #4
f0011f30:	e8bd8800 	pop	{fp, pc}
f0011f34:	f00169b8 			; <UNDEFINED> instruction: 0xf00169b8

f0011f38 <_Z41__static_initialization_and_destruction_0ii>:
_Z41__static_initialization_and_destruction_0ii():
/mnt/c/Users/Kuba/Documents/School/ZeroMate/examples/16-paging_userspace/kernel/src/drivers/monitor.cpp:162
f0011f38:	e92d4800 	push	{fp, lr}
f0011f3c:	e28db004 	add	fp, sp, #4
f0011f40:	e24dd008 	sub	sp, sp, #8
f0011f44:	e50b0008 	str	r0, [fp, #-8]
f0011f48:	e50b100c 	str	r1, [fp, #-12]
f0011f4c:	e51b3008 	ldr	r3, [fp, #-8]
f0011f50:	e3530001 	cmp	r3, #1
f0011f54:	1a000008 	bne	f0011f7c <_Z41__static_initialization_and_destruction_0ii+0x44>
/mnt/c/Users/Kuba/Documents/School/ZeroMate/examples/16-paging_userspace/kernel/src/drivers/monitor.cpp:162 (discriminator 1)
f0011f58:	e51b300c 	ldr	r3, [fp, #-12]
f0011f5c:	e59f2024 	ldr	r2, [pc, #36]	; f0011f88 <_Z41__static_initialization_and_destruction_0ii+0x50>
f0011f60:	e1530002 	cmp	r3, r2
f0011f64:	1a000004 	bne	f0011f7c <_Z41__static_initialization_and_destruction_0ii+0x44>
/mnt/c/Users/Kuba/Documents/School/ZeroMate/examples/16-paging_userspace/kernel/src/drivers/monitor.cpp:3
CMonitor sMonitor{ 0x30000000, 80, 25 };
f0011f68:	e3a03019 	mov	r3, #25
f0011f6c:	e3a02050 	mov	r2, #80	; 0x50
f0011f70:	e3a01203 	mov	r1, #805306368	; 0x30000000
f0011f74:	e59f0010 	ldr	r0, [pc, #16]	; f0011f8c <_Z41__static_initialization_and_destruction_0ii+0x54>
f0011f78:	ebfffe79 	bl	f0011964 <_ZN8CMonitorC1Ejjj>
/mnt/c/Users/Kuba/Documents/School/ZeroMate/examples/16-paging_userspace/kernel/src/drivers/monitor.cpp:162
}
f0011f7c:	e320f000 	nop	{0}
f0011f80:	e24bd004 	sub	sp, fp, #4
f0011f84:	e8bd8800 	pop	{fp, pc}
f0011f88:	0000ffff 	strdeq	pc, [r0], -pc	; <UNPREDICTABLE>
f0011f8c:	c003a530 	andgt	sl, r3, r0, lsr r5

f0011f90 <_GLOBAL__sub_I_sMonitor>:
_GLOBAL__sub_I_sMonitor():
/mnt/c/Users/Kuba/Documents/School/ZeroMate/examples/16-paging_userspace/kernel/src/drivers/monitor.cpp:162
f0011f90:	e92d4800 	push	{fp, lr}
f0011f94:	e28db004 	add	fp, sp, #4
f0011f98:	e59f1008 	ldr	r1, [pc, #8]	; f0011fa8 <_GLOBAL__sub_I_sMonitor+0x18>
f0011f9c:	e3a00001 	mov	r0, #1
f0011fa0:	ebffffe4 	bl	f0011f38 <_Z41__static_initialization_and_destruction_0ii>
f0011fa4:	e8bd8800 	pop	{fp, pc}
f0011fa8:	0000ffff 	strdeq	pc, [r0], -pc	; <UNPREDICTABLE>

f0011fac <_ZN8CMonitor12Reset_CursorEv>:
_ZN8CMonitor12Reset_CursorEv():
/mnt/c/Users/Kuba/Documents/School/ZeroMate/examples/16-paging_userspace/kernel/src/drivers/monitor.cpp:15
{
f0011fac:	e52db004 	push	{fp}		; (str fp, [sp, #-4]!)
f0011fb0:	e28db000 	add	fp, sp, #0
f0011fb4:	e24dd00c 	sub	sp, sp, #12
f0011fb8:	e50b0008 	str	r0, [fp, #-8]
/mnt/c/Users/Kuba/Documents/School/ZeroMate/examples/16-paging_userspace/kernel/src/drivers/monitor.cpp:16
    m_cursor.y = 0;
f0011fbc:	e51b3008 	ldr	r3, [fp, #-8]
f0011fc0:	e3a02000 	mov	r2, #0
f0011fc4:	e583200c 	str	r2, [r3, #12]
/mnt/c/Users/Kuba/Documents/School/ZeroMate/examples/16-paging_userspace/kernel/src/drivers/monitor.cpp:17
    m_cursor.y = 0;
f0011fc8:	e51b3008 	ldr	r3, [fp, #-8]
f0011fcc:	e3a02000 	mov	r2, #0
f0011fd0:	e583200c 	str	r2, [r3, #12]
/mnt/c/Users/Kuba/Documents/School/ZeroMate/examples/16-paging_userspace/kernel/src/drivers/monitor.cpp:18
}
f0011fd4:	e320f000 	nop	{0}
f0011fd8:	e28bd000 	add	sp, fp, #0
f0011fdc:	e49db004 	pop	{fp}		; (ldr fp, [sp], #4)
f0011fe0:	e12fff1e 	bx	lr

f0011fe4 <_ZN8CMonitor13Adjust_CursorEv>:
_ZN8CMonitor13Adjust_CursorEv():
/mnt/c/Users/Kuba/Documents/School/ZeroMate/examples/16-paging_userspace/kernel/src/drivers/monitor.cpp:34
{
f0011fe4:	e92d4800 	push	{fp, lr}
f0011fe8:	e28db004 	add	fp, sp, #4
f0011fec:	e24dd008 	sub	sp, sp, #8
f0011ff0:	e50b0008 	str	r0, [fp, #-8]
/mnt/c/Users/Kuba/Documents/School/ZeroMate/examples/16-paging_userspace/kernel/src/drivers/monitor.cpp:35
    if (m_cursor.x >= m_width)
f0011ff4:	e51b3008 	ldr	r3, [fp, #-8]
f0011ff8:	e5932010 	ldr	r2, [r3, #16]
f0011ffc:	e51b3008 	ldr	r3, [fp, #-8]
f0012000:	e5933004 	ldr	r3, [r3, #4]
f0012004:	e1520003 	cmp	r2, r3
f0012008:	3a000007 	bcc	f001202c <_ZN8CMonitor13Adjust_CursorEv+0x48>
/mnt/c/Users/Kuba/Documents/School/ZeroMate/examples/16-paging_userspace/kernel/src/drivers/monitor.cpp:37
        m_cursor.x = 0;
f001200c:	e51b3008 	ldr	r3, [fp, #-8]
f0012010:	e3a02000 	mov	r2, #0
f0012014:	e5832010 	str	r2, [r3, #16]
/mnt/c/Users/Kuba/Documents/School/ZeroMate/examples/16-paging_userspace/kernel/src/drivers/monitor.cpp:38
        ++m_cursor.y;
f0012018:	e51b3008 	ldr	r3, [fp, #-8]
f001201c:	e593300c 	ldr	r3, [r3, #12]
f0012020:	e2832001 	add	r2, r3, #1
f0012024:	e51b3008 	ldr	r3, [fp, #-8]
f0012028:	e583200c 	str	r2, [r3, #12]
/mnt/c/Users/Kuba/Documents/School/ZeroMate/examples/16-paging_userspace/kernel/src/drivers/monitor.cpp:41
    if (m_cursor.y >= m_height)
f001202c:	e51b3008 	ldr	r3, [fp, #-8]
f0012030:	e593200c 	ldr	r2, [r3, #12]
f0012034:	e51b3008 	ldr	r3, [fp, #-8]
f0012038:	e5933008 	ldr	r3, [r3, #8]
f001203c:	e1520003 	cmp	r2, r3
f0012040:	3a000006 	bcc	f0012060 <_ZN8CMonitor13Adjust_CursorEv+0x7c>
/mnt/c/Users/Kuba/Documents/School/ZeroMate/examples/16-paging_userspace/kernel/src/drivers/monitor.cpp:43
        Scroll();
f0012044:	e51b0008 	ldr	r0, [fp, #-8]
f0012048:	ebfffe8d 	bl	f0011a84 <_ZN8CMonitor6ScrollEv>
/mnt/c/Users/Kuba/Documents/School/ZeroMate/examples/16-paging_userspace/kernel/src/drivers/monitor.cpp:44
        m_cursor.y = m_height - 1;
f001204c:	e51b3008 	ldr	r3, [fp, #-8]
f0012050:	e5933008 	ldr	r3, [r3, #8]
f0012054:	e2432001 	sub	r2, r3, #1
f0012058:	e51b3008 	ldr	r3, [fp, #-8]
f001205c:	e583200c 	str	r2, [r3, #12]
/mnt/c/Users/Kuba/Documents/School/ZeroMate/examples/16-paging_userspace/kernel/src/drivers/monitor.cpp:46
}
f0012060:	e320f000 	nop	{0}
f0012064:	e24bd004 	sub	sp, fp, #4
f0012068:	e8bd8800 	pop	{fp, pc}

f001206c <_ZN8CMonitor17Reset_Number_BaseEv>:
_ZN8CMonitor17Reset_Number_BaseEv():
/mnt/c/Users/Kuba/Documents/School/ZeroMate/examples/16-paging_userspace/kernel/src/drivers/monitor.cpp:65
{
f001206c:	e52db004 	push	{fp}		; (str fp, [sp, #-4]!)
f0012070:	e28db000 	add	fp, sp, #0
f0012074:	e24dd00c 	sub	sp, sp, #12
f0012078:	e50b0008 	str	r0, [fp, #-8]
/mnt/c/Users/Kuba/Documents/School/ZeroMate/examples/16-paging_userspace/kernel/src/drivers/monitor.cpp:66
    m_number_base = DEFAULT_NUMBER_BASE;
f001207c:	e51b3008 	ldr	r3, [fp, #-8]
f0012080:	e3a0200a 	mov	r2, #10
f0012084:	e5832014 	str	r2, [r3, #20]
/mnt/c/Users/Kuba/Documents/School/ZeroMate/examples/16-paging_userspace/kernel/src/drivers/monitor.cpp:67
}
f0012088:	e320f000 	nop	{0}
f001208c:	e28bd000 	add	sp, fp, #0
f0012090:	e49db004 	pop	{fp}		; (ldr fp, [sp], #4)
f0012094:	e12fff1e 	bx	lr

f0012098 <_ZN16CSegment_DisplayC1Ev>:
_ZN16CSegment_DisplayC2Ev():
/mnt/c/Users/Kuba/Documents/School/ZeroMate/examples/16-paging_userspace/kernel/src/drivers/segmentdisplay.cpp:123
    0, // }
    0, // ~
    0, // DEL
};

CSegment_Display::CSegment_Display()
f0012098:	e52db004 	push	{fp}		; (str fp, [sp, #-4]!)
f001209c:	e28db000 	add	fp, sp, #0
f00120a0:	e24dd00c 	sub	sp, sp, #12
f00120a4:	e50b0008 	str	r0, [fp, #-8]
/mnt/c/Users/Kuba/Documents/School/ZeroMate/examples/16-paging_userspace/kernel/src/drivers/segmentdisplay.cpp:124
    : mOpened(false), mOutput('\0')
f00120a8:	e51b3008 	ldr	r3, [fp, #-8]
f00120ac:	e3a02000 	mov	r2, #0
f00120b0:	e5c32000 	strb	r2, [r3]
f00120b4:	e51b3008 	ldr	r3, [fp, #-8]
f00120b8:	e3a02000 	mov	r2, #0
f00120bc:	e5c32001 	strb	r2, [r3, #1]
/mnt/c/Users/Kuba/Documents/School/ZeroMate/examples/16-paging_userspace/kernel/src/drivers/segmentdisplay.cpp:127
{
    //
}
f00120c0:	e51b3008 	ldr	r3, [fp, #-8]
f00120c4:	e1a00003 	mov	r0, r3
f00120c8:	e28bd000 	add	sp, fp, #0
f00120cc:	e49db004 	pop	{fp}		; (ldr fp, [sp], #4)
f00120d0:	e12fff1e 	bx	lr

f00120d4 <_ZN16CSegment_Display4OpenEv>:
_ZN16CSegment_Display4OpenEv():
/mnt/c/Users/Kuba/Documents/School/ZeroMate/examples/16-paging_userspace/kernel/src/drivers/segmentdisplay.cpp:130

bool CSegment_Display::Open()
{
f00120d4:	e92d4800 	push	{fp, lr}
f00120d8:	e28db004 	add	fp, sp, #4
f00120dc:	e24dd008 	sub	sp, sp, #8
f00120e0:	e50b0008 	str	r0, [fp, #-8]
/mnt/c/Users/Kuba/Documents/School/ZeroMate/examples/16-paging_userspace/kernel/src/drivers/segmentdisplay.cpp:131
    if (mOpened)
f00120e4:	e51b3008 	ldr	r3, [fp, #-8]
f00120e8:	e5d33000 	ldrb	r3, [r3]
f00120ec:	e3530000 	cmp	r3, #0
f00120f0:	0a000001 	beq	f00120fc <_ZN16CSegment_Display4OpenEv+0x28>
/mnt/c/Users/Kuba/Documents/School/ZeroMate/examples/16-paging_userspace/kernel/src/drivers/segmentdisplay.cpp:132
        return false;
f00120f4:	e3a03000 	mov	r3, #0
f00120f8:	ea00000c 	b	f0012130 <_ZN16CSegment_Display4OpenEv+0x5c>
/mnt/c/Users/Kuba/Documents/School/ZeroMate/examples/16-paging_userspace/kernel/src/drivers/segmentdisplay.cpp:134

    if (!sShift_Register.Open())
f00120fc:	e59f0038 	ldr	r0, [pc, #56]	; f001213c <_ZN16CSegment_Display4OpenEv+0x68>
f0012100:	eb000092 	bl	f0012350 <_ZN15CShift_Register4OpenEv>
f0012104:	e1a03000 	mov	r3, r0
f0012108:	e2233001 	eor	r3, r3, #1
f001210c:	e6ef3073 	uxtb	r3, r3
f0012110:	e3530000 	cmp	r3, #0
f0012114:	0a000001 	beq	f0012120 <_ZN16CSegment_Display4OpenEv+0x4c>
/mnt/c/Users/Kuba/Documents/School/ZeroMate/examples/16-paging_userspace/kernel/src/drivers/segmentdisplay.cpp:135
        return false;
f0012118:	e3a03000 	mov	r3, #0
f001211c:	ea000003 	b	f0012130 <_ZN16CSegment_Display4OpenEv+0x5c>
/mnt/c/Users/Kuba/Documents/School/ZeroMate/examples/16-paging_userspace/kernel/src/drivers/segmentdisplay.cpp:137

    mOpened = true;
f0012120:	e51b3008 	ldr	r3, [fp, #-8]
f0012124:	e3a02001 	mov	r2, #1
f0012128:	e5c32000 	strb	r2, [r3]
/mnt/c/Users/Kuba/Documents/School/ZeroMate/examples/16-paging_userspace/kernel/src/drivers/segmentdisplay.cpp:139

    return true;
f001212c:	e3a03001 	mov	r3, #1
/mnt/c/Users/Kuba/Documents/School/ZeroMate/examples/16-paging_userspace/kernel/src/drivers/segmentdisplay.cpp:140
}
f0012130:	e1a00003 	mov	r0, r3
f0012134:	e24bd004 	sub	sp, fp, #4
f0012138:	e8bd8800 	pop	{fp, pc}
f001213c:	c003a55c 	andgt	sl, r3, ip, asr r5

f0012140 <_ZN16CSegment_Display5CloseEv>:
_ZN16CSegment_Display5CloseEv():
/mnt/c/Users/Kuba/Documents/School/ZeroMate/examples/16-paging_userspace/kernel/src/drivers/segmentdisplay.cpp:143

void CSegment_Display::Close()
{
f0012140:	e92d4800 	push	{fp, lr}
f0012144:	e28db004 	add	fp, sp, #4
f0012148:	e24dd008 	sub	sp, sp, #8
f001214c:	e50b0008 	str	r0, [fp, #-8]
/mnt/c/Users/Kuba/Documents/School/ZeroMate/examples/16-paging_userspace/kernel/src/drivers/segmentdisplay.cpp:144
    if (!mOpened)
f0012150:	e51b3008 	ldr	r3, [fp, #-8]
f0012154:	e5d33000 	ldrb	r3, [r3]
f0012158:	e2233001 	eor	r3, r3, #1
f001215c:	e6ef3073 	uxtb	r3, r3
f0012160:	e3530000 	cmp	r3, #0
f0012164:	1a000005 	bne	f0012180 <_ZN16CSegment_Display5CloseEv+0x40>
/mnt/c/Users/Kuba/Documents/School/ZeroMate/examples/16-paging_userspace/kernel/src/drivers/segmentdisplay.cpp:147
        return;

    sShift_Register.Close();
f0012168:	e59f001c 	ldr	r0, [pc, #28]	; f001218c <_ZN16CSegment_Display5CloseEv+0x4c>
f001216c:	eb0000d4 	bl	f00124c4 <_ZN15CShift_Register5CloseEv>
/mnt/c/Users/Kuba/Documents/School/ZeroMate/examples/16-paging_userspace/kernel/src/drivers/segmentdisplay.cpp:149

    mOpened = false;
f0012170:	e51b3008 	ldr	r3, [fp, #-8]
f0012174:	e3a02000 	mov	r2, #0
f0012178:	e5c32000 	strb	r2, [r3]
f001217c:	ea000000 	b	f0012184 <_ZN16CSegment_Display5CloseEv+0x44>
/mnt/c/Users/Kuba/Documents/School/ZeroMate/examples/16-paging_userspace/kernel/src/drivers/segmentdisplay.cpp:145
        return;
f0012180:	e320f000 	nop	{0}
/mnt/c/Users/Kuba/Documents/School/ZeroMate/examples/16-paging_userspace/kernel/src/drivers/segmentdisplay.cpp:150
}
f0012184:	e24bd004 	sub	sp, fp, #4
f0012188:	e8bd8800 	pop	{fp, pc}
f001218c:	c003a55c 	andgt	sl, r3, ip, asr r5

f0012190 <_ZNK16CSegment_Display9Is_OpenedEv>:
_ZNK16CSegment_Display9Is_OpenedEv():
/mnt/c/Users/Kuba/Documents/School/ZeroMate/examples/16-paging_userspace/kernel/src/drivers/segmentdisplay.cpp:153

bool CSegment_Display::Is_Opened() const
{
f0012190:	e52db004 	push	{fp}		; (str fp, [sp, #-4]!)
f0012194:	e28db000 	add	fp, sp, #0
f0012198:	e24dd00c 	sub	sp, sp, #12
f001219c:	e50b0008 	str	r0, [fp, #-8]
/mnt/c/Users/Kuba/Documents/School/ZeroMate/examples/16-paging_userspace/kernel/src/drivers/segmentdisplay.cpp:154
    return mOpened;
f00121a0:	e51b3008 	ldr	r3, [fp, #-8]
f00121a4:	e5d33000 	ldrb	r3, [r3]
/mnt/c/Users/Kuba/Documents/School/ZeroMate/examples/16-paging_userspace/kernel/src/drivers/segmentdisplay.cpp:155
}
f00121a8:	e1a00003 	mov	r0, r3
f00121ac:	e28bd000 	add	sp, fp, #0
f00121b0:	e49db004 	pop	{fp}		; (ldr fp, [sp], #4)
f00121b4:	e12fff1e 	bx	lr

f00121b8 <_ZN16CSegment_Display5WriteEc>:
_ZN16CSegment_Display5WriteEc():
/mnt/c/Users/Kuba/Documents/School/ZeroMate/examples/16-paging_userspace/kernel/src/drivers/segmentdisplay.cpp:158

void CSegment_Display::Write(char c)
{
f00121b8:	e92d4800 	push	{fp, lr}
f00121bc:	e28db004 	add	fp, sp, #4
f00121c0:	e24dd010 	sub	sp, sp, #16
f00121c4:	e50b0010 	str	r0, [fp, #-16]
f00121c8:	e1a03001 	mov	r3, r1
f00121cc:	e54b3011 	strb	r3, [fp, #-17]	; 0xffffffef
/mnt/c/Users/Kuba/Documents/School/ZeroMate/examples/16-paging_userspace/kernel/src/drivers/segmentdisplay.cpp:159
    if (!mOpened)
f00121d0:	e51b3010 	ldr	r3, [fp, #-16]
f00121d4:	e5d33000 	ldrb	r3, [r3]
f00121d8:	e2233001 	eor	r3, r3, #1
f00121dc:	e6ef3073 	uxtb	r3, r3
f00121e0:	e3530000 	cmp	r3, #0
f00121e4:	1a000011 	bne	f0012230 <_ZN16CSegment_Display5WriteEc+0x78>
/mnt/c/Users/Kuba/Documents/School/ZeroMate/examples/16-paging_userspace/kernel/src/drivers/segmentdisplay.cpp:162
        return;

    uint8_t idx = static_cast<uint8_t>(c);
f00121e8:	e55b3011 	ldrb	r3, [fp, #-17]	; 0xffffffef
f00121ec:	e54b3005 	strb	r3, [fp, #-5]
/mnt/c/Users/Kuba/Documents/School/ZeroMate/examples/16-paging_userspace/kernel/src/drivers/segmentdisplay.cpp:165

    // jen tisknutelne zakladni znaky
    if (idx < 32 || idx >= 128)
f00121f0:	e55b3005 	ldrb	r3, [fp, #-5]
f00121f4:	e353001f 	cmp	r3, #31
f00121f8:	9a00000e 	bls	f0012238 <_ZN16CSegment_Display5WriteEc+0x80>
/mnt/c/Users/Kuba/Documents/School/ZeroMate/examples/16-paging_userspace/kernel/src/drivers/segmentdisplay.cpp:165 (discriminator 1)
f00121fc:	e15b30d5 	ldrsb	r3, [fp, #-5]
f0012200:	e3530000 	cmp	r3, #0
f0012204:	ba00000b 	blt	f0012238 <_ZN16CSegment_Display5WriteEc+0x80>
/mnt/c/Users/Kuba/Documents/School/ZeroMate/examples/16-paging_userspace/kernel/src/drivers/segmentdisplay.cpp:169
        return;

    // segmenty jsou invertovane (spolecna katoda), takze tam kde je 0 bude segment svitit
    sShift_Register.Shift_In(static_cast<uint8_t>(~(mCharacter_Map[idx - 32])));
f0012208:	e55b3005 	ldrb	r3, [fp, #-5]
f001220c:	e2433020 	sub	r3, r3, #32
f0012210:	e59f202c 	ldr	r2, [pc, #44]	; f0012244 <_ZN16CSegment_Display5WriteEc+0x8c>
f0012214:	e7d23003 	ldrb	r3, [r2, r3]
f0012218:	e1e03003 	mvn	r3, r3
f001221c:	e6ef3073 	uxtb	r3, r3
f0012220:	e1a01003 	mov	r1, r3
f0012224:	e59f001c 	ldr	r0, [pc, #28]	; f0012248 <_ZN16CSegment_Display5WriteEc+0x90>
f0012228:	eb00012e 	bl	f00126e8 <_ZN15CShift_Register8Shift_InEh>
f001222c:	ea000002 	b	f001223c <_ZN16CSegment_Display5WriteEc+0x84>
/mnt/c/Users/Kuba/Documents/School/ZeroMate/examples/16-paging_userspace/kernel/src/drivers/segmentdisplay.cpp:160
        return;
f0012230:	e320f000 	nop	{0}
f0012234:	ea000000 	b	f001223c <_ZN16CSegment_Display5WriteEc+0x84>
/mnt/c/Users/Kuba/Documents/School/ZeroMate/examples/16-paging_userspace/kernel/src/drivers/segmentdisplay.cpp:166
        return;
f0012238:	e320f000 	nop	{0}
/mnt/c/Users/Kuba/Documents/School/ZeroMate/examples/16-paging_userspace/kernel/src/drivers/segmentdisplay.cpp:170
}
f001223c:	e24bd004 	sub	sp, fp, #4
f0012240:	e8bd8800 	pop	{fp, pc}
f0012244:	f00169f8 			; <UNDEFINED> instruction: 0xf00169f8
f0012248:	c003a55c 	andgt	sl, r3, ip, asr r5

f001224c <_ZNK16CSegment_Display4ReadEv>:
_ZNK16CSegment_Display4ReadEv():
/mnt/c/Users/Kuba/Documents/School/ZeroMate/examples/16-paging_userspace/kernel/src/drivers/segmentdisplay.cpp:173

char CSegment_Display::Read() const
{
f001224c:	e52db004 	push	{fp}		; (str fp, [sp, #-4]!)
f0012250:	e28db000 	add	fp, sp, #0
f0012254:	e24dd00c 	sub	sp, sp, #12
f0012258:	e50b0008 	str	r0, [fp, #-8]
/mnt/c/Users/Kuba/Documents/School/ZeroMate/examples/16-paging_userspace/kernel/src/drivers/segmentdisplay.cpp:174
    if (!mOpened)
f001225c:	e51b3008 	ldr	r3, [fp, #-8]
f0012260:	e5d33000 	ldrb	r3, [r3]
f0012264:	e2233001 	eor	r3, r3, #1
f0012268:	e6ef3073 	uxtb	r3, r3
f001226c:	e3530000 	cmp	r3, #0
f0012270:	0a000001 	beq	f001227c <_ZNK16CSegment_Display4ReadEv+0x30>
/mnt/c/Users/Kuba/Documents/School/ZeroMate/examples/16-paging_userspace/kernel/src/drivers/segmentdisplay.cpp:175
        return '\0';
f0012274:	e3a03000 	mov	r3, #0
f0012278:	ea000001 	b	f0012284 <_ZNK16CSegment_Display4ReadEv+0x38>
/mnt/c/Users/Kuba/Documents/School/ZeroMate/examples/16-paging_userspace/kernel/src/drivers/segmentdisplay.cpp:177

    return mOutput;
f001227c:	e51b3008 	ldr	r3, [fp, #-8]
f0012280:	e5d33001 	ldrb	r3, [r3, #1]
/mnt/c/Users/Kuba/Documents/School/ZeroMate/examples/16-paging_userspace/kernel/src/drivers/segmentdisplay.cpp:178
f0012284:	e1a00003 	mov	r0, r3
f0012288:	e28bd000 	add	sp, fp, #0
f001228c:	e49db004 	pop	{fp}		; (ldr fp, [sp], #4)
f0012290:	e12fff1e 	bx	lr

f0012294 <_Z41__static_initialization_and_destruction_0ii>:
_Z41__static_initialization_and_destruction_0ii():
/mnt/c/Users/Kuba/Documents/School/ZeroMate/examples/16-paging_userspace/kernel/src/drivers/segmentdisplay.cpp:178
f0012294:	e92d4800 	push	{fp, lr}
f0012298:	e28db004 	add	fp, sp, #4
f001229c:	e24dd008 	sub	sp, sp, #8
f00122a0:	e50b0008 	str	r0, [fp, #-8]
f00122a4:	e50b100c 	str	r1, [fp, #-12]
f00122a8:	e51b3008 	ldr	r3, [fp, #-8]
f00122ac:	e3530001 	cmp	r3, #1
f00122b0:	1a000005 	bne	f00122cc <_Z41__static_initialization_and_destruction_0ii+0x38>
/mnt/c/Users/Kuba/Documents/School/ZeroMate/examples/16-paging_userspace/kernel/src/drivers/segmentdisplay.cpp:178 (discriminator 1)
f00122b4:	e51b300c 	ldr	r3, [fp, #-12]
f00122b8:	e59f2018 	ldr	r2, [pc, #24]	; f00122d8 <_Z41__static_initialization_and_destruction_0ii+0x44>
f00122bc:	e1530002 	cmp	r3, r2
f00122c0:	1a000001 	bne	f00122cc <_Z41__static_initialization_and_destruction_0ii+0x38>
/mnt/c/Users/Kuba/Documents/School/ZeroMate/examples/16-paging_userspace/kernel/src/drivers/segmentdisplay.cpp:3
CSegment_Display sSegment_Display;
f00122c4:	e59f0010 	ldr	r0, [pc, #16]	; f00122dc <_Z41__static_initialization_and_destruction_0ii+0x48>
f00122c8:	ebffff72 	bl	f0012098 <_ZN16CSegment_DisplayC1Ev>
/mnt/c/Users/Kuba/Documents/School/ZeroMate/examples/16-paging_userspace/kernel/src/drivers/segmentdisplay.cpp:178
f00122cc:	e320f000 	nop	{0}
f00122d0:	e24bd004 	sub	sp, fp, #4
f00122d4:	e8bd8800 	pop	{fp, pc}
f00122d8:	0000ffff 	strdeq	pc, [r0], -pc	; <UNPREDICTABLE>
f00122dc:	c003a558 	andgt	sl, r3, r8, asr r5

f00122e0 <_GLOBAL__sub_I_sSegment_Display>:
_GLOBAL__sub_I_sSegment_Display():
/mnt/c/Users/Kuba/Documents/School/ZeroMate/examples/16-paging_userspace/kernel/src/drivers/segmentdisplay.cpp:178
f00122e0:	e92d4800 	push	{fp, lr}
f00122e4:	e28db004 	add	fp, sp, #4
f00122e8:	e59f1008 	ldr	r1, [pc, #8]	; f00122f8 <_GLOBAL__sub_I_sSegment_Display+0x18>
f00122ec:	e3a00001 	mov	r0, #1
f00122f0:	ebffffe7 	bl	f0012294 <_Z41__static_initialization_and_destruction_0ii>
f00122f4:	e8bd8800 	pop	{fp, pc}
f00122f8:	0000ffff 	strdeq	pc, [r0], -pc	; <UNPREDICTABLE>

f00122fc <_ZN15CShift_RegisterC1Ejjj>:
_ZN15CShift_RegisterC2Ejjj():
/mnt/c/Users/Kuba/Documents/School/ZeroMate/examples/16-paging_userspace/kernel/src/drivers/shiftregister.cpp:6
#include <drivers/shiftregister.h>

// na tvrdo definujeme, ze jsme shift registr pripojili sem - volitelne muzeme pak oddelit do nejake HAL vrstvy pro dany header
CShift_Register sShift_Register(2, 3, 4);

CShift_Register::CShift_Register(uint32_t latchPin, uint32_t dataPin, uint32_t clockPin)
f00122fc:	e52db004 	push	{fp}		; (str fp, [sp, #-4]!)
f0012300:	e28db000 	add	fp, sp, #0
f0012304:	e24dd014 	sub	sp, sp, #20
f0012308:	e50b0008 	str	r0, [fp, #-8]
f001230c:	e50b100c 	str	r1, [fp, #-12]
f0012310:	e50b2010 	str	r2, [fp, #-16]
f0012314:	e50b3014 	str	r3, [fp, #-20]	; 0xffffffec
/mnt/c/Users/Kuba/Documents/School/ZeroMate/examples/16-paging_userspace/kernel/src/drivers/shiftregister.cpp:7
    : mLatch_Pin(latchPin), mData_Pin(dataPin), mClock_Pin(clockPin)
f0012318:	e51b3008 	ldr	r3, [fp, #-8]
f001231c:	e51b200c 	ldr	r2, [fp, #-12]
f0012320:	e5832000 	str	r2, [r3]
f0012324:	e51b3008 	ldr	r3, [fp, #-8]
f0012328:	e51b2010 	ldr	r2, [fp, #-16]
f001232c:	e5832004 	str	r2, [r3, #4]
f0012330:	e51b3008 	ldr	r3, [fp, #-8]
f0012334:	e51b2014 	ldr	r2, [fp, #-20]	; 0xffffffec
f0012338:	e5832008 	str	r2, [r3, #8]
/mnt/c/Users/Kuba/Documents/School/ZeroMate/examples/16-paging_userspace/kernel/src/drivers/shiftregister.cpp:10
{
    //
}
f001233c:	e51b3008 	ldr	r3, [fp, #-8]
f0012340:	e1a00003 	mov	r0, r3
f0012344:	e28bd000 	add	sp, fp, #0
f0012348:	e49db004 	pop	{fp}		; (ldr fp, [sp], #4)
f001234c:	e12fff1e 	bx	lr

f0012350 <_ZN15CShift_Register4OpenEv>:
_ZN15CShift_Register4OpenEv():
/mnt/c/Users/Kuba/Documents/School/ZeroMate/examples/16-paging_userspace/kernel/src/drivers/shiftregister.cpp:13

bool CShift_Register::Open()
{
f0012350:	e92d4800 	push	{fp, lr}
f0012354:	e28db004 	add	fp, sp, #4
f0012358:	e24dd008 	sub	sp, sp, #8
f001235c:	e50b0008 	str	r0, [fp, #-8]
/mnt/c/Users/Kuba/Documents/School/ZeroMate/examples/16-paging_userspace/kernel/src/drivers/shiftregister.cpp:14
    if (mOpened)
f0012360:	e51b3008 	ldr	r3, [fp, #-8]
f0012364:	e5d3300c 	ldrb	r3, [r3, #12]
f0012368:	e3530000 	cmp	r3, #0
f001236c:	0a000001 	beq	f0012378 <_ZN15CShift_Register4OpenEv+0x28>
/mnt/c/Users/Kuba/Documents/School/ZeroMate/examples/16-paging_userspace/kernel/src/drivers/shiftregister.cpp:15
        return false;
f0012370:	e3a03000 	mov	r3, #0
f0012374:	ea00004e 	b	f00124b4 <_ZN15CShift_Register4OpenEv+0x164>
/mnt/c/Users/Kuba/Documents/School/ZeroMate/examples/16-paging_userspace/kernel/src/drivers/shiftregister.cpp:19

    // rezervujeme vsechny piny pro shift registr

    if (!sGPIO.Reserve_Pin(mLatch_Pin, true, true))
f0012378:	e51b3008 	ldr	r3, [fp, #-8]
f001237c:	e5931000 	ldr	r1, [r3]
f0012380:	e3a03001 	mov	r3, #1
f0012384:	e3a02001 	mov	r2, #1
f0012388:	e59f0130 	ldr	r0, [pc, #304]	; f00124c0 <_ZN15CShift_Register4OpenEv+0x170>
f001238c:	ebfffc8a 	bl	f00115bc <_ZN13CGPIO_Handler11Reserve_PinEjbb>
f0012390:	e1a03000 	mov	r3, r0
f0012394:	e2233001 	eor	r3, r3, #1
f0012398:	e6ef3073 	uxtb	r3, r3
f001239c:	e3530000 	cmp	r3, #0
f00123a0:	0a000001 	beq	f00123ac <_ZN15CShift_Register4OpenEv+0x5c>
/mnt/c/Users/Kuba/Documents/School/ZeroMate/examples/16-paging_userspace/kernel/src/drivers/shiftregister.cpp:20
        return false;
f00123a4:	e3a03000 	mov	r3, #0
f00123a8:	ea000041 	b	f00124b4 <_ZN15CShift_Register4OpenEv+0x164>
/mnt/c/Users/Kuba/Documents/School/ZeroMate/examples/16-paging_userspace/kernel/src/drivers/shiftregister.cpp:22

    if (!sGPIO.Reserve_Pin(mData_Pin, true, true))
f00123ac:	e51b3008 	ldr	r3, [fp, #-8]
f00123b0:	e5931004 	ldr	r1, [r3, #4]
f00123b4:	e3a03001 	mov	r3, #1
f00123b8:	e3a02001 	mov	r2, #1
f00123bc:	e59f00fc 	ldr	r0, [pc, #252]	; f00124c0 <_ZN15CShift_Register4OpenEv+0x170>
f00123c0:	ebfffc7d 	bl	f00115bc <_ZN13CGPIO_Handler11Reserve_PinEjbb>
f00123c4:	e1a03000 	mov	r3, r0
f00123c8:	e2233001 	eor	r3, r3, #1
f00123cc:	e6ef3073 	uxtb	r3, r3
f00123d0:	e3530000 	cmp	r3, #0
f00123d4:	0a000007 	beq	f00123f8 <_ZN15CShift_Register4OpenEv+0xa8>
/mnt/c/Users/Kuba/Documents/School/ZeroMate/examples/16-paging_userspace/kernel/src/drivers/shiftregister.cpp:24
    {
        sGPIO.Free_Pin(mLatch_Pin, true, true);
f00123d8:	e51b3008 	ldr	r3, [fp, #-8]
f00123dc:	e5931000 	ldr	r1, [r3]
f00123e0:	e3a03001 	mov	r3, #1
f00123e4:	e3a02001 	mov	r2, #1
f00123e8:	e59f00d0 	ldr	r0, [pc, #208]	; f00124c0 <_ZN15CShift_Register4OpenEv+0x170>
f00123ec:	ebfffcd8 	bl	f0011754 <_ZN13CGPIO_Handler8Free_PinEjbb>
/mnt/c/Users/Kuba/Documents/School/ZeroMate/examples/16-paging_userspace/kernel/src/drivers/shiftregister.cpp:25
        return false;
f00123f0:	e3a03000 	mov	r3, #0
f00123f4:	ea00002e 	b	f00124b4 <_ZN15CShift_Register4OpenEv+0x164>
/mnt/c/Users/Kuba/Documents/School/ZeroMate/examples/16-paging_userspace/kernel/src/drivers/shiftregister.cpp:28
    }

    if (!sGPIO.Reserve_Pin(mClock_Pin, true, true))
f00123f8:	e51b3008 	ldr	r3, [fp, #-8]
f00123fc:	e5931008 	ldr	r1, [r3, #8]
f0012400:	e3a03001 	mov	r3, #1
f0012404:	e3a02001 	mov	r2, #1
f0012408:	e59f00b0 	ldr	r0, [pc, #176]	; f00124c0 <_ZN15CShift_Register4OpenEv+0x170>
f001240c:	ebfffc6a 	bl	f00115bc <_ZN13CGPIO_Handler11Reserve_PinEjbb>
f0012410:	e1a03000 	mov	r3, r0
f0012414:	e2233001 	eor	r3, r3, #1
f0012418:	e6ef3073 	uxtb	r3, r3
f001241c:	e3530000 	cmp	r3, #0
f0012420:	0a00000d 	beq	f001245c <_ZN15CShift_Register4OpenEv+0x10c>
/mnt/c/Users/Kuba/Documents/School/ZeroMate/examples/16-paging_userspace/kernel/src/drivers/shiftregister.cpp:30
    {
        sGPIO.Free_Pin(mLatch_Pin, true, true);
f0012424:	e51b3008 	ldr	r3, [fp, #-8]
f0012428:	e5931000 	ldr	r1, [r3]
f001242c:	e3a03001 	mov	r3, #1
f0012430:	e3a02001 	mov	r2, #1
f0012434:	e59f0084 	ldr	r0, [pc, #132]	; f00124c0 <_ZN15CShift_Register4OpenEv+0x170>
f0012438:	ebfffcc5 	bl	f0011754 <_ZN13CGPIO_Handler8Free_PinEjbb>
/mnt/c/Users/Kuba/Documents/School/ZeroMate/examples/16-paging_userspace/kernel/src/drivers/shiftregister.cpp:31
        sGPIO.Free_Pin(mData_Pin, true, true);
f001243c:	e51b3008 	ldr	r3, [fp, #-8]
f0012440:	e5931004 	ldr	r1, [r3, #4]
f0012444:	e3a03001 	mov	r3, #1
f0012448:	e3a02001 	mov	r2, #1
f001244c:	e59f006c 	ldr	r0, [pc, #108]	; f00124c0 <_ZN15CShift_Register4OpenEv+0x170>
f0012450:	ebfffcbf 	bl	f0011754 <_ZN13CGPIO_Handler8Free_PinEjbb>
/mnt/c/Users/Kuba/Documents/School/ZeroMate/examples/16-paging_userspace/kernel/src/drivers/shiftregister.cpp:32
        return false;
f0012454:	e3a03000 	mov	r3, #0
f0012458:	ea000015 	b	f00124b4 <_ZN15CShift_Register4OpenEv+0x164>
/mnt/c/Users/Kuba/Documents/School/ZeroMate/examples/16-paging_userspace/kernel/src/drivers/shiftregister.cpp:36
    }

    // vsechny jsou vystupni
    sGPIO.Set_GPIO_Function(mLatch_Pin, NGPIO_Function::Output);
f001245c:	e51b3008 	ldr	r3, [fp, #-8]
f0012460:	e5933000 	ldr	r3, [r3]
f0012464:	e3a02001 	mov	r2, #1
f0012468:	e1a01003 	mov	r1, r3
f001246c:	e59f004c 	ldr	r0, [pc, #76]	; f00124c0 <_ZN15CShift_Register4OpenEv+0x170>
f0012470:	ebfffbab 	bl	f0011324 <_ZN13CGPIO_Handler17Set_GPIO_FunctionEj14NGPIO_Function>
/mnt/c/Users/Kuba/Documents/School/ZeroMate/examples/16-paging_userspace/kernel/src/drivers/shiftregister.cpp:37
    sGPIO.Set_GPIO_Function(mData_Pin, NGPIO_Function::Output);
f0012474:	e51b3008 	ldr	r3, [fp, #-8]
f0012478:	e5933004 	ldr	r3, [r3, #4]
f001247c:	e3a02001 	mov	r2, #1
f0012480:	e1a01003 	mov	r1, r3
f0012484:	e59f0034 	ldr	r0, [pc, #52]	; f00124c0 <_ZN15CShift_Register4OpenEv+0x170>
f0012488:	ebfffba5 	bl	f0011324 <_ZN13CGPIO_Handler17Set_GPIO_FunctionEj14NGPIO_Function>
/mnt/c/Users/Kuba/Documents/School/ZeroMate/examples/16-paging_userspace/kernel/src/drivers/shiftregister.cpp:38
    sGPIO.Set_GPIO_Function(mClock_Pin, NGPIO_Function::Output);
f001248c:	e51b3008 	ldr	r3, [fp, #-8]
f0012490:	e5933008 	ldr	r3, [r3, #8]
f0012494:	e3a02001 	mov	r2, #1
f0012498:	e1a01003 	mov	r1, r3
f001249c:	e59f001c 	ldr	r0, [pc, #28]	; f00124c0 <_ZN15CShift_Register4OpenEv+0x170>
f00124a0:	ebfffb9f 	bl	f0011324 <_ZN13CGPIO_Handler17Set_GPIO_FunctionEj14NGPIO_Function>
/mnt/c/Users/Kuba/Documents/School/ZeroMate/examples/16-paging_userspace/kernel/src/drivers/shiftregister.cpp:40

    mOpened = true;
f00124a4:	e51b3008 	ldr	r3, [fp, #-8]
f00124a8:	e3a02001 	mov	r2, #1
f00124ac:	e5c3200c 	strb	r2, [r3, #12]
/mnt/c/Users/Kuba/Documents/School/ZeroMate/examples/16-paging_userspace/kernel/src/drivers/shiftregister.cpp:42

    return true;
f00124b0:	e3a03001 	mov	r3, #1
/mnt/c/Users/Kuba/Documents/School/ZeroMate/examples/16-paging_userspace/kernel/src/drivers/shiftregister.cpp:43
}
f00124b4:	e1a00003 	mov	r0, r3
f00124b8:	e24bd004 	sub	sp, fp, #4
f00124bc:	e8bd8800 	pop	{fp, pc}
f00124c0:	c003a51c 	andgt	sl, r3, ip, lsl r5

f00124c4 <_ZN15CShift_Register5CloseEv>:
_ZN15CShift_Register5CloseEv():
/mnt/c/Users/Kuba/Documents/School/ZeroMate/examples/16-paging_userspace/kernel/src/drivers/shiftregister.cpp:46

void CShift_Register::Close()
{
f00124c4:	e92d4800 	push	{fp, lr}
f00124c8:	e28db004 	add	fp, sp, #4
f00124cc:	e24dd008 	sub	sp, sp, #8
f00124d0:	e50b0008 	str	r0, [fp, #-8]
/mnt/c/Users/Kuba/Documents/School/ZeroMate/examples/16-paging_userspace/kernel/src/drivers/shiftregister.cpp:47
    if (!mOpened)
f00124d4:	e51b3008 	ldr	r3, [fp, #-8]
f00124d8:	e5d3300c 	ldrb	r3, [r3, #12]
f00124dc:	e2233001 	eor	r3, r3, #1
f00124e0:	e6ef3073 	uxtb	r3, r3
f00124e4:	e3530000 	cmp	r3, #0
f00124e8:	1a000027 	bne	f001258c <_ZN15CShift_Register5CloseEv+0xc8>
/mnt/c/Users/Kuba/Documents/School/ZeroMate/examples/16-paging_userspace/kernel/src/drivers/shiftregister.cpp:51
        return;

    // prepneme piny na vstupni (setreni energii)
    sGPIO.Set_GPIO_Function(mLatch_Pin, NGPIO_Function::Input);
f00124ec:	e51b3008 	ldr	r3, [fp, #-8]
f00124f0:	e5933000 	ldr	r3, [r3]
f00124f4:	e3a02000 	mov	r2, #0
f00124f8:	e1a01003 	mov	r1, r3
f00124fc:	e59f0094 	ldr	r0, [pc, #148]	; f0012598 <_ZN15CShift_Register5CloseEv+0xd4>
f0012500:	ebfffb87 	bl	f0011324 <_ZN13CGPIO_Handler17Set_GPIO_FunctionEj14NGPIO_Function>
/mnt/c/Users/Kuba/Documents/School/ZeroMate/examples/16-paging_userspace/kernel/src/drivers/shiftregister.cpp:52
    sGPIO.Set_GPIO_Function(mData_Pin, NGPIO_Function::Input);
f0012504:	e51b3008 	ldr	r3, [fp, #-8]
f0012508:	e5933004 	ldr	r3, [r3, #4]
f001250c:	e3a02000 	mov	r2, #0
f0012510:	e1a01003 	mov	r1, r3
f0012514:	e59f007c 	ldr	r0, [pc, #124]	; f0012598 <_ZN15CShift_Register5CloseEv+0xd4>
f0012518:	ebfffb81 	bl	f0011324 <_ZN13CGPIO_Handler17Set_GPIO_FunctionEj14NGPIO_Function>
/mnt/c/Users/Kuba/Documents/School/ZeroMate/examples/16-paging_userspace/kernel/src/drivers/shiftregister.cpp:53
    sGPIO.Set_GPIO_Function(mClock_Pin, NGPIO_Function::Input);
f001251c:	e51b3008 	ldr	r3, [fp, #-8]
f0012520:	e5933008 	ldr	r3, [r3, #8]
f0012524:	e3a02000 	mov	r2, #0
f0012528:	e1a01003 	mov	r1, r3
f001252c:	e59f0064 	ldr	r0, [pc, #100]	; f0012598 <_ZN15CShift_Register5CloseEv+0xd4>
f0012530:	ebfffb7b 	bl	f0011324 <_ZN13CGPIO_Handler17Set_GPIO_FunctionEj14NGPIO_Function>
/mnt/c/Users/Kuba/Documents/School/ZeroMate/examples/16-paging_userspace/kernel/src/drivers/shiftregister.cpp:56

    // a vratime je
    sGPIO.Free_Pin(mLatch_Pin, true, true);
f0012534:	e51b3008 	ldr	r3, [fp, #-8]
f0012538:	e5931000 	ldr	r1, [r3]
f001253c:	e3a03001 	mov	r3, #1
f0012540:	e3a02001 	mov	r2, #1
f0012544:	e59f004c 	ldr	r0, [pc, #76]	; f0012598 <_ZN15CShift_Register5CloseEv+0xd4>
f0012548:	ebfffc81 	bl	f0011754 <_ZN13CGPIO_Handler8Free_PinEjbb>
/mnt/c/Users/Kuba/Documents/School/ZeroMate/examples/16-paging_userspace/kernel/src/drivers/shiftregister.cpp:57
    sGPIO.Free_Pin(mData_Pin, true, true);
f001254c:	e51b3008 	ldr	r3, [fp, #-8]
f0012550:	e5931004 	ldr	r1, [r3, #4]
f0012554:	e3a03001 	mov	r3, #1
f0012558:	e3a02001 	mov	r2, #1
f001255c:	e59f0034 	ldr	r0, [pc, #52]	; f0012598 <_ZN15CShift_Register5CloseEv+0xd4>
f0012560:	ebfffc7b 	bl	f0011754 <_ZN13CGPIO_Handler8Free_PinEjbb>
/mnt/c/Users/Kuba/Documents/School/ZeroMate/examples/16-paging_userspace/kernel/src/drivers/shiftregister.cpp:58
    sGPIO.Free_Pin(mClock_Pin, true, true);
f0012564:	e51b3008 	ldr	r3, [fp, #-8]
f0012568:	e5931008 	ldr	r1, [r3, #8]
f001256c:	e3a03001 	mov	r3, #1
f0012570:	e3a02001 	mov	r2, #1
f0012574:	e59f001c 	ldr	r0, [pc, #28]	; f0012598 <_ZN15CShift_Register5CloseEv+0xd4>
f0012578:	ebfffc75 	bl	f0011754 <_ZN13CGPIO_Handler8Free_PinEjbb>
/mnt/c/Users/Kuba/Documents/School/ZeroMate/examples/16-paging_userspace/kernel/src/drivers/shiftregister.cpp:60

    mOpened = false;
f001257c:	e51b3008 	ldr	r3, [fp, #-8]
f0012580:	e3a02000 	mov	r2, #0
f0012584:	e5c3200c 	strb	r2, [r3, #12]
f0012588:	ea000000 	b	f0012590 <_ZN15CShift_Register5CloseEv+0xcc>
/mnt/c/Users/Kuba/Documents/School/ZeroMate/examples/16-paging_userspace/kernel/src/drivers/shiftregister.cpp:48
        return;
f001258c:	e320f000 	nop	{0}
/mnt/c/Users/Kuba/Documents/School/ZeroMate/examples/16-paging_userspace/kernel/src/drivers/shiftregister.cpp:61
}
f0012590:	e24bd004 	sub	sp, fp, #4
f0012594:	e8bd8800 	pop	{fp, pc}
f0012598:	c003a51c 	andgt	sl, r3, ip, lsl r5

f001259c <_ZNK15CShift_Register9Is_OpenedEv>:
_ZNK15CShift_Register9Is_OpenedEv():
/mnt/c/Users/Kuba/Documents/School/ZeroMate/examples/16-paging_userspace/kernel/src/drivers/shiftregister.cpp:64

bool CShift_Register::Is_Opened() const
{
f001259c:	e52db004 	push	{fp}		; (str fp, [sp, #-4]!)
f00125a0:	e28db000 	add	fp, sp, #0
f00125a4:	e24dd00c 	sub	sp, sp, #12
f00125a8:	e50b0008 	str	r0, [fp, #-8]
/mnt/c/Users/Kuba/Documents/School/ZeroMate/examples/16-paging_userspace/kernel/src/drivers/shiftregister.cpp:65
    return mOpened;
f00125ac:	e51b3008 	ldr	r3, [fp, #-8]
f00125b0:	e5d3300c 	ldrb	r3, [r3, #12]
/mnt/c/Users/Kuba/Documents/School/ZeroMate/examples/16-paging_userspace/kernel/src/drivers/shiftregister.cpp:66
}
f00125b4:	e1a00003 	mov	r0, r3
f00125b8:	e28bd000 	add	sp, fp, #0
f00125bc:	e49db004 	pop	{fp}		; (ldr fp, [sp], #4)
f00125c0:	e12fff1e 	bx	lr

f00125c4 <_ZN15CShift_Register8Shift_InEb>:
_ZN15CShift_Register8Shift_InEb():
/mnt/c/Users/Kuba/Documents/School/ZeroMate/examples/16-paging_userspace/kernel/src/drivers/shiftregister.cpp:69

void CShift_Register::Shift_In(bool bit)
{
f00125c4:	e92d4800 	push	{fp, lr}
f00125c8:	e28db004 	add	fp, sp, #4
f00125cc:	e24dd010 	sub	sp, sp, #16
f00125d0:	e50b0010 	str	r0, [fp, #-16]
f00125d4:	e1a03001 	mov	r3, r1
f00125d8:	e54b3011 	strb	r3, [fp, #-17]	; 0xffffffef
/mnt/c/Users/Kuba/Documents/School/ZeroMate/examples/16-paging_userspace/kernel/src/drivers/shiftregister.cpp:70
    if (!mOpened)
f00125dc:	e51b3010 	ldr	r3, [fp, #-16]
f00125e0:	e5d3300c 	ldrb	r3, [r3, #12]
f00125e4:	e2233001 	eor	r3, r3, #1
f00125e8:	e6ef3073 	uxtb	r3, r3
f00125ec:	e3530000 	cmp	r3, #0
f00125f0:	1a000038 	bne	f00126d8 <_ZN15CShift_Register8Shift_InEb+0x114>
/mnt/c/Users/Kuba/Documents/School/ZeroMate/examples/16-paging_userspace/kernel/src/drivers/shiftregister.cpp:76
        return;

    volatile int i;

    // budeme nahravat bity do banku
    sGPIO.Set_Output(mLatch_Pin, false);
f00125f4:	e51b3010 	ldr	r3, [fp, #-16]
f00125f8:	e5933000 	ldr	r3, [r3]
f00125fc:	e3a02000 	mov	r2, #0
f0012600:	e1a01003 	mov	r1, r3
f0012604:	e59f00d8 	ldr	r0, [pc, #216]	; f00126e4 <_ZN15CShift_Register8Shift_InEb+0x120>
f0012608:	ebfffb94 	bl	f0011460 <_ZN13CGPIO_Handler10Set_OutputEjb>
/mnt/c/Users/Kuba/Documents/School/ZeroMate/examples/16-paging_userspace/kernel/src/drivers/shiftregister.cpp:79

    // nastavime bit
    sGPIO.Set_Output(mData_Pin, bit);
f001260c:	e51b3010 	ldr	r3, [fp, #-16]
f0012610:	e5933004 	ldr	r3, [r3, #4]
f0012614:	e55b2011 	ldrb	r2, [fp, #-17]	; 0xffffffef
f0012618:	e1a01003 	mov	r1, r3
f001261c:	e59f00c0 	ldr	r0, [pc, #192]	; f00126e4 <_ZN15CShift_Register8Shift_InEb+0x120>
f0012620:	ebfffb8e 	bl	f0011460 <_ZN13CGPIO_Handler10Set_OutputEjb>
/mnt/c/Users/Kuba/Documents/School/ZeroMate/examples/16-paging_userspace/kernel/src/drivers/shiftregister.cpp:81
    // clock -> shift registr nasune bit ze vstupu do banku
    sGPIO.Set_Output(mClock_Pin, true);
f0012624:	e51b3010 	ldr	r3, [fp, #-16]
f0012628:	e5933008 	ldr	r3, [r3, #8]
f001262c:	e3a02001 	mov	r2, #1
f0012630:	e1a01003 	mov	r1, r3
f0012634:	e59f00a8 	ldr	r0, [pc, #168]	; f00126e4 <_ZN15CShift_Register8Shift_InEb+0x120>
f0012638:	ebfffb88 	bl	f0011460 <_ZN13CGPIO_Handler10Set_OutputEjb>
/mnt/c/Users/Kuba/Documents/School/ZeroMate/examples/16-paging_userspace/kernel/src/drivers/shiftregister.cpp:84

    // pockat par milisekund
    for (i = 0; i < 0x4000; i++)
f001263c:	e3a03000 	mov	r3, #0
f0012640:	e50b3008 	str	r3, [fp, #-8]
/mnt/c/Users/Kuba/Documents/School/ZeroMate/examples/16-paging_userspace/kernel/src/drivers/shiftregister.cpp:84 (discriminator 3)
f0012644:	e51b3008 	ldr	r3, [fp, #-8]
f0012648:	e3530901 	cmp	r3, #16384	; 0x4000
f001264c:	b3a03001 	movlt	r3, #1
f0012650:	a3a03000 	movge	r3, #0
f0012654:	e6ef3073 	uxtb	r3, r3
f0012658:	e3530000 	cmp	r3, #0
f001265c:	0a000003 	beq	f0012670 <_ZN15CShift_Register8Shift_InEb+0xac>
/mnt/c/Users/Kuba/Documents/School/ZeroMate/examples/16-paging_userspace/kernel/src/drivers/shiftregister.cpp:84 (discriminator 2)
f0012660:	e51b3008 	ldr	r3, [fp, #-8]
f0012664:	e2833001 	add	r3, r3, #1
f0012668:	e50b3008 	str	r3, [fp, #-8]
f001266c:	eafffff4 	b	f0012644 <_ZN15CShift_Register8Shift_InEb+0x80>
/mnt/c/Users/Kuba/Documents/School/ZeroMate/examples/16-paging_userspace/kernel/src/drivers/shiftregister.cpp:88
        ;

    // vratit clock zpatky
    sGPIO.Set_Output(mClock_Pin, false);
f0012670:	e51b3010 	ldr	r3, [fp, #-16]
f0012674:	e5933008 	ldr	r3, [r3, #8]
f0012678:	e3a02000 	mov	r2, #0
f001267c:	e1a01003 	mov	r1, r3
f0012680:	e59f005c 	ldr	r0, [pc, #92]	; f00126e4 <_ZN15CShift_Register8Shift_InEb+0x120>
f0012684:	ebfffb75 	bl	f0011460 <_ZN13CGPIO_Handler10Set_OutputEjb>
/mnt/c/Users/Kuba/Documents/School/ZeroMate/examples/16-paging_userspace/kernel/src/drivers/shiftregister.cpp:91

    // pockat par milisekund
    for (i = 0; i < 0x4000; i++)
f0012688:	e3a03000 	mov	r3, #0
f001268c:	e50b3008 	str	r3, [fp, #-8]
/mnt/c/Users/Kuba/Documents/School/ZeroMate/examples/16-paging_userspace/kernel/src/drivers/shiftregister.cpp:91 (discriminator 3)
f0012690:	e51b3008 	ldr	r3, [fp, #-8]
f0012694:	e3530901 	cmp	r3, #16384	; 0x4000
f0012698:	b3a03001 	movlt	r3, #1
f001269c:	a3a03000 	movge	r3, #0
f00126a0:	e6ef3073 	uxtb	r3, r3
f00126a4:	e3530000 	cmp	r3, #0
f00126a8:	0a000003 	beq	f00126bc <_ZN15CShift_Register8Shift_InEb+0xf8>
/mnt/c/Users/Kuba/Documents/School/ZeroMate/examples/16-paging_userspace/kernel/src/drivers/shiftregister.cpp:91 (discriminator 2)
f00126ac:	e51b3008 	ldr	r3, [fp, #-8]
f00126b0:	e2833001 	add	r3, r3, #1
f00126b4:	e50b3008 	str	r3, [fp, #-8]
f00126b8:	eafffff4 	b	f0012690 <_ZN15CShift_Register8Shift_InEb+0xcc>
/mnt/c/Users/Kuba/Documents/School/ZeroMate/examples/16-paging_userspace/kernel/src/drivers/shiftregister.cpp:95
        ;

    // propiseme bank do vystupu
    sGPIO.Set_Output(mLatch_Pin, true);
f00126bc:	e51b3010 	ldr	r3, [fp, #-16]
f00126c0:	e5933000 	ldr	r3, [r3]
f00126c4:	e3a02001 	mov	r2, #1
f00126c8:	e1a01003 	mov	r1, r3
f00126cc:	e59f0010 	ldr	r0, [pc, #16]	; f00126e4 <_ZN15CShift_Register8Shift_InEb+0x120>
f00126d0:	ebfffb62 	bl	f0011460 <_ZN13CGPIO_Handler10Set_OutputEjb>
f00126d4:	ea000000 	b	f00126dc <_ZN15CShift_Register8Shift_InEb+0x118>
/mnt/c/Users/Kuba/Documents/School/ZeroMate/examples/16-paging_userspace/kernel/src/drivers/shiftregister.cpp:71
        return;
f00126d8:	e320f000 	nop	{0}
/mnt/c/Users/Kuba/Documents/School/ZeroMate/examples/16-paging_userspace/kernel/src/drivers/shiftregister.cpp:96
}
f00126dc:	e24bd004 	sub	sp, fp, #4
f00126e0:	e8bd8800 	pop	{fp, pc}
f00126e4:	c003a51c 	andgt	sl, r3, ip, lsl r5

f00126e8 <_ZN15CShift_Register8Shift_InEh>:
_ZN15CShift_Register8Shift_InEh():
/mnt/c/Users/Kuba/Documents/School/ZeroMate/examples/16-paging_userspace/kernel/src/drivers/shiftregister.cpp:99

void CShift_Register::Shift_In(uint8_t byte)
{
f00126e8:	e92d4800 	push	{fp, lr}
f00126ec:	e28db004 	add	fp, sp, #4
f00126f0:	e24dd010 	sub	sp, sp, #16
f00126f4:	e50b0010 	str	r0, [fp, #-16]
f00126f8:	e1a03001 	mov	r3, r1
f00126fc:	e54b3011 	strb	r3, [fp, #-17]	; 0xffffffef
/mnt/c/Users/Kuba/Documents/School/ZeroMate/examples/16-paging_userspace/kernel/src/drivers/shiftregister.cpp:100
    if (!mOpened)
f0012700:	e51b3010 	ldr	r3, [fp, #-16]
f0012704:	e5d3300c 	ldrb	r3, [r3, #12]
f0012708:	e2233001 	eor	r3, r3, #1
f001270c:	e6ef3073 	uxtb	r3, r3
f0012710:	e3530000 	cmp	r3, #0
f0012714:	1a000048 	bne	f001283c <_ZN15CShift_Register8Shift_InEh+0x154>
/mnt/c/Users/Kuba/Documents/School/ZeroMate/examples/16-paging_userspace/kernel/src/drivers/shiftregister.cpp:106
        return;

    volatile int i;

    // zapisovat do banku
    sGPIO.Set_Output(mLatch_Pin, false);
f0012718:	e51b3010 	ldr	r3, [fp, #-16]
f001271c:	e5933000 	ldr	r3, [r3]
f0012720:	e3a02000 	mov	r2, #0
f0012724:	e1a01003 	mov	r1, r3
f0012728:	e59f0118 	ldr	r0, [pc, #280]	; f0012848 <_ZN15CShift_Register8Shift_InEh+0x160>
f001272c:	ebfffb4b 	bl	f0011460 <_ZN13CGPIO_Handler10Set_OutputEjb>
/mnt/c/Users/Kuba/Documents/School/ZeroMate/examples/16-paging_userspace/kernel/src/drivers/shiftregister.cpp:109

    // nasuneme bity od nejvyssiho po nejnizsi (aby na vystupu byly v poradi)
    for (int j = 7; j >= 0; j--)
f0012730:	e3a03007 	mov	r3, #7
f0012734:	e50b3008 	str	r3, [fp, #-8]
/mnt/c/Users/Kuba/Documents/School/ZeroMate/examples/16-paging_userspace/kernel/src/drivers/shiftregister.cpp:109 (discriminator 1)
f0012738:	e51b3008 	ldr	r3, [fp, #-8]
f001273c:	e3530000 	cmp	r3, #0
f0012740:	ba000036 	blt	f0012820 <_ZN15CShift_Register8Shift_InEh+0x138>
/mnt/c/Users/Kuba/Documents/School/ZeroMate/examples/16-paging_userspace/kernel/src/drivers/shiftregister.cpp:111
    {
        sGPIO.Set_Output(mData_Pin, ((byte >> j) & 0x1) );
f0012744:	e51b3010 	ldr	r3, [fp, #-16]
f0012748:	e5931004 	ldr	r1, [r3, #4]
f001274c:	e55b2011 	ldrb	r2, [fp, #-17]	; 0xffffffef
f0012750:	e51b3008 	ldr	r3, [fp, #-8]
f0012754:	e1a03352 	asr	r3, r2, r3
f0012758:	e2033001 	and	r3, r3, #1
f001275c:	e3530000 	cmp	r3, #0
f0012760:	13a03001 	movne	r3, #1
f0012764:	03a03000 	moveq	r3, #0
f0012768:	e6ef3073 	uxtb	r3, r3
f001276c:	e1a02003 	mov	r2, r3
f0012770:	e59f00d0 	ldr	r0, [pc, #208]	; f0012848 <_ZN15CShift_Register8Shift_InEh+0x160>
f0012774:	ebfffb39 	bl	f0011460 <_ZN13CGPIO_Handler10Set_OutputEjb>
/mnt/c/Users/Kuba/Documents/School/ZeroMate/examples/16-paging_userspace/kernel/src/drivers/shiftregister.cpp:112
        sGPIO.Set_Output(mClock_Pin, true);
f0012778:	e51b3010 	ldr	r3, [fp, #-16]
f001277c:	e5933008 	ldr	r3, [r3, #8]
f0012780:	e3a02001 	mov	r2, #1
f0012784:	e1a01003 	mov	r1, r3
f0012788:	e59f00b8 	ldr	r0, [pc, #184]	; f0012848 <_ZN15CShift_Register8Shift_InEh+0x160>
f001278c:	ebfffb33 	bl	f0011460 <_ZN13CGPIO_Handler10Set_OutputEjb>
/mnt/c/Users/Kuba/Documents/School/ZeroMate/examples/16-paging_userspace/kernel/src/drivers/shiftregister.cpp:114
        
        for (i = 0; i < 0x4000; i++)
f0012790:	e3a03000 	mov	r3, #0
f0012794:	e50b300c 	str	r3, [fp, #-12]
/mnt/c/Users/Kuba/Documents/School/ZeroMate/examples/16-paging_userspace/kernel/src/drivers/shiftregister.cpp:114 (discriminator 3)
f0012798:	e51b300c 	ldr	r3, [fp, #-12]
f001279c:	e3530901 	cmp	r3, #16384	; 0x4000
f00127a0:	b3a03001 	movlt	r3, #1
f00127a4:	a3a03000 	movge	r3, #0
f00127a8:	e6ef3073 	uxtb	r3, r3
f00127ac:	e3530000 	cmp	r3, #0
f00127b0:	0a000003 	beq	f00127c4 <_ZN15CShift_Register8Shift_InEh+0xdc>
/mnt/c/Users/Kuba/Documents/School/ZeroMate/examples/16-paging_userspace/kernel/src/drivers/shiftregister.cpp:114 (discriminator 2)
f00127b4:	e51b300c 	ldr	r3, [fp, #-12]
f00127b8:	e2833001 	add	r3, r3, #1
f00127bc:	e50b300c 	str	r3, [fp, #-12]
f00127c0:	eafffff4 	b	f0012798 <_ZN15CShift_Register8Shift_InEh+0xb0>
/mnt/c/Users/Kuba/Documents/School/ZeroMate/examples/16-paging_userspace/kernel/src/drivers/shiftregister.cpp:117
            ;

        sGPIO.Set_Output(mClock_Pin, false);
f00127c4:	e51b3010 	ldr	r3, [fp, #-16]
f00127c8:	e5933008 	ldr	r3, [r3, #8]
f00127cc:	e3a02000 	mov	r2, #0
f00127d0:	e1a01003 	mov	r1, r3
f00127d4:	e59f006c 	ldr	r0, [pc, #108]	; f0012848 <_ZN15CShift_Register8Shift_InEh+0x160>
f00127d8:	ebfffb20 	bl	f0011460 <_ZN13CGPIO_Handler10Set_OutputEjb>
/mnt/c/Users/Kuba/Documents/School/ZeroMate/examples/16-paging_userspace/kernel/src/drivers/shiftregister.cpp:119

        for (i = 0; i < 0x4000; i++)
f00127dc:	e3a03000 	mov	r3, #0
f00127e0:	e50b300c 	str	r3, [fp, #-12]
/mnt/c/Users/Kuba/Documents/School/ZeroMate/examples/16-paging_userspace/kernel/src/drivers/shiftregister.cpp:119 (discriminator 3)
f00127e4:	e51b300c 	ldr	r3, [fp, #-12]
f00127e8:	e3530901 	cmp	r3, #16384	; 0x4000
f00127ec:	b3a03001 	movlt	r3, #1
f00127f0:	a3a03000 	movge	r3, #0
f00127f4:	e6ef3073 	uxtb	r3, r3
f00127f8:	e3530000 	cmp	r3, #0
f00127fc:	0a000003 	beq	f0012810 <_ZN15CShift_Register8Shift_InEh+0x128>
/mnt/c/Users/Kuba/Documents/School/ZeroMate/examples/16-paging_userspace/kernel/src/drivers/shiftregister.cpp:119 (discriminator 2)
f0012800:	e51b300c 	ldr	r3, [fp, #-12]
f0012804:	e2833001 	add	r3, r3, #1
f0012808:	e50b300c 	str	r3, [fp, #-12]
f001280c:	eafffff4 	b	f00127e4 <_ZN15CShift_Register8Shift_InEh+0xfc>
/mnt/c/Users/Kuba/Documents/School/ZeroMate/examples/16-paging_userspace/kernel/src/drivers/shiftregister.cpp:109 (discriminator 2)
    for (int j = 7; j >= 0; j--)
f0012810:	e51b3008 	ldr	r3, [fp, #-8]
f0012814:	e2433001 	sub	r3, r3, #1
f0012818:	e50b3008 	str	r3, [fp, #-8]
f001281c:	eaffffc5 	b	f0012738 <_ZN15CShift_Register8Shift_InEh+0x50>
/mnt/c/Users/Kuba/Documents/School/ZeroMate/examples/16-paging_userspace/kernel/src/drivers/shiftregister.cpp:124
            ;
    }

    // propiseme bank na vystup
    sGPIO.Set_Output(mLatch_Pin, true);
f0012820:	e51b3010 	ldr	r3, [fp, #-16]
f0012824:	e5933000 	ldr	r3, [r3]
f0012828:	e3a02001 	mov	r2, #1
f001282c:	e1a01003 	mov	r1, r3
f0012830:	e59f0010 	ldr	r0, [pc, #16]	; f0012848 <_ZN15CShift_Register8Shift_InEh+0x160>
f0012834:	ebfffb09 	bl	f0011460 <_ZN13CGPIO_Handler10Set_OutputEjb>
f0012838:	ea000000 	b	f0012840 <_ZN15CShift_Register8Shift_InEh+0x158>
/mnt/c/Users/Kuba/Documents/School/ZeroMate/examples/16-paging_userspace/kernel/src/drivers/shiftregister.cpp:101
        return;
f001283c:	e320f000 	nop	{0}
/mnt/c/Users/Kuba/Documents/School/ZeroMate/examples/16-paging_userspace/kernel/src/drivers/shiftregister.cpp:125
f0012840:	e24bd004 	sub	sp, fp, #4
f0012844:	e8bd8800 	pop	{fp, pc}
f0012848:	c003a51c 	andgt	sl, r3, ip, lsl r5

f001284c <_Z41__static_initialization_and_destruction_0ii>:
_Z41__static_initialization_and_destruction_0ii():
/mnt/c/Users/Kuba/Documents/School/ZeroMate/examples/16-paging_userspace/kernel/src/drivers/shiftregister.cpp:125
f001284c:	e92d4800 	push	{fp, lr}
f0012850:	e28db004 	add	fp, sp, #4
f0012854:	e24dd008 	sub	sp, sp, #8
f0012858:	e50b0008 	str	r0, [fp, #-8]
f001285c:	e50b100c 	str	r1, [fp, #-12]
f0012860:	e51b3008 	ldr	r3, [fp, #-8]
f0012864:	e3530001 	cmp	r3, #1
f0012868:	1a000008 	bne	f0012890 <_Z41__static_initialization_and_destruction_0ii+0x44>
/mnt/c/Users/Kuba/Documents/School/ZeroMate/examples/16-paging_userspace/kernel/src/drivers/shiftregister.cpp:125 (discriminator 1)
f001286c:	e51b300c 	ldr	r3, [fp, #-12]
f0012870:	e59f2024 	ldr	r2, [pc, #36]	; f001289c <_Z41__static_initialization_and_destruction_0ii+0x50>
f0012874:	e1530002 	cmp	r3, r2
f0012878:	1a000004 	bne	f0012890 <_Z41__static_initialization_and_destruction_0ii+0x44>
/mnt/c/Users/Kuba/Documents/School/ZeroMate/examples/16-paging_userspace/kernel/src/drivers/shiftregister.cpp:4
CShift_Register sShift_Register(2, 3, 4);
f001287c:	e3a03004 	mov	r3, #4
f0012880:	e3a02003 	mov	r2, #3
f0012884:	e3a01002 	mov	r1, #2
f0012888:	e59f0010 	ldr	r0, [pc, #16]	; f00128a0 <_Z41__static_initialization_and_destruction_0ii+0x54>
f001288c:	ebfffe9a 	bl	f00122fc <_ZN15CShift_RegisterC1Ejjj>
/mnt/c/Users/Kuba/Documents/School/ZeroMate/examples/16-paging_userspace/kernel/src/drivers/shiftregister.cpp:125
f0012890:	e320f000 	nop	{0}
f0012894:	e24bd004 	sub	sp, fp, #4
f0012898:	e8bd8800 	pop	{fp, pc}
f001289c:	0000ffff 	strdeq	pc, [r0], -pc	; <UNPREDICTABLE>
f00128a0:	c003a55c 	andgt	sl, r3, ip, asr r5

f00128a4 <_GLOBAL__sub_I_sShift_Register>:
_GLOBAL__sub_I_sShift_Register():
/mnt/c/Users/Kuba/Documents/School/ZeroMate/examples/16-paging_userspace/kernel/src/drivers/shiftregister.cpp:125
f00128a4:	e92d4800 	push	{fp, lr}
f00128a8:	e28db004 	add	fp, sp, #4
f00128ac:	e59f1008 	ldr	r1, [pc, #8]	; f00128bc <_GLOBAL__sub_I_sShift_Register+0x18>
f00128b0:	e3a00001 	mov	r0, #1
f00128b4:	ebffffe4 	bl	f001284c <_Z41__static_initialization_and_destruction_0ii>
f00128b8:	e8bd8800 	pop	{fp, pc}
f00128bc:	0000ffff 	strdeq	pc, [r0], -pc	; <UNPREDICTABLE>

f00128c0 <_ZN6CTimerC1Em>:
_ZN6CTimerC2Em():
/mnt/c/Users/Kuba/Documents/School/ZeroMate/examples/16-paging_userspace/kernel/src/drivers/timer.cpp:26
    uint16_t unused_4 : 10;
};

#pragma pack(pop)

CTimer::CTimer(unsigned long timer_reg_base)
f00128c0:	e52db004 	push	{fp}		; (str fp, [sp, #-4]!)
f00128c4:	e28db000 	add	fp, sp, #0
f00128c8:	e24dd00c 	sub	sp, sp, #12
f00128cc:	e50b0008 	str	r0, [fp, #-8]
f00128d0:	e50b100c 	str	r1, [fp, #-12]
/mnt/c/Users/Kuba/Documents/School/ZeroMate/examples/16-paging_userspace/kernel/src/drivers/timer.cpp:27
    : mTimer_Regs(reinterpret_cast<unsigned int*>(timer_reg_base)), mCallback(nullptr)
f00128d4:	e51b200c 	ldr	r2, [fp, #-12]
f00128d8:	e51b3008 	ldr	r3, [fp, #-8]
f00128dc:	e5832000 	str	r2, [r3]
f00128e0:	e51b3008 	ldr	r3, [fp, #-8]
f00128e4:	e3a02000 	mov	r2, #0
f00128e8:	e5832004 	str	r2, [r3, #4]
/mnt/c/Users/Kuba/Documents/School/ZeroMate/examples/16-paging_userspace/kernel/src/drivers/timer.cpp:30
{
    //
}
f00128ec:	e51b3008 	ldr	r3, [fp, #-8]
f00128f0:	e1a00003 	mov	r0, r3
f00128f4:	e28bd000 	add	sp, fp, #0
f00128f8:	e49db004 	pop	{fp}		; (ldr fp, [sp], #4)
f00128fc:	e12fff1e 	bx	lr

f0012900 <_ZN6CTimer4RegsEN3hal9Timer_RegE>:
_ZN6CTimer4RegsEN3hal9Timer_RegE():
/mnt/c/Users/Kuba/Documents/School/ZeroMate/examples/16-paging_userspace/kernel/src/drivers/timer.cpp:33

volatile unsigned int& CTimer::Regs(hal::Timer_Reg reg)
{
f0012900:	e52db004 	push	{fp}		; (str fp, [sp, #-4]!)
f0012904:	e28db000 	add	fp, sp, #0
f0012908:	e24dd00c 	sub	sp, sp, #12
f001290c:	e50b0008 	str	r0, [fp, #-8]
f0012910:	e50b100c 	str	r1, [fp, #-12]
/mnt/c/Users/Kuba/Documents/School/ZeroMate/examples/16-paging_userspace/kernel/src/drivers/timer.cpp:34
    return mTimer_Regs[static_cast<unsigned int>(reg)];
f0012914:	e51b3008 	ldr	r3, [fp, #-8]
f0012918:	e5932000 	ldr	r2, [r3]
f001291c:	e51b300c 	ldr	r3, [fp, #-12]
f0012920:	e1a03103 	lsl	r3, r3, #2
f0012924:	e0823003 	add	r3, r2, r3
/mnt/c/Users/Kuba/Documents/School/ZeroMate/examples/16-paging_userspace/kernel/src/drivers/timer.cpp:35
}
f0012928:	e1a00003 	mov	r0, r3
f001292c:	e28bd000 	add	sp, fp, #0
f0012930:	e49db004 	pop	{fp}		; (ldr fp, [sp], #4)
f0012934:	e12fff1e 	bx	lr

f0012938 <_ZN6CTimer6EnableEPFvvEj16NTimer_Prescaler>:
_ZN6CTimer6EnableEPFvvEj16NTimer_Prescaler():
/mnt/c/Users/Kuba/Documents/School/ZeroMate/examples/16-paging_userspace/kernel/src/drivers/timer.cpp:38

void CTimer::Enable(TTimer_Callback callback, unsigned int delay, NTimer_Prescaler prescaler)
{
f0012938:	e92d4810 	push	{r4, fp, lr}
f001293c:	e28db008 	add	fp, sp, #8
f0012940:	e24dd01c 	sub	sp, sp, #28
f0012944:	e50b0018 	str	r0, [fp, #-24]	; 0xffffffe8
f0012948:	e50b101c 	str	r1, [fp, #-28]	; 0xffffffe4
f001294c:	e50b2020 	str	r2, [fp, #-32]	; 0xffffffe0
f0012950:	e54b3021 	strb	r3, [fp, #-33]	; 0xffffffdf
/mnt/c/Users/Kuba/Documents/School/ZeroMate/examples/16-paging_userspace/kernel/src/drivers/timer.cpp:39
    Regs(hal::Timer_Reg::Load) = delay;
f0012954:	e3a01000 	mov	r1, #0
f0012958:	e51b0018 	ldr	r0, [fp, #-24]	; 0xffffffe8
f001295c:	ebffffe7 	bl	f0012900 <_ZN6CTimer4RegsEN3hal9Timer_RegE>
f0012960:	e1a02000 	mov	r2, r0
f0012964:	e51b3020 	ldr	r3, [fp, #-32]	; 0xffffffe0
f0012968:	e5823000 	str	r3, [r2]
/mnt/c/Users/Kuba/Documents/School/ZeroMate/examples/16-paging_userspace/kernel/src/drivers/timer.cpp:42

    TTimer_Ctl_Flags reg;
    reg.counter_32b = 1;
f001296c:	e55b3014 	ldrb	r3, [fp, #-20]	; 0xffffffec
f0012970:	e3833002 	orr	r3, r3, #2
f0012974:	e54b3014 	strb	r3, [fp, #-20]	; 0xffffffec
/mnt/c/Users/Kuba/Documents/School/ZeroMate/examples/16-paging_userspace/kernel/src/drivers/timer.cpp:43
    reg.interrupt_enabled = 1;
f0012978:	e55b3014 	ldrb	r3, [fp, #-20]	; 0xffffffec
f001297c:	e3833020 	orr	r3, r3, #32
f0012980:	e54b3014 	strb	r3, [fp, #-20]	; 0xffffffec
/mnt/c/Users/Kuba/Documents/School/ZeroMate/examples/16-paging_userspace/kernel/src/drivers/timer.cpp:44
    reg.timer_enabled = 1;
f0012984:	e55b3014 	ldrb	r3, [fp, #-20]	; 0xffffffec
f0012988:	e3833080 	orr	r3, r3, #128	; 0x80
f001298c:	e54b3014 	strb	r3, [fp, #-20]	; 0xffffffec
/mnt/c/Users/Kuba/Documents/School/ZeroMate/examples/16-paging_userspace/kernel/src/drivers/timer.cpp:45
    reg.prescaler = static_cast<uint8_t>(prescaler);
f0012990:	e55b3021 	ldrb	r3, [fp, #-33]	; 0xffffffdf
f0012994:	e2033003 	and	r3, r3, #3
f0012998:	e6ef3073 	uxtb	r3, r3
f001299c:	e55b2014 	ldrb	r2, [fp, #-20]	; 0xffffffec
f00129a0:	e2033003 	and	r3, r3, #3
f00129a4:	e3c2200c 	bic	r2, r2, #12
f00129a8:	e1a03103 	lsl	r3, r3, #2
f00129ac:	e1833002 	orr	r3, r3, r2
f00129b0:	e1a02003 	mov	r2, r3
f00129b4:	e54b2014 	strb	r2, [fp, #-20]	; 0xffffffec
/mnt/c/Users/Kuba/Documents/School/ZeroMate/examples/16-paging_userspace/kernel/src/drivers/timer.cpp:47

    Regs(hal::Timer_Reg::Control) = *reinterpret_cast<unsigned int*>(&reg);
f00129b8:	e24b4014 	sub	r4, fp, #20
f00129bc:	e3a01002 	mov	r1, #2
f00129c0:	e51b0018 	ldr	r0, [fp, #-24]	; 0xffffffe8
f00129c4:	ebffffcd 	bl	f0012900 <_ZN6CTimer4RegsEN3hal9Timer_RegE>
f00129c8:	e1a02000 	mov	r2, r0
f00129cc:	e5943000 	ldr	r3, [r4]
f00129d0:	e5823000 	str	r3, [r2]
/mnt/c/Users/Kuba/Documents/School/ZeroMate/examples/16-paging_userspace/kernel/src/drivers/timer.cpp:49
   
    Regs(hal::Timer_Reg::IRQ_Clear) = 1;
f00129d4:	e3a01003 	mov	r1, #3
f00129d8:	e51b0018 	ldr	r0, [fp, #-24]	; 0xffffffe8
f00129dc:	ebffffc7 	bl	f0012900 <_ZN6CTimer4RegsEN3hal9Timer_RegE>
f00129e0:	e1a03000 	mov	r3, r0
f00129e4:	e3a02001 	mov	r2, #1
f00129e8:	e5832000 	str	r2, [r3]
/mnt/c/Users/Kuba/Documents/School/ZeroMate/examples/16-paging_userspace/kernel/src/drivers/timer.cpp:51

    mCallback = callback;
f00129ec:	e51b3018 	ldr	r3, [fp, #-24]	; 0xffffffe8
f00129f0:	e51b201c 	ldr	r2, [fp, #-28]	; 0xffffffe4
f00129f4:	e5832004 	str	r2, [r3, #4]
/mnt/c/Users/Kuba/Documents/School/ZeroMate/examples/16-paging_userspace/kernel/src/drivers/timer.cpp:52
}
f00129f8:	e320f000 	nop	{0}
f00129fc:	e24bd008 	sub	sp, fp, #8
f0012a00:	e8bd8810 	pop	{r4, fp, pc}

f0012a04 <_ZN6CTimer7DisableEv>:
_ZN6CTimer7DisableEv():
/mnt/c/Users/Kuba/Documents/School/ZeroMate/examples/16-paging_userspace/kernel/src/drivers/timer.cpp:55

void CTimer::Disable()
{
f0012a04:	e92d4800 	push	{fp, lr}
f0012a08:	e28db004 	add	fp, sp, #4
f0012a0c:	e24dd010 	sub	sp, sp, #16
f0012a10:	e50b0010 	str	r0, [fp, #-16]
/mnt/c/Users/Kuba/Documents/School/ZeroMate/examples/16-paging_userspace/kernel/src/drivers/timer.cpp:56
    volatile TTimer_Ctl_Flags& reg = reinterpret_cast<volatile TTimer_Ctl_Flags&>(Regs(hal::Timer_Reg::Control));
f0012a14:	e3a01002 	mov	r1, #2
f0012a18:	e51b0010 	ldr	r0, [fp, #-16]
f0012a1c:	ebffffb7 	bl	f0012900 <_ZN6CTimer4RegsEN3hal9Timer_RegE>
f0012a20:	e50b0008 	str	r0, [fp, #-8]
/mnt/c/Users/Kuba/Documents/School/ZeroMate/examples/16-paging_userspace/kernel/src/drivers/timer.cpp:58

    reg.interrupt_enabled = 0;
f0012a24:	e51b2008 	ldr	r2, [fp, #-8]
f0012a28:	e5d23000 	ldrb	r3, [r2]
f0012a2c:	e3c33020 	bic	r3, r3, #32
f0012a30:	e5c23000 	strb	r3, [r2]
/mnt/c/Users/Kuba/Documents/School/ZeroMate/examples/16-paging_userspace/kernel/src/drivers/timer.cpp:59
    reg.timer_enabled = 0;
f0012a34:	e51b2008 	ldr	r2, [fp, #-8]
f0012a38:	e5d23000 	ldrb	r3, [r2]
f0012a3c:	e3c33080 	bic	r3, r3, #128	; 0x80
f0012a40:	e5c23000 	strb	r3, [r2]
/mnt/c/Users/Kuba/Documents/School/ZeroMate/examples/16-paging_userspace/kernel/src/drivers/timer.cpp:60
}
f0012a44:	e320f000 	nop	{0}
f0012a48:	e24bd004 	sub	sp, fp, #4
f0012a4c:	e8bd8800 	pop	{fp, pc}

f0012a50 <_ZN6CTimer12IRQ_CallbackEv>:
_ZN6CTimer12IRQ_CallbackEv():
/mnt/c/Users/Kuba/Documents/School/ZeroMate/examples/16-paging_userspace/kernel/src/drivers/timer.cpp:63

void CTimer::IRQ_Callback()
{
f0012a50:	e92d4800 	push	{fp, lr}
f0012a54:	e28db004 	add	fp, sp, #4
f0012a58:	e24dd008 	sub	sp, sp, #8
f0012a5c:	e50b0008 	str	r0, [fp, #-8]
/mnt/c/Users/Kuba/Documents/School/ZeroMate/examples/16-paging_userspace/kernel/src/drivers/timer.cpp:64
    Regs(hal::Timer_Reg::IRQ_Clear) = 1;
f0012a60:	e3a01003 	mov	r1, #3
f0012a64:	e51b0008 	ldr	r0, [fp, #-8]
f0012a68:	ebffffa4 	bl	f0012900 <_ZN6CTimer4RegsEN3hal9Timer_RegE>
f0012a6c:	e1a03000 	mov	r3, r0
f0012a70:	e3a02001 	mov	r2, #1
f0012a74:	e5832000 	str	r2, [r3]
/mnt/c/Users/Kuba/Documents/School/ZeroMate/examples/16-paging_userspace/kernel/src/drivers/timer.cpp:66

    if (mCallback)
f0012a78:	e51b3008 	ldr	r3, [fp, #-8]
f0012a7c:	e5933004 	ldr	r3, [r3, #4]
f0012a80:	e3530000 	cmp	r3, #0
f0012a84:	0a000002 	beq	f0012a94 <_ZN6CTimer12IRQ_CallbackEv+0x44>
/mnt/c/Users/Kuba/Documents/School/ZeroMate/examples/16-paging_userspace/kernel/src/drivers/timer.cpp:67
        mCallback();
f0012a88:	e51b3008 	ldr	r3, [fp, #-8]
f0012a8c:	e5933004 	ldr	r3, [r3, #4]
f0012a90:	e12fff33 	blx	r3
/mnt/c/Users/Kuba/Documents/School/ZeroMate/examples/16-paging_userspace/kernel/src/drivers/timer.cpp:68
}
f0012a94:	e320f000 	nop	{0}
f0012a98:	e24bd004 	sub	sp, fp, #4
f0012a9c:	e8bd8800 	pop	{fp, pc}

f0012aa0 <_ZN6CTimer20Is_Timer_IRQ_PendingEv>:
_ZN6CTimer20Is_Timer_IRQ_PendingEv():
/mnt/c/Users/Kuba/Documents/School/ZeroMate/examples/16-paging_userspace/kernel/src/drivers/timer.cpp:71

bool CTimer::Is_Timer_IRQ_Pending()
{
f0012aa0:	e92d4800 	push	{fp, lr}
f0012aa4:	e28db004 	add	fp, sp, #4
f0012aa8:	e24dd008 	sub	sp, sp, #8
f0012aac:	e50b0008 	str	r0, [fp, #-8]
/mnt/c/Users/Kuba/Documents/School/ZeroMate/examples/16-paging_userspace/kernel/src/drivers/timer.cpp:72
    return Regs(hal::Timer_Reg::IRQ_Masked);
f0012ab0:	e3a01005 	mov	r1, #5
f0012ab4:	e51b0008 	ldr	r0, [fp, #-8]
f0012ab8:	ebffff90 	bl	f0012900 <_ZN6CTimer4RegsEN3hal9Timer_RegE>
f0012abc:	e1a03000 	mov	r3, r0
f0012ac0:	e5933000 	ldr	r3, [r3]
f0012ac4:	e3530000 	cmp	r3, #0
f0012ac8:	13a03001 	movne	r3, #1
f0012acc:	03a03000 	moveq	r3, #0
f0012ad0:	e6ef3073 	uxtb	r3, r3
/mnt/c/Users/Kuba/Documents/School/ZeroMate/examples/16-paging_userspace/kernel/src/drivers/timer.cpp:73
}
f0012ad4:	e1a00003 	mov	r0, r3
f0012ad8:	e24bd004 	sub	sp, fp, #4
f0012adc:	e8bd8800 	pop	{fp, pc}

f0012ae0 <_Z41__static_initialization_and_destruction_0ii>:
_Z41__static_initialization_and_destruction_0ii():
/mnt/c/Users/Kuba/Documents/School/ZeroMate/examples/16-paging_userspace/kernel/src/drivers/timer.cpp:73
f0012ae0:	e92d4800 	push	{fp, lr}
f0012ae4:	e28db004 	add	fp, sp, #4
f0012ae8:	e24dd008 	sub	sp, sp, #8
f0012aec:	e50b0008 	str	r0, [fp, #-8]
f0012af0:	e50b100c 	str	r1, [fp, #-12]
f0012af4:	e51b3008 	ldr	r3, [fp, #-8]
f0012af8:	e3530001 	cmp	r3, #1
f0012afc:	1a000006 	bne	f0012b1c <_Z41__static_initialization_and_destruction_0ii+0x3c>
/mnt/c/Users/Kuba/Documents/School/ZeroMate/examples/16-paging_userspace/kernel/src/drivers/timer.cpp:73 (discriminator 1)
f0012b00:	e51b300c 	ldr	r3, [fp, #-12]
f0012b04:	e59f201c 	ldr	r2, [pc, #28]	; f0012b28 <_Z41__static_initialization_and_destruction_0ii+0x48>
f0012b08:	e1530002 	cmp	r3, r2
f0012b0c:	1a000002 	bne	f0012b1c <_Z41__static_initialization_and_destruction_0ii+0x3c>
/mnt/c/Users/Kuba/Documents/School/ZeroMate/examples/16-paging_userspace/kernel/src/drivers/timer.cpp:4
CTimer sTimer(hal::Timer_Base);
f0012b10:	e59f1014 	ldr	r1, [pc, #20]	; f0012b2c <_Z41__static_initialization_and_destruction_0ii+0x4c>
f0012b14:	e59f0014 	ldr	r0, [pc, #20]	; f0012b30 <_Z41__static_initialization_and_destruction_0ii+0x50>
f0012b18:	ebffff68 	bl	f00128c0 <_ZN6CTimerC1Em>
/mnt/c/Users/Kuba/Documents/School/ZeroMate/examples/16-paging_userspace/kernel/src/drivers/timer.cpp:73
}
f0012b1c:	e320f000 	nop	{0}
f0012b20:	e24bd004 	sub	sp, fp, #4
f0012b24:	e8bd8800 	pop	{fp, pc}
f0012b28:	0000ffff 	strdeq	pc, [r0], -pc	; <UNPREDICTABLE>
f0012b2c:	2000b400 	andcs	fp, r0, r0, lsl #8
f0012b30:	c003a56c 	andgt	sl, r3, ip, ror #10

f0012b34 <_GLOBAL__sub_I_sTimer>:
_GLOBAL__sub_I_sTimer():
/mnt/c/Users/Kuba/Documents/School/ZeroMate/examples/16-paging_userspace/kernel/src/drivers/timer.cpp:73
f0012b34:	e92d4800 	push	{fp, lr}
f0012b38:	e28db004 	add	fp, sp, #4
f0012b3c:	e59f1008 	ldr	r1, [pc, #8]	; f0012b4c <_GLOBAL__sub_I_sTimer+0x18>
f0012b40:	e3a00001 	mov	r0, #1
f0012b44:	ebffffe5 	bl	f0012ae0 <_Z41__static_initialization_and_destruction_0ii>
f0012b48:	e8bd8800 	pop	{fp, pc}
f0012b4c:	0000ffff 	strdeq	pc, [r0], -pc	; <UNPREDICTABLE>

f0012b50 <_ZN5CTRNGC1Ej>:
_ZN5CTRNGC2Ej():
/mnt/c/Users/Kuba/Documents/School/ZeroMate/examples/16-paging_userspace/kernel/src/drivers/trng.cpp:8
CTRNG sTRNG(hal::TRNG_Base);

// tolik cisel ze zacatku generovani bude zahozeno - jsou "mene nahodna"
constexpr uint32_t TRNG_Warmup_Count = 0x40000;

CTRNG::CTRNG(uint32_t trng_reg_base)
f0012b50:	e52db004 	push	{fp}		; (str fp, [sp, #-4]!)
f0012b54:	e28db000 	add	fp, sp, #0
f0012b58:	e24dd00c 	sub	sp, sp, #12
f0012b5c:	e50b0008 	str	r0, [fp, #-8]
f0012b60:	e50b100c 	str	r1, [fp, #-12]
/mnt/c/Users/Kuba/Documents/School/ZeroMate/examples/16-paging_userspace/kernel/src/drivers/trng.cpp:9
    : mTrng_Regs(reinterpret_cast<volatile unsigned int* const>(trng_reg_base)), mOpened(0)
f0012b64:	e51b200c 	ldr	r2, [fp, #-12]
f0012b68:	e51b3008 	ldr	r3, [fp, #-8]
f0012b6c:	e5832000 	str	r2, [r3]
f0012b70:	e51b3008 	ldr	r3, [fp, #-8]
f0012b74:	e3a02000 	mov	r2, #0
f0012b78:	e5832004 	str	r2, [r3, #4]
/mnt/c/Users/Kuba/Documents/School/ZeroMate/examples/16-paging_userspace/kernel/src/drivers/trng.cpp:12
{
    //
}
f0012b7c:	e51b3008 	ldr	r3, [fp, #-8]
f0012b80:	e1a00003 	mov	r0, r3
f0012b84:	e28bd000 	add	sp, fp, #0
f0012b88:	e49db004 	pop	{fp}		; (ldr fp, [sp], #4)
f0012b8c:	e12fff1e 	bx	lr

f0012b90 <_ZN5CTRNG4OpenEb>:
_ZN5CTRNG4OpenEb():
/mnt/c/Users/Kuba/Documents/School/ZeroMate/examples/16-paging_userspace/kernel/src/drivers/trng.cpp:15

bool CTRNG::Open(bool exclusive)
{
f0012b90:	e52db004 	push	{fp}		; (str fp, [sp, #-4]!)
f0012b94:	e28db000 	add	fp, sp, #0
f0012b98:	e24dd00c 	sub	sp, sp, #12
f0012b9c:	e50b0008 	str	r0, [fp, #-8]
f0012ba0:	e1a03001 	mov	r3, r1
f0012ba4:	e54b3009 	strb	r3, [fp, #-9]
/mnt/c/Users/Kuba/Documents/School/ZeroMate/examples/16-paging_userspace/kernel/src/drivers/trng.cpp:18
    // TODO: zamek

    if (mOpened && exclusive)
f0012ba8:	e51b3008 	ldr	r3, [fp, #-8]
f0012bac:	e5933004 	ldr	r3, [r3, #4]
f0012bb0:	e3530000 	cmp	r3, #0
f0012bb4:	0a000004 	beq	f0012bcc <_ZN5CTRNG4OpenEb+0x3c>
/mnt/c/Users/Kuba/Documents/School/ZeroMate/examples/16-paging_userspace/kernel/src/drivers/trng.cpp:18 (discriminator 1)
f0012bb8:	e55b3009 	ldrb	r3, [fp, #-9]
f0012bbc:	e3530000 	cmp	r3, #0
f0012bc0:	0a000001 	beq	f0012bcc <_ZN5CTRNG4OpenEb+0x3c>
/mnt/c/Users/Kuba/Documents/School/ZeroMate/examples/16-paging_userspace/kernel/src/drivers/trng.cpp:19
        return false;
f0012bc4:	e3a03000 	mov	r3, #0
f0012bc8:	ea000026 	b	f0012c68 <_ZN5CTRNG4OpenEb+0xd8>
/mnt/c/Users/Kuba/Documents/School/ZeroMate/examples/16-paging_userspace/kernel/src/drivers/trng.cpp:21

    mOpened++;
f0012bcc:	e51b3008 	ldr	r3, [fp, #-8]
f0012bd0:	e5933004 	ldr	r3, [r3, #4]
f0012bd4:	e2832001 	add	r2, r3, #1
f0012bd8:	e51b3008 	ldr	r3, [fp, #-8]
f0012bdc:	e5832004 	str	r2, [r3, #4]
/mnt/c/Users/Kuba/Documents/School/ZeroMate/examples/16-paging_userspace/kernel/src/drivers/trng.cpp:23

    mTrng_Regs[static_cast<uint32_t>(hal::TRNG_Reg::Status)] = TRNG_Warmup_Count;
f0012be0:	e51b3008 	ldr	r3, [fp, #-8]
f0012be4:	e5933000 	ldr	r3, [r3]
f0012be8:	e2833004 	add	r3, r3, #4
f0012bec:	e3a02701 	mov	r2, #262144	; 0x40000
f0012bf0:	e5832000 	str	r2, [r3]
/mnt/c/Users/Kuba/Documents/School/ZeroMate/examples/16-paging_userspace/kernel/src/drivers/trng.cpp:24
    mTrng_Regs[static_cast<uint32_t>(hal::TRNG_Reg::Int_Mask)] |= 1;    // vypneme preruseni pro TRNG (tak ho pouzivat nechceme)
f0012bf4:	e51b3008 	ldr	r3, [fp, #-8]
f0012bf8:	e5933000 	ldr	r3, [r3]
f0012bfc:	e2833010 	add	r3, r3, #16
f0012c00:	e5932000 	ldr	r2, [r3]
f0012c04:	e51b3008 	ldr	r3, [fp, #-8]
f0012c08:	e5933000 	ldr	r3, [r3]
f0012c0c:	e2833010 	add	r3, r3, #16
f0012c10:	e3822001 	orr	r2, r2, #1
f0012c14:	e5832000 	str	r2, [r3]
/mnt/c/Users/Kuba/Documents/School/ZeroMate/examples/16-paging_userspace/kernel/src/drivers/trng.cpp:25
    mTrng_Regs[static_cast<uint32_t>(hal::TRNG_Reg::Control)] |= 1;     // zapneme TRNG
f0012c18:	e51b3008 	ldr	r3, [fp, #-8]
f0012c1c:	e5933000 	ldr	r3, [r3]
f0012c20:	e5932000 	ldr	r2, [r3]
f0012c24:	e51b3008 	ldr	r3, [fp, #-8]
f0012c28:	e5933000 	ldr	r3, [r3]
f0012c2c:	e3822001 	orr	r2, r2, #1
f0012c30:	e5832000 	str	r2, [r3]
/mnt/c/Users/Kuba/Documents/School/ZeroMate/examples/16-paging_userspace/kernel/src/drivers/trng.cpp:28

    // pockame, dokud TRNG nenageneruje warmup cisla (ty co zahazujeme)
    while (!(mTrng_Regs[static_cast<uint32_t>(hal::TRNG_Reg::Status)] >> 24))
f0012c34:	e51b3008 	ldr	r3, [fp, #-8]
f0012c38:	e5933000 	ldr	r3, [r3]
f0012c3c:	e2833004 	add	r3, r3, #4
f0012c40:	e5933000 	ldr	r3, [r3]
f0012c44:	e1a03c23 	lsr	r3, r3, #24
f0012c48:	e3530000 	cmp	r3, #0
f0012c4c:	03a03001 	moveq	r3, #1
f0012c50:	13a03000 	movne	r3, #0
f0012c54:	e6ef3073 	uxtb	r3, r3
f0012c58:	e3530000 	cmp	r3, #0
f0012c5c:	0a000000 	beq	f0012c64 <_ZN5CTRNG4OpenEb+0xd4>
f0012c60:	eafffff3 	b	f0012c34 <_ZN5CTRNG4OpenEb+0xa4>
/mnt/c/Users/Kuba/Documents/School/ZeroMate/examples/16-paging_userspace/kernel/src/drivers/trng.cpp:31
        ;

    return true;
f0012c64:	e3a03001 	mov	r3, #1
/mnt/c/Users/Kuba/Documents/School/ZeroMate/examples/16-paging_userspace/kernel/src/drivers/trng.cpp:32
}
f0012c68:	e1a00003 	mov	r0, r3
f0012c6c:	e28bd000 	add	sp, fp, #0
f0012c70:	e49db004 	pop	{fp}		; (ldr fp, [sp], #4)
f0012c74:	e12fff1e 	bx	lr

f0012c78 <_ZN5CTRNG5CloseEv>:
_ZN5CTRNG5CloseEv():
/mnt/c/Users/Kuba/Documents/School/ZeroMate/examples/16-paging_userspace/kernel/src/drivers/trng.cpp:35

void CTRNG::Close()
{
f0012c78:	e52db004 	push	{fp}		; (str fp, [sp, #-4]!)
f0012c7c:	e28db000 	add	fp, sp, #0
f0012c80:	e24dd00c 	sub	sp, sp, #12
f0012c84:	e50b0008 	str	r0, [fp, #-8]
/mnt/c/Users/Kuba/Documents/School/ZeroMate/examples/16-paging_userspace/kernel/src/drivers/trng.cpp:36
    if (!mOpened)
f0012c88:	e51b3008 	ldr	r3, [fp, #-8]
f0012c8c:	e5933004 	ldr	r3, [r3, #4]
f0012c90:	e3530000 	cmp	r3, #0
f0012c94:	0a00000d 	beq	f0012cd0 <_ZN5CTRNG5CloseEv+0x58>
/mnt/c/Users/Kuba/Documents/School/ZeroMate/examples/16-paging_userspace/kernel/src/drivers/trng.cpp:39
        return;

    mOpened--;
f0012c98:	e51b3008 	ldr	r3, [fp, #-8]
f0012c9c:	e5933004 	ldr	r3, [r3, #4]
f0012ca0:	e2432001 	sub	r2, r3, #1
f0012ca4:	e51b3008 	ldr	r3, [fp, #-8]
f0012ca8:	e5832004 	str	r2, [r3, #4]
/mnt/c/Users/Kuba/Documents/School/ZeroMate/examples/16-paging_userspace/kernel/src/drivers/trng.cpp:41

    if (mOpened == 0)
f0012cac:	e51b3008 	ldr	r3, [fp, #-8]
f0012cb0:	e5933004 	ldr	r3, [r3, #4]
f0012cb4:	e3530000 	cmp	r3, #0
f0012cb8:	1a000005 	bne	f0012cd4 <_ZN5CTRNG5CloseEv+0x5c>
/mnt/c/Users/Kuba/Documents/School/ZeroMate/examples/16-paging_userspace/kernel/src/drivers/trng.cpp:42
        mTrng_Regs[static_cast<uint32_t>(hal::TRNG_Reg::Control)] = 0;
f0012cbc:	e51b3008 	ldr	r3, [fp, #-8]
f0012cc0:	e5933000 	ldr	r3, [r3]
f0012cc4:	e3a02000 	mov	r2, #0
f0012cc8:	e5832000 	str	r2, [r3]
f0012ccc:	ea000000 	b	f0012cd4 <_ZN5CTRNG5CloseEv+0x5c>
/mnt/c/Users/Kuba/Documents/School/ZeroMate/examples/16-paging_userspace/kernel/src/drivers/trng.cpp:37
        return;
f0012cd0:	e320f000 	nop	{0}
/mnt/c/Users/Kuba/Documents/School/ZeroMate/examples/16-paging_userspace/kernel/src/drivers/trng.cpp:43
}
f0012cd4:	e28bd000 	add	sp, fp, #0
f0012cd8:	e49db004 	pop	{fp}		; (ldr fp, [sp], #4)
f0012cdc:	e12fff1e 	bx	lr

f0012ce0 <_ZNK5CTRNG9Is_OpenedEv>:
_ZNK5CTRNG9Is_OpenedEv():
/mnt/c/Users/Kuba/Documents/School/ZeroMate/examples/16-paging_userspace/kernel/src/drivers/trng.cpp:46

bool CTRNG::Is_Opened() const
{
f0012ce0:	e52db004 	push	{fp}		; (str fp, [sp, #-4]!)
f0012ce4:	e28db000 	add	fp, sp, #0
f0012ce8:	e24dd00c 	sub	sp, sp, #12
f0012cec:	e50b0008 	str	r0, [fp, #-8]
/mnt/c/Users/Kuba/Documents/School/ZeroMate/examples/16-paging_userspace/kernel/src/drivers/trng.cpp:47
    return (mOpened > 0);
f0012cf0:	e51b3008 	ldr	r3, [fp, #-8]
f0012cf4:	e5933004 	ldr	r3, [r3, #4]
f0012cf8:	e3530000 	cmp	r3, #0
f0012cfc:	13a03001 	movne	r3, #1
f0012d00:	03a03000 	moveq	r3, #0
f0012d04:	e6ef3073 	uxtb	r3, r3
/mnt/c/Users/Kuba/Documents/School/ZeroMate/examples/16-paging_userspace/kernel/src/drivers/trng.cpp:48
}
f0012d08:	e1a00003 	mov	r0, r3
f0012d0c:	e28bd000 	add	sp, fp, #0
f0012d10:	e49db004 	pop	{fp}		; (ldr fp, [sp], #4)
f0012d14:	e12fff1e 	bx	lr

f0012d18 <_ZN5CTRNG17Get_Random_NumberEv>:
_ZN5CTRNG17Get_Random_NumberEv():
/mnt/c/Users/Kuba/Documents/School/ZeroMate/examples/16-paging_userspace/kernel/src/drivers/trng.cpp:51

uint32_t CTRNG::Get_Random_Number()
{
f0012d18:	e52db004 	push	{fp}		; (str fp, [sp, #-4]!)
f0012d1c:	e28db000 	add	fp, sp, #0
f0012d20:	e24dd00c 	sub	sp, sp, #12
f0012d24:	e50b0008 	str	r0, [fp, #-8]
/mnt/c/Users/Kuba/Documents/School/ZeroMate/examples/16-paging_userspace/kernel/src/drivers/trng.cpp:52
    if (mOpened == 0)
f0012d28:	e51b3008 	ldr	r3, [fp, #-8]
f0012d2c:	e5933004 	ldr	r3, [r3, #4]
f0012d30:	e3530000 	cmp	r3, #0
f0012d34:	1a000001 	bne	f0012d40 <_ZN5CTRNG17Get_Random_NumberEv+0x28>
/mnt/c/Users/Kuba/Documents/School/ZeroMate/examples/16-paging_userspace/kernel/src/drivers/trng.cpp:53
        return 4; // https://xkcd.com/221/
f0012d38:	e3a03004 	mov	r3, #4
f0012d3c:	ea000003 	b	f0012d50 <_ZN5CTRNG17Get_Random_NumberEv+0x38>
/mnt/c/Users/Kuba/Documents/School/ZeroMate/examples/16-paging_userspace/kernel/src/drivers/trng.cpp:59

    // az budeme umet blokovat procesy, tak tady by melo byt opet cekani na entropii:
    //while (!(mTrng_Regs[static_cast<uint32_t>(hal::TRNG_Reg::Status)] >> 24))
    //    ;

    return mTrng_Regs[static_cast<uint32_t>(hal::TRNG_Reg::Data)];
f0012d40:	e51b3008 	ldr	r3, [fp, #-8]
f0012d44:	e5933000 	ldr	r3, [r3]
f0012d48:	e2833008 	add	r3, r3, #8
f0012d4c:	e5933000 	ldr	r3, [r3]
/mnt/c/Users/Kuba/Documents/School/ZeroMate/examples/16-paging_userspace/kernel/src/drivers/trng.cpp:60
}
f0012d50:	e1a00003 	mov	r0, r3
f0012d54:	e28bd000 	add	sp, fp, #0
f0012d58:	e49db004 	pop	{fp}		; (ldr fp, [sp], #4)
f0012d5c:	e12fff1e 	bx	lr

f0012d60 <_Z41__static_initialization_and_destruction_0ii>:
_Z41__static_initialization_and_destruction_0ii():
/mnt/c/Users/Kuba/Documents/School/ZeroMate/examples/16-paging_userspace/kernel/src/drivers/trng.cpp:60
f0012d60:	e92d4800 	push	{fp, lr}
f0012d64:	e28db004 	add	fp, sp, #4
f0012d68:	e24dd008 	sub	sp, sp, #8
f0012d6c:	e50b0008 	str	r0, [fp, #-8]
f0012d70:	e50b100c 	str	r1, [fp, #-12]
f0012d74:	e51b3008 	ldr	r3, [fp, #-8]
f0012d78:	e3530001 	cmp	r3, #1
f0012d7c:	1a000006 	bne	f0012d9c <_Z41__static_initialization_and_destruction_0ii+0x3c>
/mnt/c/Users/Kuba/Documents/School/ZeroMate/examples/16-paging_userspace/kernel/src/drivers/trng.cpp:60 (discriminator 1)
f0012d80:	e51b300c 	ldr	r3, [fp, #-12]
f0012d84:	e59f201c 	ldr	r2, [pc, #28]	; f0012da8 <_Z41__static_initialization_and_destruction_0ii+0x48>
f0012d88:	e1530002 	cmp	r3, r2
f0012d8c:	1a000002 	bne	f0012d9c <_Z41__static_initialization_and_destruction_0ii+0x3c>
/mnt/c/Users/Kuba/Documents/School/ZeroMate/examples/16-paging_userspace/kernel/src/drivers/trng.cpp:3
CTRNG sTRNG(hal::TRNG_Base);
f0012d90:	e59f1014 	ldr	r1, [pc, #20]	; f0012dac <_Z41__static_initialization_and_destruction_0ii+0x4c>
f0012d94:	e59f0014 	ldr	r0, [pc, #20]	; f0012db0 <_Z41__static_initialization_and_destruction_0ii+0x50>
f0012d98:	ebffff6c 	bl	f0012b50 <_ZN5CTRNGC1Ej>
/mnt/c/Users/Kuba/Documents/School/ZeroMate/examples/16-paging_userspace/kernel/src/drivers/trng.cpp:60
}
f0012d9c:	e320f000 	nop	{0}
f0012da0:	e24bd004 	sub	sp, fp, #4
f0012da4:	e8bd8800 	pop	{fp, pc}
f0012da8:	0000ffff 	strdeq	pc, [r0], -pc	; <UNPREDICTABLE>
f0012dac:	20104000 	andscs	r4, r0, r0
f0012db0:	c003a574 	andgt	sl, r3, r4, ror r5

f0012db4 <_GLOBAL__sub_I_sTRNG>:
_GLOBAL__sub_I_sTRNG():
/mnt/c/Users/Kuba/Documents/School/ZeroMate/examples/16-paging_userspace/kernel/src/drivers/trng.cpp:60
f0012db4:	e92d4800 	push	{fp, lr}
f0012db8:	e28db004 	add	fp, sp, #4
f0012dbc:	e59f1008 	ldr	r1, [pc, #8]	; f0012dcc <_GLOBAL__sub_I_sTRNG+0x18>
f0012dc0:	e3a00001 	mov	r0, #1
f0012dc4:	ebffffe5 	bl	f0012d60 <_Z41__static_initialization_and_destruction_0ii>
f0012dc8:	e8bd8800 	pop	{fp, pc}
f0012dcc:	0000ffff 	strdeq	pc, [r0], -pc	; <UNPREDICTABLE>

f0012dd0 <_ZN11CFilesystemC1Ev>:
_ZN11CFilesystemC2Ev():
/mnt/c/Users/Kuba/Documents/School/ZeroMate/examples/16-paging_userspace/kernel/src/fs/filesystem.cpp:9

#include <stdstring.h>

CFilesystem sFilesystem;

CFilesystem::CFilesystem()
f0012dd0:	e92d4800 	push	{fp, lr}
f0012dd4:	e28db004 	add	fp, sp, #4
f0012dd8:	e24dd008 	sub	sp, sp, #8
f0012ddc:	e50b0008 	str	r0, [fp, #-8]
f0012de0:	e51b3008 	ldr	r3, [fp, #-8]
f0012de4:	e1a00003 	mov	r0, r3
f0012de8:	eb0001b2 	bl	f00134b8 <_ZN11CFilesystem13TFS_Tree_NodeC1Ev>
f0012dec:	e51b3008 	ldr	r3, [fp, #-8]
f0012df0:	e2833024 	add	r3, r3, #36	; 0x24
f0012df4:	e1a00003 	mov	r0, r3
f0012df8:	eb0001ae 	bl	f00134b8 <_ZN11CFilesystem13TFS_Tree_NodeC1Ev>
f0012dfc:	e51b3008 	ldr	r3, [fp, #-8]
f0012e00:	e2833048 	add	r3, r3, #72	; 0x48
f0012e04:	e1a00003 	mov	r0, r3
f0012e08:	eb0001aa 	bl	f00134b8 <_ZN11CFilesystem13TFS_Tree_NodeC1Ev>
f0012e0c:	e51b3008 	ldr	r3, [fp, #-8]
f0012e10:	e283306c 	add	r3, r3, #108	; 0x6c
f0012e14:	e1a00003 	mov	r0, r3
f0012e18:	eb0001a6 	bl	f00134b8 <_ZN11CFilesystem13TFS_Tree_NodeC1Ev>
/mnt/c/Users/Kuba/Documents/School/ZeroMate/examples/16-paging_userspace/kernel/src/fs/filesystem.cpp:13
{
    // inicializujeme zakladni strukturu (tedy vlastne obsah root adresare)

    mRoot.parent = nullptr;
f0012e1c:	e51b3008 	ldr	r3, [fp, #-8]
f0012e20:	e3a02000 	mov	r2, #0
f0012e24:	e5832018 	str	r2, [r3, #24]
/mnt/c/Users/Kuba/Documents/School/ZeroMate/examples/16-paging_userspace/kernel/src/fs/filesystem.cpp:14
    mRoot.next = nullptr;
f0012e28:	e51b3008 	ldr	r3, [fp, #-8]
f0012e2c:	e3a02000 	mov	r2, #0
f0012e30:	e5832020 	str	r2, [r3, #32]
/mnt/c/Users/Kuba/Documents/School/ZeroMate/examples/16-paging_userspace/kernel/src/fs/filesystem.cpp:15
    mRoot.children = &mRoot_Dev;
f0012e34:	e51b3008 	ldr	r3, [fp, #-8]
f0012e38:	e2832024 	add	r2, r3, #36	; 0x24
f0012e3c:	e51b3008 	ldr	r3, [fp, #-8]
f0012e40:	e583201c 	str	r2, [r3, #28]
/mnt/c/Users/Kuba/Documents/School/ZeroMate/examples/16-paging_userspace/kernel/src/fs/filesystem.cpp:16
    mRoot.isDirectory = true;
f0012e44:	e51b3008 	ldr	r3, [fp, #-8]
f0012e48:	e3a02001 	mov	r2, #1
f0012e4c:	e5c32010 	strb	r2, [r3, #16]
/mnt/c/Users/Kuba/Documents/School/ZeroMate/examples/16-paging_userspace/kernel/src/fs/filesystem.cpp:17
    mRoot.driver_idx = NoFilesystemDriver;
f0012e50:	e51b3008 	ldr	r3, [fp, #-8]
f0012e54:	e3e02000 	mvn	r2, #0
f0012e58:	e5832014 	str	r2, [r3, #20]
/mnt/c/Users/Kuba/Documents/School/ZeroMate/examples/16-paging_userspace/kernel/src/fs/filesystem.cpp:18
    mRoot.name[0] = '\0';
f0012e5c:	e51b3008 	ldr	r3, [fp, #-8]
f0012e60:	e3a02000 	mov	r2, #0
f0012e64:	e5c32000 	strb	r2, [r3]
/mnt/c/Users/Kuba/Documents/School/ZeroMate/examples/16-paging_userspace/kernel/src/fs/filesystem.cpp:20

    mRoot_Dev.parent = &mRoot;
f0012e68:	e51b2008 	ldr	r2, [fp, #-8]
f0012e6c:	e51b3008 	ldr	r3, [fp, #-8]
f0012e70:	e583203c 	str	r2, [r3, #60]	; 0x3c
/mnt/c/Users/Kuba/Documents/School/ZeroMate/examples/16-paging_userspace/kernel/src/fs/filesystem.cpp:21
    mRoot_Dev.children = nullptr;
f0012e74:	e51b3008 	ldr	r3, [fp, #-8]
f0012e78:	e3a02000 	mov	r2, #0
f0012e7c:	e5832040 	str	r2, [r3, #64]	; 0x40
/mnt/c/Users/Kuba/Documents/School/ZeroMate/examples/16-paging_userspace/kernel/src/fs/filesystem.cpp:22
    mRoot_Dev.next = &mRoot_Sys;
f0012e80:	e51b3008 	ldr	r3, [fp, #-8]
f0012e84:	e2832048 	add	r2, r3, #72	; 0x48
f0012e88:	e51b3008 	ldr	r3, [fp, #-8]
f0012e8c:	e5832044 	str	r2, [r3, #68]	; 0x44
/mnt/c/Users/Kuba/Documents/School/ZeroMate/examples/16-paging_userspace/kernel/src/fs/filesystem.cpp:23
    mRoot_Dev.isDirectory = true;
f0012e90:	e51b3008 	ldr	r3, [fp, #-8]
f0012e94:	e3a02001 	mov	r2, #1
f0012e98:	e5c32034 	strb	r2, [r3, #52]	; 0x34
/mnt/c/Users/Kuba/Documents/School/ZeroMate/examples/16-paging_userspace/kernel/src/fs/filesystem.cpp:24
    mRoot_Dev.driver_idx = NoFilesystemDriver;
f0012e9c:	e51b3008 	ldr	r3, [fp, #-8]
f0012ea0:	e3e02000 	mvn	r2, #0
f0012ea4:	e5832038 	str	r2, [r3, #56]	; 0x38
/mnt/c/Users/Kuba/Documents/School/ZeroMate/examples/16-paging_userspace/kernel/src/fs/filesystem.cpp:25
    strncpy(mRoot_Dev.name, "DEV", 4);
f0012ea8:	e51b3008 	ldr	r3, [fp, #-8]
f0012eac:	e2833024 	add	r3, r3, #36	; 0x24
f0012eb0:	e3a02004 	mov	r2, #4
f0012eb4:	e59f10c0 	ldr	r1, [pc, #192]	; f0012f7c <_ZN11CFilesystemC1Ev+0x1ac>
f0012eb8:	e1a00003 	mov	r0, r3
f0012ebc:	eb000d7f 	bl	f00164c0 <_Z7strncpyPcPKci>
/mnt/c/Users/Kuba/Documents/School/ZeroMate/examples/16-paging_userspace/kernel/src/fs/filesystem.cpp:27

    mRoot_Sys.parent = &mRoot;
f0012ec0:	e51b2008 	ldr	r2, [fp, #-8]
f0012ec4:	e51b3008 	ldr	r3, [fp, #-8]
f0012ec8:	e5832060 	str	r2, [r3, #96]	; 0x60
/mnt/c/Users/Kuba/Documents/School/ZeroMate/examples/16-paging_userspace/kernel/src/fs/filesystem.cpp:28
    mRoot_Sys.children = nullptr;
f0012ecc:	e51b3008 	ldr	r3, [fp, #-8]
f0012ed0:	e3a02000 	mov	r2, #0
f0012ed4:	e5832064 	str	r2, [r3, #100]	; 0x64
/mnt/c/Users/Kuba/Documents/School/ZeroMate/examples/16-paging_userspace/kernel/src/fs/filesystem.cpp:29
    mRoot_Sys.next = &mRoot_Mnt;
f0012ed8:	e51b3008 	ldr	r3, [fp, #-8]
f0012edc:	e283206c 	add	r2, r3, #108	; 0x6c
f0012ee0:	e51b3008 	ldr	r3, [fp, #-8]
f0012ee4:	e5832068 	str	r2, [r3, #104]	; 0x68
/mnt/c/Users/Kuba/Documents/School/ZeroMate/examples/16-paging_userspace/kernel/src/fs/filesystem.cpp:30
    mRoot_Sys.isDirectory = true;
f0012ee8:	e51b3008 	ldr	r3, [fp, #-8]
f0012eec:	e3a02001 	mov	r2, #1
f0012ef0:	e5c32058 	strb	r2, [r3, #88]	; 0x58
/mnt/c/Users/Kuba/Documents/School/ZeroMate/examples/16-paging_userspace/kernel/src/fs/filesystem.cpp:31
    mRoot_Sys.driver_idx = NoFilesystemDriver;
f0012ef4:	e51b3008 	ldr	r3, [fp, #-8]
f0012ef8:	e3e02000 	mvn	r2, #0
f0012efc:	e583205c 	str	r2, [r3, #92]	; 0x5c
/mnt/c/Users/Kuba/Documents/School/ZeroMate/examples/16-paging_userspace/kernel/src/fs/filesystem.cpp:32
    strncpy(mRoot_Sys.name, "SYS", 4);
f0012f00:	e51b3008 	ldr	r3, [fp, #-8]
f0012f04:	e2833048 	add	r3, r3, #72	; 0x48
f0012f08:	e3a02004 	mov	r2, #4
f0012f0c:	e59f106c 	ldr	r1, [pc, #108]	; f0012f80 <_ZN11CFilesystemC1Ev+0x1b0>
f0012f10:	e1a00003 	mov	r0, r3
f0012f14:	eb000d69 	bl	f00164c0 <_Z7strncpyPcPKci>
/mnt/c/Users/Kuba/Documents/School/ZeroMate/examples/16-paging_userspace/kernel/src/fs/filesystem.cpp:34

    mRoot_Mnt.parent = &mRoot;
f0012f18:	e51b2008 	ldr	r2, [fp, #-8]
f0012f1c:	e51b3008 	ldr	r3, [fp, #-8]
f0012f20:	e5832084 	str	r2, [r3, #132]	; 0x84
/mnt/c/Users/Kuba/Documents/School/ZeroMate/examples/16-paging_userspace/kernel/src/fs/filesystem.cpp:35
    mRoot_Mnt.children = nullptr;
f0012f24:	e51b3008 	ldr	r3, [fp, #-8]
f0012f28:	e3a02000 	mov	r2, #0
f0012f2c:	e5832088 	str	r2, [r3, #136]	; 0x88
/mnt/c/Users/Kuba/Documents/School/ZeroMate/examples/16-paging_userspace/kernel/src/fs/filesystem.cpp:36
    mRoot_Mnt.next = nullptr;
f0012f30:	e51b3008 	ldr	r3, [fp, #-8]
f0012f34:	e3a02000 	mov	r2, #0
f0012f38:	e583208c 	str	r2, [r3, #140]	; 0x8c
/mnt/c/Users/Kuba/Documents/School/ZeroMate/examples/16-paging_userspace/kernel/src/fs/filesystem.cpp:37
    mRoot_Mnt.isDirectory = true;
f0012f3c:	e51b3008 	ldr	r3, [fp, #-8]
f0012f40:	e3a02001 	mov	r2, #1
f0012f44:	e5c3207c 	strb	r2, [r3, #124]	; 0x7c
/mnt/c/Users/Kuba/Documents/School/ZeroMate/examples/16-paging_userspace/kernel/src/fs/filesystem.cpp:38
    mRoot_Mnt.driver_idx = NoFilesystemDriver;
f0012f48:	e51b3008 	ldr	r3, [fp, #-8]
f0012f4c:	e3e02000 	mvn	r2, #0
f0012f50:	e5832080 	str	r2, [r3, #128]	; 0x80
/mnt/c/Users/Kuba/Documents/School/ZeroMate/examples/16-paging_userspace/kernel/src/fs/filesystem.cpp:39
    strncpy(mRoot_Mnt.name, "MNT", 4);
f0012f54:	e51b3008 	ldr	r3, [fp, #-8]
f0012f58:	e283306c 	add	r3, r3, #108	; 0x6c
f0012f5c:	e3a02004 	mov	r2, #4
f0012f60:	e59f101c 	ldr	r1, [pc, #28]	; f0012f84 <_ZN11CFilesystemC1Ev+0x1b4>
f0012f64:	e1a00003 	mov	r0, r3
f0012f68:	eb000d54 	bl	f00164c0 <_Z7strncpyPcPKci>
/mnt/c/Users/Kuba/Documents/School/ZeroMate/examples/16-paging_userspace/kernel/src/fs/filesystem.cpp:40
}
f0012f6c:	e51b3008 	ldr	r3, [fp, #-8]
f0012f70:	e1a00003 	mov	r0, r3
f0012f74:	e24bd004 	sub	sp, fp, #4
f0012f78:	e8bd8800 	pop	{fp, pc}
f0012f7c:	f0016af0 			; <UNDEFINED> instruction: 0xf0016af0
f0012f80:	f0016af4 			; <UNDEFINED> instruction: 0xf0016af4
f0012f84:	f0016af8 			; <UNDEFINED> instruction: 0xf0016af8

f0012f88 <_ZN11CFilesystem13TFS_Tree_Node10Find_ChildEPKc>:
_ZN11CFilesystem13TFS_Tree_Node10Find_ChildEPKc():
/mnt/c/Users/Kuba/Documents/School/ZeroMate/examples/16-paging_userspace/kernel/src/fs/filesystem.cpp:43

CFilesystem::TFS_Tree_Node* CFilesystem::TFS_Tree_Node::Find_Child(const char* name)
{
f0012f88:	e92d4800 	push	{fp, lr}
f0012f8c:	e28db004 	add	fp, sp, #4
f0012f90:	e24dd010 	sub	sp, sp, #16
f0012f94:	e50b0010 	str	r0, [fp, #-16]
f0012f98:	e50b1014 	str	r1, [fp, #-20]	; 0xffffffec
/mnt/c/Users/Kuba/Documents/School/ZeroMate/examples/16-paging_userspace/kernel/src/fs/filesystem.cpp:44
    TFS_Tree_Node* child = children;
f0012f9c:	e51b3010 	ldr	r3, [fp, #-16]
f0012fa0:	e593301c 	ldr	r3, [r3, #28]
f0012fa4:	e50b3008 	str	r3, [fp, #-8]
/mnt/c/Users/Kuba/Documents/School/ZeroMate/examples/16-paging_userspace/kernel/src/fs/filesystem.cpp:46

    while (child != nullptr)
f0012fa8:	e51b3008 	ldr	r3, [fp, #-8]
f0012fac:	e3530000 	cmp	r3, #0
f0012fb0:	0a000011 	beq	f0012ffc <_ZN11CFilesystem13TFS_Tree_Node10Find_ChildEPKc+0x74>
/mnt/c/Users/Kuba/Documents/School/ZeroMate/examples/16-paging_userspace/kernel/src/fs/filesystem.cpp:48
    {
        if (strncmp(child->name, name, MaxFilenameLength) == 0)
f0012fb4:	e51b3008 	ldr	r3, [fp, #-8]
f0012fb8:	e3a02010 	mov	r2, #16
f0012fbc:	e51b1014 	ldr	r1, [fp, #-20]	; 0xffffffec
f0012fc0:	e1a00003 	mov	r0, r3
f0012fc4:	eb000d6d 	bl	f0016580 <_Z7strncmpPKcS0_i>
f0012fc8:	e1a03000 	mov	r3, r0
f0012fcc:	e3530000 	cmp	r3, #0
f0012fd0:	03a03001 	moveq	r3, #1
f0012fd4:	13a03000 	movne	r3, #0
f0012fd8:	e6ef3073 	uxtb	r3, r3
f0012fdc:	e3530000 	cmp	r3, #0
f0012fe0:	0a000001 	beq	f0012fec <_ZN11CFilesystem13TFS_Tree_Node10Find_ChildEPKc+0x64>
/mnt/c/Users/Kuba/Documents/School/ZeroMate/examples/16-paging_userspace/kernel/src/fs/filesystem.cpp:49
            return child;
f0012fe4:	e51b3008 	ldr	r3, [fp, #-8]
f0012fe8:	ea000004 	b	f0013000 <_ZN11CFilesystem13TFS_Tree_Node10Find_ChildEPKc+0x78>
/mnt/c/Users/Kuba/Documents/School/ZeroMate/examples/16-paging_userspace/kernel/src/fs/filesystem.cpp:51

        child = child->next;
f0012fec:	e51b3008 	ldr	r3, [fp, #-8]
f0012ff0:	e5933020 	ldr	r3, [r3, #32]
f0012ff4:	e50b3008 	str	r3, [fp, #-8]
/mnt/c/Users/Kuba/Documents/School/ZeroMate/examples/16-paging_userspace/kernel/src/fs/filesystem.cpp:46
    while (child != nullptr)
f0012ff8:	eaffffea 	b	f0012fa8 <_ZN11CFilesystem13TFS_Tree_Node10Find_ChildEPKc+0x20>
/mnt/c/Users/Kuba/Documents/School/ZeroMate/examples/16-paging_userspace/kernel/src/fs/filesystem.cpp:54
    }

    return nullptr;
f0012ffc:	e3a03000 	mov	r3, #0
/mnt/c/Users/Kuba/Documents/School/ZeroMate/examples/16-paging_userspace/kernel/src/fs/filesystem.cpp:55
}
f0013000:	e1a00003 	mov	r0, r3
f0013004:	e24bd004 	sub	sp, fp, #4
f0013008:	e8bd8800 	pop	{fp, pc}

f001300c <_ZN11CFilesystem10InitializeEv>:
_ZN11CFilesystem10InitializeEv():
/mnt/c/Users/Kuba/Documents/School/ZeroMate/examples/16-paging_userspace/kernel/src/fs/filesystem.cpp:58

void CFilesystem::Initialize()
{
f001300c:	e92d4800 	push	{fp, lr}
f0013010:	e28db004 	add	fp, sp, #4
f0013014:	e24dd030 	sub	sp, sp, #48	; 0x30
f0013018:	e50b0030 	str	r0, [fp, #-48]	; 0xffffffd0
/mnt/c/Users/Kuba/Documents/School/ZeroMate/examples/16-paging_userspace/kernel/src/fs/filesystem.cpp:64
    char tmpName[MaxFilenameLength];
    const char* mpPtr;

    int i, j;

    for (i = 0; i < gFS_Drivers_Count; i++)
f001301c:	e3a03000 	mov	r3, #0
f0013020:	e50b300c 	str	r3, [fp, #-12]
/mnt/c/Users/Kuba/Documents/School/ZeroMate/examples/16-paging_userspace/kernel/src/fs/filesystem.cpp:64 (discriminator 1)
f0013024:	e51b200c 	ldr	r2, [fp, #-12]
f0013028:	e59f3220 	ldr	r3, [pc, #544]	; f0013250 <_ZN11CFilesystem10InitializeEv+0x244>
f001302c:	e5933000 	ldr	r3, [r3]
f0013030:	e1520003 	cmp	r2, r3
f0013034:	2a000083 	bcs	f0013248 <_ZN11CFilesystem10InitializeEv+0x23c>
/mnt/c/Users/Kuba/Documents/School/ZeroMate/examples/16-paging_userspace/kernel/src/fs/filesystem.cpp:66
    {
        const TFS_Driver* ptr = &gFS_Drivers[i];
f0013038:	e51b200c 	ldr	r2, [fp, #-12]
f001303c:	e1a03002 	mov	r3, r2
f0013040:	e1a03083 	lsl	r3, r3, #1
f0013044:	e0833002 	add	r3, r3, r2
f0013048:	e1a03183 	lsl	r3, r3, #3
f001304c:	e59f2200 	ldr	r2, [pc, #512]	; f0013254 <_ZN11CFilesystem10InitializeEv+0x248>
f0013050:	e0833002 	add	r3, r3, r2
f0013054:	e50b3018 	str	r3, [fp, #-24]	; 0xffffffe8
/mnt/c/Users/Kuba/Documents/School/ZeroMate/examples/16-paging_userspace/kernel/src/fs/filesystem.cpp:68

        mpPtr = ptr->mountPoint;
f0013058:	e51b3018 	ldr	r3, [fp, #-24]	; 0xffffffe8
f001305c:	e5933010 	ldr	r3, [r3, #16]
f0013060:	e50b3008 	str	r3, [fp, #-8]
/mnt/c/Users/Kuba/Documents/School/ZeroMate/examples/16-paging_userspace/kernel/src/fs/filesystem.cpp:70

        TFS_Tree_Node* node = &mRoot, *tmpNode = nullptr;
f0013064:	e51b3030 	ldr	r3, [fp, #-48]	; 0xffffffd0
f0013068:	e50b3014 	str	r3, [fp, #-20]	; 0xffffffec
f001306c:	e3a03000 	mov	r3, #0
f0013070:	e50b301c 	str	r3, [fp, #-28]	; 0xffffffe4
/mnt/c/Users/Kuba/Documents/School/ZeroMate/examples/16-paging_userspace/kernel/src/fs/filesystem.cpp:72

        while (mpPtr[0] != '\0')
f0013074:	e51b3008 	ldr	r3, [fp, #-8]
f0013078:	e5d33000 	ldrb	r3, [r3]
f001307c:	e3530000 	cmp	r3, #0
f0013080:	0a00005c 	beq	f00131f8 <_ZN11CFilesystem10InitializeEv+0x1ec>
/mnt/c/Users/Kuba/Documents/School/ZeroMate/examples/16-paging_userspace/kernel/src/fs/filesystem.cpp:74
        {
            for (j = 0; j < MaxPathLength && mpPtr[j] != '\0'; j++)
f0013084:	e3a03000 	mov	r3, #0
f0013088:	e50b3010 	str	r3, [fp, #-16]
/mnt/c/Users/Kuba/Documents/School/ZeroMate/examples/16-paging_userspace/kernel/src/fs/filesystem.cpp:74 (discriminator 1)
f001308c:	e51b3010 	ldr	r3, [fp, #-16]
f0013090:	e353007f 	cmp	r3, #127	; 0x7f
f0013094:	8a00001e 	bhi	f0013114 <_ZN11CFilesystem10InitializeEv+0x108>
/mnt/c/Users/Kuba/Documents/School/ZeroMate/examples/16-paging_userspace/kernel/src/fs/filesystem.cpp:74 (discriminator 2)
f0013098:	e51b3010 	ldr	r3, [fp, #-16]
f001309c:	e51b2008 	ldr	r2, [fp, #-8]
f00130a0:	e0823003 	add	r3, r2, r3
f00130a4:	e5d33000 	ldrb	r3, [r3]
f00130a8:	e3530000 	cmp	r3, #0
f00130ac:	0a000018 	beq	f0013114 <_ZN11CFilesystem10InitializeEv+0x108>
/mnt/c/Users/Kuba/Documents/School/ZeroMate/examples/16-paging_userspace/kernel/src/fs/filesystem.cpp:76
            {
                if (mpPtr[j] == ':' || mpPtr[j] == '/')
f00130b0:	e51b3010 	ldr	r3, [fp, #-16]
f00130b4:	e51b2008 	ldr	r2, [fp, #-8]
f00130b8:	e0823003 	add	r3, r2, r3
f00130bc:	e5d33000 	ldrb	r3, [r3]
f00130c0:	e353003a 	cmp	r3, #58	; 0x3a
f00130c4:	0a000012 	beq	f0013114 <_ZN11CFilesystem10InitializeEv+0x108>
/mnt/c/Users/Kuba/Documents/School/ZeroMate/examples/16-paging_userspace/kernel/src/fs/filesystem.cpp:76 (discriminator 1)
f00130c8:	e51b3010 	ldr	r3, [fp, #-16]
f00130cc:	e51b2008 	ldr	r2, [fp, #-8]
f00130d0:	e0823003 	add	r3, r2, r3
f00130d4:	e5d33000 	ldrb	r3, [r3]
f00130d8:	e353002f 	cmp	r3, #47	; 0x2f
f00130dc:	0a00000c 	beq	f0013114 <_ZN11CFilesystem10InitializeEv+0x108>
/mnt/c/Users/Kuba/Documents/School/ZeroMate/examples/16-paging_userspace/kernel/src/fs/filesystem.cpp:79 (discriminator 3)
                    break;

                tmpName[j] = mpPtr[j];
f00130e0:	e51b3010 	ldr	r3, [fp, #-16]
f00130e4:	e51b2008 	ldr	r2, [fp, #-8]
f00130e8:	e0823003 	add	r3, r2, r3
f00130ec:	e5d31000 	ldrb	r1, [r3]
f00130f0:	e24b202c 	sub	r2, fp, #44	; 0x2c
f00130f4:	e51b3010 	ldr	r3, [fp, #-16]
f00130f8:	e0823003 	add	r3, r2, r3
f00130fc:	e1a02001 	mov	r2, r1
f0013100:	e5c32000 	strb	r2, [r3]
/mnt/c/Users/Kuba/Documents/School/ZeroMate/examples/16-paging_userspace/kernel/src/fs/filesystem.cpp:74 (discriminator 3)
            for (j = 0; j < MaxPathLength && mpPtr[j] != '\0'; j++)
f0013104:	e51b3010 	ldr	r3, [fp, #-16]
f0013108:	e2833001 	add	r3, r3, #1
f001310c:	e50b3010 	str	r3, [fp, #-16]
f0013110:	eaffffdd 	b	f001308c <_ZN11CFilesystem10InitializeEv+0x80>
/mnt/c/Users/Kuba/Documents/School/ZeroMate/examples/16-paging_userspace/kernel/src/fs/filesystem.cpp:82
            }

            tmpName[j] = '\0';
f0013114:	e24b202c 	sub	r2, fp, #44	; 0x2c
f0013118:	e51b3010 	ldr	r3, [fp, #-16]
f001311c:	e0823003 	add	r3, r2, r3
f0013120:	e3a02000 	mov	r2, #0
f0013124:	e5c32000 	strb	r2, [r3]
/mnt/c/Users/Kuba/Documents/School/ZeroMate/examples/16-paging_userspace/kernel/src/fs/filesystem.cpp:84

            mpPtr += j;
f0013128:	e51b3010 	ldr	r3, [fp, #-16]
f001312c:	e51b2008 	ldr	r2, [fp, #-8]
f0013130:	e0823003 	add	r3, r2, r3
f0013134:	e50b3008 	str	r3, [fp, #-8]
/mnt/c/Users/Kuba/Documents/School/ZeroMate/examples/16-paging_userspace/kernel/src/fs/filesystem.cpp:85
            if (mpPtr[0] != '\0')
f0013138:	e51b3008 	ldr	r3, [fp, #-8]
f001313c:	e5d33000 	ldrb	r3, [r3]
f0013140:	e3530000 	cmp	r3, #0
f0013144:	0a000002 	beq	f0013154 <_ZN11CFilesystem10InitializeEv+0x148>
/mnt/c/Users/Kuba/Documents/School/ZeroMate/examples/16-paging_userspace/kernel/src/fs/filesystem.cpp:87
            {
                mpPtr += 1;
f0013148:	e51b3008 	ldr	r3, [fp, #-8]
f001314c:	e2833001 	add	r3, r3, #1
f0013150:	e50b3008 	str	r3, [fp, #-8]
/mnt/c/Users/Kuba/Documents/School/ZeroMate/examples/16-paging_userspace/kernel/src/fs/filesystem.cpp:90
            }

            tmpNode = node->Find_Child(tmpName);
f0013154:	e24b302c 	sub	r3, fp, #44	; 0x2c
f0013158:	e1a01003 	mov	r1, r3
f001315c:	e51b0014 	ldr	r0, [fp, #-20]	; 0xffffffec
f0013160:	ebffff88 	bl	f0012f88 <_ZN11CFilesystem13TFS_Tree_Node10Find_ChildEPKc>
f0013164:	e50b001c 	str	r0, [fp, #-28]	; 0xffffffe4
/mnt/c/Users/Kuba/Documents/School/ZeroMate/examples/16-paging_userspace/kernel/src/fs/filesystem.cpp:92
            // uzel jsme nasli - pouzijeme ho pro dalsi prohledavani
            if (tmpNode)
f0013168:	e51b301c 	ldr	r3, [fp, #-28]	; 0xffffffe4
f001316c:	e3530000 	cmp	r3, #0
f0013170:	0a000002 	beq	f0013180 <_ZN11CFilesystem10InitializeEv+0x174>
/mnt/c/Users/Kuba/Documents/School/ZeroMate/examples/16-paging_userspace/kernel/src/fs/filesystem.cpp:93
                node = tmpNode;
f0013174:	e51b301c 	ldr	r3, [fp, #-28]	; 0xffffffe4
f0013178:	e50b3014 	str	r3, [fp, #-20]	; 0xffffffec
f001317c:	eaffffbc 	b	f0013074 <_ZN11CFilesystem10InitializeEv+0x68>
/mnt/c/Users/Kuba/Documents/School/ZeroMate/examples/16-paging_userspace/kernel/src/fs/filesystem.cpp:97
            // uzel jsme nenasli - vytvorime ho a pouzijeme ho pro dalsi prohledavani
            else
            {
                tmpNode = sKernelMem.Alloc<TFS_Tree_Node>();
f0013180:	e59f00d0 	ldr	r0, [pc, #208]	; f0013258 <_ZN11CFilesystem10InitializeEv+0x24c>
f0013184:	eb0000da 	bl	f00134f4 <_ZN20CKernel_Heap_Manager5AllocIN11CFilesystem13TFS_Tree_NodeEEEPT_v>
f0013188:	e50b001c 	str	r0, [fp, #-28]	; 0xffffffe4
/mnt/c/Users/Kuba/Documents/School/ZeroMate/examples/16-paging_userspace/kernel/src/fs/filesystem.cpp:98
                strncpy(tmpNode->name, tmpName, MaxFilenameLength);
f001318c:	e51b301c 	ldr	r3, [fp, #-28]	; 0xffffffe4
f0013190:	e24b102c 	sub	r1, fp, #44	; 0x2c
f0013194:	e3a02010 	mov	r2, #16
f0013198:	e1a00003 	mov	r0, r3
f001319c:	eb000cc7 	bl	f00164c0 <_Z7strncpyPcPKci>
/mnt/c/Users/Kuba/Documents/School/ZeroMate/examples/16-paging_userspace/kernel/src/fs/filesystem.cpp:99
                tmpNode->parent = node;
f00131a0:	e51b301c 	ldr	r3, [fp, #-28]	; 0xffffffe4
f00131a4:	e51b2014 	ldr	r2, [fp, #-20]	; 0xffffffec
f00131a8:	e5832018 	str	r2, [r3, #24]
/mnt/c/Users/Kuba/Documents/School/ZeroMate/examples/16-paging_userspace/kernel/src/fs/filesystem.cpp:100
                tmpNode->children = nullptr;
f00131ac:	e51b301c 	ldr	r3, [fp, #-28]	; 0xffffffe4
f00131b0:	e3a02000 	mov	r2, #0
f00131b4:	e583201c 	str	r2, [r3, #28]
/mnt/c/Users/Kuba/Documents/School/ZeroMate/examples/16-paging_userspace/kernel/src/fs/filesystem.cpp:101
                tmpNode->driver_idx = NoFilesystemDriver; // zatim - mozna se neco dole zmeni
f00131b8:	e51b301c 	ldr	r3, [fp, #-28]	; 0xffffffe4
f00131bc:	e3e02000 	mvn	r2, #0
f00131c0:	e5832014 	str	r2, [r3, #20]
/mnt/c/Users/Kuba/Documents/School/ZeroMate/examples/16-paging_userspace/kernel/src/fs/filesystem.cpp:102
                tmpNode->isDirectory = true;
f00131c4:	e51b301c 	ldr	r3, [fp, #-28]	; 0xffffffe4
f00131c8:	e3a02001 	mov	r2, #1
f00131cc:	e5c32010 	strb	r2, [r3, #16]
/mnt/c/Users/Kuba/Documents/School/ZeroMate/examples/16-paging_userspace/kernel/src/fs/filesystem.cpp:103
                tmpNode->next = node->children;
f00131d0:	e51b3014 	ldr	r3, [fp, #-20]	; 0xffffffec
f00131d4:	e593201c 	ldr	r2, [r3, #28]
f00131d8:	e51b301c 	ldr	r3, [fp, #-28]	; 0xffffffe4
f00131dc:	e5832020 	str	r2, [r3, #32]
/mnt/c/Users/Kuba/Documents/School/ZeroMate/examples/16-paging_userspace/kernel/src/fs/filesystem.cpp:104
                node->children = tmpNode;
f00131e0:	e51b3014 	ldr	r3, [fp, #-20]	; 0xffffffec
f00131e4:	e51b201c 	ldr	r2, [fp, #-28]	; 0xffffffe4
f00131e8:	e583201c 	str	r2, [r3, #28]
/mnt/c/Users/Kuba/Documents/School/ZeroMate/examples/16-paging_userspace/kernel/src/fs/filesystem.cpp:106

                node = tmpNode;
f00131ec:	e51b301c 	ldr	r3, [fp, #-28]	; 0xffffffe4
f00131f0:	e50b3014 	str	r3, [fp, #-20]	; 0xffffffec
/mnt/c/Users/Kuba/Documents/School/ZeroMate/examples/16-paging_userspace/kernel/src/fs/filesystem.cpp:72
        while (mpPtr[0] != '\0')
f00131f4:	eaffff9e 	b	f0013074 <_ZN11CFilesystem10InitializeEv+0x68>
/mnt/c/Users/Kuba/Documents/School/ZeroMate/examples/16-paging_userspace/kernel/src/fs/filesystem.cpp:113
        }

        // 'node' obsahuje uzel posledniho clanku mountpointu - tedy vlastni mountpoint

        // mountpoint nesmi byt uz zabrany
        if (node->driver_idx != NoFilesystemDriver)
f00131f8:	e51b3014 	ldr	r3, [fp, #-20]	; 0xffffffec
f00131fc:	e5933014 	ldr	r3, [r3, #20]
f0013200:	e3730001 	cmn	r3, #1
f0013204:	1a00000e 	bne	f0013244 <_ZN11CFilesystem10InitializeEv+0x238>
/mnt/c/Users/Kuba/Documents/School/ZeroMate/examples/16-paging_userspace/kernel/src/fs/filesystem.cpp:116 (discriminator 2)
            return;

        node->driver_idx = i; // timto predavame veskere manipulace driveru
f0013208:	e51b200c 	ldr	r2, [fp, #-12]
f001320c:	e51b3014 	ldr	r3, [fp, #-20]	; 0xffffffec
f0013210:	e5832014 	str	r2, [r3, #20]
/mnt/c/Users/Kuba/Documents/School/ZeroMate/examples/16-paging_userspace/kernel/src/fs/filesystem.cpp:119 (discriminator 2)

        // dame driveru vedet, ze jsme ho zaregistrovali
        ptr->driver->On_Register();
f0013214:	e51b3018 	ldr	r3, [fp, #-24]	; 0xffffffe8
f0013218:	e5932014 	ldr	r2, [r3, #20]
f001321c:	e51b3018 	ldr	r3, [fp, #-24]	; 0xffffffe8
f0013220:	e5933014 	ldr	r3, [r3, #20]
f0013224:	e5933000 	ldr	r3, [r3]
f0013228:	e5933000 	ldr	r3, [r3]
f001322c:	e1a00002 	mov	r0, r2
f0013230:	e12fff33 	blx	r3
/mnt/c/Users/Kuba/Documents/School/ZeroMate/examples/16-paging_userspace/kernel/src/fs/filesystem.cpp:64 (discriminator 2)
    for (i = 0; i < gFS_Drivers_Count; i++)
f0013234:	e51b300c 	ldr	r3, [fp, #-12]
f0013238:	e2833001 	add	r3, r3, #1
f001323c:	e50b300c 	str	r3, [fp, #-12]
f0013240:	eaffff77 	b	f0013024 <_ZN11CFilesystem10InitializeEv+0x18>
/mnt/c/Users/Kuba/Documents/School/ZeroMate/examples/16-paging_userspace/kernel/src/fs/filesystem.cpp:114
            return;
f0013244:	e320f000 	nop	{0}
/mnt/c/Users/Kuba/Documents/School/ZeroMate/examples/16-paging_userspace/kernel/src/fs/filesystem.cpp:121
    }
}
f0013248:	e24bd004 	sub	sp, fp, #4
f001324c:	e8bd8800 	pop	{fp, pc}
f0013250:	f0016be8 			; <UNDEFINED> instruction: 0xf0016be8
f0013254:	f0016b70 			; <UNDEFINED> instruction: 0xf0016b70
f0013258:	c003a618 	andgt	sl, r3, r8, lsl r6

f001325c <_ZN11CFilesystem4OpenEPKc15NFile_Open_Mode>:
_ZN11CFilesystem4OpenEPKc15NFile_Open_Mode():
/mnt/c/Users/Kuba/Documents/School/ZeroMate/examples/16-paging_userspace/kernel/src/fs/filesystem.cpp:124

IFile* CFilesystem::Open(const char* path, NFile_Open_Mode mode)
{
f001325c:	e92d4800 	push	{fp, lr}
f0013260:	e28db004 	add	fp, sp, #4
f0013264:	e24dd030 	sub	sp, sp, #48	; 0x30
f0013268:	e50b0028 	str	r0, [fp, #-40]	; 0xffffffd8
f001326c:	e50b102c 	str	r1, [fp, #-44]	; 0xffffffd4
f0013270:	e50b2030 	str	r2, [fp, #-48]	; 0xffffffd0
/mnt/c/Users/Kuba/Documents/School/ZeroMate/examples/16-paging_userspace/kernel/src/fs/filesystem.cpp:130
    char tmpName[MaxFilenameLength];
    const char* mpPtr;

    int j;

    mpPtr = path;
f0013274:	e51b302c 	ldr	r3, [fp, #-44]	; 0xffffffd4
f0013278:	e50b3008 	str	r3, [fp, #-8]
/mnt/c/Users/Kuba/Documents/School/ZeroMate/examples/16-paging_userspace/kernel/src/fs/filesystem.cpp:132

    TFS_Tree_Node* node = &mRoot, *tmpNode = nullptr;
f001327c:	e51b3028 	ldr	r3, [fp, #-40]	; 0xffffffd8
f0013280:	e50b3010 	str	r3, [fp, #-16]
f0013284:	e3a03000 	mov	r3, #0
f0013288:	e50b3014 	str	r3, [fp, #-20]	; 0xffffffec
/mnt/c/Users/Kuba/Documents/School/ZeroMate/examples/16-paging_userspace/kernel/src/fs/filesystem.cpp:134

    while (mpPtr[0] != '\0')
f001328c:	e51b3008 	ldr	r3, [fp, #-8]
f0013290:	e5d33000 	ldrb	r3, [r3]
f0013294:	e3530000 	cmp	r3, #0
f0013298:	0a000067 	beq	f001343c <_ZN11CFilesystem4OpenEPKc15NFile_Open_Mode+0x1e0>
/mnt/c/Users/Kuba/Documents/School/ZeroMate/examples/16-paging_userspace/kernel/src/fs/filesystem.cpp:136
    {
        for (j = 0; j < MaxPathLength && mpPtr[j] != '\0'; j++)
f001329c:	e3a03000 	mov	r3, #0
f00132a0:	e50b300c 	str	r3, [fp, #-12]
/mnt/c/Users/Kuba/Documents/School/ZeroMate/examples/16-paging_userspace/kernel/src/fs/filesystem.cpp:136 (discriminator 1)
f00132a4:	e51b300c 	ldr	r3, [fp, #-12]
f00132a8:	e353007f 	cmp	r3, #127	; 0x7f
f00132ac:	8a00001e 	bhi	f001332c <_ZN11CFilesystem4OpenEPKc15NFile_Open_Mode+0xd0>
/mnt/c/Users/Kuba/Documents/School/ZeroMate/examples/16-paging_userspace/kernel/src/fs/filesystem.cpp:136 (discriminator 2)
f00132b0:	e51b300c 	ldr	r3, [fp, #-12]
f00132b4:	e51b2008 	ldr	r2, [fp, #-8]
f00132b8:	e0823003 	add	r3, r2, r3
f00132bc:	e5d33000 	ldrb	r3, [r3]
f00132c0:	e3530000 	cmp	r3, #0
f00132c4:	0a000018 	beq	f001332c <_ZN11CFilesystem4OpenEPKc15NFile_Open_Mode+0xd0>
/mnt/c/Users/Kuba/Documents/School/ZeroMate/examples/16-paging_userspace/kernel/src/fs/filesystem.cpp:138
        {
            if (mpPtr[j] == ':' || mpPtr[j] == '/')
f00132c8:	e51b300c 	ldr	r3, [fp, #-12]
f00132cc:	e51b2008 	ldr	r2, [fp, #-8]
f00132d0:	e0823003 	add	r3, r2, r3
f00132d4:	e5d33000 	ldrb	r3, [r3]
f00132d8:	e353003a 	cmp	r3, #58	; 0x3a
f00132dc:	0a000012 	beq	f001332c <_ZN11CFilesystem4OpenEPKc15NFile_Open_Mode+0xd0>
/mnt/c/Users/Kuba/Documents/School/ZeroMate/examples/16-paging_userspace/kernel/src/fs/filesystem.cpp:138 (discriminator 1)
f00132e0:	e51b300c 	ldr	r3, [fp, #-12]
f00132e4:	e51b2008 	ldr	r2, [fp, #-8]
f00132e8:	e0823003 	add	r3, r2, r3
f00132ec:	e5d33000 	ldrb	r3, [r3]
f00132f0:	e353002f 	cmp	r3, #47	; 0x2f
f00132f4:	0a00000c 	beq	f001332c <_ZN11CFilesystem4OpenEPKc15NFile_Open_Mode+0xd0>
/mnt/c/Users/Kuba/Documents/School/ZeroMate/examples/16-paging_userspace/kernel/src/fs/filesystem.cpp:141 (discriminator 3)
                break;

            tmpName[j] = mpPtr[j];
f00132f8:	e51b300c 	ldr	r3, [fp, #-12]
f00132fc:	e51b2008 	ldr	r2, [fp, #-8]
f0013300:	e0823003 	add	r3, r2, r3
f0013304:	e5d31000 	ldrb	r1, [r3]
f0013308:	e24b2024 	sub	r2, fp, #36	; 0x24
f001330c:	e51b300c 	ldr	r3, [fp, #-12]
f0013310:	e0823003 	add	r3, r2, r3
f0013314:	e1a02001 	mov	r2, r1
f0013318:	e5c32000 	strb	r2, [r3]
/mnt/c/Users/Kuba/Documents/School/ZeroMate/examples/16-paging_userspace/kernel/src/fs/filesystem.cpp:136 (discriminator 3)
        for (j = 0; j < MaxPathLength && mpPtr[j] != '\0'; j++)
f001331c:	e51b300c 	ldr	r3, [fp, #-12]
f0013320:	e2833001 	add	r3, r3, #1
f0013324:	e50b300c 	str	r3, [fp, #-12]
f0013328:	eaffffdd 	b	f00132a4 <_ZN11CFilesystem4OpenEPKc15NFile_Open_Mode+0x48>
/mnt/c/Users/Kuba/Documents/School/ZeroMate/examples/16-paging_userspace/kernel/src/fs/filesystem.cpp:144
        }

        tmpName[j] = '\0';
f001332c:	e24b2024 	sub	r2, fp, #36	; 0x24
f0013330:	e51b300c 	ldr	r3, [fp, #-12]
f0013334:	e0823003 	add	r3, r2, r3
f0013338:	e3a02000 	mov	r2, #0
f001333c:	e5c32000 	strb	r2, [r3]
/mnt/c/Users/Kuba/Documents/School/ZeroMate/examples/16-paging_userspace/kernel/src/fs/filesystem.cpp:146

        mpPtr += j;
f0013340:	e51b300c 	ldr	r3, [fp, #-12]
f0013344:	e51b2008 	ldr	r2, [fp, #-8]
f0013348:	e0823003 	add	r3, r2, r3
f001334c:	e50b3008 	str	r3, [fp, #-8]
/mnt/c/Users/Kuba/Documents/School/ZeroMate/examples/16-paging_userspace/kernel/src/fs/filesystem.cpp:147
        if (mpPtr[0] != '\0')
f0013350:	e51b3008 	ldr	r3, [fp, #-8]
f0013354:	e5d33000 	ldrb	r3, [r3]
f0013358:	e3530000 	cmp	r3, #0
f001335c:	0a000002 	beq	f001336c <_ZN11CFilesystem4OpenEPKc15NFile_Open_Mode+0x110>
/mnt/c/Users/Kuba/Documents/School/ZeroMate/examples/16-paging_userspace/kernel/src/fs/filesystem.cpp:149
        {
            mpPtr += 1;
f0013360:	e51b3008 	ldr	r3, [fp, #-8]
f0013364:	e2833001 	add	r3, r3, #1
f0013368:	e50b3008 	str	r3, [fp, #-8]
/mnt/c/Users/Kuba/Documents/School/ZeroMate/examples/16-paging_userspace/kernel/src/fs/filesystem.cpp:152
        }

        tmpNode = node->Find_Child(tmpName);
f001336c:	e24b3024 	sub	r3, fp, #36	; 0x24
f0013370:	e1a01003 	mov	r1, r3
f0013374:	e51b0010 	ldr	r0, [fp, #-16]
f0013378:	ebffff02 	bl	f0012f88 <_ZN11CFilesystem13TFS_Tree_Node10Find_ChildEPKc>
f001337c:	e50b0014 	str	r0, [fp, #-20]	; 0xffffffec
/mnt/c/Users/Kuba/Documents/School/ZeroMate/examples/16-paging_userspace/kernel/src/fs/filesystem.cpp:153
        if (tmpNode)
f0013380:	e51b3014 	ldr	r3, [fp, #-20]	; 0xffffffec
f0013384:	e3530000 	cmp	r3, #0
f0013388:	0a000001 	beq	f0013394 <_ZN11CFilesystem4OpenEPKc15NFile_Open_Mode+0x138>
/mnt/c/Users/Kuba/Documents/School/ZeroMate/examples/16-paging_userspace/kernel/src/fs/filesystem.cpp:154
            node = tmpNode;
f001338c:	e51b3014 	ldr	r3, [fp, #-20]	; 0xffffffec
f0013390:	e50b3010 	str	r3, [fp, #-16]
/mnt/c/Users/Kuba/Documents/School/ZeroMate/examples/16-paging_userspace/kernel/src/fs/filesystem.cpp:156

        if (tmpNode->driver_idx != NoFilesystemDriver)
f0013394:	e51b3014 	ldr	r3, [fp, #-20]	; 0xffffffec
f0013398:	e5933014 	ldr	r3, [r3, #20]
f001339c:	e3730001 	cmn	r3, #1
f00133a0:	0a00001d 	beq	f001341c <_ZN11CFilesystem4OpenEPKc15NFile_Open_Mode+0x1c0>
/mnt/c/Users/Kuba/Documents/School/ZeroMate/examples/16-paging_userspace/kernel/src/fs/filesystem.cpp:157
            return gFS_Drivers[tmpNode->driver_idx].driver->Open_File(mpPtr, mode);
f00133a4:	e51b3014 	ldr	r3, [fp, #-20]	; 0xffffffec
f00133a8:	e5932014 	ldr	r2, [r3, #20]
f00133ac:	e59f1098 	ldr	r1, [pc, #152]	; f001344c <_ZN11CFilesystem4OpenEPKc15NFile_Open_Mode+0x1f0>
f00133b0:	e1a03002 	mov	r3, r2
f00133b4:	e1a03083 	lsl	r3, r3, #1
f00133b8:	e0833002 	add	r3, r3, r2
f00133bc:	e1a03183 	lsl	r3, r3, #3
f00133c0:	e0813003 	add	r3, r1, r3
f00133c4:	e2833014 	add	r3, r3, #20
f00133c8:	e5930000 	ldr	r0, [r3]
f00133cc:	e51b3014 	ldr	r3, [fp, #-20]	; 0xffffffec
f00133d0:	e5932014 	ldr	r2, [r3, #20]
f00133d4:	e51b3014 	ldr	r3, [fp, #-20]	; 0xffffffec
f00133d8:	e5932014 	ldr	r2, [r3, #20]
f00133dc:	e59f1068 	ldr	r1, [pc, #104]	; f001344c <_ZN11CFilesystem4OpenEPKc15NFile_Open_Mode+0x1f0>
f00133e0:	e1a03002 	mov	r3, r2
f00133e4:	e1a03083 	lsl	r3, r3, #1
f00133e8:	e0833002 	add	r3, r3, r2
f00133ec:	e1a03183 	lsl	r3, r3, #3
f00133f0:	e0813003 	add	r3, r1, r3
f00133f4:	e2833014 	add	r3, r3, #20
f00133f8:	e5933000 	ldr	r3, [r3]
f00133fc:	e5933000 	ldr	r3, [r3]
f0013400:	e2833004 	add	r3, r3, #4
f0013404:	e5933000 	ldr	r3, [r3]
f0013408:	e51b2030 	ldr	r2, [fp, #-48]	; 0xffffffd0
f001340c:	e51b1008 	ldr	r1, [fp, #-8]
f0013410:	e12fff33 	blx	r3
f0013414:	e1a03000 	mov	r3, r0
f0013418:	ea000008 	b	f0013440 <_ZN11CFilesystem4OpenEPKc15NFile_Open_Mode+0x1e4>
/mnt/c/Users/Kuba/Documents/School/ZeroMate/examples/16-paging_userspace/kernel/src/fs/filesystem.cpp:158
        else if (!tmpNode->isDirectory)
f001341c:	e51b3014 	ldr	r3, [fp, #-20]	; 0xffffffec
f0013420:	e5d33010 	ldrb	r3, [r3, #16]
f0013424:	e2233001 	eor	r3, r3, #1
f0013428:	e6ef3073 	uxtb	r3, r3
f001342c:	e3530000 	cmp	r3, #0
f0013430:	1a000000 	bne	f0013438 <_ZN11CFilesystem4OpenEPKc15NFile_Open_Mode+0x1dc>
/mnt/c/Users/Kuba/Documents/School/ZeroMate/examples/16-paging_userspace/kernel/src/fs/filesystem.cpp:134
    while (mpPtr[0] != '\0')
f0013434:	eaffff94 	b	f001328c <_ZN11CFilesystem4OpenEPKc15NFile_Open_Mode+0x30>
/mnt/c/Users/Kuba/Documents/School/ZeroMate/examples/16-paging_userspace/kernel/src/fs/filesystem.cpp:159
            break;
f0013438:	e320f000 	nop	{0}
/mnt/c/Users/Kuba/Documents/School/ZeroMate/examples/16-paging_userspace/kernel/src/fs/filesystem.cpp:163
    }

    // zadny filesystem se tohoto uzlu "neujal" -> soubor neexistuje
    return nullptr;
f001343c:	e3a03000 	mov	r3, #0
/mnt/c/Users/Kuba/Documents/School/ZeroMate/examples/16-paging_userspace/kernel/src/fs/filesystem.cpp:164 (discriminator 1)
}
f0013440:	e1a00003 	mov	r0, r3
f0013444:	e24bd004 	sub	sp, fp, #4
f0013448:	e8bd8800 	pop	{fp, pc}
f001344c:	f0016b70 			; <UNDEFINED> instruction: 0xf0016b70

f0013450 <_Z41__static_initialization_and_destruction_0ii>:
_Z41__static_initialization_and_destruction_0ii():
/mnt/c/Users/Kuba/Documents/School/ZeroMate/examples/16-paging_userspace/kernel/src/fs/filesystem.cpp:164
f0013450:	e92d4800 	push	{fp, lr}
f0013454:	e28db004 	add	fp, sp, #4
f0013458:	e24dd008 	sub	sp, sp, #8
f001345c:	e50b0008 	str	r0, [fp, #-8]
f0013460:	e50b100c 	str	r1, [fp, #-12]
f0013464:	e51b3008 	ldr	r3, [fp, #-8]
f0013468:	e3530001 	cmp	r3, #1
f001346c:	1a000005 	bne	f0013488 <_Z41__static_initialization_and_destruction_0ii+0x38>
/mnt/c/Users/Kuba/Documents/School/ZeroMate/examples/16-paging_userspace/kernel/src/fs/filesystem.cpp:164 (discriminator 1)
f0013470:	e51b300c 	ldr	r3, [fp, #-12]
f0013474:	e59f2018 	ldr	r2, [pc, #24]	; f0013494 <_Z41__static_initialization_and_destruction_0ii+0x44>
f0013478:	e1530002 	cmp	r3, r2
f001347c:	1a000001 	bne	f0013488 <_Z41__static_initialization_and_destruction_0ii+0x38>
/mnt/c/Users/Kuba/Documents/School/ZeroMate/examples/16-paging_userspace/kernel/src/fs/filesystem.cpp:7
CFilesystem sFilesystem;
f0013480:	e59f0010 	ldr	r0, [pc, #16]	; f0013498 <_Z41__static_initialization_and_destruction_0ii+0x48>
f0013484:	ebfffe51 	bl	f0012dd0 <_ZN11CFilesystemC1Ev>
/mnt/c/Users/Kuba/Documents/School/ZeroMate/examples/16-paging_userspace/kernel/src/fs/filesystem.cpp:164
}
f0013488:	e320f000 	nop	{0}
f001348c:	e24bd004 	sub	sp, fp, #4
f0013490:	e8bd8800 	pop	{fp, pc}
f0013494:	0000ffff 	strdeq	pc, [r0], -pc	; <UNPREDICTABLE>
f0013498:	c003a57c 	andgt	sl, r3, ip, ror r5

f001349c <_GLOBAL__sub_I_sFilesystem>:
_GLOBAL__sub_I_sFilesystem():
/mnt/c/Users/Kuba/Documents/School/ZeroMate/examples/16-paging_userspace/kernel/src/fs/filesystem.cpp:164
f001349c:	e92d4800 	push	{fp, lr}
f00134a0:	e28db004 	add	fp, sp, #4
f00134a4:	e59f1008 	ldr	r1, [pc, #8]	; f00134b4 <_GLOBAL__sub_I_sFilesystem+0x18>
f00134a8:	e3a00001 	mov	r0, #1
f00134ac:	ebffffe7 	bl	f0013450 <_Z41__static_initialization_and_destruction_0ii>
f00134b0:	e8bd8800 	pop	{fp, pc}
f00134b4:	0000ffff 	strdeq	pc, [r0], -pc	; <UNPREDICTABLE>

f00134b8 <_ZN11CFilesystem13TFS_Tree_NodeC1Ev>:
_ZN11CFilesystem13TFS_Tree_NodeC2Ev():
/mnt/c/Users/Kuba/Documents/School/ZeroMate/examples/16-paging_userspace/kernel/include/fs/filesystem.h:64

class CFilesystem
{
    private:
        // uzel filesystemu, ktery neni spravovan zadnym FS driverem
        struct TFS_Tree_Node
f00134b8:	e52db004 	push	{fp}		; (str fp, [sp, #-4]!)
f00134bc:	e28db000 	add	fp, sp, #0
f00134c0:	e24dd00c 	sub	sp, sp, #12
f00134c4:	e50b0008 	str	r0, [fp, #-8]
f00134c8:	e51b3008 	ldr	r3, [fp, #-8]
f00134cc:	e3a02000 	mov	r2, #0
f00134d0:	e5c32010 	strb	r2, [r3, #16]
f00134d4:	e51b3008 	ldr	r3, [fp, #-8]
f00134d8:	e3e02000 	mvn	r2, #0
f00134dc:	e5832014 	str	r2, [r3, #20]
f00134e0:	e51b3008 	ldr	r3, [fp, #-8]
f00134e4:	e1a00003 	mov	r0, r3
f00134e8:	e28bd000 	add	sp, fp, #0
f00134ec:	e49db004 	pop	{fp}		; (ldr fp, [sp], #4)
f00134f0:	e12fff1e 	bx	lr

f00134f4 <_ZN20CKernel_Heap_Manager5AllocIN11CFilesystem13TFS_Tree_NodeEEEPT_v>:
_ZN20CKernel_Heap_Manager5AllocIN11CFilesystem13TFS_Tree_NodeEEEPT_v():
/mnt/c/Users/Kuba/Documents/School/ZeroMate/examples/16-paging_userspace/kernel/include/memory/kernel_heap.h:30

        void* Alloc(uint32_t size);
        void Free(void* mem);

        template<class T>
        T* Alloc()
f00134f4:	e92d4800 	push	{fp, lr}
f00134f8:	e28db004 	add	fp, sp, #4
f00134fc:	e24dd008 	sub	sp, sp, #8
f0013500:	e50b0008 	str	r0, [fp, #-8]
/mnt/c/Users/Kuba/Documents/School/ZeroMate/examples/16-paging_userspace/kernel/include/memory/kernel_heap.h:32
        {
            return reinterpret_cast<T*>(Alloc(sizeof(T)));
f0013504:	e3a01024 	mov	r1, #36	; 0x24
f0013508:	e51b0008 	ldr	r0, [fp, #-8]
f001350c:	eb000558 	bl	f0014a74 <_ZN20CKernel_Heap_Manager5AllocEj>
f0013510:	e1a03000 	mov	r3, r0
/mnt/c/Users/Kuba/Documents/School/ZeroMate/examples/16-paging_userspace/kernel/include/memory/kernel_heap.h:33
        }
f0013514:	e1a00003 	mov	r0, r3
f0013518:	e24bd004 	sub	sp, fp, #4
f001351c:	e8bd8800 	pop	{fp, pc}

f0013520 <_ZN5IFile4ReadEPcj>:
_ZN5IFile4ReadEPcj():
/mnt/c/Users/Kuba/Documents/School/ZeroMate/examples/16-paging_userspace/kernel/include/fs/filesystem.h:40
        virtual uint32_t Read(char* buffer, uint32_t num) { return 0; };
f0013520:	e52db004 	push	{fp}		; (str fp, [sp, #-4]!)
f0013524:	e28db000 	add	fp, sp, #0
f0013528:	e24dd014 	sub	sp, sp, #20
f001352c:	e50b0008 	str	r0, [fp, #-8]
f0013530:	e50b100c 	str	r1, [fp, #-12]
f0013534:	e50b2010 	str	r2, [fp, #-16]
f0013538:	e3a03000 	mov	r3, #0
f001353c:	e1a00003 	mov	r0, r3
f0013540:	e28bd000 	add	sp, fp, #0
f0013544:	e49db004 	pop	{fp}		; (ldr fp, [sp], #4)
f0013548:	e12fff1e 	bx	lr

f001354c <_ZN5IFile5WriteEPKcj>:
_ZN5IFile5WriteEPKcj():
/mnt/c/Users/Kuba/Documents/School/ZeroMate/examples/16-paging_userspace/kernel/include/fs/filesystem.h:42
        virtual uint32_t Write(const char* buffer, uint32_t num) { return 0; };
f001354c:	e52db004 	push	{fp}		; (str fp, [sp, #-4]!)
f0013550:	e28db000 	add	fp, sp, #0
f0013554:	e24dd014 	sub	sp, sp, #20
f0013558:	e50b0008 	str	r0, [fp, #-8]
f001355c:	e50b100c 	str	r1, [fp, #-12]
f0013560:	e50b2010 	str	r2, [fp, #-16]
f0013564:	e3a03000 	mov	r3, #0
f0013568:	e1a00003 	mov	r0, r3
f001356c:	e28bd000 	add	sp, fp, #0
f0013570:	e49db004 	pop	{fp}		; (ldr fp, [sp], #4)
f0013574:	e12fff1e 	bx	lr

f0013578 <_ZN5IFile5CloseEv>:
_ZN5IFile5CloseEv():
/mnt/c/Users/Kuba/Documents/School/ZeroMate/examples/16-paging_userspace/kernel/include/fs/filesystem.h:44
        virtual bool Close() { return true; };
f0013578:	e52db004 	push	{fp}		; (str fp, [sp, #-4]!)
f001357c:	e28db000 	add	fp, sp, #0
f0013580:	e24dd00c 	sub	sp, sp, #12
f0013584:	e50b0008 	str	r0, [fp, #-8]
f0013588:	e3a03001 	mov	r3, #1
f001358c:	e1a00003 	mov	r0, r3
f0013590:	e28bd000 	add	sp, fp, #0
f0013594:	e49db004 	pop	{fp}		; (ldr fp, [sp], #4)
f0013598:	e12fff1e 	bx	lr

f001359c <_ZN5IFile5IOCtlE16NIOCtl_OperationPv>:
_ZN5IFile5IOCtlE16NIOCtl_OperationPv():
/mnt/c/Users/Kuba/Documents/School/ZeroMate/examples/16-paging_userspace/kernel/include/fs/filesystem.h:46
        virtual bool IOCtl(NIOCtl_Operation dir, void* ctlptr) { return false; };
f001359c:	e52db004 	push	{fp}		; (str fp, [sp, #-4]!)
f00135a0:	e28db000 	add	fp, sp, #0
f00135a4:	e24dd014 	sub	sp, sp, #20
f00135a8:	e50b0008 	str	r0, [fp, #-8]
f00135ac:	e50b100c 	str	r1, [fp, #-12]
f00135b0:	e50b2010 	str	r2, [fp, #-16]
f00135b4:	e3a03000 	mov	r3, #0
f00135b8:	e1a00003 	mov	r0, r3
f00135bc:	e28bd000 	add	sp, fp, #0
f00135c0:	e49db004 	pop	{fp}		; (ldr fp, [sp], #4)
f00135c4:	e12fff1e 	bx	lr

f00135c8 <_Znwj>:
_Znwj():
/mnt/c/Users/Kuba/Documents/School/ZeroMate/examples/16-paging_userspace/kernel/include/memory/kernel_heap.h:42

// pomocne implementace pro kernel heap - tento soubor je includovat vyhradne z kernel-only implementaci, a tak proste jen presmerujeme
// vsechna volani new/delete na tyto implementace, ktere alokuji a uvolnuji pamet z haldy jadra

inline void* operator new(uint32_t size)
{
f00135c8:	e92d4800 	push	{fp, lr}
f00135cc:	e28db004 	add	fp, sp, #4
f00135d0:	e24dd008 	sub	sp, sp, #8
f00135d4:	e50b0008 	str	r0, [fp, #-8]
/mnt/c/Users/Kuba/Documents/School/ZeroMate/examples/16-paging_userspace/kernel/include/memory/kernel_heap.h:43
    return sKernelMem.Alloc(size);
f00135d8:	e51b1008 	ldr	r1, [fp, #-8]
f00135dc:	e59f0010 	ldr	r0, [pc, #16]	; f00135f4 <_Znwj+0x2c>
f00135e0:	eb000523 	bl	f0014a74 <_ZN20CKernel_Heap_Manager5AllocEj>
f00135e4:	e1a03000 	mov	r3, r0
/mnt/c/Users/Kuba/Documents/School/ZeroMate/examples/16-paging_userspace/kernel/include/memory/kernel_heap.h:44
}
f00135e8:	e1a00003 	mov	r0, r3
f00135ec:	e24bd004 	sub	sp, fp, #4
f00135f0:	e8bd8800 	pop	{fp, pc}
f00135f4:	c003a618 	andgt	sl, r3, r8, lsl r6

f00135f8 <_ZdlPvj>:
_ZdlPvj():
/mnt/c/Users/Kuba/Documents/School/ZeroMate/examples/16-paging_userspace/kernel/include/memory/kernel_heap.h:62
{
    sKernelMem.Free(p);
}

inline void operator delete(void* p, uint32_t)
{
f00135f8:	e92d4800 	push	{fp, lr}
f00135fc:	e28db004 	add	fp, sp, #4
f0013600:	e24dd008 	sub	sp, sp, #8
f0013604:	e50b0008 	str	r0, [fp, #-8]
f0013608:	e50b100c 	str	r1, [fp, #-12]
/mnt/c/Users/Kuba/Documents/School/ZeroMate/examples/16-paging_userspace/kernel/include/memory/kernel_heap.h:63
    sKernelMem.Free(p);
f001360c:	e51b1008 	ldr	r1, [fp, #-8]
f0013610:	e59f000c 	ldr	r0, [pc, #12]	; f0013624 <_ZdlPvj+0x2c>
f0013614:	eb000583 	bl	f0014c28 <_ZN20CKernel_Heap_Manager4FreeEPv>
/mnt/c/Users/Kuba/Documents/School/ZeroMate/examples/16-paging_userspace/kernel/include/memory/kernel_heap.h:64
}
f0013618:	e320f000 	nop	{0}
f001361c:	e24bd004 	sub	sp, fp, #4
f0013620:	e8bd8800 	pop	{fp, pc}
f0013624:	c003a618 	andgt	sl, r3, r8, lsl r6

f0013628 <_ZN5IFileC1Ev>:
_ZN5IFileC2Ev():
/mnt/c/Users/Kuba/Documents/School/ZeroMate/examples/16-paging_userspace/kernel/include/fs/filesystem.h:34
class IFile
f0013628:	e52db004 	push	{fp}		; (str fp, [sp, #-4]!)
f001362c:	e28db000 	add	fp, sp, #0
f0013630:	e24dd00c 	sub	sp, sp, #12
f0013634:	e50b0008 	str	r0, [fp, #-8]
f0013638:	e59f2018 	ldr	r2, [pc, #24]	; f0013658 <_ZN5IFileC1Ev+0x30>
f001363c:	e51b3008 	ldr	r3, [fp, #-8]
f0013640:	e5832000 	str	r2, [r3]
f0013644:	e51b3008 	ldr	r3, [fp, #-8]
f0013648:	e1a00003 	mov	r0, r3
f001364c:	e28bd000 	add	sp, fp, #0
f0013650:	e49db004 	pop	{fp}		; (ldr fp, [sp], #4)
f0013654:	e12fff1e 	bx	lr
f0013658:	f0016ce4 			; <UNDEFINED> instruction: 0xf0016ce4

f001365c <_ZN5IFileD1Ev>:
_ZN5IFileD2Ev():
/mnt/c/Users/Kuba/Documents/School/ZeroMate/examples/16-paging_userspace/kernel/include/fs/filesystem.h:37
        virtual ~IFile() = default;
f001365c:	e52db004 	push	{fp}		; (str fp, [sp, #-4]!)
f0013660:	e28db000 	add	fp, sp, #0
f0013664:	e24dd00c 	sub	sp, sp, #12
f0013668:	e50b0008 	str	r0, [fp, #-8]
f001366c:	e59f2018 	ldr	r2, [pc, #24]	; f001368c <_ZN5IFileD1Ev+0x30>
f0013670:	e51b3008 	ldr	r3, [fp, #-8]
f0013674:	e5832000 	str	r2, [r3]
f0013678:	e51b3008 	ldr	r3, [fp, #-8]
f001367c:	e1a00003 	mov	r0, r3
f0013680:	e28bd000 	add	sp, fp, #0
f0013684:	e49db004 	pop	{fp}		; (ldr fp, [sp], #4)
f0013688:	e12fff1e 	bx	lr
f001368c:	f0016ce4 			; <UNDEFINED> instruction: 0xf0016ce4

f0013690 <_ZN5IFileD0Ev>:
_ZN5IFileD0Ev():
/mnt/c/Users/Kuba/Documents/School/ZeroMate/examples/16-paging_userspace/kernel/include/fs/filesystem.h:37
f0013690:	e92d4800 	push	{fp, lr}
f0013694:	e28db004 	add	fp, sp, #4
f0013698:	e24dd008 	sub	sp, sp, #8
f001369c:	e50b0008 	str	r0, [fp, #-8]
f00136a0:	e51b0008 	ldr	r0, [fp, #-8]
f00136a4:	ebffffec 	bl	f001365c <_ZN5IFileD1Ev>
f00136a8:	e3a01004 	mov	r1, #4
f00136ac:	e51b0008 	ldr	r0, [fp, #-8]
f00136b0:	ebffffd0 	bl	f00135f8 <_ZdlPvj>
f00136b4:	e51b3008 	ldr	r3, [fp, #-8]
f00136b8:	e1a00003 	mov	r0, r3
f00136bc:	e24bd004 	sub	sp, fp, #4
f00136c0:	e8bd8800 	pop	{fp, pc}

f00136c4 <_ZN10CGPIO_FileC1Eibb>:
_ZN10CGPIO_FileC2Eibb():
/mnt/c/Users/Kuba/Documents/School/ZeroMate/examples/16-paging_userspace/kernel/include/fs/drivers/gpio_fs.h:21
        bool mRead;
        // byl pin rezervovan pro zapis?
        bool mWrite;

    public:
        CGPIO_File(int pinNo, bool read, bool write)
f00136c4:	e92d4800 	push	{fp, lr}
f00136c8:	e28db004 	add	fp, sp, #4
f00136cc:	e24dd010 	sub	sp, sp, #16
f00136d0:	e50b0008 	str	r0, [fp, #-8]
f00136d4:	e50b100c 	str	r1, [fp, #-12]
f00136d8:	e1a01002 	mov	r1, r2
f00136dc:	e1a02003 	mov	r2, r3
f00136e0:	e1a03001 	mov	r3, r1
f00136e4:	e54b300d 	strb	r3, [fp, #-13]
f00136e8:	e1a03002 	mov	r3, r2
f00136ec:	e54b300e 	strb	r3, [fp, #-14]
/mnt/c/Users/Kuba/Documents/School/ZeroMate/examples/16-paging_userspace/kernel/include/fs/drivers/gpio_fs.h:22
            : mPinNo(pinNo), mRead(read), mWrite(write)
f00136f0:	e51b3008 	ldr	r3, [fp, #-8]
f00136f4:	e1a00003 	mov	r0, r3
f00136f8:	ebffffca 	bl	f0013628 <_ZN5IFileC1Ev>
f00136fc:	e59f2038 	ldr	r2, [pc, #56]	; f001373c <_ZN10CGPIO_FileC1Eibb+0x78>
f0013700:	e51b3008 	ldr	r3, [fp, #-8]
f0013704:	e5832000 	str	r2, [r3]
f0013708:	e51b3008 	ldr	r3, [fp, #-8]
f001370c:	e51b200c 	ldr	r2, [fp, #-12]
f0013710:	e5832004 	str	r2, [r3, #4]
f0013714:	e51b3008 	ldr	r3, [fp, #-8]
f0013718:	e55b200d 	ldrb	r2, [fp, #-13]
f001371c:	e5c32008 	strb	r2, [r3, #8]
f0013720:	e51b3008 	ldr	r3, [fp, #-8]
f0013724:	e55b200e 	ldrb	r2, [fp, #-14]
f0013728:	e5c32009 	strb	r2, [r3, #9]
/mnt/c/Users/Kuba/Documents/School/ZeroMate/examples/16-paging_userspace/kernel/include/fs/drivers/gpio_fs.h:25
        {
            //
        }
f001372c:	e51b3008 	ldr	r3, [fp, #-8]
f0013730:	e1a00003 	mov	r0, r3
f0013734:	e24bd004 	sub	sp, fp, #4
f0013738:	e8bd8800 	pop	{fp, pc}
f001373c:	f0016cc4 			; <UNDEFINED> instruction: 0xf0016cc4

f0013740 <_ZN10CGPIO_FileD1Ev>:
_ZN10CGPIO_FileD2Ev():
/mnt/c/Users/Kuba/Documents/School/ZeroMate/examples/16-paging_userspace/kernel/include/fs/drivers/gpio_fs.h:27

        ~CGPIO_File()
f0013740:	e92d4800 	push	{fp, lr}
f0013744:	e28db004 	add	fp, sp, #4
f0013748:	e24dd008 	sub	sp, sp, #8
f001374c:	e50b0008 	str	r0, [fp, #-8]
/mnt/c/Users/Kuba/Documents/School/ZeroMate/examples/16-paging_userspace/kernel/include/fs/drivers/gpio_fs.h:28
        {
f0013750:	e59f2028 	ldr	r2, [pc, #40]	; f0013780 <_ZN10CGPIO_FileD1Ev+0x40>
f0013754:	e51b3008 	ldr	r3, [fp, #-8]
f0013758:	e5832000 	str	r2, [r3]
/mnt/c/Users/Kuba/Documents/School/ZeroMate/examples/16-paging_userspace/kernel/include/fs/drivers/gpio_fs.h:30
            // pokud jeste je otevreny, zavreme
            Close();
f001375c:	e51b0008 	ldr	r0, [fp, #-8]
f0013760:	eb000053 	bl	f00138b4 <_ZN10CGPIO_File5CloseEv>
/mnt/c/Users/Kuba/Documents/School/ZeroMate/examples/16-paging_userspace/kernel/include/fs/drivers/gpio_fs.h:28
        {
f0013764:	e51b3008 	ldr	r3, [fp, #-8]
f0013768:	e1a00003 	mov	r0, r3
f001376c:	ebffffba 	bl	f001365c <_ZN5IFileD1Ev>
/mnt/c/Users/Kuba/Documents/School/ZeroMate/examples/16-paging_userspace/kernel/include/fs/drivers/gpio_fs.h:31
        }
f0013770:	e51b3008 	ldr	r3, [fp, #-8]
f0013774:	e1a00003 	mov	r0, r3
f0013778:	e24bd004 	sub	sp, fp, #4
f001377c:	e8bd8800 	pop	{fp, pc}
f0013780:	f0016cc4 			; <UNDEFINED> instruction: 0xf0016cc4

f0013784 <_ZN10CGPIO_FileD0Ev>:
_ZN10CGPIO_FileD0Ev():
/mnt/c/Users/Kuba/Documents/School/ZeroMate/examples/16-paging_userspace/kernel/include/fs/drivers/gpio_fs.h:27
        ~CGPIO_File()
f0013784:	e92d4800 	push	{fp, lr}
f0013788:	e28db004 	add	fp, sp, #4
f001378c:	e24dd008 	sub	sp, sp, #8
f0013790:	e50b0008 	str	r0, [fp, #-8]
/mnt/c/Users/Kuba/Documents/School/ZeroMate/examples/16-paging_userspace/kernel/include/fs/drivers/gpio_fs.h:31
        }
f0013794:	e51b0008 	ldr	r0, [fp, #-8]
f0013798:	ebffffe8 	bl	f0013740 <_ZN10CGPIO_FileD1Ev>
f001379c:	e3a0100c 	mov	r1, #12
f00137a0:	e51b0008 	ldr	r0, [fp, #-8]
f00137a4:	ebffff93 	bl	f00135f8 <_ZdlPvj>
f00137a8:	e51b3008 	ldr	r3, [fp, #-8]
f00137ac:	e1a00003 	mov	r0, r3
f00137b0:	e24bd004 	sub	sp, fp, #4
f00137b4:	e8bd8800 	pop	{fp, pc}

f00137b8 <_ZN10CGPIO_File4ReadEPcj>:
_ZN10CGPIO_File4ReadEPcj():
/mnt/c/Users/Kuba/Documents/School/ZeroMate/examples/16-paging_userspace/kernel/include/fs/drivers/gpio_fs.h:33

        virtual uint32_t Read(char* buffer, uint32_t num) override
f00137b8:	e92d4800 	push	{fp, lr}
f00137bc:	e28db004 	add	fp, sp, #4
f00137c0:	e24dd010 	sub	sp, sp, #16
f00137c4:	e50b0008 	str	r0, [fp, #-8]
f00137c8:	e50b100c 	str	r1, [fp, #-12]
f00137cc:	e50b2010 	str	r2, [fp, #-16]
/mnt/c/Users/Kuba/Documents/School/ZeroMate/examples/16-paging_userspace/kernel/include/fs/drivers/gpio_fs.h:35
        {
            if (num > 0 && buffer != nullptr)
f00137d0:	e51b3010 	ldr	r3, [fp, #-16]
f00137d4:	e3530000 	cmp	r3, #0
f00137d8:	0a000011 	beq	f0013824 <_ZN10CGPIO_File4ReadEPcj+0x6c>
/mnt/c/Users/Kuba/Documents/School/ZeroMate/examples/16-paging_userspace/kernel/include/fs/drivers/gpio_fs.h:35 (discriminator 1)
f00137dc:	e51b300c 	ldr	r3, [fp, #-12]
f00137e0:	e3530000 	cmp	r3, #0
f00137e4:	0a00000e 	beq	f0013824 <_ZN10CGPIO_File4ReadEPcj+0x6c>
/mnt/c/Users/Kuba/Documents/School/ZeroMate/examples/16-paging_userspace/kernel/include/fs/drivers/gpio_fs.h:38
            {
                // na prvni pozici v bufferu precteme bud znak 1 nebo 0 podle stavu digitalniho pinu
                buffer[0] = sGPIO.Get_Input(mPinNo) ? '1' : '0';
f00137e8:	e51b3008 	ldr	r3, [fp, #-8]
f00137ec:	e5933004 	ldr	r3, [r3, #4]
f00137f0:	e1a01003 	mov	r1, r3
f00137f4:	e59f0038 	ldr	r0, [pc, #56]	; f0013834 <_ZN10CGPIO_File4ReadEPcj+0x7c>
f00137f8:	ebfff74e 	bl	f0011538 <_ZN13CGPIO_Handler9Get_InputEj>
f00137fc:	e1a03000 	mov	r3, r0
f0013800:	e3530000 	cmp	r3, #0
f0013804:	0a000001 	beq	f0013810 <_ZN10CGPIO_File4ReadEPcj+0x58>
/mnt/c/Users/Kuba/Documents/School/ZeroMate/examples/16-paging_userspace/kernel/include/fs/drivers/gpio_fs.h:38 (discriminator 1)
f0013808:	e3a02031 	mov	r2, #49	; 0x31
f001380c:	ea000000 	b	f0013814 <_ZN10CGPIO_File4ReadEPcj+0x5c>
/mnt/c/Users/Kuba/Documents/School/ZeroMate/examples/16-paging_userspace/kernel/include/fs/drivers/gpio_fs.h:38 (discriminator 2)
f0013810:	e3a02030 	mov	r2, #48	; 0x30
/mnt/c/Users/Kuba/Documents/School/ZeroMate/examples/16-paging_userspace/kernel/include/fs/drivers/gpio_fs.h:38 (discriminator 4)
f0013814:	e51b300c 	ldr	r3, [fp, #-12]
f0013818:	e5c32000 	strb	r2, [r3]
/mnt/c/Users/Kuba/Documents/School/ZeroMate/examples/16-paging_userspace/kernel/include/fs/drivers/gpio_fs.h:39 (discriminator 4)
                return 1;
f001381c:	e3a03001 	mov	r3, #1
f0013820:	ea000000 	b	f0013828 <_ZN10CGPIO_File4ReadEPcj+0x70>
/mnt/c/Users/Kuba/Documents/School/ZeroMate/examples/16-paging_userspace/kernel/include/fs/drivers/gpio_fs.h:42
            }

            return 0;
f0013824:	e3a03000 	mov	r3, #0
/mnt/c/Users/Kuba/Documents/School/ZeroMate/examples/16-paging_userspace/kernel/include/fs/drivers/gpio_fs.h:43
        }
f0013828:	e1a00003 	mov	r0, r3
f001382c:	e24bd004 	sub	sp, fp, #4
f0013830:	e8bd8800 	pop	{fp, pc}
f0013834:	c003a51c 	andgt	sl, r3, ip, lsl r5

f0013838 <_ZN10CGPIO_File5WriteEPKcj>:
_ZN10CGPIO_File5WriteEPKcj():
/mnt/c/Users/Kuba/Documents/School/ZeroMate/examples/16-paging_userspace/kernel/include/fs/drivers/gpio_fs.h:45

        virtual uint32_t Write(const char* buffer, uint32_t num) override
f0013838:	e92d4800 	push	{fp, lr}
f001383c:	e28db004 	add	fp, sp, #4
f0013840:	e24dd010 	sub	sp, sp, #16
f0013844:	e50b0008 	str	r0, [fp, #-8]
f0013848:	e50b100c 	str	r1, [fp, #-12]
f001384c:	e50b2010 	str	r2, [fp, #-16]
/mnt/c/Users/Kuba/Documents/School/ZeroMate/examples/16-paging_userspace/kernel/include/fs/drivers/gpio_fs.h:47
        {
            if (num > 0 && buffer != nullptr)
f0013850:	e51b3010 	ldr	r3, [fp, #-16]
f0013854:	e3530000 	cmp	r3, #0
f0013858:	0a000010 	beq	f00138a0 <_ZN10CGPIO_File5WriteEPKcj+0x68>
/mnt/c/Users/Kuba/Documents/School/ZeroMate/examples/16-paging_userspace/kernel/include/fs/drivers/gpio_fs.h:47 (discriminator 1)
f001385c:	e51b300c 	ldr	r3, [fp, #-12]
f0013860:	e3530000 	cmp	r3, #0
f0013864:	0a00000d 	beq	f00138a0 <_ZN10CGPIO_File5WriteEPKcj+0x68>
/mnt/c/Users/Kuba/Documents/School/ZeroMate/examples/16-paging_userspace/kernel/include/fs/drivers/gpio_fs.h:50
            {
                // podle prvniho znaku zapiseme bud hodnotu HIGH (true) nebo LOW (false)
                sGPIO.Set_Output(mPinNo, (buffer[0] != '0') );
f0013868:	e51b3008 	ldr	r3, [fp, #-8]
f001386c:	e5933004 	ldr	r3, [r3, #4]
f0013870:	e1a01003 	mov	r1, r3
f0013874:	e51b300c 	ldr	r3, [fp, #-12]
f0013878:	e5d33000 	ldrb	r3, [r3]
f001387c:	e3530030 	cmp	r3, #48	; 0x30
f0013880:	13a03001 	movne	r3, #1
f0013884:	03a03000 	moveq	r3, #0
f0013888:	e6ef3073 	uxtb	r3, r3
f001388c:	e1a02003 	mov	r2, r3
f0013890:	e59f0018 	ldr	r0, [pc, #24]	; f00138b0 <_ZN10CGPIO_File5WriteEPKcj+0x78>
f0013894:	ebfff6f1 	bl	f0011460 <_ZN13CGPIO_Handler10Set_OutputEjb>
/mnt/c/Users/Kuba/Documents/School/ZeroMate/examples/16-paging_userspace/kernel/include/fs/drivers/gpio_fs.h:51
                return 1;
f0013898:	e3a03001 	mov	r3, #1
f001389c:	ea000000 	b	f00138a4 <_ZN10CGPIO_File5WriteEPKcj+0x6c>
/mnt/c/Users/Kuba/Documents/School/ZeroMate/examples/16-paging_userspace/kernel/include/fs/drivers/gpio_fs.h:54
            }

            return 0;
f00138a0:	e3a03000 	mov	r3, #0
/mnt/c/Users/Kuba/Documents/School/ZeroMate/examples/16-paging_userspace/kernel/include/fs/drivers/gpio_fs.h:55
        }
f00138a4:	e1a00003 	mov	r0, r3
f00138a8:	e24bd004 	sub	sp, fp, #4
f00138ac:	e8bd8800 	pop	{fp, pc}
f00138b0:	c003a51c 	andgt	sl, r3, ip, lsl r5

f00138b4 <_ZN10CGPIO_File5CloseEv>:
_ZN10CGPIO_File5CloseEv():
/mnt/c/Users/Kuba/Documents/School/ZeroMate/examples/16-paging_userspace/kernel/include/fs/drivers/gpio_fs.h:57

        virtual bool Close() override
f00138b4:	e92d4800 	push	{fp, lr}
f00138b8:	e28db004 	add	fp, sp, #4
f00138bc:	e24dd008 	sub	sp, sp, #8
f00138c0:	e50b0008 	str	r0, [fp, #-8]
/mnt/c/Users/Kuba/Documents/School/ZeroMate/examples/16-paging_userspace/kernel/include/fs/drivers/gpio_fs.h:59
        {
            if (!mRead && !mWrite)
f00138c4:	e51b3008 	ldr	r3, [fp, #-8]
f00138c8:	e5d33008 	ldrb	r3, [r3, #8]
f00138cc:	e2233001 	eor	r3, r3, #1
f00138d0:	e6ef3073 	uxtb	r3, r3
f00138d4:	e3530000 	cmp	r3, #0
f00138d8:	0a000007 	beq	f00138fc <_ZN10CGPIO_File5CloseEv+0x48>
/mnt/c/Users/Kuba/Documents/School/ZeroMate/examples/16-paging_userspace/kernel/include/fs/drivers/gpio_fs.h:59 (discriminator 1)
f00138dc:	e51b3008 	ldr	r3, [fp, #-8]
f00138e0:	e5d33009 	ldrb	r3, [r3, #9]
f00138e4:	e2233001 	eor	r3, r3, #1
f00138e8:	e6ef3073 	uxtb	r3, r3
f00138ec:	e3530000 	cmp	r3, #0
f00138f0:	0a000001 	beq	f00138fc <_ZN10CGPIO_File5CloseEv+0x48>
/mnt/c/Users/Kuba/Documents/School/ZeroMate/examples/16-paging_userspace/kernel/include/fs/drivers/gpio_fs.h:60
                return false;
f00138f4:	e3a03000 	mov	r3, #0
f00138f8:	ea000010 	b	f0013940 <_ZN10CGPIO_File5CloseEv+0x8c>
/mnt/c/Users/Kuba/Documents/School/ZeroMate/examples/16-paging_userspace/kernel/include/fs/drivers/gpio_fs.h:63

            // uvolnime pin
            sGPIO.Free_Pin(mPinNo, mRead, mWrite);
f00138fc:	e51b3008 	ldr	r3, [fp, #-8]
f0013900:	e5933004 	ldr	r3, [r3, #4]
f0013904:	e1a01003 	mov	r1, r3
f0013908:	e51b3008 	ldr	r3, [fp, #-8]
f001390c:	e5d32008 	ldrb	r2, [r3, #8]
f0013910:	e51b3008 	ldr	r3, [fp, #-8]
f0013914:	e5d33009 	ldrb	r3, [r3, #9]
f0013918:	e59f002c 	ldr	r0, [pc, #44]	; f001394c <_ZN10CGPIO_File5CloseEv+0x98>
f001391c:	ebfff78c 	bl	f0011754 <_ZN13CGPIO_Handler8Free_PinEjbb>
/mnt/c/Users/Kuba/Documents/School/ZeroMate/examples/16-paging_userspace/kernel/include/fs/drivers/gpio_fs.h:64
            mRead = mWrite = false;
f0013920:	e51b3008 	ldr	r3, [fp, #-8]
f0013924:	e3a02000 	mov	r2, #0
f0013928:	e5c32009 	strb	r2, [r3, #9]
f001392c:	e51b3008 	ldr	r3, [fp, #-8]
f0013930:	e5d32009 	ldrb	r2, [r3, #9]
f0013934:	e51b3008 	ldr	r3, [fp, #-8]
f0013938:	e5c32008 	strb	r2, [r3, #8]
/mnt/c/Users/Kuba/Documents/School/ZeroMate/examples/16-paging_userspace/kernel/include/fs/drivers/gpio_fs.h:66

            return true;
f001393c:	e3a03001 	mov	r3, #1
/mnt/c/Users/Kuba/Documents/School/ZeroMate/examples/16-paging_userspace/kernel/include/fs/drivers/gpio_fs.h:67
        }
f0013940:	e1a00003 	mov	r0, r3
f0013944:	e24bd004 	sub	sp, fp, #4
f0013948:	e8bd8800 	pop	{fp, pc}
f001394c:	c003a51c 	andgt	sl, r3, ip, lsl r5

f0013950 <_ZN10CGPIO_File5IOCtlE16NIOCtl_OperationPv>:
_ZN10CGPIO_File5IOCtlE16NIOCtl_OperationPv():
/mnt/c/Users/Kuba/Documents/School/ZeroMate/examples/16-paging_userspace/kernel/include/fs/drivers/gpio_fs.h:69

        virtual bool IOCtl(NIOCtl_Operation dir, void* ctlptr) override
f0013950:	e52db004 	push	{fp}		; (str fp, [sp, #-4]!)
f0013954:	e28db000 	add	fp, sp, #0
f0013958:	e24dd014 	sub	sp, sp, #20
f001395c:	e50b0008 	str	r0, [fp, #-8]
f0013960:	e50b100c 	str	r1, [fp, #-12]
f0013964:	e50b2010 	str	r2, [fp, #-16]
/mnt/c/Users/Kuba/Documents/School/ZeroMate/examples/16-paging_userspace/kernel/include/fs/drivers/gpio_fs.h:72
        {
            // GPIO (zatim?) neumime nijak nastavovat
            return false;
f0013968:	e3a03000 	mov	r3, #0
/mnt/c/Users/Kuba/Documents/School/ZeroMate/examples/16-paging_userspace/kernel/include/fs/drivers/gpio_fs.h:73
        }
f001396c:	e1a00003 	mov	r0, r3
f0013970:	e28bd000 	add	sp, fp, #0
f0013974:	e49db004 	pop	{fp}		; (ldr fp, [sp], #4)
f0013978:	e12fff1e 	bx	lr

f001397c <_ZN15CGPIO_FS_Driver11On_RegisterEv>:
_ZN15CGPIO_FS_Driver11On_RegisterEv():
/mnt/c/Users/Kuba/Documents/School/ZeroMate/examples/16-paging_userspace/kernel/include/fs/drivers/gpio_fs.h:80

// driver pro filesystem pro GPIO piny
class CGPIO_FS_Driver : public IFilesystem_Driver
{
	public:
		virtual void On_Register() override
f001397c:	e52db004 	push	{fp}		; (str fp, [sp, #-4]!)
f0013980:	e28db000 	add	fp, sp, #0
f0013984:	e24dd00c 	sub	sp, sp, #12
f0013988:	e50b0008 	str	r0, [fp, #-8]
/mnt/c/Users/Kuba/Documents/School/ZeroMate/examples/16-paging_userspace/kernel/include/fs/drivers/gpio_fs.h:83
        {
            //
        }
f001398c:	e320f000 	nop	{0}
f0013990:	e28bd000 	add	sp, fp, #0
f0013994:	e49db004 	pop	{fp}		; (ldr fp, [sp], #4)
f0013998:	e12fff1e 	bx	lr

f001399c <_ZN15CGPIO_FS_Driver9Open_FileEPKc15NFile_Open_Mode>:
_ZN15CGPIO_FS_Driver9Open_FileEPKc15NFile_Open_Mode():
/mnt/c/Users/Kuba/Documents/School/ZeroMate/examples/16-paging_userspace/kernel/include/fs/drivers/gpio_fs.h:85

        virtual IFile* Open_File(const char* path, NFile_Open_Mode mode) override
f001399c:	e92d4810 	push	{r4, fp, lr}
f00139a0:	e28db008 	add	fp, sp, #8
f00139a4:	e24dd01c 	sub	sp, sp, #28
f00139a8:	e50b0018 	str	r0, [fp, #-24]	; 0xffffffe8
f00139ac:	e50b101c 	str	r1, [fp, #-28]	; 0xffffffe4
f00139b0:	e50b2020 	str	r2, [fp, #-32]	; 0xffffffe0
/mnt/c/Users/Kuba/Documents/School/ZeroMate/examples/16-paging_userspace/kernel/include/fs/drivers/gpio_fs.h:87
        {
            if (mode != NFile_Open_Mode::Read_Only && mode != NFile_Open_Mode::Write_Only)
f00139b4:	e51b3020 	ldr	r3, [fp, #-32]	; 0xffffffe0
f00139b8:	e3530000 	cmp	r3, #0
f00139bc:	0a000004 	beq	f00139d4 <_ZN15CGPIO_FS_Driver9Open_FileEPKc15NFile_Open_Mode+0x38>
/mnt/c/Users/Kuba/Documents/School/ZeroMate/examples/16-paging_userspace/kernel/include/fs/drivers/gpio_fs.h:87 (discriminator 1)
f00139c0:	e51b3020 	ldr	r3, [fp, #-32]	; 0xffffffe0
f00139c4:	e3530001 	cmp	r3, #1
f00139c8:	0a000001 	beq	f00139d4 <_ZN15CGPIO_FS_Driver9Open_FileEPKc15NFile_Open_Mode+0x38>
/mnt/c/Users/Kuba/Documents/School/ZeroMate/examples/16-paging_userspace/kernel/include/fs/drivers/gpio_fs.h:88
                return nullptr;
f00139cc:	e3a03000 	mov	r3, #0
f00139d0:	ea000043 	b	f0013ae4 <_ZN15CGPIO_FS_Driver9Open_FileEPKc15NFile_Open_Mode+0x148>
/mnt/c/Users/Kuba/Documents/School/ZeroMate/examples/16-paging_userspace/kernel/include/fs/drivers/gpio_fs.h:92

            // tento driver ocekava na vstupu jen jednu jedinou uroven v 'path', a tou je cislo, tedy index GPIO pinu

            int gpionum = atoi(path);
f00139d4:	e51b001c 	ldr	r0, [fp, #-28]	; 0xffffffe4
f00139d8:	eb000a91 	bl	f0016424 <_Z4atoiPKc>
f00139dc:	e50b0010 	str	r0, [fp, #-16]
/mnt/c/Users/Kuba/Documents/School/ZeroMate/examples/16-paging_userspace/kernel/include/fs/drivers/gpio_fs.h:93
            if (gpionum < 0 || gpionum >= hal::GPIO_Pin_Count)
f00139e0:	e51b3010 	ldr	r3, [fp, #-16]
f00139e4:	e3530000 	cmp	r3, #0
f00139e8:	ba000002 	blt	f00139f8 <_ZN15CGPIO_FS_Driver9Open_FileEPKc15NFile_Open_Mode+0x5c>
/mnt/c/Users/Kuba/Documents/School/ZeroMate/examples/16-paging_userspace/kernel/include/fs/drivers/gpio_fs.h:93 (discriminator 1)
f00139ec:	e51b3010 	ldr	r3, [fp, #-16]
f00139f0:	e3530035 	cmp	r3, #53	; 0x35
f00139f4:	9a000001 	bls	f0013a00 <_ZN15CGPIO_FS_Driver9Open_FileEPKc15NFile_Open_Mode+0x64>
/mnt/c/Users/Kuba/Documents/School/ZeroMate/examples/16-paging_userspace/kernel/include/fs/drivers/gpio_fs.h:94
                return nullptr;
f00139f8:	e3a03000 	mov	r3, #0
f00139fc:	ea000038 	b	f0013ae4 <_ZN15CGPIO_FS_Driver9Open_FileEPKc15NFile_Open_Mode+0x148>
/mnt/c/Users/Kuba/Documents/School/ZeroMate/examples/16-paging_userspace/kernel/include/fs/drivers/gpio_fs.h:96
            
            if (mode == NFile_Open_Mode::Read_Only)
f0013a00:	e51b3020 	ldr	r3, [fp, #-32]	; 0xffffffe0
f0013a04:	e3530000 	cmp	r3, #0
f0013a08:	1a000011 	bne	f0013a54 <_ZN15CGPIO_FS_Driver9Open_FileEPKc15NFile_Open_Mode+0xb8>
/mnt/c/Users/Kuba/Documents/School/ZeroMate/examples/16-paging_userspace/kernel/include/fs/drivers/gpio_fs.h:98
            {
                if (!sGPIO.Reserve_Pin(gpionum, true, false))
f0013a0c:	e51b1010 	ldr	r1, [fp, #-16]
f0013a10:	e3a03000 	mov	r3, #0
f0013a14:	e3a02001 	mov	r2, #1
f0013a18:	e59f00d0 	ldr	r0, [pc, #208]	; f0013af0 <_ZN15CGPIO_FS_Driver9Open_FileEPKc15NFile_Open_Mode+0x154>
f0013a1c:	ebfff6e6 	bl	f00115bc <_ZN13CGPIO_Handler11Reserve_PinEjbb>
f0013a20:	e1a03000 	mov	r3, r0
f0013a24:	e2233001 	eor	r3, r3, #1
f0013a28:	e6ef3073 	uxtb	r3, r3
f0013a2c:	e3530000 	cmp	r3, #0
f0013a30:	0a000001 	beq	f0013a3c <_ZN15CGPIO_FS_Driver9Open_FileEPKc15NFile_Open_Mode+0xa0>
/mnt/c/Users/Kuba/Documents/School/ZeroMate/examples/16-paging_userspace/kernel/include/fs/drivers/gpio_fs.h:99
                    return nullptr;
f0013a34:	e3a03000 	mov	r3, #0
f0013a38:	ea000029 	b	f0013ae4 <_ZN15CGPIO_FS_Driver9Open_FileEPKc15NFile_Open_Mode+0x148>
/mnt/c/Users/Kuba/Documents/School/ZeroMate/examples/16-paging_userspace/kernel/include/fs/drivers/gpio_fs.h:101

                sGPIO.Set_GPIO_Function(gpionum, NGPIO_Function::Input);
f0013a3c:	e51b3010 	ldr	r3, [fp, #-16]
f0013a40:	e3a02000 	mov	r2, #0
f0013a44:	e1a01003 	mov	r1, r3
f0013a48:	e59f00a0 	ldr	r0, [pc, #160]	; f0013af0 <_ZN15CGPIO_FS_Driver9Open_FileEPKc15NFile_Open_Mode+0x154>
f0013a4c:	ebfff634 	bl	f0011324 <_ZN13CGPIO_Handler17Set_GPIO_FunctionEj14NGPIO_Function>
f0013a50:	ea000010 	b	f0013a98 <_ZN15CGPIO_FS_Driver9Open_FileEPKc15NFile_Open_Mode+0xfc>
/mnt/c/Users/Kuba/Documents/School/ZeroMate/examples/16-paging_userspace/kernel/include/fs/drivers/gpio_fs.h:105
            }
            else
            {
                if (!sGPIO.Reserve_Pin(gpionum, false, true))
f0013a54:	e51b1010 	ldr	r1, [fp, #-16]
f0013a58:	e3a03001 	mov	r3, #1
f0013a5c:	e3a02000 	mov	r2, #0
f0013a60:	e59f0088 	ldr	r0, [pc, #136]	; f0013af0 <_ZN15CGPIO_FS_Driver9Open_FileEPKc15NFile_Open_Mode+0x154>
f0013a64:	ebfff6d4 	bl	f00115bc <_ZN13CGPIO_Handler11Reserve_PinEjbb>
f0013a68:	e1a03000 	mov	r3, r0
f0013a6c:	e2233001 	eor	r3, r3, #1
f0013a70:	e6ef3073 	uxtb	r3, r3
f0013a74:	e3530000 	cmp	r3, #0
f0013a78:	0a000001 	beq	f0013a84 <_ZN15CGPIO_FS_Driver9Open_FileEPKc15NFile_Open_Mode+0xe8>
/mnt/c/Users/Kuba/Documents/School/ZeroMate/examples/16-paging_userspace/kernel/include/fs/drivers/gpio_fs.h:106
                    return nullptr;
f0013a7c:	e3a03000 	mov	r3, #0
f0013a80:	ea000017 	b	f0013ae4 <_ZN15CGPIO_FS_Driver9Open_FileEPKc15NFile_Open_Mode+0x148>
/mnt/c/Users/Kuba/Documents/School/ZeroMate/examples/16-paging_userspace/kernel/include/fs/drivers/gpio_fs.h:108

                sGPIO.Set_GPIO_Function(gpionum, NGPIO_Function::Output);
f0013a84:	e51b3010 	ldr	r3, [fp, #-16]
f0013a88:	e3a02001 	mov	r2, #1
f0013a8c:	e1a01003 	mov	r1, r3
f0013a90:	e59f0058 	ldr	r0, [pc, #88]	; f0013af0 <_ZN15CGPIO_FS_Driver9Open_FileEPKc15NFile_Open_Mode+0x154>
f0013a94:	ebfff622 	bl	f0011324 <_ZN13CGPIO_Handler17Set_GPIO_FunctionEj14NGPIO_Function>
/mnt/c/Users/Kuba/Documents/School/ZeroMate/examples/16-paging_userspace/kernel/include/fs/drivers/gpio_fs.h:111
            }

            CGPIO_File* f = new CGPIO_File(gpionum, mode == NFile_Open_Mode::Read_Only, mode == NFile_Open_Mode::Write_Only);
f0013a98:	e3a0000c 	mov	r0, #12
f0013a9c:	ebfffec9 	bl	f00135c8 <_Znwj>
f0013aa0:	e1a03000 	mov	r3, r0
f0013aa4:	e1a04003 	mov	r4, r3
f0013aa8:	e51b3020 	ldr	r3, [fp, #-32]	; 0xffffffe0
f0013aac:	e3530000 	cmp	r3, #0
f0013ab0:	03a03001 	moveq	r3, #1
f0013ab4:	13a03000 	movne	r3, #0
f0013ab8:	e6ef2073 	uxtb	r2, r3
f0013abc:	e51b3020 	ldr	r3, [fp, #-32]	; 0xffffffe0
f0013ac0:	e3530001 	cmp	r3, #1
f0013ac4:	03a03001 	moveq	r3, #1
f0013ac8:	13a03000 	movne	r3, #0
f0013acc:	e6ef3073 	uxtb	r3, r3
f0013ad0:	e51b1010 	ldr	r1, [fp, #-16]
f0013ad4:	e1a00004 	mov	r0, r4
f0013ad8:	ebfffef9 	bl	f00136c4 <_ZN10CGPIO_FileC1Eibb>
f0013adc:	e50b4014 	str	r4, [fp, #-20]	; 0xffffffec
/mnt/c/Users/Kuba/Documents/School/ZeroMate/examples/16-paging_userspace/kernel/include/fs/drivers/gpio_fs.h:113

            return f;
f0013ae0:	e51b3014 	ldr	r3, [fp, #-20]	; 0xffffffec
/mnt/c/Users/Kuba/Documents/School/ZeroMate/examples/16-paging_userspace/kernel/include/fs/drivers/gpio_fs.h:114
        }
f0013ae4:	e1a00003 	mov	r0, r3
f0013ae8:	e24bd008 	sub	sp, fp, #8
f0013aec:	e8bd8810 	pop	{r4, fp, pc}
f0013af0:	c003a51c 	andgt	sl, r3, ip, lsl r5

f0013af4 <_ZN10CTRNG_FileC1Ev>:
_ZN10CTRNG_FileC2Ev():
/mnt/c/Users/Kuba/Documents/School/ZeroMate/examples/16-paging_userspace/kernel/include/fs/drivers/trng_fs.h:16
{
    private:
        bool mOpened;

    public:
        CTRNG_File()
f0013af4:	e92d4800 	push	{fp, lr}
f0013af8:	e28db004 	add	fp, sp, #4
f0013afc:	e24dd008 	sub	sp, sp, #8
f0013b00:	e50b0008 	str	r0, [fp, #-8]
/mnt/c/Users/Kuba/Documents/School/ZeroMate/examples/16-paging_userspace/kernel/include/fs/drivers/trng_fs.h:17
        {
f0013b04:	e51b3008 	ldr	r3, [fp, #-8]
f0013b08:	e1a00003 	mov	r0, r3
f0013b0c:	ebfffec5 	bl	f0013628 <_ZN5IFileC1Ev>
f0013b10:	e59f2014 	ldr	r2, [pc, #20]	; f0013b2c <_ZN10CTRNG_FileC1Ev+0x38>
f0013b14:	e51b3008 	ldr	r3, [fp, #-8]
f0013b18:	e5832000 	str	r2, [r3]
/mnt/c/Users/Kuba/Documents/School/ZeroMate/examples/16-paging_userspace/kernel/include/fs/drivers/trng_fs.h:19
            //
        }
f0013b1c:	e51b3008 	ldr	r3, [fp, #-8]
f0013b20:	e1a00003 	mov	r0, r3
f0013b24:	e24bd004 	sub	sp, fp, #4
f0013b28:	e8bd8800 	pop	{fp, pc}
f0013b2c:	f0016c94 			; <UNDEFINED> instruction: 0xf0016c94

f0013b30 <_ZN10CTRNG_FileD1Ev>:
_ZN10CTRNG_FileD2Ev():
/mnt/c/Users/Kuba/Documents/School/ZeroMate/examples/16-paging_userspace/kernel/include/fs/drivers/trng_fs.h:21

        ~CTRNG_File()
f0013b30:	e92d4800 	push	{fp, lr}
f0013b34:	e28db004 	add	fp, sp, #4
f0013b38:	e24dd008 	sub	sp, sp, #8
f0013b3c:	e50b0008 	str	r0, [fp, #-8]
/mnt/c/Users/Kuba/Documents/School/ZeroMate/examples/16-paging_userspace/kernel/include/fs/drivers/trng_fs.h:22
        {
f0013b40:	e59f2028 	ldr	r2, [pc, #40]	; f0013b70 <_ZN10CTRNG_FileD1Ev+0x40>
f0013b44:	e51b3008 	ldr	r3, [fp, #-8]
f0013b48:	e5832000 	str	r2, [r3]
/mnt/c/Users/Kuba/Documents/School/ZeroMate/examples/16-paging_userspace/kernel/include/fs/drivers/trng_fs.h:23
            Close();
f0013b4c:	e51b0008 	ldr	r0, [fp, #-8]
f0013b50:	eb000059 	bl	f0013cbc <_ZN10CTRNG_File5CloseEv>
/mnt/c/Users/Kuba/Documents/School/ZeroMate/examples/16-paging_userspace/kernel/include/fs/drivers/trng_fs.h:22
        {
f0013b54:	e51b3008 	ldr	r3, [fp, #-8]
f0013b58:	e1a00003 	mov	r0, r3
f0013b5c:	ebfffebe 	bl	f001365c <_ZN5IFileD1Ev>
/mnt/c/Users/Kuba/Documents/School/ZeroMate/examples/16-paging_userspace/kernel/include/fs/drivers/trng_fs.h:24
        }
f0013b60:	e51b3008 	ldr	r3, [fp, #-8]
f0013b64:	e1a00003 	mov	r0, r3
f0013b68:	e24bd004 	sub	sp, fp, #4
f0013b6c:	e8bd8800 	pop	{fp, pc}
f0013b70:	f0016c94 			; <UNDEFINED> instruction: 0xf0016c94

f0013b74 <_ZN10CTRNG_FileD0Ev>:
_ZN10CTRNG_FileD0Ev():
/mnt/c/Users/Kuba/Documents/School/ZeroMate/examples/16-paging_userspace/kernel/include/fs/drivers/trng_fs.h:21
        ~CTRNG_File()
f0013b74:	e92d4800 	push	{fp, lr}
f0013b78:	e28db004 	add	fp, sp, #4
f0013b7c:	e24dd008 	sub	sp, sp, #8
f0013b80:	e50b0008 	str	r0, [fp, #-8]
/mnt/c/Users/Kuba/Documents/School/ZeroMate/examples/16-paging_userspace/kernel/include/fs/drivers/trng_fs.h:24
        }
f0013b84:	e51b0008 	ldr	r0, [fp, #-8]
f0013b88:	ebffffe8 	bl	f0013b30 <_ZN10CTRNG_FileD1Ev>
f0013b8c:	e3a01008 	mov	r1, #8
f0013b90:	e51b0008 	ldr	r0, [fp, #-8]
f0013b94:	ebfffe97 	bl	f00135f8 <_ZdlPvj>
f0013b98:	e51b3008 	ldr	r3, [fp, #-8]
f0013b9c:	e1a00003 	mov	r0, r3
f0013ba0:	e24bd004 	sub	sp, fp, #4
f0013ba4:	e8bd8800 	pop	{fp, pc}

f0013ba8 <_ZN10CTRNG_File4ReadEPcj>:
_ZN10CTRNG_File4ReadEPcj():
/mnt/c/Users/Kuba/Documents/School/ZeroMate/examples/16-paging_userspace/kernel/include/fs/drivers/trng_fs.h:26

        virtual uint32_t Read(char* buffer, uint32_t num) override
f0013ba8:	e92d4810 	push	{r4, fp, lr}
f0013bac:	e28db008 	add	fp, sp, #8
f0013bb0:	e24dd024 	sub	sp, sp, #36	; 0x24
f0013bb4:	e50b0020 	str	r0, [fp, #-32]	; 0xffffffe0
f0013bb8:	e50b1024 	str	r1, [fp, #-36]	; 0xffffffdc
f0013bbc:	e50b2028 	str	r2, [fp, #-40]	; 0xffffffd8
/mnt/c/Users/Kuba/Documents/School/ZeroMate/examples/16-paging_userspace/kernel/include/fs/drivers/trng_fs.h:28
        {
            const uint32_t wcount = num / 4;
f0013bc0:	e51b3028 	ldr	r3, [fp, #-40]	; 0xffffffd8
f0013bc4:	e1a03123 	lsr	r3, r3, #2
f0013bc8:	e50b3018 	str	r3, [fp, #-24]	; 0xffffffe8
/mnt/c/Users/Kuba/Documents/School/ZeroMate/examples/16-paging_userspace/kernel/include/fs/drivers/trng_fs.h:29
            uint32_t* wbuf = reinterpret_cast<uint32_t*>(buffer);
f0013bcc:	e51b3024 	ldr	r3, [fp, #-36]	; 0xffffffdc
f0013bd0:	e50b301c 	str	r3, [fp, #-28]	; 0xffffffe4
/mnt/c/Users/Kuba/Documents/School/ZeroMate/examples/16-paging_userspace/kernel/include/fs/drivers/trng_fs.h:30
            for (int i = 0; i < wcount; i++)
f0013bd4:	e3a03000 	mov	r3, #0
f0013bd8:	e50b3010 	str	r3, [fp, #-16]
/mnt/c/Users/Kuba/Documents/School/ZeroMate/examples/16-paging_userspace/kernel/include/fs/drivers/trng_fs.h:30 (discriminator 3)
f0013bdc:	e51b3010 	ldr	r3, [fp, #-16]
f0013be0:	e51b2018 	ldr	r2, [fp, #-24]	; 0xffffffe8
f0013be4:	e1520003 	cmp	r2, r3
f0013be8:	9a00000b 	bls	f0013c1c <_ZN10CTRNG_File4ReadEPcj+0x74>
/mnt/c/Users/Kuba/Documents/School/ZeroMate/examples/16-paging_userspace/kernel/include/fs/drivers/trng_fs.h:31 (discriminator 2)
                wbuf[i] = sTRNG.Get_Random_Number();
f0013bec:	e51b3010 	ldr	r3, [fp, #-16]
f0013bf0:	e1a03103 	lsl	r3, r3, #2
f0013bf4:	e51b201c 	ldr	r2, [fp, #-28]	; 0xffffffe4
f0013bf8:	e0824003 	add	r4, r2, r3
f0013bfc:	e59f0088 	ldr	r0, [pc, #136]	; f0013c8c <_ZN10CTRNG_File4ReadEPcj+0xe4>
f0013c00:	ebfffc44 	bl	f0012d18 <_ZN5CTRNG17Get_Random_NumberEv>
f0013c04:	e1a03000 	mov	r3, r0
f0013c08:	e5843000 	str	r3, [r4]
/mnt/c/Users/Kuba/Documents/School/ZeroMate/examples/16-paging_userspace/kernel/include/fs/drivers/trng_fs.h:30 (discriminator 2)
            for (int i = 0; i < wcount; i++)
f0013c0c:	e51b3010 	ldr	r3, [fp, #-16]
f0013c10:	e2833001 	add	r3, r3, #1
f0013c14:	e50b3010 	str	r3, [fp, #-16]
f0013c18:	eaffffef 	b	f0013bdc <_ZN10CTRNG_File4ReadEPcj+0x34>
/mnt/c/Users/Kuba/Documents/School/ZeroMate/examples/16-paging_userspace/kernel/include/fs/drivers/trng_fs.h:33

            if (wcount * 4 != num)
f0013c1c:	e51b3018 	ldr	r3, [fp, #-24]	; 0xffffffe8
f0013c20:	e1a03103 	lsl	r3, r3, #2
f0013c24:	e51b2028 	ldr	r2, [fp, #-40]	; 0xffffffd8
f0013c28:	e1520003 	cmp	r2, r3
f0013c2c:	0a000012 	beq	f0013c7c <_ZN10CTRNG_File4ReadEPcj+0xd4>
/mnt/c/Users/Kuba/Documents/School/ZeroMate/examples/16-paging_userspace/kernel/include/fs/drivers/trng_fs.h:37
            {
                // tohle by se dalo vyresit jednim generovanim a posunem na pozici, ale pro ted staci takhle
                // ted tomu trochu "krademe" entropii
                for (int i = wcount * 4; i < num; i++)
f0013c30:	e51b3018 	ldr	r3, [fp, #-24]	; 0xffffffe8
f0013c34:	e1a03103 	lsl	r3, r3, #2
f0013c38:	e50b3014 	str	r3, [fp, #-20]	; 0xffffffec
/mnt/c/Users/Kuba/Documents/School/ZeroMate/examples/16-paging_userspace/kernel/include/fs/drivers/trng_fs.h:37 (discriminator 3)
f0013c3c:	e51b3014 	ldr	r3, [fp, #-20]	; 0xffffffec
f0013c40:	e51b2028 	ldr	r2, [fp, #-40]	; 0xffffffd8
f0013c44:	e1520003 	cmp	r2, r3
f0013c48:	9a00000b 	bls	f0013c7c <_ZN10CTRNG_File4ReadEPcj+0xd4>
/mnt/c/Users/Kuba/Documents/School/ZeroMate/examples/16-paging_userspace/kernel/include/fs/drivers/trng_fs.h:38 (discriminator 2)
                    buffer[i] = static_cast<uint8_t>(sTRNG.Get_Random_Number());
f0013c4c:	e59f0038 	ldr	r0, [pc, #56]	; f0013c8c <_ZN10CTRNG_File4ReadEPcj+0xe4>
f0013c50:	ebfffc30 	bl	f0012d18 <_ZN5CTRNG17Get_Random_NumberEv>
f0013c54:	e1a01000 	mov	r1, r0
f0013c58:	e51b3014 	ldr	r3, [fp, #-20]	; 0xffffffec
f0013c5c:	e51b2024 	ldr	r2, [fp, #-36]	; 0xffffffdc
f0013c60:	e0823003 	add	r3, r2, r3
f0013c64:	e6ef2071 	uxtb	r2, r1
f0013c68:	e5c32000 	strb	r2, [r3]
/mnt/c/Users/Kuba/Documents/School/ZeroMate/examples/16-paging_userspace/kernel/include/fs/drivers/trng_fs.h:37 (discriminator 2)
                for (int i = wcount * 4; i < num; i++)
f0013c6c:	e51b3014 	ldr	r3, [fp, #-20]	; 0xffffffec
f0013c70:	e2833001 	add	r3, r3, #1
f0013c74:	e50b3014 	str	r3, [fp, #-20]	; 0xffffffec
f0013c78:	eaffffef 	b	f0013c3c <_ZN10CTRNG_File4ReadEPcj+0x94>
/mnt/c/Users/Kuba/Documents/School/ZeroMate/examples/16-paging_userspace/kernel/include/fs/drivers/trng_fs.h:41
            }

            return 0;
f0013c7c:	e3a03000 	mov	r3, #0
/mnt/c/Users/Kuba/Documents/School/ZeroMate/examples/16-paging_userspace/kernel/include/fs/drivers/trng_fs.h:42
        }
f0013c80:	e1a00003 	mov	r0, r3
f0013c84:	e24bd008 	sub	sp, fp, #8
f0013c88:	e8bd8810 	pop	{r4, fp, pc}
f0013c8c:	c003a574 	andgt	sl, r3, r4, ror r5

f0013c90 <_ZN10CTRNG_File5WriteEPKcj>:
_ZN10CTRNG_File5WriteEPKcj():
/mnt/c/Users/Kuba/Documents/School/ZeroMate/examples/16-paging_userspace/kernel/include/fs/drivers/trng_fs.h:44

        virtual uint32_t Write(const char* buffer, uint32_t num) override
f0013c90:	e52db004 	push	{fp}		; (str fp, [sp, #-4]!)
f0013c94:	e28db000 	add	fp, sp, #0
f0013c98:	e24dd014 	sub	sp, sp, #20
f0013c9c:	e50b0008 	str	r0, [fp, #-8]
f0013ca0:	e50b100c 	str	r1, [fp, #-12]
f0013ca4:	e50b2010 	str	r2, [fp, #-16]
/mnt/c/Users/Kuba/Documents/School/ZeroMate/examples/16-paging_userspace/kernel/include/fs/drivers/trng_fs.h:48
        {
            // do TRNG nelze zapisovat

            return 0;
f0013ca8:	e3a03000 	mov	r3, #0
/mnt/c/Users/Kuba/Documents/School/ZeroMate/examples/16-paging_userspace/kernel/include/fs/drivers/trng_fs.h:49
        }
f0013cac:	e1a00003 	mov	r0, r3
f0013cb0:	e28bd000 	add	sp, fp, #0
f0013cb4:	e49db004 	pop	{fp}		; (ldr fp, [sp], #4)
f0013cb8:	e12fff1e 	bx	lr

f0013cbc <_ZN10CTRNG_File5CloseEv>:
_ZN10CTRNG_File5CloseEv():
/mnt/c/Users/Kuba/Documents/School/ZeroMate/examples/16-paging_userspace/kernel/include/fs/drivers/trng_fs.h:51

        virtual bool Close() override
f0013cbc:	e92d4800 	push	{fp, lr}
f0013cc0:	e28db004 	add	fp, sp, #4
f0013cc4:	e24dd008 	sub	sp, sp, #8
f0013cc8:	e50b0008 	str	r0, [fp, #-8]
/mnt/c/Users/Kuba/Documents/School/ZeroMate/examples/16-paging_userspace/kernel/include/fs/drivers/trng_fs.h:53
        {
            if (!mOpened)
f0013ccc:	e51b3008 	ldr	r3, [fp, #-8]
f0013cd0:	e5d33004 	ldrb	r3, [r3, #4]
f0013cd4:	e2233001 	eor	r3, r3, #1
f0013cd8:	e6ef3073 	uxtb	r3, r3
f0013cdc:	e3530000 	cmp	r3, #0
f0013ce0:	0a000001 	beq	f0013cec <_ZN10CTRNG_File5CloseEv+0x30>
/mnt/c/Users/Kuba/Documents/School/ZeroMate/examples/16-paging_userspace/kernel/include/fs/drivers/trng_fs.h:54
                return false;
f0013ce4:	e3a03000 	mov	r3, #0
f0013ce8:	ea000005 	b	f0013d04 <_ZN10CTRNG_File5CloseEv+0x48>
/mnt/c/Users/Kuba/Documents/School/ZeroMate/examples/16-paging_userspace/kernel/include/fs/drivers/trng_fs.h:56

            sTRNG.Close();
f0013cec:	e59f001c 	ldr	r0, [pc, #28]	; f0013d10 <_ZN10CTRNG_File5CloseEv+0x54>
f0013cf0:	ebfffbe0 	bl	f0012c78 <_ZN5CTRNG5CloseEv>
/mnt/c/Users/Kuba/Documents/School/ZeroMate/examples/16-paging_userspace/kernel/include/fs/drivers/trng_fs.h:57
            mOpened = false;
f0013cf4:	e51b3008 	ldr	r3, [fp, #-8]
f0013cf8:	e3a02000 	mov	r2, #0
f0013cfc:	e5c32004 	strb	r2, [r3, #4]
/mnt/c/Users/Kuba/Documents/School/ZeroMate/examples/16-paging_userspace/kernel/include/fs/drivers/trng_fs.h:59

            return true;
f0013d00:	e3a03001 	mov	r3, #1
/mnt/c/Users/Kuba/Documents/School/ZeroMate/examples/16-paging_userspace/kernel/include/fs/drivers/trng_fs.h:60
        }
f0013d04:	e1a00003 	mov	r0, r3
f0013d08:	e24bd004 	sub	sp, fp, #4
f0013d0c:	e8bd8800 	pop	{fp, pc}
f0013d10:	c003a574 	andgt	sl, r3, r4, ror r5

f0013d14 <_ZN10CTRNG_File5IOCtlE16NIOCtl_OperationPv>:
_ZN10CTRNG_File5IOCtlE16NIOCtl_OperationPv():
/mnt/c/Users/Kuba/Documents/School/ZeroMate/examples/16-paging_userspace/kernel/include/fs/drivers/trng_fs.h:62

        virtual bool IOCtl(NIOCtl_Operation dir, void* ctlptr) override
f0013d14:	e52db004 	push	{fp}		; (str fp, [sp, #-4]!)
f0013d18:	e28db000 	add	fp, sp, #0
f0013d1c:	e24dd014 	sub	sp, sp, #20
f0013d20:	e50b0008 	str	r0, [fp, #-8]
f0013d24:	e50b100c 	str	r1, [fp, #-12]
f0013d28:	e50b2010 	str	r2, [fp, #-16]
/mnt/c/Users/Kuba/Documents/School/ZeroMate/examples/16-paging_userspace/kernel/include/fs/drivers/trng_fs.h:64
        {
            return false;
f0013d2c:	e3a03000 	mov	r3, #0
/mnt/c/Users/Kuba/Documents/School/ZeroMate/examples/16-paging_userspace/kernel/include/fs/drivers/trng_fs.h:65
        }
f0013d30:	e1a00003 	mov	r0, r3
f0013d34:	e28bd000 	add	sp, fp, #0
f0013d38:	e49db004 	pop	{fp}		; (ldr fp, [sp], #4)
f0013d3c:	e12fff1e 	bx	lr

f0013d40 <_ZN15CTRNG_FS_Driver11On_RegisterEv>:
_ZN15CTRNG_FS_Driver11On_RegisterEv():
/mnt/c/Users/Kuba/Documents/School/ZeroMate/examples/16-paging_userspace/kernel/include/fs/drivers/trng_fs.h:71
};

class CTRNG_FS_Driver : public IFilesystem_Driver
{
	public:
		virtual void On_Register() override
f0013d40:	e52db004 	push	{fp}		; (str fp, [sp, #-4]!)
f0013d44:	e28db000 	add	fp, sp, #0
f0013d48:	e24dd00c 	sub	sp, sp, #12
f0013d4c:	e50b0008 	str	r0, [fp, #-8]
/mnt/c/Users/Kuba/Documents/School/ZeroMate/examples/16-paging_userspace/kernel/include/fs/drivers/trng_fs.h:74
        {
            //
        }
f0013d50:	e320f000 	nop	{0}
f0013d54:	e28bd000 	add	sp, fp, #0
f0013d58:	e49db004 	pop	{fp}		; (ldr fp, [sp], #4)
f0013d5c:	e12fff1e 	bx	lr

f0013d60 <_ZN15CTRNG_FS_Driver9Open_FileEPKc15NFile_Open_Mode>:
_ZN15CTRNG_FS_Driver9Open_FileEPKc15NFile_Open_Mode():
/mnt/c/Users/Kuba/Documents/School/ZeroMate/examples/16-paging_userspace/kernel/include/fs/drivers/trng_fs.h:76

        virtual IFile* Open_File(const char* path, NFile_Open_Mode mode) override
f0013d60:	e92d4810 	push	{r4, fp, lr}
f0013d64:	e28db008 	add	fp, sp, #8
f0013d68:	e24dd01c 	sub	sp, sp, #28
f0013d6c:	e50b0018 	str	r0, [fp, #-24]	; 0xffffffe8
f0013d70:	e50b101c 	str	r1, [fp, #-28]	; 0xffffffe4
f0013d74:	e50b2020 	str	r2, [fp, #-32]	; 0xffffffe0
/mnt/c/Users/Kuba/Documents/School/ZeroMate/examples/16-paging_userspace/kernel/include/fs/drivers/trng_fs.h:80
        {
            // TRNG je jen jeden a vyhrazeny, takze je jedno co je v ceste

            if (!sTRNG.Open( mode == NFile_Open_Mode::Read_Write )) // read_write povazujeme za "exkluzivni" mod
f0013d78:	e51b3020 	ldr	r3, [fp, #-32]	; 0xffffffe0
f0013d7c:	e3530002 	cmp	r3, #2
f0013d80:	03a03001 	moveq	r3, #1
f0013d84:	13a03000 	movne	r3, #0
f0013d88:	e6ef3073 	uxtb	r3, r3
f0013d8c:	e1a01003 	mov	r1, r3
f0013d90:	e59f0048 	ldr	r0, [pc, #72]	; f0013de0 <_ZN15CTRNG_FS_Driver9Open_FileEPKc15NFile_Open_Mode+0x80>
f0013d94:	ebfffb7d 	bl	f0012b90 <_ZN5CTRNG4OpenEb>
f0013d98:	e1a03000 	mov	r3, r0
f0013d9c:	e2233001 	eor	r3, r3, #1
f0013da0:	e6ef3073 	uxtb	r3, r3
f0013da4:	e3530000 	cmp	r3, #0
f0013da8:	0a000001 	beq	f0013db4 <_ZN15CTRNG_FS_Driver9Open_FileEPKc15NFile_Open_Mode+0x54>
/mnt/c/Users/Kuba/Documents/School/ZeroMate/examples/16-paging_userspace/kernel/include/fs/drivers/trng_fs.h:81
                return nullptr;
f0013dac:	e3a03000 	mov	r3, #0
f0013db0:	ea000007 	b	f0013dd4 <_ZN15CTRNG_FS_Driver9Open_FileEPKc15NFile_Open_Mode+0x74>
/mnt/c/Users/Kuba/Documents/School/ZeroMate/examples/16-paging_userspace/kernel/include/fs/drivers/trng_fs.h:83

            CTRNG_File* f = new CTRNG_File();
f0013db4:	e3a00008 	mov	r0, #8
f0013db8:	ebfffe02 	bl	f00135c8 <_Znwj>
f0013dbc:	e1a03000 	mov	r3, r0
f0013dc0:	e1a04003 	mov	r4, r3
f0013dc4:	e1a00004 	mov	r0, r4
f0013dc8:	ebffff49 	bl	f0013af4 <_ZN10CTRNG_FileC1Ev>
f0013dcc:	e50b4010 	str	r4, [fp, #-16]
/mnt/c/Users/Kuba/Documents/School/ZeroMate/examples/16-paging_userspace/kernel/include/fs/drivers/trng_fs.h:85

            return f;
f0013dd0:	e51b3010 	ldr	r3, [fp, #-16]
/mnt/c/Users/Kuba/Documents/School/ZeroMate/examples/16-paging_userspace/kernel/include/fs/drivers/trng_fs.h:86
        }
f0013dd4:	e1a00003 	mov	r0, r3
f0013dd8:	e24bd008 	sub	sp, fp, #8
f0013ddc:	e8bd8810 	pop	{r4, fp, pc}
f0013de0:	c003a574 	andgt	sl, r3, r4, ror r5

f0013de4 <_ZN20CShift_Register_FileC1Ev>:
_ZN20CShift_Register_FileC2Ev():
