
./proc_test_1:     file format elf32-littlearm


Disassembly of section .text:

00008000 <_start>:
_start():
/mnt/c/Users/Kuba/Documents/School/ZeroMate/examples/16-paging_userspace/userspace/crt0.s:10
;@ startovaci symbol - vstupni bod z jadra OS do uzivatelskeho programu
;@ v podstate jen ihned zavola nejakou C funkci, nepotrebujeme nic tak kritickeho, abychom to vsechno museli psal v ASM
;@ jen _start vlastne ani neni funkce, takze by tento vstupni bod mel byt psany takto; rovnez je treba se ujistit, ze
;@ je tento symbol relokovany spravne na 0x8000 (tam OS ocekava, ze se nachazi vstupni bod)
_start:
    bl __crt0_run
    8000:	eb000017 	bl	8064 <__crt0_run>

00008004 <_hang>:
_hang():
/mnt/c/Users/Kuba/Documents/School/ZeroMate/examples/16-paging_userspace/userspace/crt0.s:13
    ;@ z funkce __crt0_run by se nemel proces uz vratit, ale kdyby neco, tak se zacyklime
_hang:
    b _hang
    8004:	eafffffe 	b	8004 <_hang>

00008008 <__crt0_init_bss>:
__crt0_init_bss():
/mnt/c/Users/Kuba/Documents/School/ZeroMate/examples/16-paging_userspace/userspace/crt0.c:10

extern unsigned int __bss_start;
extern unsigned int __bss_end;

void __crt0_init_bss()
{
    8008:	e52db004 	push	{fp}		; (str fp, [sp, #-4]!)
    800c:	e28db000 	add	fp, sp, #0
    8010:	e24dd00c 	sub	sp, sp, #12
/mnt/c/Users/Kuba/Documents/School/ZeroMate/examples/16-paging_userspace/userspace/crt0.c:11
    unsigned int* begin = (unsigned int*)&__bss_start;
    8014:	e59f3040 	ldr	r3, [pc, #64]	; 805c <__crt0_init_bss+0x54>
    8018:	e50b3008 	str	r3, [fp, #-8]
/mnt/c/Users/Kuba/Documents/School/ZeroMate/examples/16-paging_userspace/userspace/crt0.c:12
    for (; begin < (unsigned int*)&__bss_end; begin++)
    801c:	ea000005 	b	8038 <__crt0_init_bss+0x30>
/mnt/c/Users/Kuba/Documents/School/ZeroMate/examples/16-paging_userspace/userspace/crt0.c:13 (discriminator 2)
        *begin = 0;
    8020:	e51b3008 	ldr	r3, [fp, #-8]
    8024:	e3a02000 	mov	r2, #0
    8028:	e5832000 	str	r2, [r3]
/mnt/c/Users/Kuba/Documents/School/ZeroMate/examples/16-paging_userspace/userspace/crt0.c:12 (discriminator 2)
    for (; begin < (unsigned int*)&__bss_end; begin++)
    802c:	e51b3008 	ldr	r3, [fp, #-8]
    8030:	e2833004 	add	r3, r3, #4
    8034:	e50b3008 	str	r3, [fp, #-8]
/mnt/c/Users/Kuba/Documents/School/ZeroMate/examples/16-paging_userspace/userspace/crt0.c:12 (discriminator 1)
    8038:	e51b3008 	ldr	r3, [fp, #-8]
    803c:	e59f201c 	ldr	r2, [pc, #28]	; 8060 <__crt0_init_bss+0x58>
    8040:	e1530002 	cmp	r3, r2
    8044:	3afffff5 	bcc	8020 <__crt0_init_bss+0x18>
/mnt/c/Users/Kuba/Documents/School/ZeroMate/examples/16-paging_userspace/userspace/crt0.c:14
}
    8048:	e320f000 	nop	{0}
    804c:	e320f000 	nop	{0}
    8050:	e28bd000 	add	sp, fp, #0
    8054:	e49db004 	pop	{fp}		; (ldr fp, [sp], #4)
    8058:	e12fff1e 	bx	lr
    805c:	000084e4 	andeq	r8, r0, r4, ror #9
    8060:	000084f4 	strdeq	r8, [r0], -r4

00008064 <__crt0_run>:
__crt0_run():
/mnt/c/Users/Kuba/Documents/School/ZeroMate/examples/16-paging_userspace/userspace/crt0.c:17

void __crt0_run()
{
    8064:	e92d4800 	push	{fp, lr}
    8068:	e28db004 	add	fp, sp, #4
    806c:	e24dd008 	sub	sp, sp, #8
/mnt/c/Users/Kuba/Documents/School/ZeroMate/examples/16-paging_userspace/userspace/crt0.c:19
    // inicializace .bss sekce (vynulovani)
    __crt0_init_bss();
    8070:	ebffffe4 	bl	8008 <__crt0_init_bss>
/mnt/c/Users/Kuba/Documents/School/ZeroMate/examples/16-paging_userspace/userspace/crt0.c:22

    // volani konstruktoru globalnich trid (C++)
    _cpp_startup();
    8074:	eb000040 	bl	817c <_cpp_startup>
/mnt/c/Users/Kuba/Documents/School/ZeroMate/examples/16-paging_userspace/userspace/crt0.c:27

    // volani funkce main
    // nebudeme se zde zabyvat predavanim parametru do funkce main
    // jinak by se mohly predavat napr. namapovane do virtualniho adr. prostoru a odkazem pres zasobnik (kam nam muze OS pushnout co chce)
    int result = main(0, 0);
    8078:	e3a01000 	mov	r1, #0
    807c:	e3a00000 	mov	r0, #0
    8080:	eb000069 	bl	822c <main>
    8084:	e50b0008 	str	r0, [fp, #-8]
/mnt/c/Users/Kuba/Documents/School/ZeroMate/examples/16-paging_userspace/userspace/crt0.c:30

    // volani destruktoru globalnich trid (C++)
    _cpp_shutdown();
    8088:	eb000051 	bl	81d4 <_cpp_shutdown>
/mnt/c/Users/Kuba/Documents/School/ZeroMate/examples/16-paging_userspace/userspace/crt0.c:33

    // volani terminate() syscallu s navratovym kodem funkce main
    asm volatile("mov r0, %0" : : "r" (result));
    808c:	e51b3008 	ldr	r3, [fp, #-8]
    8090:	e1a00003 	mov	r0, r3
/mnt/c/Users/Kuba/Documents/School/ZeroMate/examples/16-paging_userspace/userspace/crt0.c:34
    asm volatile("svc #1");
    8094:	ef000001 	svc	0x00000001
/mnt/c/Users/Kuba/Documents/School/ZeroMate/examples/16-paging_userspace/userspace/crt0.c:35
}
    8098:	e320f000 	nop	{0}
    809c:	e24bd004 	sub	sp, fp, #4
    80a0:	e8bd8800 	pop	{fp, pc}

000080a4 <__cxa_guard_acquire>:
__cxa_guard_acquire():
/mnt/c/Users/Kuba/Documents/School/ZeroMate/examples/16-paging_userspace/userspace/cxxabi.cpp:11
	extern "C" int __cxa_guard_acquire (__guard *);
	extern "C" void __cxa_guard_release (__guard *);
	extern "C" void __cxa_guard_abort (__guard *);

	extern "C" int __cxa_guard_acquire (__guard *g)
	{
    80a4:	e52db004 	push	{fp}		; (str fp, [sp, #-4]!)
    80a8:	e28db000 	add	fp, sp, #0
    80ac:	e24dd00c 	sub	sp, sp, #12
    80b0:	e50b0008 	str	r0, [fp, #-8]
/mnt/c/Users/Kuba/Documents/School/ZeroMate/examples/16-paging_userspace/userspace/cxxabi.cpp:12
		return !*(char *)(g);
    80b4:	e51b3008 	ldr	r3, [fp, #-8]
    80b8:	e5d33000 	ldrb	r3, [r3]
    80bc:	e3530000 	cmp	r3, #0
    80c0:	03a03001 	moveq	r3, #1
    80c4:	13a03000 	movne	r3, #0
    80c8:	e6ef3073 	uxtb	r3, r3
/mnt/c/Users/Kuba/Documents/School/ZeroMate/examples/16-paging_userspace/userspace/cxxabi.cpp:13
	}
    80cc:	e1a00003 	mov	r0, r3
    80d0:	e28bd000 	add	sp, fp, #0
    80d4:	e49db004 	pop	{fp}		; (ldr fp, [sp], #4)
    80d8:	e12fff1e 	bx	lr

000080dc <__cxa_guard_release>:
__cxa_guard_release():
/mnt/c/Users/Kuba/Documents/School/ZeroMate/examples/16-paging_userspace/userspace/cxxabi.cpp:16

	extern "C" void __cxa_guard_release (__guard *g)
	{
    80dc:	e52db004 	push	{fp}		; (str fp, [sp, #-4]!)
    80e0:	e28db000 	add	fp, sp, #0
    80e4:	e24dd00c 	sub	sp, sp, #12
    80e8:	e50b0008 	str	r0, [fp, #-8]
/mnt/c/Users/Kuba/Documents/School/ZeroMate/examples/16-paging_userspace/userspace/cxxabi.cpp:17
		*(char *)g = 1;
    80ec:	e51b3008 	ldr	r3, [fp, #-8]
    80f0:	e3a02001 	mov	r2, #1
    80f4:	e5c32000 	strb	r2, [r3]
/mnt/c/Users/Kuba/Documents/School/ZeroMate/examples/16-paging_userspace/userspace/cxxabi.cpp:18
	}
    80f8:	e320f000 	nop	{0}
    80fc:	e28bd000 	add	sp, fp, #0
    8100:	e49db004 	pop	{fp}		; (ldr fp, [sp], #4)
    8104:	e12fff1e 	bx	lr

00008108 <__cxa_guard_abort>:
__cxa_guard_abort():
/mnt/c/Users/Kuba/Documents/School/ZeroMate/examples/16-paging_userspace/userspace/cxxabi.cpp:21

	extern "C" void __cxa_guard_abort (__guard *)
	{
    8108:	e52db004 	push	{fp}		; (str fp, [sp, #-4]!)
    810c:	e28db000 	add	fp, sp, #0
    8110:	e24dd00c 	sub	sp, sp, #12
    8114:	e50b0008 	str	r0, [fp, #-8]
/mnt/c/Users/Kuba/Documents/School/ZeroMate/examples/16-paging_userspace/userspace/cxxabi.cpp:23

	}
    8118:	e320f000 	nop	{0}
    811c:	e28bd000 	add	sp, fp, #0
    8120:	e49db004 	pop	{fp}		; (ldr fp, [sp], #4)
    8124:	e12fff1e 	bx	lr

00008128 <__dso_handle>:
__dso_handle():
/mnt/c/Users/Kuba/Documents/School/ZeroMate/examples/16-paging_userspace/userspace/cxxabi.cpp:27
}

extern "C" void __dso_handle()
{
    8128:	e52db004 	push	{fp}		; (str fp, [sp, #-4]!)
    812c:	e28db000 	add	fp, sp, #0
/mnt/c/Users/Kuba/Documents/School/ZeroMate/examples/16-paging_userspace/userspace/cxxabi.cpp:29
    // ignore dtors for now
}
    8130:	e320f000 	nop	{0}
    8134:	e28bd000 	add	sp, fp, #0
    8138:	e49db004 	pop	{fp}		; (ldr fp, [sp], #4)
    813c:	e12fff1e 	bx	lr

00008140 <__cxa_atexit>:
__cxa_atexit():
/mnt/c/Users/Kuba/Documents/School/ZeroMate/examples/16-paging_userspace/userspace/cxxabi.cpp:32

extern "C" void __cxa_atexit()
{
    8140:	e52db004 	push	{fp}		; (str fp, [sp, #-4]!)
    8144:	e28db000 	add	fp, sp, #0
/mnt/c/Users/Kuba/Documents/School/ZeroMate/examples/16-paging_userspace/userspace/cxxabi.cpp:34
    // ignore dtors for now
}
    8148:	e320f000 	nop	{0}
    814c:	e28bd000 	add	sp, fp, #0
    8150:	e49db004 	pop	{fp}		; (ldr fp, [sp], #4)
    8154:	e12fff1e 	bx	lr

00008158 <__cxa_pure_virtual>:
__cxa_pure_virtual():
/mnt/c/Users/Kuba/Documents/School/ZeroMate/examples/16-paging_userspace/userspace/cxxabi.cpp:37

extern "C" void __cxa_pure_virtual()
{
    8158:	e52db004 	push	{fp}		; (str fp, [sp, #-4]!)
    815c:	e28db000 	add	fp, sp, #0
/mnt/c/Users/Kuba/Documents/School/ZeroMate/examples/16-paging_userspace/userspace/cxxabi.cpp:39
    // pure virtual method called
}
    8160:	e320f000 	nop	{0}
    8164:	e28bd000 	add	sp, fp, #0
    8168:	e49db004 	pop	{fp}		; (ldr fp, [sp], #4)
    816c:	e12fff1e 	bx	lr

00008170 <__aeabi_unwind_cpp_pr1>:
__aeabi_unwind_cpp_pr1():
/mnt/c/Users/Kuba/Documents/School/ZeroMate/examples/16-paging_userspace/userspace/cxxabi.cpp:42

extern "C" void __aeabi_unwind_cpp_pr1()
{
    8170:	e52db004 	push	{fp}		; (str fp, [sp, #-4]!)
    8174:	e28db000 	add	fp, sp, #0
/mnt/c/Users/Kuba/Documents/School/ZeroMate/examples/16-paging_userspace/userspace/cxxabi.cpp:43 (discriminator 1)
	while (true)
    8178:	eafffffe 	b	8178 <__aeabi_unwind_cpp_pr1+0x8>

0000817c <_cpp_startup>:
_cpp_startup():
/mnt/c/Users/Kuba/Documents/School/ZeroMate/examples/16-paging_userspace/userspace/cxxabi.cpp:61
extern "C" dtor_ptr __DTOR_LIST__[0];
// konec pole destruktoru
extern "C" dtor_ptr __DTOR_END__[0];

extern "C" int _cpp_startup(void)
{
    817c:	e92d4800 	push	{fp, lr}
    8180:	e28db004 	add	fp, sp, #4
    8184:	e24dd008 	sub	sp, sp, #8
/mnt/c/Users/Kuba/Documents/School/ZeroMate/examples/16-paging_userspace/userspace/cxxabi.cpp:66
	ctor_ptr* fnptr;
	
	// zavolame konstruktory globalnich C++ trid
	// v poli __CTOR_LIST__ jsou ukazatele na vygenerovane stuby volani konstruktoru
	for (fnptr = __CTOR_LIST__; fnptr < __CTOR_END__; fnptr++)
    8188:	e59f303c 	ldr	r3, [pc, #60]	; 81cc <_cpp_startup+0x50>
    818c:	e50b3008 	str	r3, [fp, #-8]
/mnt/c/Users/Kuba/Documents/School/ZeroMate/examples/16-paging_userspace/userspace/cxxabi.cpp:66 (discriminator 3)
    8190:	e51b3008 	ldr	r3, [fp, #-8]
    8194:	e59f2034 	ldr	r2, [pc, #52]	; 81d0 <_cpp_startup+0x54>
    8198:	e1530002 	cmp	r3, r2
    819c:	2a000006 	bcs	81bc <_cpp_startup+0x40>
/mnt/c/Users/Kuba/Documents/School/ZeroMate/examples/16-paging_userspace/userspace/cxxabi.cpp:67 (discriminator 2)
		(*fnptr)();
    81a0:	e51b3008 	ldr	r3, [fp, #-8]
    81a4:	e5933000 	ldr	r3, [r3]
    81a8:	e12fff33 	blx	r3
/mnt/c/Users/Kuba/Documents/School/ZeroMate/examples/16-paging_userspace/userspace/cxxabi.cpp:66 (discriminator 2)
	for (fnptr = __CTOR_LIST__; fnptr < __CTOR_END__; fnptr++)
    81ac:	e51b3008 	ldr	r3, [fp, #-8]
    81b0:	e2833004 	add	r3, r3, #4
    81b4:	e50b3008 	str	r3, [fp, #-8]
    81b8:	eafffff4 	b	8190 <_cpp_startup+0x14>
/mnt/c/Users/Kuba/Documents/School/ZeroMate/examples/16-paging_userspace/userspace/cxxabi.cpp:69
	
	return 0;
    81bc:	e3a03000 	mov	r3, #0
/mnt/c/Users/Kuba/Documents/School/ZeroMate/examples/16-paging_userspace/userspace/cxxabi.cpp:70
}
    81c0:	e1a00003 	mov	r0, r3
    81c4:	e24bd004 	sub	sp, fp, #4
    81c8:	e8bd8800 	pop	{fp, pc}
    81cc:	000084e4 	andeq	r8, r0, r4, ror #9
    81d0:	000084e4 	andeq	r8, r0, r4, ror #9

000081d4 <_cpp_shutdown>:
_cpp_shutdown():
/mnt/c/Users/Kuba/Documents/School/ZeroMate/examples/16-paging_userspace/userspace/cxxabi.cpp:73

extern "C" int _cpp_shutdown(void)
{
    81d4:	e92d4800 	push	{fp, lr}
    81d8:	e28db004 	add	fp, sp, #4
    81dc:	e24dd008 	sub	sp, sp, #8
/mnt/c/Users/Kuba/Documents/School/ZeroMate/examples/16-paging_userspace/userspace/cxxabi.cpp:77
	dtor_ptr* fnptr;
	
	// zavolame destruktory globalnich C++ trid
	for (fnptr = __DTOR_LIST__; fnptr < __DTOR_END__; fnptr++)
    81e0:	e59f303c 	ldr	r3, [pc, #60]	; 8224 <_cpp_shutdown+0x50>
    81e4:	e50b3008 	str	r3, [fp, #-8]
/mnt/c/Users/Kuba/Documents/School/ZeroMate/examples/16-paging_userspace/userspace/cxxabi.cpp:77 (discriminator 3)
    81e8:	e51b3008 	ldr	r3, [fp, #-8]
    81ec:	e59f2034 	ldr	r2, [pc, #52]	; 8228 <_cpp_shutdown+0x54>
    81f0:	e1530002 	cmp	r3, r2
    81f4:	2a000006 	bcs	8214 <_cpp_shutdown+0x40>
/mnt/c/Users/Kuba/Documents/School/ZeroMate/examples/16-paging_userspace/userspace/cxxabi.cpp:78 (discriminator 2)
		(*fnptr)();
    81f8:	e51b3008 	ldr	r3, [fp, #-8]
    81fc:	e5933000 	ldr	r3, [r3]
    8200:	e12fff33 	blx	r3
/mnt/c/Users/Kuba/Documents/School/ZeroMate/examples/16-paging_userspace/userspace/cxxabi.cpp:77 (discriminator 2)
	for (fnptr = __DTOR_LIST__; fnptr < __DTOR_END__; fnptr++)
    8204:	e51b3008 	ldr	r3, [fp, #-8]
    8208:	e2833004 	add	r3, r3, #4
    820c:	e50b3008 	str	r3, [fp, #-8]
    8210:	eafffff4 	b	81e8 <_cpp_shutdown+0x14>
/mnt/c/Users/Kuba/Documents/School/ZeroMate/examples/16-paging_userspace/userspace/cxxabi.cpp:80
	
	return 0;
    8214:	e3a03000 	mov	r3, #0
/mnt/c/Users/Kuba/Documents/School/ZeroMate/examples/16-paging_userspace/userspace/cxxabi.cpp:81
}
    8218:	e1a00003 	mov	r0, r3
    821c:	e24bd004 	sub	sp, fp, #4
    8220:	e8bd8800 	pop	{fp, pc}
    8224:	000084e4 	andeq	r8, r0, r4, ror #9
    8228:	000084e4 	andeq	r8, r0, r4, ror #9

0000822c <main>:
main():
/mnt/c/Users/Kuba/Documents/School/ZeroMate/examples/16-paging_userspace/userspace/test_process_1/main.cpp:7
#include <stdfile.h>

#include <drivers/bridges/uart_defs.h>

int main(int argc, char** argv)
{
    822c:	e92d4800 	push	{fp, lr}
    8230:	e28db004 	add	fp, sp, #4
    8234:	e24dd018 	sub	sp, sp, #24
    8238:	e50b0018 	str	r0, [fp, #-24]	; 0xffffffe8
    823c:	e50b101c 	str	r1, [fp, #-28]	; 0xffffffe4
/mnt/c/Users/Kuba/Documents/School/ZeroMate/examples/16-paging_userspace/userspace/test_process_1/main.cpp:10
	volatile int i;

    uint32_t f = open("DEV:segd", NFile_Open_Mode::Write_Only);
    8240:	e3a01001 	mov	r1, #1
    8244:	e59f008c 	ldr	r0, [pc, #140]	; 82d8 <main+0xac>
    8248:	eb000041 	bl	8354 <_Z4openPKc15NFile_Open_Mode>
    824c:	e50b0008 	str	r0, [fp, #-8]
/mnt/c/Users/Kuba/Documents/School/ZeroMate/examples/16-paging_userspace/userspace/test_process_1/main.cpp:11
    write(f, "4", 1);
    8250:	e3a02001 	mov	r2, #1
    8254:	e59f1080 	ldr	r1, [pc, #128]	; 82dc <main+0xb0>
    8258:	e51b0008 	ldr	r0, [fp, #-8]
    825c:	eb000061 	bl	83e8 <_Z5writejPKcj>
/mnt/c/Users/Kuba/Documents/School/ZeroMate/examples/16-paging_userspace/userspace/test_process_1/main.cpp:13

    char message[] = "0";
    8260:	e3a03030 	mov	r3, #48	; 0x30
    8264:	e14b31b0 	strh	r3, [fp, #-16]
/mnt/c/Users/Kuba/Documents/School/ZeroMate/examples/16-paging_userspace/userspace/test_process_1/main.cpp:17

    while (true)
    {
        if (message[0] == '9')
    8268:	e55b3010 	ldrb	r3, [fp, #-16]
    826c:	e3530039 	cmp	r3, #57	; 0x39
    8270:	1a000002 	bne	8280 <main+0x54>
/mnt/c/Users/Kuba/Documents/School/ZeroMate/examples/16-paging_userspace/userspace/test_process_1/main.cpp:19
        {
            message[0] = '0';
    8274:	e3a03030 	mov	r3, #48	; 0x30
    8278:	e54b3010 	strb	r3, [fp, #-16]
    827c:	ea000003 	b	8290 <main+0x64>
/mnt/c/Users/Kuba/Documents/School/ZeroMate/examples/16-paging_userspace/userspace/test_process_1/main.cpp:23
        }
        else
        {
            ++message[0];
    8280:	e55b3010 	ldrb	r3, [fp, #-16]
    8284:	e2833001 	add	r3, r3, #1
    8288:	e6ef3073 	uxtb	r3, r3
    828c:	e54b3010 	strb	r3, [fp, #-16]
/mnt/c/Users/Kuba/Documents/School/ZeroMate/examples/16-paging_userspace/userspace/test_process_1/main.cpp:26
        }

        write(f, message, 1);
    8290:	e24b3010 	sub	r3, fp, #16
    8294:	e3a02001 	mov	r2, #1
    8298:	e1a01003 	mov	r1, r3
    829c:	e51b0008 	ldr	r0, [fp, #-8]
    82a0:	eb000050 	bl	83e8 <_Z5writejPKcj>
/mnt/c/Users/Kuba/Documents/School/ZeroMate/examples/16-paging_userspace/userspace/test_process_1/main.cpp:28

        for (i = 0; i < 0x1600; i++)
    82a4:	e3a03000 	mov	r3, #0
    82a8:	e50b300c 	str	r3, [fp, #-12]
/mnt/c/Users/Kuba/Documents/School/ZeroMate/examples/16-paging_userspace/userspace/test_process_1/main.cpp:28 (discriminator 3)
    82ac:	e51b300c 	ldr	r3, [fp, #-12]
    82b0:	e3530c16 	cmp	r3, #5632	; 0x1600
    82b4:	b3a03001 	movlt	r3, #1
    82b8:	a3a03000 	movge	r3, #0
    82bc:	e6ef3073 	uxtb	r3, r3
    82c0:	e3530000 	cmp	r3, #0
    82c4:	0affffe7 	beq	8268 <main+0x3c>
/mnt/c/Users/Kuba/Documents/School/ZeroMate/examples/16-paging_userspace/userspace/test_process_1/main.cpp:28 (discriminator 2)
    82c8:	e51b300c 	ldr	r3, [fp, #-12]
    82cc:	e2833001 	add	r3, r3, #1
    82d0:	e50b300c 	str	r3, [fp, #-12]
    82d4:	eafffff4 	b	82ac <main+0x80>
    82d8:	000084c4 	andeq	r8, r0, r4, asr #9
    82dc:	000084d0 	ldrdeq	r8, [r0], -r0

000082e0 <_Z6getpidv>:
_Z6getpidv():
/mnt/c/Users/Kuba/Documents/School/ZeroMate/examples/16-paging_userspace/stdlib/src/stdfile.cpp:4
#include <stdfile.h>

uint32_t getpid()
{
    82e0:	e52db004 	push	{fp}		; (str fp, [sp, #-4]!)
    82e4:	e28db000 	add	fp, sp, #0
    82e8:	e24dd00c 	sub	sp, sp, #12
/mnt/c/Users/Kuba/Documents/School/ZeroMate/examples/16-paging_userspace/stdlib/src/stdfile.cpp:7
    uint32_t pid;

    asm volatile("swi 0");
    82ec:	ef000000 	svc	0x00000000
/mnt/c/Users/Kuba/Documents/School/ZeroMate/examples/16-paging_userspace/stdlib/src/stdfile.cpp:8
    asm volatile("mov %0, r0" : "=r" (pid));
    82f0:	e1a03000 	mov	r3, r0
    82f4:	e50b3008 	str	r3, [fp, #-8]
/mnt/c/Users/Kuba/Documents/School/ZeroMate/examples/16-paging_userspace/stdlib/src/stdfile.cpp:10

    return pid;
    82f8:	e51b3008 	ldr	r3, [fp, #-8]
/mnt/c/Users/Kuba/Documents/School/ZeroMate/examples/16-paging_userspace/stdlib/src/stdfile.cpp:11
}
    82fc:	e1a00003 	mov	r0, r3
    8300:	e28bd000 	add	sp, fp, #0
    8304:	e49db004 	pop	{fp}		; (ldr fp, [sp], #4)
    8308:	e12fff1e 	bx	lr

0000830c <_Z9terminatei>:
_Z9terminatei():
/mnt/c/Users/Kuba/Documents/School/ZeroMate/examples/16-paging_userspace/stdlib/src/stdfile.cpp:14

void terminate(int exitcode)
{
    830c:	e52db004 	push	{fp}		; (str fp, [sp, #-4]!)
    8310:	e28db000 	add	fp, sp, #0
    8314:	e24dd00c 	sub	sp, sp, #12
    8318:	e50b0008 	str	r0, [fp, #-8]
/mnt/c/Users/Kuba/Documents/School/ZeroMate/examples/16-paging_userspace/stdlib/src/stdfile.cpp:15
    asm volatile("mov r0, %0" : : "r" (exitcode));
    831c:	e51b3008 	ldr	r3, [fp, #-8]
    8320:	e1a00003 	mov	r0, r3
/mnt/c/Users/Kuba/Documents/School/ZeroMate/examples/16-paging_userspace/stdlib/src/stdfile.cpp:16
    asm volatile("swi 1");
    8324:	ef000001 	svc	0x00000001
/mnt/c/Users/Kuba/Documents/School/ZeroMate/examples/16-paging_userspace/stdlib/src/stdfile.cpp:17
}
    8328:	e320f000 	nop	{0}
    832c:	e28bd000 	add	sp, fp, #0
    8330:	e49db004 	pop	{fp}		; (ldr fp, [sp], #4)
    8334:	e12fff1e 	bx	lr

00008338 <_Z11sched_yieldv>:
_Z11sched_yieldv():
/mnt/c/Users/Kuba/Documents/School/ZeroMate/examples/16-paging_userspace/stdlib/src/stdfile.cpp:20

void sched_yield()
{
    8338:	e52db004 	push	{fp}		; (str fp, [sp, #-4]!)
    833c:	e28db000 	add	fp, sp, #0
/mnt/c/Users/Kuba/Documents/School/ZeroMate/examples/16-paging_userspace/stdlib/src/stdfile.cpp:21
    asm volatile("swi 2");
    8340:	ef000002 	svc	0x00000002
/mnt/c/Users/Kuba/Documents/School/ZeroMate/examples/16-paging_userspace/stdlib/src/stdfile.cpp:22
}
    8344:	e320f000 	nop	{0}
    8348:	e28bd000 	add	sp, fp, #0
    834c:	e49db004 	pop	{fp}		; (ldr fp, [sp], #4)
    8350:	e12fff1e 	bx	lr

00008354 <_Z4openPKc15NFile_Open_Mode>:
_Z4openPKc15NFile_Open_Mode():
/mnt/c/Users/Kuba/Documents/School/ZeroMate/examples/16-paging_userspace/stdlib/src/stdfile.cpp:25

uint32_t open(const char* filename, NFile_Open_Mode mode)
{
    8354:	e52db004 	push	{fp}		; (str fp, [sp, #-4]!)
    8358:	e28db000 	add	fp, sp, #0
    835c:	e24dd014 	sub	sp, sp, #20
    8360:	e50b0010 	str	r0, [fp, #-16]
    8364:	e50b1014 	str	r1, [fp, #-20]	; 0xffffffec
/mnt/c/Users/Kuba/Documents/School/ZeroMate/examples/16-paging_userspace/stdlib/src/stdfile.cpp:28
    uint32_t file;

    asm volatile("mov r0, %0" : : "r" (filename));
    8368:	e51b3010 	ldr	r3, [fp, #-16]
    836c:	e1a00003 	mov	r0, r3
/mnt/c/Users/Kuba/Documents/School/ZeroMate/examples/16-paging_userspace/stdlib/src/stdfile.cpp:29
    asm volatile("mov r1, %0" : : "r" (mode));
    8370:	e51b3014 	ldr	r3, [fp, #-20]	; 0xffffffec
    8374:	e1a01003 	mov	r1, r3
/mnt/c/Users/Kuba/Documents/School/ZeroMate/examples/16-paging_userspace/stdlib/src/stdfile.cpp:30
    asm volatile("swi 64");
    8378:	ef000040 	svc	0x00000040
/mnt/c/Users/Kuba/Documents/School/ZeroMate/examples/16-paging_userspace/stdlib/src/stdfile.cpp:31
    asm volatile("mov %0, r0" : "=r" (file));
    837c:	e1a03000 	mov	r3, r0
    8380:	e50b3008 	str	r3, [fp, #-8]
/mnt/c/Users/Kuba/Documents/School/ZeroMate/examples/16-paging_userspace/stdlib/src/stdfile.cpp:33

    return file;
    8384:	e51b3008 	ldr	r3, [fp, #-8]
/mnt/c/Users/Kuba/Documents/School/ZeroMate/examples/16-paging_userspace/stdlib/src/stdfile.cpp:34
}
    8388:	e1a00003 	mov	r0, r3
    838c:	e28bd000 	add	sp, fp, #0
    8390:	e49db004 	pop	{fp}		; (ldr fp, [sp], #4)
    8394:	e12fff1e 	bx	lr

00008398 <_Z4readjPcj>:
_Z4readjPcj():
/mnt/c/Users/Kuba/Documents/School/ZeroMate/examples/16-paging_userspace/stdlib/src/stdfile.cpp:37

uint32_t read(uint32_t file, char* const buffer, uint32_t size)
{
    8398:	e52db004 	push	{fp}		; (str fp, [sp, #-4]!)
    839c:	e28db000 	add	fp, sp, #0
    83a0:	e24dd01c 	sub	sp, sp, #28
    83a4:	e50b0010 	str	r0, [fp, #-16]
    83a8:	e50b1014 	str	r1, [fp, #-20]	; 0xffffffec
    83ac:	e50b2018 	str	r2, [fp, #-24]	; 0xffffffe8
/mnt/c/Users/Kuba/Documents/School/ZeroMate/examples/16-paging_userspace/stdlib/src/stdfile.cpp:40
    uint32_t rdnum;

    asm volatile("mov r0, %0" : : "r" (file));
    83b0:	e51b3010 	ldr	r3, [fp, #-16]
    83b4:	e1a00003 	mov	r0, r3
/mnt/c/Users/Kuba/Documents/School/ZeroMate/examples/16-paging_userspace/stdlib/src/stdfile.cpp:41
    asm volatile("mov r1, %0" : : "r" (buffer));
    83b8:	e51b3014 	ldr	r3, [fp, #-20]	; 0xffffffec
    83bc:	e1a01003 	mov	r1, r3
/mnt/c/Users/Kuba/Documents/School/ZeroMate/examples/16-paging_userspace/stdlib/src/stdfile.cpp:42
    asm volatile("mov r2, %0" : : "r" (size));
    83c0:	e51b3018 	ldr	r3, [fp, #-24]	; 0xffffffe8
    83c4:	e1a02003 	mov	r2, r3
/mnt/c/Users/Kuba/Documents/School/ZeroMate/examples/16-paging_userspace/stdlib/src/stdfile.cpp:43
    asm volatile("swi 65");
    83c8:	ef000041 	svc	0x00000041
/mnt/c/Users/Kuba/Documents/School/ZeroMate/examples/16-paging_userspace/stdlib/src/stdfile.cpp:44
    asm volatile("mov %0, r0" : "=r" (rdnum));
    83cc:	e1a03000 	mov	r3, r0
    83d0:	e50b3008 	str	r3, [fp, #-8]
/mnt/c/Users/Kuba/Documents/School/ZeroMate/examples/16-paging_userspace/stdlib/src/stdfile.cpp:46

    return rdnum;
    83d4:	e51b3008 	ldr	r3, [fp, #-8]
/mnt/c/Users/Kuba/Documents/School/ZeroMate/examples/16-paging_userspace/stdlib/src/stdfile.cpp:47
}
    83d8:	e1a00003 	mov	r0, r3
    83dc:	e28bd000 	add	sp, fp, #0
    83e0:	e49db004 	pop	{fp}		; (ldr fp, [sp], #4)
    83e4:	e12fff1e 	bx	lr

000083e8 <_Z5writejPKcj>:
_Z5writejPKcj():
/mnt/c/Users/Kuba/Documents/School/ZeroMate/examples/16-paging_userspace/stdlib/src/stdfile.cpp:50

uint32_t write(uint32_t file, const char* buffer, uint32_t size)
{
    83e8:	e52db004 	push	{fp}		; (str fp, [sp, #-4]!)
    83ec:	e28db000 	add	fp, sp, #0
    83f0:	e24dd01c 	sub	sp, sp, #28
    83f4:	e50b0010 	str	r0, [fp, #-16]
    83f8:	e50b1014 	str	r1, [fp, #-20]	; 0xffffffec
    83fc:	e50b2018 	str	r2, [fp, #-24]	; 0xffffffe8
/mnt/c/Users/Kuba/Documents/School/ZeroMate/examples/16-paging_userspace/stdlib/src/stdfile.cpp:53
    uint32_t wrnum;

    asm volatile("mov r0, %0" : : "r" (file));
    8400:	e51b3010 	ldr	r3, [fp, #-16]
    8404:	e1a00003 	mov	r0, r3
/mnt/c/Users/Kuba/Documents/School/ZeroMate/examples/16-paging_userspace/stdlib/src/stdfile.cpp:54
    asm volatile("mov r1, %0" : : "r" (buffer));
    8408:	e51b3014 	ldr	r3, [fp, #-20]	; 0xffffffec
    840c:	e1a01003 	mov	r1, r3
/mnt/c/Users/Kuba/Documents/School/ZeroMate/examples/16-paging_userspace/stdlib/src/stdfile.cpp:55
    asm volatile("mov r2, %0" : : "r" (size));
    8410:	e51b3018 	ldr	r3, [fp, #-24]	; 0xffffffe8
    8414:	e1a02003 	mov	r2, r3
/mnt/c/Users/Kuba/Documents/School/ZeroMate/examples/16-paging_userspace/stdlib/src/stdfile.cpp:56
    asm volatile("swi 66");
    8418:	ef000042 	svc	0x00000042
/mnt/c/Users/Kuba/Documents/School/ZeroMate/examples/16-paging_userspace/stdlib/src/stdfile.cpp:57
    asm volatile("mov %0, r0" : "=r" (wrnum));
    841c:	e1a03000 	mov	r3, r0
    8420:	e50b3008 	str	r3, [fp, #-8]
/mnt/c/Users/Kuba/Documents/School/ZeroMate/examples/16-paging_userspace/stdlib/src/stdfile.cpp:59

    return wrnum;
    8424:	e51b3008 	ldr	r3, [fp, #-8]
/mnt/c/Users/Kuba/Documents/School/ZeroMate/examples/16-paging_userspace/stdlib/src/stdfile.cpp:60
}
    8428:	e1a00003 	mov	r0, r3
    842c:	e28bd000 	add	sp, fp, #0
    8430:	e49db004 	pop	{fp}		; (ldr fp, [sp], #4)
    8434:	e12fff1e 	bx	lr

00008438 <_Z5closej>:
_Z5closej():
/mnt/c/Users/Kuba/Documents/School/ZeroMate/examples/16-paging_userspace/stdlib/src/stdfile.cpp:63

void close(uint32_t file)
{
    8438:	e52db004 	push	{fp}		; (str fp, [sp, #-4]!)
    843c:	e28db000 	add	fp, sp, #0
    8440:	e24dd00c 	sub	sp, sp, #12
    8444:	e50b0008 	str	r0, [fp, #-8]
/mnt/c/Users/Kuba/Documents/School/ZeroMate/examples/16-paging_userspace/stdlib/src/stdfile.cpp:64
    asm volatile("mov r0, %0" : : "r" (file));
    8448:	e51b3008 	ldr	r3, [fp, #-8]
    844c:	e1a00003 	mov	r0, r3
/mnt/c/Users/Kuba/Documents/School/ZeroMate/examples/16-paging_userspace/stdlib/src/stdfile.cpp:65
    asm volatile("swi 67");
    8450:	ef000043 	svc	0x00000043
/mnt/c/Users/Kuba/Documents/School/ZeroMate/examples/16-paging_userspace/stdlib/src/stdfile.cpp:66
}
    8454:	e320f000 	nop	{0}
    8458:	e28bd000 	add	sp, fp, #0
    845c:	e49db004 	pop	{fp}		; (ldr fp, [sp], #4)
    8460:	e12fff1e 	bx	lr

00008464 <_Z5ioctlj16NIOCtl_OperationPv>:
_Z5ioctlj16NIOCtl_OperationPv():
/mnt/c/Users/Kuba/Documents/School/ZeroMate/examples/16-paging_userspace/stdlib/src/stdfile.cpp:69

uint32_t ioctl(uint32_t file, NIOCtl_Operation operation, void* param)
{
    8464:	e52db004 	push	{fp}		; (str fp, [sp, #-4]!)
    8468:	e28db000 	add	fp, sp, #0
    846c:	e24dd01c 	sub	sp, sp, #28
    8470:	e50b0010 	str	r0, [fp, #-16]
    8474:	e50b1014 	str	r1, [fp, #-20]	; 0xffffffec
    8478:	e50b2018 	str	r2, [fp, #-24]	; 0xffffffe8
/mnt/c/Users/Kuba/Documents/School/ZeroMate/examples/16-paging_userspace/stdlib/src/stdfile.cpp:72
    uint32_t retcode;

    asm volatile("mov r0, %0" : : "r" (file));
    847c:	e51b3010 	ldr	r3, [fp, #-16]
    8480:	e1a00003 	mov	r0, r3
/mnt/c/Users/Kuba/Documents/School/ZeroMate/examples/16-paging_userspace/stdlib/src/stdfile.cpp:73
    asm volatile("mov r1, %0" : : "r" (operation));
    8484:	e51b3014 	ldr	r3, [fp, #-20]	; 0xffffffec
    8488:	e1a01003 	mov	r1, r3
/mnt/c/Users/Kuba/Documents/School/ZeroMate/examples/16-paging_userspace/stdlib/src/stdfile.cpp:74
    asm volatile("mov r2, %0" : : "r" (param));
    848c:	e51b3018 	ldr	r3, [fp, #-24]	; 0xffffffe8
    8490:	e1a02003 	mov	r2, r3
/mnt/c/Users/Kuba/Documents/School/ZeroMate/examples/16-paging_userspace/stdlib/src/stdfile.cpp:75
    asm volatile("swi 68");
    8494:	ef000044 	svc	0x00000044
/mnt/c/Users/Kuba/Documents/School/ZeroMate/examples/16-paging_userspace/stdlib/src/stdfile.cpp:76
    asm volatile("mov %0, r0" : "=r" (retcode));
    8498:	e1a03000 	mov	r3, r0
    849c:	e50b3008 	str	r3, [fp, #-8]
/mnt/c/Users/Kuba/Documents/School/ZeroMate/examples/16-paging_userspace/stdlib/src/stdfile.cpp:78

    return retcode;
    84a0:	e51b3008 	ldr	r3, [fp, #-8]
/mnt/c/Users/Kuba/Documents/School/ZeroMate/examples/16-paging_userspace/stdlib/src/stdfile.cpp:79
}
    84a4:	e1a00003 	mov	r0, r3
    84a8:	e28bd000 	add	sp, fp, #0
    84ac:	e49db004 	pop	{fp}		; (ldr fp, [sp], #4)
    84b0:	e12fff1e 	bx	lr
