
./proc_test_2:     file format elf32-littlearm


Disassembly of section .text:

00008000 <_start>:
_start():
/mnt/c/Users/Kuba/Documents/School/ZeroMate/examples/16-paging_userspace/userspace/crt0.s:10
;@ startovaci symbol - vstupni bod z jadra OS do uzivatelskeho programu
;@ v podstate jen ihned zavola nejakou C funkci, nepotrebujeme nic tak kritickeho, abychom to vsechno museli psal v ASM
;@ jen _start vlastne ani neni funkce, takze by tento vstupni bod mel byt psany takto; rovnez je treba se ujistit, ze
;@ je tento symbol relokovany spravne na 0x8000 (tam OS ocekava, ze se nachazi vstupni bod)
_start:
    bl __crt0_run
    8000:	eb000017 	bl	8064 <__crt0_run>

00008004 <_hang>:
_hang():
/mnt/c/Users/Kuba/Documents/School/ZeroMate/examples/16-paging_userspace/userspace/crt0.s:13
    ;@ z funkce __crt0_run by se nemel proces uz vratit, ale kdyby neco, tak se zacyklime
_hang:
    b _hang
    8004:	eafffffe 	b	8004 <_hang>

00008008 <__crt0_init_bss>:
__crt0_init_bss():
/mnt/c/Users/Kuba/Documents/School/ZeroMate/examples/16-paging_userspace/userspace/crt0.c:10

extern unsigned int __bss_start;
extern unsigned int __bss_end;

void __crt0_init_bss()
{
    8008:	e52db004 	push	{fp}		; (str fp, [sp, #-4]!)
    800c:	e28db000 	add	fp, sp, #0
    8010:	e24dd00c 	sub	sp, sp, #12
/mnt/c/Users/Kuba/Documents/School/ZeroMate/examples/16-paging_userspace/userspace/crt0.c:11
    unsigned int* begin = (unsigned int*)&__bss_start;
    8014:	e59f3040 	ldr	r3, [pc, #64]	; 805c <__crt0_init_bss+0x54>
    8018:	e50b3008 	str	r3, [fp, #-8]
/mnt/c/Users/Kuba/Documents/School/ZeroMate/examples/16-paging_userspace/userspace/crt0.c:12
    for (; begin < (unsigned int*)&__bss_end; begin++)
    801c:	ea000005 	b	8038 <__crt0_init_bss+0x30>
/mnt/c/Users/Kuba/Documents/School/ZeroMate/examples/16-paging_userspace/userspace/crt0.c:13 (discriminator 2)
        *begin = 0;
    8020:	e51b3008 	ldr	r3, [fp, #-8]
    8024:	e3a02000 	mov	r2, #0
    8028:	e5832000 	str	r2, [r3]
/mnt/c/Users/Kuba/Documents/School/ZeroMate/examples/16-paging_userspace/userspace/crt0.c:12 (discriminator 2)
    for (; begin < (unsigned int*)&__bss_end; begin++)
    802c:	e51b3008 	ldr	r3, [fp, #-8]
    8030:	e2833004 	add	r3, r3, #4
    8034:	e50b3008 	str	r3, [fp, #-8]
/mnt/c/Users/Kuba/Documents/School/ZeroMate/examples/16-paging_userspace/userspace/crt0.c:12 (discriminator 1)
    8038:	e51b3008 	ldr	r3, [fp, #-8]
    803c:	e59f201c 	ldr	r2, [pc, #28]	; 8060 <__crt0_init_bss+0x58>
    8040:	e1530002 	cmp	r3, r2
    8044:	3afffff5 	bcc	8020 <__crt0_init_bss+0x18>
/mnt/c/Users/Kuba/Documents/School/ZeroMate/examples/16-paging_userspace/userspace/crt0.c:14
}
    8048:	e320f000 	nop	{0}
    804c:	e320f000 	nop	{0}
    8050:	e28bd000 	add	sp, fp, #0
    8054:	e49db004 	pop	{fp}		; (ldr fp, [sp], #4)
    8058:	e12fff1e 	bx	lr
    805c:	00008bf8 	strdeq	r8, [r0], -r8	; <UNPREDICTABLE>
    8060:	00008c08 	andeq	r8, r0, r8, lsl #24

00008064 <__crt0_run>:
__crt0_run():
/mnt/c/Users/Kuba/Documents/School/ZeroMate/examples/16-paging_userspace/userspace/crt0.c:17

void __crt0_run()
{
    8064:	e92d4800 	push	{fp, lr}
    8068:	e28db004 	add	fp, sp, #4
    806c:	e24dd008 	sub	sp, sp, #8
/mnt/c/Users/Kuba/Documents/School/ZeroMate/examples/16-paging_userspace/userspace/crt0.c:19
    // inicializace .bss sekce (vynulovani)
    __crt0_init_bss();
    8070:	ebffffe4 	bl	8008 <__crt0_init_bss>
/mnt/c/Users/Kuba/Documents/School/ZeroMate/examples/16-paging_userspace/userspace/crt0.c:22

    // volani konstruktoru globalnich trid (C++)
    _cpp_startup();
    8074:	eb000040 	bl	817c <_cpp_startup>
/mnt/c/Users/Kuba/Documents/School/ZeroMate/examples/16-paging_userspace/userspace/crt0.c:27

    // volani funkce main
    // nebudeme se zde zabyvat predavanim parametru do funkce main
    // jinak by se mohly predavat napr. namapovane do virtualniho adr. prostoru a odkazem pres zasobnik (kam nam muze OS pushnout co chce)
    int result = main(0, 0);
    8078:	e3a01000 	mov	r1, #0
    807c:	e3a00000 	mov	r0, #0
    8080:	eb000069 	bl	822c <main>
    8084:	e50b0008 	str	r0, [fp, #-8]
/mnt/c/Users/Kuba/Documents/School/ZeroMate/examples/16-paging_userspace/userspace/crt0.c:30

    // volani destruktoru globalnich trid (C++)
    _cpp_shutdown();
    8088:	eb000051 	bl	81d4 <_cpp_shutdown>
/mnt/c/Users/Kuba/Documents/School/ZeroMate/examples/16-paging_userspace/userspace/crt0.c:33

    // volani terminate() syscallu s navratovym kodem funkce main
    asm volatile("mov r0, %0" : : "r" (result));
    808c:	e51b3008 	ldr	r3, [fp, #-8]
    8090:	e1a00003 	mov	r0, r3
/mnt/c/Users/Kuba/Documents/School/ZeroMate/examples/16-paging_userspace/userspace/crt0.c:34
    asm volatile("svc #1");
    8094:	ef000001 	svc	0x00000001
/mnt/c/Users/Kuba/Documents/School/ZeroMate/examples/16-paging_userspace/userspace/crt0.c:35
}
    8098:	e320f000 	nop	{0}
    809c:	e24bd004 	sub	sp, fp, #4
    80a0:	e8bd8800 	pop	{fp, pc}

000080a4 <__cxa_guard_acquire>:
__cxa_guard_acquire():
/mnt/c/Users/Kuba/Documents/School/ZeroMate/examples/16-paging_userspace/userspace/cxxabi.cpp:11
	extern "C" int __cxa_guard_acquire (__guard *);
	extern "C" void __cxa_guard_release (__guard *);
	extern "C" void __cxa_guard_abort (__guard *);

	extern "C" int __cxa_guard_acquire (__guard *g)
	{
    80a4:	e52db004 	push	{fp}		; (str fp, [sp, #-4]!)
    80a8:	e28db000 	add	fp, sp, #0
    80ac:	e24dd00c 	sub	sp, sp, #12
    80b0:	e50b0008 	str	r0, [fp, #-8]
/mnt/c/Users/Kuba/Documents/School/ZeroMate/examples/16-paging_userspace/userspace/cxxabi.cpp:12
		return !*(char *)(g);
    80b4:	e51b3008 	ldr	r3, [fp, #-8]
    80b8:	e5d33000 	ldrb	r3, [r3]
    80bc:	e3530000 	cmp	r3, #0
    80c0:	03a03001 	moveq	r3, #1
    80c4:	13a03000 	movne	r3, #0
    80c8:	e6ef3073 	uxtb	r3, r3
/mnt/c/Users/Kuba/Documents/School/ZeroMate/examples/16-paging_userspace/userspace/cxxabi.cpp:13
	}
    80cc:	e1a00003 	mov	r0, r3
    80d0:	e28bd000 	add	sp, fp, #0
    80d4:	e49db004 	pop	{fp}		; (ldr fp, [sp], #4)
    80d8:	e12fff1e 	bx	lr

000080dc <__cxa_guard_release>:
__cxa_guard_release():
/mnt/c/Users/Kuba/Documents/School/ZeroMate/examples/16-paging_userspace/userspace/cxxabi.cpp:16

	extern "C" void __cxa_guard_release (__guard *g)
	{
    80dc:	e52db004 	push	{fp}		; (str fp, [sp, #-4]!)
    80e0:	e28db000 	add	fp, sp, #0
    80e4:	e24dd00c 	sub	sp, sp, #12
    80e8:	e50b0008 	str	r0, [fp, #-8]
/mnt/c/Users/Kuba/Documents/School/ZeroMate/examples/16-paging_userspace/userspace/cxxabi.cpp:17
		*(char *)g = 1;
    80ec:	e51b3008 	ldr	r3, [fp, #-8]
    80f0:	e3a02001 	mov	r2, #1
    80f4:	e5c32000 	strb	r2, [r3]
/mnt/c/Users/Kuba/Documents/School/ZeroMate/examples/16-paging_userspace/userspace/cxxabi.cpp:18
	}
    80f8:	e320f000 	nop	{0}
    80fc:	e28bd000 	add	sp, fp, #0
    8100:	e49db004 	pop	{fp}		; (ldr fp, [sp], #4)
    8104:	e12fff1e 	bx	lr

00008108 <__cxa_guard_abort>:
__cxa_guard_abort():
/mnt/c/Users/Kuba/Documents/School/ZeroMate/examples/16-paging_userspace/userspace/cxxabi.cpp:21

	extern "C" void __cxa_guard_abort (__guard *)
	{
    8108:	e52db004 	push	{fp}		; (str fp, [sp, #-4]!)
    810c:	e28db000 	add	fp, sp, #0
    8110:	e24dd00c 	sub	sp, sp, #12
    8114:	e50b0008 	str	r0, [fp, #-8]
/mnt/c/Users/Kuba/Documents/School/ZeroMate/examples/16-paging_userspace/userspace/cxxabi.cpp:23

	}
    8118:	e320f000 	nop	{0}
    811c:	e28bd000 	add	sp, fp, #0
    8120:	e49db004 	pop	{fp}		; (ldr fp, [sp], #4)
    8124:	e12fff1e 	bx	lr

00008128 <__dso_handle>:
__dso_handle():
/mnt/c/Users/Kuba/Documents/School/ZeroMate/examples/16-paging_userspace/userspace/cxxabi.cpp:27
}

extern "C" void __dso_handle()
{
    8128:	e52db004 	push	{fp}		; (str fp, [sp, #-4]!)
    812c:	e28db000 	add	fp, sp, #0
/mnt/c/Users/Kuba/Documents/School/ZeroMate/examples/16-paging_userspace/userspace/cxxabi.cpp:29
    // ignore dtors for now
}
    8130:	e320f000 	nop	{0}
    8134:	e28bd000 	add	sp, fp, #0
    8138:	e49db004 	pop	{fp}		; (ldr fp, [sp], #4)
    813c:	e12fff1e 	bx	lr

00008140 <__cxa_atexit>:
__cxa_atexit():
/mnt/c/Users/Kuba/Documents/School/ZeroMate/examples/16-paging_userspace/userspace/cxxabi.cpp:32

extern "C" void __cxa_atexit()
{
    8140:	e52db004 	push	{fp}		; (str fp, [sp, #-4]!)
    8144:	e28db000 	add	fp, sp, #0
/mnt/c/Users/Kuba/Documents/School/ZeroMate/examples/16-paging_userspace/userspace/cxxabi.cpp:34
    // ignore dtors for now
}
    8148:	e320f000 	nop	{0}
    814c:	e28bd000 	add	sp, fp, #0
    8150:	e49db004 	pop	{fp}		; (ldr fp, [sp], #4)
    8154:	e12fff1e 	bx	lr

00008158 <__cxa_pure_virtual>:
__cxa_pure_virtual():
/mnt/c/Users/Kuba/Documents/School/ZeroMate/examples/16-paging_userspace/userspace/cxxabi.cpp:37

extern "C" void __cxa_pure_virtual()
{
    8158:	e52db004 	push	{fp}		; (str fp, [sp, #-4]!)
    815c:	e28db000 	add	fp, sp, #0
/mnt/c/Users/Kuba/Documents/School/ZeroMate/examples/16-paging_userspace/userspace/cxxabi.cpp:39
    // pure virtual method called
}
    8160:	e320f000 	nop	{0}
    8164:	e28bd000 	add	sp, fp, #0
    8168:	e49db004 	pop	{fp}		; (ldr fp, [sp], #4)
    816c:	e12fff1e 	bx	lr

00008170 <__aeabi_unwind_cpp_pr1>:
__aeabi_unwind_cpp_pr1():
/mnt/c/Users/Kuba/Documents/School/ZeroMate/examples/16-paging_userspace/userspace/cxxabi.cpp:42

extern "C" void __aeabi_unwind_cpp_pr1()
{
    8170:	e52db004 	push	{fp}		; (str fp, [sp, #-4]!)
    8174:	e28db000 	add	fp, sp, #0
/mnt/c/Users/Kuba/Documents/School/ZeroMate/examples/16-paging_userspace/userspace/cxxabi.cpp:43 (discriminator 1)
	while (true)
    8178:	eafffffe 	b	8178 <__aeabi_unwind_cpp_pr1+0x8>

0000817c <_cpp_startup>:
_cpp_startup():
/mnt/c/Users/Kuba/Documents/School/ZeroMate/examples/16-paging_userspace/userspace/cxxabi.cpp:61
extern "C" dtor_ptr __DTOR_LIST__[0];
// konec pole destruktoru
extern "C" dtor_ptr __DTOR_END__[0];

extern "C" int _cpp_startup(void)
{
    817c:	e92d4800 	push	{fp, lr}
    8180:	e28db004 	add	fp, sp, #4
    8184:	e24dd008 	sub	sp, sp, #8
/mnt/c/Users/Kuba/Documents/School/ZeroMate/examples/16-paging_userspace/userspace/cxxabi.cpp:66
	ctor_ptr* fnptr;
	
	// zavolame konstruktory globalnich C++ trid
	// v poli __CTOR_LIST__ jsou ukazatele na vygenerovane stuby volani konstruktoru
	for (fnptr = __CTOR_LIST__; fnptr < __CTOR_END__; fnptr++)
    8188:	e59f303c 	ldr	r3, [pc, #60]	; 81cc <_cpp_startup+0x50>
    818c:	e50b3008 	str	r3, [fp, #-8]
/mnt/c/Users/Kuba/Documents/School/ZeroMate/examples/16-paging_userspace/userspace/cxxabi.cpp:66 (discriminator 3)
    8190:	e51b3008 	ldr	r3, [fp, #-8]
    8194:	e59f2034 	ldr	r2, [pc, #52]	; 81d0 <_cpp_startup+0x54>
    8198:	e1530002 	cmp	r3, r2
    819c:	2a000006 	bcs	81bc <_cpp_startup+0x40>
/mnt/c/Users/Kuba/Documents/School/ZeroMate/examples/16-paging_userspace/userspace/cxxabi.cpp:67 (discriminator 2)
		(*fnptr)();
    81a0:	e51b3008 	ldr	r3, [fp, #-8]
    81a4:	e5933000 	ldr	r3, [r3]
    81a8:	e12fff33 	blx	r3
/mnt/c/Users/Kuba/Documents/School/ZeroMate/examples/16-paging_userspace/userspace/cxxabi.cpp:66 (discriminator 2)
	for (fnptr = __CTOR_LIST__; fnptr < __CTOR_END__; fnptr++)
    81ac:	e51b3008 	ldr	r3, [fp, #-8]
    81b0:	e2833004 	add	r3, r3, #4
    81b4:	e50b3008 	str	r3, [fp, #-8]
    81b8:	eafffff4 	b	8190 <_cpp_startup+0x14>
/mnt/c/Users/Kuba/Documents/School/ZeroMate/examples/16-paging_userspace/userspace/cxxabi.cpp:69
	
	return 0;
    81bc:	e3a03000 	mov	r3, #0
/mnt/c/Users/Kuba/Documents/School/ZeroMate/examples/16-paging_userspace/userspace/cxxabi.cpp:70
}
    81c0:	e1a00003 	mov	r0, r3
    81c4:	e24bd004 	sub	sp, fp, #4
    81c8:	e8bd8800 	pop	{fp, pc}
    81cc:	00008bf5 	strdeq	r8, [r0], -r5
    81d0:	00008bf5 	strdeq	r8, [r0], -r5

000081d4 <_cpp_shutdown>:
_cpp_shutdown():
/mnt/c/Users/Kuba/Documents/School/ZeroMate/examples/16-paging_userspace/userspace/cxxabi.cpp:73

extern "C" int _cpp_shutdown(void)
{
    81d4:	e92d4800 	push	{fp, lr}
    81d8:	e28db004 	add	fp, sp, #4
    81dc:	e24dd008 	sub	sp, sp, #8
/mnt/c/Users/Kuba/Documents/School/ZeroMate/examples/16-paging_userspace/userspace/cxxabi.cpp:77
	dtor_ptr* fnptr;
	
	// zavolame destruktory globalnich C++ trid
	for (fnptr = __DTOR_LIST__; fnptr < __DTOR_END__; fnptr++)
    81e0:	e59f303c 	ldr	r3, [pc, #60]	; 8224 <_cpp_shutdown+0x50>
    81e4:	e50b3008 	str	r3, [fp, #-8]
/mnt/c/Users/Kuba/Documents/School/ZeroMate/examples/16-paging_userspace/userspace/cxxabi.cpp:77 (discriminator 3)
    81e8:	e51b3008 	ldr	r3, [fp, #-8]
    81ec:	e59f2034 	ldr	r2, [pc, #52]	; 8228 <_cpp_shutdown+0x54>
    81f0:	e1530002 	cmp	r3, r2
    81f4:	2a000006 	bcs	8214 <_cpp_shutdown+0x40>
/mnt/c/Users/Kuba/Documents/School/ZeroMate/examples/16-paging_userspace/userspace/cxxabi.cpp:78 (discriminator 2)
		(*fnptr)();
    81f8:	e51b3008 	ldr	r3, [fp, #-8]
    81fc:	e5933000 	ldr	r3, [r3]
    8200:	e12fff33 	blx	r3
/mnt/c/Users/Kuba/Documents/School/ZeroMate/examples/16-paging_userspace/userspace/cxxabi.cpp:77 (discriminator 2)
	for (fnptr = __DTOR_LIST__; fnptr < __DTOR_END__; fnptr++)
    8204:	e51b3008 	ldr	r3, [fp, #-8]
    8208:	e2833004 	add	r3, r3, #4
    820c:	e50b3008 	str	r3, [fp, #-8]
    8210:	eafffff4 	b	81e8 <_cpp_shutdown+0x14>
/mnt/c/Users/Kuba/Documents/School/ZeroMate/examples/16-paging_userspace/userspace/cxxabi.cpp:80
	
	return 0;
    8214:	e3a03000 	mov	r3, #0
/mnt/c/Users/Kuba/Documents/School/ZeroMate/examples/16-paging_userspace/userspace/cxxabi.cpp:81
}
    8218:	e1a00003 	mov	r0, r3
    821c:	e24bd004 	sub	sp, fp, #4
    8220:	e8bd8800 	pop	{fp, pc}
    8224:	00008bf5 	strdeq	r8, [r0], -r5
    8228:	00008bf5 	strdeq	r8, [r0], -r5

0000822c <main>:
main():
/mnt/c/Users/Kuba/Documents/School/ZeroMate/examples/16-paging_userspace/userspace/test_process_2/main.cpp:5
#include <stdstring.h>
#include <stdfile.h>

int main(int argc, char** argv)
{
    822c:	e92d4800 	push	{fp, lr}
    8230:	e28db004 	add	fp, sp, #4
    8234:	e24dd030 	sub	sp, sp, #48	; 0x30
    8238:	e50b0030 	str	r0, [fp, #-48]	; 0xffffffd0
    823c:	e50b1034 	str	r1, [fp, #-52]	; 0xffffffcc
/mnt/c/Users/Kuba/Documents/School/ZeroMate/examples/16-paging_userspace/userspace/test_process_2/main.cpp:8
	volatile int i;

    const char* msg = "Hello!\n";
    8240:	e59f30b0 	ldr	r3, [pc, #176]	; 82f8 <main+0xcc>
    8244:	e50b3008 	str	r3, [fp, #-8]
/mnt/c/Users/Kuba/Documents/School/ZeroMate/examples/16-paging_userspace/userspace/test_process_2/main.cpp:10

    uint32_t f = open("DEV:monitor/0", NFile_Open_Mode::Read_Write);
    8248:	e3a01002 	mov	r1, #2
    824c:	e59f00a8 	ldr	r0, [pc, #168]	; 82fc <main+0xd0>
    8250:	eb000048 	bl	8378 <_Z4openPKc15NFile_Open_Mode>
    8254:	e50b000c 	str	r0, [fp, #-12]
/mnt/c/Users/Kuba/Documents/School/ZeroMate/examples/16-paging_userspace/userspace/test_process_2/main.cpp:11
    uint32_t rndf = open("DEV:trng", NFile_Open_Mode::Read_Only);
    8258:	e3a01000 	mov	r1, #0
    825c:	e59f009c 	ldr	r0, [pc, #156]	; 8300 <main+0xd4>
    8260:	eb000044 	bl	8378 <_Z4openPKc15NFile_Open_Mode>
    8264:	e50b0010 	str	r0, [fp, #-16]
/mnt/c/Users/Kuba/Documents/School/ZeroMate/examples/16-paging_userspace/userspace/test_process_2/main.cpp:18
    uint32_t rdbuf;
    char numbuf[16];

    while (true)
    {
        read(rndf, reinterpret_cast<char*>(&rdbuf), 4);
    8268:	e24b3018 	sub	r3, fp, #24
    826c:	e3a02004 	mov	r2, #4
    8270:	e1a01003 	mov	r1, r3
    8274:	e51b0010 	ldr	r0, [fp, #-16]
    8278:	eb00004f 	bl	83bc <_Z4readjPcj>
/mnt/c/Users/Kuba/Documents/School/ZeroMate/examples/16-paging_userspace/userspace/test_process_2/main.cpp:20

        bzero(numbuf, 16);
    827c:	e24b3028 	sub	r3, fp, #40	; 0x28
    8280:	e3a01010 	mov	r1, #16
    8284:	e1a00003 	mov	r0, r3
    8288:	eb000186 	bl	88a8 <_Z5bzeroPvi>
/mnt/c/Users/Kuba/Documents/School/ZeroMate/examples/16-paging_userspace/userspace/test_process_2/main.cpp:21
        itoa(rdbuf, numbuf, 10);
    828c:	e51b3018 	ldr	r3, [fp, #-24]	; 0xffffffe8
    8290:	e24b1028 	sub	r1, fp, #40	; 0x28
    8294:	e3a0200a 	mov	r2, #10
    8298:	e1a00003 	mov	r0, r3
    829c:	eb00008d 	bl	84d8 <_Z4itoajPcj>
/mnt/c/Users/Kuba/Documents/School/ZeroMate/examples/16-paging_userspace/userspace/test_process_2/main.cpp:23

        write(f, numbuf, strlen(numbuf));
    82a0:	e24b3028 	sub	r3, fp, #40	; 0x28
    82a4:	e1a00003 	mov	r0, r3
    82a8:	eb000169 	bl	8854 <_Z6strlenPKc>
    82ac:	e1a03000 	mov	r3, r0
    82b0:	e1a02003 	mov	r2, r3
    82b4:	e24b3028 	sub	r3, fp, #40	; 0x28
    82b8:	e1a01003 	mov	r1, r3
    82bc:	e51b000c 	ldr	r0, [fp, #-12]
    82c0:	eb000051 	bl	840c <_Z5writejPKcj>
/mnt/c/Users/Kuba/Documents/School/ZeroMate/examples/16-paging_userspace/userspace/test_process_2/main.cpp:25

        for (i = 0; i < 0x800; i++)
    82c4:	e3a03000 	mov	r3, #0
    82c8:	e50b3014 	str	r3, [fp, #-20]	; 0xffffffec
/mnt/c/Users/Kuba/Documents/School/ZeroMate/examples/16-paging_userspace/userspace/test_process_2/main.cpp:25 (discriminator 3)
    82cc:	e51b3014 	ldr	r3, [fp, #-20]	; 0xffffffec
    82d0:	e3530b02 	cmp	r3, #2048	; 0x800
    82d4:	b3a03001 	movlt	r3, #1
    82d8:	a3a03000 	movge	r3, #0
    82dc:	e6ef3073 	uxtb	r3, r3
    82e0:	e3530000 	cmp	r3, #0
    82e4:	0affffdf 	beq	8268 <main+0x3c>
/mnt/c/Users/Kuba/Documents/School/ZeroMate/examples/16-paging_userspace/userspace/test_process_2/main.cpp:25 (discriminator 2)
    82e8:	e51b3014 	ldr	r3, [fp, #-20]	; 0xffffffec
    82ec:	e2833001 	add	r3, r3, #1
    82f0:	e50b3014 	str	r3, [fp, #-20]	; 0xffffffec
    82f4:	eafffff4 	b	82cc <main+0xa0>
    82f8:	00008bb0 			; <UNDEFINED> instruction: 0x00008bb0
    82fc:	00008bb8 			; <UNDEFINED> instruction: 0x00008bb8
    8300:	00008bc8 	andeq	r8, r0, r8, asr #23

00008304 <_Z6getpidv>:
_Z6getpidv():
/mnt/c/Users/Kuba/Documents/School/ZeroMate/examples/16-paging_userspace/stdlib/src/stdfile.cpp:4
#include <stdfile.h>

uint32_t getpid()
{
    8304:	e52db004 	push	{fp}		; (str fp, [sp, #-4]!)
    8308:	e28db000 	add	fp, sp, #0
    830c:	e24dd00c 	sub	sp, sp, #12
/mnt/c/Users/Kuba/Documents/School/ZeroMate/examples/16-paging_userspace/stdlib/src/stdfile.cpp:7
    uint32_t pid;

    asm volatile("swi 0");
    8310:	ef000000 	svc	0x00000000
/mnt/c/Users/Kuba/Documents/School/ZeroMate/examples/16-paging_userspace/stdlib/src/stdfile.cpp:8
    asm volatile("mov %0, r0" : "=r" (pid));
    8314:	e1a03000 	mov	r3, r0
    8318:	e50b3008 	str	r3, [fp, #-8]
/mnt/c/Users/Kuba/Documents/School/ZeroMate/examples/16-paging_userspace/stdlib/src/stdfile.cpp:10

    return pid;
    831c:	e51b3008 	ldr	r3, [fp, #-8]
/mnt/c/Users/Kuba/Documents/School/ZeroMate/examples/16-paging_userspace/stdlib/src/stdfile.cpp:11
}
    8320:	e1a00003 	mov	r0, r3
    8324:	e28bd000 	add	sp, fp, #0
    8328:	e49db004 	pop	{fp}		; (ldr fp, [sp], #4)
    832c:	e12fff1e 	bx	lr

00008330 <_Z9terminatei>:
_Z9terminatei():
/mnt/c/Users/Kuba/Documents/School/ZeroMate/examples/16-paging_userspace/stdlib/src/stdfile.cpp:14

void terminate(int exitcode)
{
    8330:	e52db004 	push	{fp}		; (str fp, [sp, #-4]!)
    8334:	e28db000 	add	fp, sp, #0
    8338:	e24dd00c 	sub	sp, sp, #12
    833c:	e50b0008 	str	r0, [fp, #-8]
/mnt/c/Users/Kuba/Documents/School/ZeroMate/examples/16-paging_userspace/stdlib/src/stdfile.cpp:15
    asm volatile("mov r0, %0" : : "r" (exitcode));
    8340:	e51b3008 	ldr	r3, [fp, #-8]
    8344:	e1a00003 	mov	r0, r3
/mnt/c/Users/Kuba/Documents/School/ZeroMate/examples/16-paging_userspace/stdlib/src/stdfile.cpp:16
    asm volatile("swi 1");
    8348:	ef000001 	svc	0x00000001
/mnt/c/Users/Kuba/Documents/School/ZeroMate/examples/16-paging_userspace/stdlib/src/stdfile.cpp:17
}
    834c:	e320f000 	nop	{0}
    8350:	e28bd000 	add	sp, fp, #0
    8354:	e49db004 	pop	{fp}		; (ldr fp, [sp], #4)
    8358:	e12fff1e 	bx	lr

0000835c <_Z11sched_yieldv>:
_Z11sched_yieldv():
/mnt/c/Users/Kuba/Documents/School/ZeroMate/examples/16-paging_userspace/stdlib/src/stdfile.cpp:20

void sched_yield()
{
    835c:	e52db004 	push	{fp}		; (str fp, [sp, #-4]!)
    8360:	e28db000 	add	fp, sp, #0
/mnt/c/Users/Kuba/Documents/School/ZeroMate/examples/16-paging_userspace/stdlib/src/stdfile.cpp:21
    asm volatile("swi 2");
    8364:	ef000002 	svc	0x00000002
/mnt/c/Users/Kuba/Documents/School/ZeroMate/examples/16-paging_userspace/stdlib/src/stdfile.cpp:22
}
    8368:	e320f000 	nop	{0}
    836c:	e28bd000 	add	sp, fp, #0
    8370:	e49db004 	pop	{fp}		; (ldr fp, [sp], #4)
    8374:	e12fff1e 	bx	lr

00008378 <_Z4openPKc15NFile_Open_Mode>:
_Z4openPKc15NFile_Open_Mode():
/mnt/c/Users/Kuba/Documents/School/ZeroMate/examples/16-paging_userspace/stdlib/src/stdfile.cpp:25

uint32_t open(const char* filename, NFile_Open_Mode mode)
{
    8378:	e52db004 	push	{fp}		; (str fp, [sp, #-4]!)
    837c:	e28db000 	add	fp, sp, #0
    8380:	e24dd014 	sub	sp, sp, #20
    8384:	e50b0010 	str	r0, [fp, #-16]
    8388:	e50b1014 	str	r1, [fp, #-20]	; 0xffffffec
/mnt/c/Users/Kuba/Documents/School/ZeroMate/examples/16-paging_userspace/stdlib/src/stdfile.cpp:28
    uint32_t file;

    asm volatile("mov r0, %0" : : "r" (filename));
    838c:	e51b3010 	ldr	r3, [fp, #-16]
    8390:	e1a00003 	mov	r0, r3
/mnt/c/Users/Kuba/Documents/School/ZeroMate/examples/16-paging_userspace/stdlib/src/stdfile.cpp:29
    asm volatile("mov r1, %0" : : "r" (mode));
    8394:	e51b3014 	ldr	r3, [fp, #-20]	; 0xffffffec
    8398:	e1a01003 	mov	r1, r3
/mnt/c/Users/Kuba/Documents/School/ZeroMate/examples/16-paging_userspace/stdlib/src/stdfile.cpp:30
    asm volatile("swi 64");
    839c:	ef000040 	svc	0x00000040
/mnt/c/Users/Kuba/Documents/School/ZeroMate/examples/16-paging_userspace/stdlib/src/stdfile.cpp:31
    asm volatile("mov %0, r0" : "=r" (file));
    83a0:	e1a03000 	mov	r3, r0
    83a4:	e50b3008 	str	r3, [fp, #-8]
/mnt/c/Users/Kuba/Documents/School/ZeroMate/examples/16-paging_userspace/stdlib/src/stdfile.cpp:33

    return file;
    83a8:	e51b3008 	ldr	r3, [fp, #-8]
/mnt/c/Users/Kuba/Documents/School/ZeroMate/examples/16-paging_userspace/stdlib/src/stdfile.cpp:34
}
    83ac:	e1a00003 	mov	r0, r3
    83b0:	e28bd000 	add	sp, fp, #0
    83b4:	e49db004 	pop	{fp}		; (ldr fp, [sp], #4)
    83b8:	e12fff1e 	bx	lr

000083bc <_Z4readjPcj>:
_Z4readjPcj():
/mnt/c/Users/Kuba/Documents/School/ZeroMate/examples/16-paging_userspace/stdlib/src/stdfile.cpp:37

uint32_t read(uint32_t file, char* const buffer, uint32_t size)
{
    83bc:	e52db004 	push	{fp}		; (str fp, [sp, #-4]!)
    83c0:	e28db000 	add	fp, sp, #0
    83c4:	e24dd01c 	sub	sp, sp, #28
    83c8:	e50b0010 	str	r0, [fp, #-16]
    83cc:	e50b1014 	str	r1, [fp, #-20]	; 0xffffffec
    83d0:	e50b2018 	str	r2, [fp, #-24]	; 0xffffffe8
/mnt/c/Users/Kuba/Documents/School/ZeroMate/examples/16-paging_userspace/stdlib/src/stdfile.cpp:40
    uint32_t rdnum;

    asm volatile("mov r0, %0" : : "r" (file));
    83d4:	e51b3010 	ldr	r3, [fp, #-16]
    83d8:	e1a00003 	mov	r0, r3
/mnt/c/Users/Kuba/Documents/School/ZeroMate/examples/16-paging_userspace/stdlib/src/stdfile.cpp:41
    asm volatile("mov r1, %0" : : "r" (buffer));
    83dc:	e51b3014 	ldr	r3, [fp, #-20]	; 0xffffffec
    83e0:	e1a01003 	mov	r1, r3
/mnt/c/Users/Kuba/Documents/School/ZeroMate/examples/16-paging_userspace/stdlib/src/stdfile.cpp:42
    asm volatile("mov r2, %0" : : "r" (size));
    83e4:	e51b3018 	ldr	r3, [fp, #-24]	; 0xffffffe8
    83e8:	e1a02003 	mov	r2, r3
/mnt/c/Users/Kuba/Documents/School/ZeroMate/examples/16-paging_userspace/stdlib/src/stdfile.cpp:43
    asm volatile("swi 65");
    83ec:	ef000041 	svc	0x00000041
/mnt/c/Users/Kuba/Documents/School/ZeroMate/examples/16-paging_userspace/stdlib/src/stdfile.cpp:44
    asm volatile("mov %0, r0" : "=r" (rdnum));
    83f0:	e1a03000 	mov	r3, r0
    83f4:	e50b3008 	str	r3, [fp, #-8]
/mnt/c/Users/Kuba/Documents/School/ZeroMate/examples/16-paging_userspace/stdlib/src/stdfile.cpp:46

    return rdnum;
    83f8:	e51b3008 	ldr	r3, [fp, #-8]
/mnt/c/Users/Kuba/Documents/School/ZeroMate/examples/16-paging_userspace/stdlib/src/stdfile.cpp:47
}
    83fc:	e1a00003 	mov	r0, r3
    8400:	e28bd000 	add	sp, fp, #0
    8404:	e49db004 	pop	{fp}		; (ldr fp, [sp], #4)
    8408:	e12fff1e 	bx	lr

0000840c <_Z5writejPKcj>:
_Z5writejPKcj():
/mnt/c/Users/Kuba/Documents/School/ZeroMate/examples/16-paging_userspace/stdlib/src/stdfile.cpp:50

uint32_t write(uint32_t file, const char* buffer, uint32_t size)
{
    840c:	e52db004 	push	{fp}		; (str fp, [sp, #-4]!)
    8410:	e28db000 	add	fp, sp, #0
    8414:	e24dd01c 	sub	sp, sp, #28
    8418:	e50b0010 	str	r0, [fp, #-16]
    841c:	e50b1014 	str	r1, [fp, #-20]	; 0xffffffec
    8420:	e50b2018 	str	r2, [fp, #-24]	; 0xffffffe8
/mnt/c/Users/Kuba/Documents/School/ZeroMate/examples/16-paging_userspace/stdlib/src/stdfile.cpp:53
    uint32_t wrnum;

    asm volatile("mov r0, %0" : : "r" (file));
    8424:	e51b3010 	ldr	r3, [fp, #-16]
    8428:	e1a00003 	mov	r0, r3
/mnt/c/Users/Kuba/Documents/School/ZeroMate/examples/16-paging_userspace/stdlib/src/stdfile.cpp:54
    asm volatile("mov r1, %0" : : "r" (buffer));
    842c:	e51b3014 	ldr	r3, [fp, #-20]	; 0xffffffec
    8430:	e1a01003 	mov	r1, r3
/mnt/c/Users/Kuba/Documents/School/ZeroMate/examples/16-paging_userspace/stdlib/src/stdfile.cpp:55
    asm volatile("mov r2, %0" : : "r" (size));
    8434:	e51b3018 	ldr	r3, [fp, #-24]	; 0xffffffe8
    8438:	e1a02003 	mov	r2, r3
/mnt/c/Users/Kuba/Documents/School/ZeroMate/examples/16-paging_userspace/stdlib/src/stdfile.cpp:56
    asm volatile("swi 66");
    843c:	ef000042 	svc	0x00000042
/mnt/c/Users/Kuba/Documents/School/ZeroMate/examples/16-paging_userspace/stdlib/src/stdfile.cpp:57
    asm volatile("mov %0, r0" : "=r" (wrnum));
    8440:	e1a03000 	mov	r3, r0
    8444:	e50b3008 	str	r3, [fp, #-8]
/mnt/c/Users/Kuba/Documents/School/ZeroMate/examples/16-paging_userspace/stdlib/src/stdfile.cpp:59

    return wrnum;
    8448:	e51b3008 	ldr	r3, [fp, #-8]
/mnt/c/Users/Kuba/Documents/School/ZeroMate/examples/16-paging_userspace/stdlib/src/stdfile.cpp:60
}
    844c:	e1a00003 	mov	r0, r3
    8450:	e28bd000 	add	sp, fp, #0
    8454:	e49db004 	pop	{fp}		; (ldr fp, [sp], #4)
    8458:	e12fff1e 	bx	lr

0000845c <_Z5closej>:
_Z5closej():
/mnt/c/Users/Kuba/Documents/School/ZeroMate/examples/16-paging_userspace/stdlib/src/stdfile.cpp:63

void close(uint32_t file)
{
    845c:	e52db004 	push	{fp}		; (str fp, [sp, #-4]!)
    8460:	e28db000 	add	fp, sp, #0
    8464:	e24dd00c 	sub	sp, sp, #12
    8468:	e50b0008 	str	r0, [fp, #-8]
/mnt/c/Users/Kuba/Documents/School/ZeroMate/examples/16-paging_userspace/stdlib/src/stdfile.cpp:64
    asm volatile("mov r0, %0" : : "r" (file));
    846c:	e51b3008 	ldr	r3, [fp, #-8]
    8470:	e1a00003 	mov	r0, r3
/mnt/c/Users/Kuba/Documents/School/ZeroMate/examples/16-paging_userspace/stdlib/src/stdfile.cpp:65
    asm volatile("swi 67");
    8474:	ef000043 	svc	0x00000043
/mnt/c/Users/Kuba/Documents/School/ZeroMate/examples/16-paging_userspace/stdlib/src/stdfile.cpp:66
}
    8478:	e320f000 	nop	{0}
    847c:	e28bd000 	add	sp, fp, #0
    8480:	e49db004 	pop	{fp}		; (ldr fp, [sp], #4)
    8484:	e12fff1e 	bx	lr

00008488 <_Z5ioctlj16NIOCtl_OperationPv>:
_Z5ioctlj16NIOCtl_OperationPv():
/mnt/c/Users/Kuba/Documents/School/ZeroMate/examples/16-paging_userspace/stdlib/src/stdfile.cpp:69

uint32_t ioctl(uint32_t file, NIOCtl_Operation operation, void* param)
{
    8488:	e52db004 	push	{fp}		; (str fp, [sp, #-4]!)
    848c:	e28db000 	add	fp, sp, #0
    8490:	e24dd01c 	sub	sp, sp, #28
    8494:	e50b0010 	str	r0, [fp, #-16]
    8498:	e50b1014 	str	r1, [fp, #-20]	; 0xffffffec
    849c:	e50b2018 	str	r2, [fp, #-24]	; 0xffffffe8
/mnt/c/Users/Kuba/Documents/School/ZeroMate/examples/16-paging_userspace/stdlib/src/stdfile.cpp:72
    uint32_t retcode;

    asm volatile("mov r0, %0" : : "r" (file));
    84a0:	e51b3010 	ldr	r3, [fp, #-16]
    84a4:	e1a00003 	mov	r0, r3
/mnt/c/Users/Kuba/Documents/School/ZeroMate/examples/16-paging_userspace/stdlib/src/stdfile.cpp:73
    asm volatile("mov r1, %0" : : "r" (operation));
    84a8:	e51b3014 	ldr	r3, [fp, #-20]	; 0xffffffec
    84ac:	e1a01003 	mov	r1, r3
/mnt/c/Users/Kuba/Documents/School/ZeroMate/examples/16-paging_userspace/stdlib/src/stdfile.cpp:74
    asm volatile("mov r2, %0" : : "r" (param));
    84b0:	e51b3018 	ldr	r3, [fp, #-24]	; 0xffffffe8
    84b4:	e1a02003 	mov	r2, r3
/mnt/c/Users/Kuba/Documents/School/ZeroMate/examples/16-paging_userspace/stdlib/src/stdfile.cpp:75
    asm volatile("swi 68");
    84b8:	ef000044 	svc	0x00000044
/mnt/c/Users/Kuba/Documents/School/ZeroMate/examples/16-paging_userspace/stdlib/src/stdfile.cpp:76
    asm volatile("mov %0, r0" : "=r" (retcode));
    84bc:	e1a03000 	mov	r3, r0
    84c0:	e50b3008 	str	r3, [fp, #-8]
/mnt/c/Users/Kuba/Documents/School/ZeroMate/examples/16-paging_userspace/stdlib/src/stdfile.cpp:78

    return retcode;
    84c4:	e51b3008 	ldr	r3, [fp, #-8]
/mnt/c/Users/Kuba/Documents/School/ZeroMate/examples/16-paging_userspace/stdlib/src/stdfile.cpp:79
}
    84c8:	e1a00003 	mov	r0, r3
    84cc:	e28bd000 	add	sp, fp, #0
    84d0:	e49db004 	pop	{fp}		; (ldr fp, [sp], #4)
    84d4:	e12fff1e 	bx	lr

000084d8 <_Z4itoajPcj>:
_Z4itoajPcj():
/mnt/c/Users/Kuba/Documents/School/ZeroMate/examples/16-paging_userspace/stdlib/src/stdstring.cpp:9
{
    const char CharConvArr[] = "0123456789ABCDEF";
}

void itoa(unsigned int input, char* output, unsigned int base)
{
    84d8:	e92d4800 	push	{fp, lr}
    84dc:	e28db004 	add	fp, sp, #4
    84e0:	e24dd020 	sub	sp, sp, #32
    84e4:	e50b0018 	str	r0, [fp, #-24]	; 0xffffffe8
    84e8:	e50b101c 	str	r1, [fp, #-28]	; 0xffffffe4
    84ec:	e50b2020 	str	r2, [fp, #-32]	; 0xffffffe0
/mnt/c/Users/Kuba/Documents/School/ZeroMate/examples/16-paging_userspace/stdlib/src/stdstring.cpp:10
	int i = 0;
    84f0:	e3a03000 	mov	r3, #0
    84f4:	e50b3008 	str	r3, [fp, #-8]
/mnt/c/Users/Kuba/Documents/School/ZeroMate/examples/16-paging_userspace/stdlib/src/stdstring.cpp:12

	while (input > 0)
    84f8:	e51b3018 	ldr	r3, [fp, #-24]	; 0xffffffe8
    84fc:	e3530000 	cmp	r3, #0
    8500:	0a000014 	beq	8558 <_Z4itoajPcj+0x80>
/mnt/c/Users/Kuba/Documents/School/ZeroMate/examples/16-paging_userspace/stdlib/src/stdstring.cpp:14
	{
		output[i] = CharConvArr[input % base];
    8504:	e51b3018 	ldr	r3, [fp, #-24]	; 0xffffffe8
    8508:	e51b1020 	ldr	r1, [fp, #-32]	; 0xffffffe0
    850c:	e1a00003 	mov	r0, r3
    8510:	eb000199 	bl	8b7c <__aeabi_uidivmod>
    8514:	e1a03001 	mov	r3, r1
    8518:	e1a01003 	mov	r1, r3
    851c:	e51b3008 	ldr	r3, [fp, #-8]
    8520:	e51b201c 	ldr	r2, [fp, #-28]	; 0xffffffe4
    8524:	e0823003 	add	r3, r2, r3
    8528:	e59f2118 	ldr	r2, [pc, #280]	; 8648 <_Z4itoajPcj+0x170>
    852c:	e7d22001 	ldrb	r2, [r2, r1]
    8530:	e5c32000 	strb	r2, [r3]
/mnt/c/Users/Kuba/Documents/School/ZeroMate/examples/16-paging_userspace/stdlib/src/stdstring.cpp:15
		input /= base;
    8534:	e51b1020 	ldr	r1, [fp, #-32]	; 0xffffffe0
    8538:	e51b0018 	ldr	r0, [fp, #-24]	; 0xffffffe8
    853c:	eb000113 	bl	8990 <__udivsi3>
    8540:	e1a03000 	mov	r3, r0
    8544:	e50b3018 	str	r3, [fp, #-24]	; 0xffffffe8
/mnt/c/Users/Kuba/Documents/School/ZeroMate/examples/16-paging_userspace/stdlib/src/stdstring.cpp:16
		i++;
    8548:	e51b3008 	ldr	r3, [fp, #-8]
    854c:	e2833001 	add	r3, r3, #1
    8550:	e50b3008 	str	r3, [fp, #-8]
/mnt/c/Users/Kuba/Documents/School/ZeroMate/examples/16-paging_userspace/stdlib/src/stdstring.cpp:12
	while (input > 0)
    8554:	eaffffe7 	b	84f8 <_Z4itoajPcj+0x20>
/mnt/c/Users/Kuba/Documents/School/ZeroMate/examples/16-paging_userspace/stdlib/src/stdstring.cpp:19
	}

    if (i == 0)
    8558:	e51b3008 	ldr	r3, [fp, #-8]
    855c:	e3530000 	cmp	r3, #0
    8560:	1a000007 	bne	8584 <_Z4itoajPcj+0xac>
/mnt/c/Users/Kuba/Documents/School/ZeroMate/examples/16-paging_userspace/stdlib/src/stdstring.cpp:21
    {
        output[i] = CharConvArr[0];
    8564:	e51b3008 	ldr	r3, [fp, #-8]
    8568:	e51b201c 	ldr	r2, [fp, #-28]	; 0xffffffe4
    856c:	e0823003 	add	r3, r2, r3
    8570:	e3a02030 	mov	r2, #48	; 0x30
    8574:	e5c32000 	strb	r2, [r3]
/mnt/c/Users/Kuba/Documents/School/ZeroMate/examples/16-paging_userspace/stdlib/src/stdstring.cpp:22
        i++;
    8578:	e51b3008 	ldr	r3, [fp, #-8]
    857c:	e2833001 	add	r3, r3, #1
    8580:	e50b3008 	str	r3, [fp, #-8]
/mnt/c/Users/Kuba/Documents/School/ZeroMate/examples/16-paging_userspace/stdlib/src/stdstring.cpp:25
    }

	output[i] = '\0';
    8584:	e51b3008 	ldr	r3, [fp, #-8]
    8588:	e51b201c 	ldr	r2, [fp, #-28]	; 0xffffffe4
    858c:	e0823003 	add	r3, r2, r3
    8590:	e3a02000 	mov	r2, #0
    8594:	e5c32000 	strb	r2, [r3]
/mnt/c/Users/Kuba/Documents/School/ZeroMate/examples/16-paging_userspace/stdlib/src/stdstring.cpp:26
	i--;
    8598:	e51b3008 	ldr	r3, [fp, #-8]
    859c:	e2433001 	sub	r3, r3, #1
    85a0:	e50b3008 	str	r3, [fp, #-8]
/mnt/c/Users/Kuba/Documents/School/ZeroMate/examples/16-paging_userspace/stdlib/src/stdstring.cpp:28

	for (int j = 0; j <= i/2; j++)
    85a4:	e3a03000 	mov	r3, #0
    85a8:	e50b300c 	str	r3, [fp, #-12]
/mnt/c/Users/Kuba/Documents/School/ZeroMate/examples/16-paging_userspace/stdlib/src/stdstring.cpp:28 (discriminator 3)
    85ac:	e51b3008 	ldr	r3, [fp, #-8]
    85b0:	e1a02fa3 	lsr	r2, r3, #31
    85b4:	e0823003 	add	r3, r2, r3
    85b8:	e1a030c3 	asr	r3, r3, #1
    85bc:	e1a02003 	mov	r2, r3
    85c0:	e51b300c 	ldr	r3, [fp, #-12]
    85c4:	e1530002 	cmp	r3, r2
    85c8:	ca00001b 	bgt	863c <_Z4itoajPcj+0x164>
/mnt/c/Users/Kuba/Documents/School/ZeroMate/examples/16-paging_userspace/stdlib/src/stdstring.cpp:30 (discriminator 2)
	{
		char c = output[i - j];
    85cc:	e51b2008 	ldr	r2, [fp, #-8]
    85d0:	e51b300c 	ldr	r3, [fp, #-12]
    85d4:	e0423003 	sub	r3, r2, r3
    85d8:	e1a02003 	mov	r2, r3
    85dc:	e51b301c 	ldr	r3, [fp, #-28]	; 0xffffffe4
    85e0:	e0833002 	add	r3, r3, r2
    85e4:	e5d33000 	ldrb	r3, [r3]
    85e8:	e54b300d 	strb	r3, [fp, #-13]
/mnt/c/Users/Kuba/Documents/School/ZeroMate/examples/16-paging_userspace/stdlib/src/stdstring.cpp:31 (discriminator 2)
		output[i - j] = output[j];
    85ec:	e51b300c 	ldr	r3, [fp, #-12]
    85f0:	e51b201c 	ldr	r2, [fp, #-28]	; 0xffffffe4
    85f4:	e0822003 	add	r2, r2, r3
    85f8:	e51b1008 	ldr	r1, [fp, #-8]
    85fc:	e51b300c 	ldr	r3, [fp, #-12]
    8600:	e0413003 	sub	r3, r1, r3
    8604:	e1a01003 	mov	r1, r3
    8608:	e51b301c 	ldr	r3, [fp, #-28]	; 0xffffffe4
    860c:	e0833001 	add	r3, r3, r1
    8610:	e5d22000 	ldrb	r2, [r2]
    8614:	e5c32000 	strb	r2, [r3]
/mnt/c/Users/Kuba/Documents/School/ZeroMate/examples/16-paging_userspace/stdlib/src/stdstring.cpp:32 (discriminator 2)
		output[j] = c;
    8618:	e51b300c 	ldr	r3, [fp, #-12]
    861c:	e51b201c 	ldr	r2, [fp, #-28]	; 0xffffffe4
    8620:	e0823003 	add	r3, r2, r3
    8624:	e55b200d 	ldrb	r2, [fp, #-13]
    8628:	e5c32000 	strb	r2, [r3]
/mnt/c/Users/Kuba/Documents/School/ZeroMate/examples/16-paging_userspace/stdlib/src/stdstring.cpp:28 (discriminator 2)
	for (int j = 0; j <= i/2; j++)
    862c:	e51b300c 	ldr	r3, [fp, #-12]
    8630:	e2833001 	add	r3, r3, #1
    8634:	e50b300c 	str	r3, [fp, #-12]
    8638:	eaffffdb 	b	85ac <_Z4itoajPcj+0xd4>
/mnt/c/Users/Kuba/Documents/School/ZeroMate/examples/16-paging_userspace/stdlib/src/stdstring.cpp:34
	}
}
    863c:	e320f000 	nop	{0}
    8640:	e24bd004 	sub	sp, fp, #4
    8644:	e8bd8800 	pop	{fp, pc}
    8648:	00008be4 	andeq	r8, r0, r4, ror #23

0000864c <_Z4atoiPKc>:
_Z4atoiPKc():
/mnt/c/Users/Kuba/Documents/School/ZeroMate/examples/16-paging_userspace/stdlib/src/stdstring.cpp:37

int atoi(const char* input)
{
    864c:	e52db004 	push	{fp}		; (str fp, [sp, #-4]!)
    8650:	e28db000 	add	fp, sp, #0
    8654:	e24dd014 	sub	sp, sp, #20
    8658:	e50b0010 	str	r0, [fp, #-16]
/mnt/c/Users/Kuba/Documents/School/ZeroMate/examples/16-paging_userspace/stdlib/src/stdstring.cpp:38
	int output = 0;
    865c:	e3a03000 	mov	r3, #0
    8660:	e50b3008 	str	r3, [fp, #-8]
/mnt/c/Users/Kuba/Documents/School/ZeroMate/examples/16-paging_userspace/stdlib/src/stdstring.cpp:40

	while (*input != '\0')
    8664:	e51b3010 	ldr	r3, [fp, #-16]
    8668:	e5d33000 	ldrb	r3, [r3]
    866c:	e3530000 	cmp	r3, #0
    8670:	0a000017 	beq	86d4 <_Z4atoiPKc+0x88>
/mnt/c/Users/Kuba/Documents/School/ZeroMate/examples/16-paging_userspace/stdlib/src/stdstring.cpp:42
	{
		output *= 10;
    8674:	e51b2008 	ldr	r2, [fp, #-8]
    8678:	e1a03002 	mov	r3, r2
    867c:	e1a03103 	lsl	r3, r3, #2
    8680:	e0833002 	add	r3, r3, r2
    8684:	e1a03083 	lsl	r3, r3, #1
    8688:	e50b3008 	str	r3, [fp, #-8]
/mnt/c/Users/Kuba/Documents/School/ZeroMate/examples/16-paging_userspace/stdlib/src/stdstring.cpp:43
		if (*input > '9' || *input < '0')
    868c:	e51b3010 	ldr	r3, [fp, #-16]
    8690:	e5d33000 	ldrb	r3, [r3]
    8694:	e3530039 	cmp	r3, #57	; 0x39
    8698:	8a00000d 	bhi	86d4 <_Z4atoiPKc+0x88>
/mnt/c/Users/Kuba/Documents/School/ZeroMate/examples/16-paging_userspace/stdlib/src/stdstring.cpp:43 (discriminator 1)
    869c:	e51b3010 	ldr	r3, [fp, #-16]
    86a0:	e5d33000 	ldrb	r3, [r3]
    86a4:	e353002f 	cmp	r3, #47	; 0x2f
    86a8:	9a000009 	bls	86d4 <_Z4atoiPKc+0x88>
/mnt/c/Users/Kuba/Documents/School/ZeroMate/examples/16-paging_userspace/stdlib/src/stdstring.cpp:46
			break;

		output += *input - '0';
    86ac:	e51b3010 	ldr	r3, [fp, #-16]
    86b0:	e5d33000 	ldrb	r3, [r3]
    86b4:	e2433030 	sub	r3, r3, #48	; 0x30
    86b8:	e51b2008 	ldr	r2, [fp, #-8]
    86bc:	e0823003 	add	r3, r2, r3
    86c0:	e50b3008 	str	r3, [fp, #-8]
/mnt/c/Users/Kuba/Documents/School/ZeroMate/examples/16-paging_userspace/stdlib/src/stdstring.cpp:48

		input++;
    86c4:	e51b3010 	ldr	r3, [fp, #-16]
    86c8:	e2833001 	add	r3, r3, #1
    86cc:	e50b3010 	str	r3, [fp, #-16]
/mnt/c/Users/Kuba/Documents/School/ZeroMate/examples/16-paging_userspace/stdlib/src/stdstring.cpp:40
	while (*input != '\0')
    86d0:	eaffffe3 	b	8664 <_Z4atoiPKc+0x18>
/mnt/c/Users/Kuba/Documents/School/ZeroMate/examples/16-paging_userspace/stdlib/src/stdstring.cpp:51
	}

	return output;
    86d4:	e51b3008 	ldr	r3, [fp, #-8]
/mnt/c/Users/Kuba/Documents/School/ZeroMate/examples/16-paging_userspace/stdlib/src/stdstring.cpp:52
}
    86d8:	e1a00003 	mov	r0, r3
    86dc:	e28bd000 	add	sp, fp, #0
    86e0:	e49db004 	pop	{fp}		; (ldr fp, [sp], #4)
    86e4:	e12fff1e 	bx	lr

000086e8 <_Z7strncpyPcPKci>:
_Z7strncpyPcPKci():
/mnt/c/Users/Kuba/Documents/School/ZeroMate/examples/16-paging_userspace/stdlib/src/stdstring.cpp:55

char* strncpy(char* dest, const char *src, int num)
{
    86e8:	e52db004 	push	{fp}		; (str fp, [sp, #-4]!)
    86ec:	e28db000 	add	fp, sp, #0
    86f0:	e24dd01c 	sub	sp, sp, #28
    86f4:	e50b0010 	str	r0, [fp, #-16]
    86f8:	e50b1014 	str	r1, [fp, #-20]	; 0xffffffec
    86fc:	e50b2018 	str	r2, [fp, #-24]	; 0xffffffe8
/mnt/c/Users/Kuba/Documents/School/ZeroMate/examples/16-paging_userspace/stdlib/src/stdstring.cpp:58
	int i;

	for (i = 0; i < num && src[i] != '\0'; i++)
    8700:	e3a03000 	mov	r3, #0
    8704:	e50b3008 	str	r3, [fp, #-8]
/mnt/c/Users/Kuba/Documents/School/ZeroMate/examples/16-paging_userspace/stdlib/src/stdstring.cpp:58 (discriminator 4)
    8708:	e51b2008 	ldr	r2, [fp, #-8]
    870c:	e51b3018 	ldr	r3, [fp, #-24]	; 0xffffffe8
    8710:	e1520003 	cmp	r2, r3
    8714:	aa000011 	bge	8760 <_Z7strncpyPcPKci+0x78>
/mnt/c/Users/Kuba/Documents/School/ZeroMate/examples/16-paging_userspace/stdlib/src/stdstring.cpp:58 (discriminator 2)
    8718:	e51b3008 	ldr	r3, [fp, #-8]
    871c:	e51b2014 	ldr	r2, [fp, #-20]	; 0xffffffec
    8720:	e0823003 	add	r3, r2, r3
    8724:	e5d33000 	ldrb	r3, [r3]
    8728:	e3530000 	cmp	r3, #0
    872c:	0a00000b 	beq	8760 <_Z7strncpyPcPKci+0x78>
/mnt/c/Users/Kuba/Documents/School/ZeroMate/examples/16-paging_userspace/stdlib/src/stdstring.cpp:59 (discriminator 3)
		dest[i] = src[i];
    8730:	e51b3008 	ldr	r3, [fp, #-8]
    8734:	e51b2014 	ldr	r2, [fp, #-20]	; 0xffffffec
    8738:	e0822003 	add	r2, r2, r3
    873c:	e51b3008 	ldr	r3, [fp, #-8]
    8740:	e51b1010 	ldr	r1, [fp, #-16]
    8744:	e0813003 	add	r3, r1, r3
    8748:	e5d22000 	ldrb	r2, [r2]
    874c:	e5c32000 	strb	r2, [r3]
/mnt/c/Users/Kuba/Documents/School/ZeroMate/examples/16-paging_userspace/stdlib/src/stdstring.cpp:58 (discriminator 3)
	for (i = 0; i < num && src[i] != '\0'; i++)
    8750:	e51b3008 	ldr	r3, [fp, #-8]
    8754:	e2833001 	add	r3, r3, #1
    8758:	e50b3008 	str	r3, [fp, #-8]
    875c:	eaffffe9 	b	8708 <_Z7strncpyPcPKci+0x20>
/mnt/c/Users/Kuba/Documents/School/ZeroMate/examples/16-paging_userspace/stdlib/src/stdstring.cpp:60 (discriminator 2)
	for (; i < num; i++)
    8760:	e51b2008 	ldr	r2, [fp, #-8]
    8764:	e51b3018 	ldr	r3, [fp, #-24]	; 0xffffffe8
    8768:	e1520003 	cmp	r2, r3
    876c:	aa000008 	bge	8794 <_Z7strncpyPcPKci+0xac>
/mnt/c/Users/Kuba/Documents/School/ZeroMate/examples/16-paging_userspace/stdlib/src/stdstring.cpp:61 (discriminator 1)
		dest[i] = '\0';
    8770:	e51b3008 	ldr	r3, [fp, #-8]
    8774:	e51b2010 	ldr	r2, [fp, #-16]
    8778:	e0823003 	add	r3, r2, r3
    877c:	e3a02000 	mov	r2, #0
    8780:	e5c32000 	strb	r2, [r3]
/mnt/c/Users/Kuba/Documents/School/ZeroMate/examples/16-paging_userspace/stdlib/src/stdstring.cpp:60 (discriminator 1)
	for (; i < num; i++)
    8784:	e51b3008 	ldr	r3, [fp, #-8]
    8788:	e2833001 	add	r3, r3, #1
    878c:	e50b3008 	str	r3, [fp, #-8]
    8790:	eafffff2 	b	8760 <_Z7strncpyPcPKci+0x78>
/mnt/c/Users/Kuba/Documents/School/ZeroMate/examples/16-paging_userspace/stdlib/src/stdstring.cpp:63

   return dest;
    8794:	e51b3010 	ldr	r3, [fp, #-16]
/mnt/c/Users/Kuba/Documents/School/ZeroMate/examples/16-paging_userspace/stdlib/src/stdstring.cpp:64
}
    8798:	e1a00003 	mov	r0, r3
    879c:	e28bd000 	add	sp, fp, #0
    87a0:	e49db004 	pop	{fp}		; (ldr fp, [sp], #4)
    87a4:	e12fff1e 	bx	lr

000087a8 <_Z7strncmpPKcS0_i>:
_Z7strncmpPKcS0_i():
/mnt/c/Users/Kuba/Documents/School/ZeroMate/examples/16-paging_userspace/stdlib/src/stdstring.cpp:67

int strncmp(const char *s1, const char *s2, int num)
{
    87a8:	e52db004 	push	{fp}		; (str fp, [sp, #-4]!)
    87ac:	e28db000 	add	fp, sp, #0
    87b0:	e24dd01c 	sub	sp, sp, #28
    87b4:	e50b0010 	str	r0, [fp, #-16]
    87b8:	e50b1014 	str	r1, [fp, #-20]	; 0xffffffec
    87bc:	e50b2018 	str	r2, [fp, #-24]	; 0xffffffe8
/mnt/c/Users/Kuba/Documents/School/ZeroMate/examples/16-paging_userspace/stdlib/src/stdstring.cpp:69
	unsigned char u1, u2;
  	while (num-- > 0)
    87c0:	e51b3018 	ldr	r3, [fp, #-24]	; 0xffffffe8
    87c4:	e2432001 	sub	r2, r3, #1
    87c8:	e50b2018 	str	r2, [fp, #-24]	; 0xffffffe8
    87cc:	e3530000 	cmp	r3, #0
    87d0:	c3a03001 	movgt	r3, #1
    87d4:	d3a03000 	movle	r3, #0
    87d8:	e6ef3073 	uxtb	r3, r3
    87dc:	e3530000 	cmp	r3, #0
    87e0:	0a000016 	beq	8840 <_Z7strncmpPKcS0_i+0x98>
/mnt/c/Users/Kuba/Documents/School/ZeroMate/examples/16-paging_userspace/stdlib/src/stdstring.cpp:71
    {
      	u1 = (unsigned char) *s1++;
    87e4:	e51b3010 	ldr	r3, [fp, #-16]
    87e8:	e2832001 	add	r2, r3, #1
    87ec:	e50b2010 	str	r2, [fp, #-16]
    87f0:	e5d33000 	ldrb	r3, [r3]
    87f4:	e54b3005 	strb	r3, [fp, #-5]
/mnt/c/Users/Kuba/Documents/School/ZeroMate/examples/16-paging_userspace/stdlib/src/stdstring.cpp:72
     	u2 = (unsigned char) *s2++;
    87f8:	e51b3014 	ldr	r3, [fp, #-20]	; 0xffffffec
    87fc:	e2832001 	add	r2, r3, #1
    8800:	e50b2014 	str	r2, [fp, #-20]	; 0xffffffec
    8804:	e5d33000 	ldrb	r3, [r3]
    8808:	e54b3006 	strb	r3, [fp, #-6]
/mnt/c/Users/Kuba/Documents/School/ZeroMate/examples/16-paging_userspace/stdlib/src/stdstring.cpp:73
      	if (u1 != u2)
    880c:	e55b2005 	ldrb	r2, [fp, #-5]
    8810:	e55b3006 	ldrb	r3, [fp, #-6]
    8814:	e1520003 	cmp	r2, r3
    8818:	0a000003 	beq	882c <_Z7strncmpPKcS0_i+0x84>
/mnt/c/Users/Kuba/Documents/School/ZeroMate/examples/16-paging_userspace/stdlib/src/stdstring.cpp:74
        	return u1 - u2;
    881c:	e55b2005 	ldrb	r2, [fp, #-5]
    8820:	e55b3006 	ldrb	r3, [fp, #-6]
    8824:	e0423003 	sub	r3, r2, r3
    8828:	ea000005 	b	8844 <_Z7strncmpPKcS0_i+0x9c>
/mnt/c/Users/Kuba/Documents/School/ZeroMate/examples/16-paging_userspace/stdlib/src/stdstring.cpp:75
      	if (u1 == '\0')
    882c:	e55b3005 	ldrb	r3, [fp, #-5]
    8830:	e3530000 	cmp	r3, #0
    8834:	1affffe1 	bne	87c0 <_Z7strncmpPKcS0_i+0x18>
/mnt/c/Users/Kuba/Documents/School/ZeroMate/examples/16-paging_userspace/stdlib/src/stdstring.cpp:76
        	return 0;
    8838:	e3a03000 	mov	r3, #0
    883c:	ea000000 	b	8844 <_Z7strncmpPKcS0_i+0x9c>
/mnt/c/Users/Kuba/Documents/School/ZeroMate/examples/16-paging_userspace/stdlib/src/stdstring.cpp:79
    }

  	return 0;
    8840:	e3a03000 	mov	r3, #0
/mnt/c/Users/Kuba/Documents/School/ZeroMate/examples/16-paging_userspace/stdlib/src/stdstring.cpp:80
}
    8844:	e1a00003 	mov	r0, r3
    8848:	e28bd000 	add	sp, fp, #0
    884c:	e49db004 	pop	{fp}		; (ldr fp, [sp], #4)
    8850:	e12fff1e 	bx	lr

00008854 <_Z6strlenPKc>:
_Z6strlenPKc():
/mnt/c/Users/Kuba/Documents/School/ZeroMate/examples/16-paging_userspace/stdlib/src/stdstring.cpp:83

int strlen(const char* s)
{
    8854:	e52db004 	push	{fp}		; (str fp, [sp, #-4]!)
    8858:	e28db000 	add	fp, sp, #0
    885c:	e24dd014 	sub	sp, sp, #20
    8860:	e50b0010 	str	r0, [fp, #-16]
/mnt/c/Users/Kuba/Documents/School/ZeroMate/examples/16-paging_userspace/stdlib/src/stdstring.cpp:84
	int i = 0;
    8864:	e3a03000 	mov	r3, #0
    8868:	e50b3008 	str	r3, [fp, #-8]
/mnt/c/Users/Kuba/Documents/School/ZeroMate/examples/16-paging_userspace/stdlib/src/stdstring.cpp:86

	while (s[i] != '\0')
    886c:	e51b3008 	ldr	r3, [fp, #-8]
    8870:	e51b2010 	ldr	r2, [fp, #-16]
    8874:	e0823003 	add	r3, r2, r3
    8878:	e5d33000 	ldrb	r3, [r3]
    887c:	e3530000 	cmp	r3, #0
    8880:	0a000003 	beq	8894 <_Z6strlenPKc+0x40>
/mnt/c/Users/Kuba/Documents/School/ZeroMate/examples/16-paging_userspace/stdlib/src/stdstring.cpp:87
		i++;
    8884:	e51b3008 	ldr	r3, [fp, #-8]
    8888:	e2833001 	add	r3, r3, #1
    888c:	e50b3008 	str	r3, [fp, #-8]
/mnt/c/Users/Kuba/Documents/School/ZeroMate/examples/16-paging_userspace/stdlib/src/stdstring.cpp:86
	while (s[i] != '\0')
    8890:	eafffff5 	b	886c <_Z6strlenPKc+0x18>
/mnt/c/Users/Kuba/Documents/School/ZeroMate/examples/16-paging_userspace/stdlib/src/stdstring.cpp:89

	return i;
    8894:	e51b3008 	ldr	r3, [fp, #-8]
/mnt/c/Users/Kuba/Documents/School/ZeroMate/examples/16-paging_userspace/stdlib/src/stdstring.cpp:90
}
    8898:	e1a00003 	mov	r0, r3
    889c:	e28bd000 	add	sp, fp, #0
    88a0:	e49db004 	pop	{fp}		; (ldr fp, [sp], #4)
    88a4:	e12fff1e 	bx	lr

000088a8 <_Z5bzeroPvi>:
_Z5bzeroPvi():
/mnt/c/Users/Kuba/Documents/School/ZeroMate/examples/16-paging_userspace/stdlib/src/stdstring.cpp:93

void bzero(void* memory, int length)
{
    88a8:	e52db004 	push	{fp}		; (str fp, [sp, #-4]!)
    88ac:	e28db000 	add	fp, sp, #0
    88b0:	e24dd014 	sub	sp, sp, #20
    88b4:	e50b0010 	str	r0, [fp, #-16]
    88b8:	e50b1014 	str	r1, [fp, #-20]	; 0xffffffec
/mnt/c/Users/Kuba/Documents/School/ZeroMate/examples/16-paging_userspace/stdlib/src/stdstring.cpp:94
	char* mem = reinterpret_cast<char*>(memory);
    88bc:	e51b3010 	ldr	r3, [fp, #-16]
    88c0:	e50b300c 	str	r3, [fp, #-12]
/mnt/c/Users/Kuba/Documents/School/ZeroMate/examples/16-paging_userspace/stdlib/src/stdstring.cpp:96

	for (int i = 0; i < length; i++)
    88c4:	e3a03000 	mov	r3, #0
    88c8:	e50b3008 	str	r3, [fp, #-8]
/mnt/c/Users/Kuba/Documents/School/ZeroMate/examples/16-paging_userspace/stdlib/src/stdstring.cpp:96 (discriminator 3)
    88cc:	e51b2008 	ldr	r2, [fp, #-8]
    88d0:	e51b3014 	ldr	r3, [fp, #-20]	; 0xffffffec
    88d4:	e1520003 	cmp	r2, r3
    88d8:	aa000008 	bge	8900 <_Z5bzeroPvi+0x58>
/mnt/c/Users/Kuba/Documents/School/ZeroMate/examples/16-paging_userspace/stdlib/src/stdstring.cpp:97 (discriminator 2)
		mem[i] = 0;
    88dc:	e51b3008 	ldr	r3, [fp, #-8]
    88e0:	e51b200c 	ldr	r2, [fp, #-12]
    88e4:	e0823003 	add	r3, r2, r3
    88e8:	e3a02000 	mov	r2, #0
    88ec:	e5c32000 	strb	r2, [r3]
/mnt/c/Users/Kuba/Documents/School/ZeroMate/examples/16-paging_userspace/stdlib/src/stdstring.cpp:96 (discriminator 2)
	for (int i = 0; i < length; i++)
    88f0:	e51b3008 	ldr	r3, [fp, #-8]
    88f4:	e2833001 	add	r3, r3, #1
    88f8:	e50b3008 	str	r3, [fp, #-8]
    88fc:	eafffff2 	b	88cc <_Z5bzeroPvi+0x24>
/mnt/c/Users/Kuba/Documents/School/ZeroMate/examples/16-paging_userspace/stdlib/src/stdstring.cpp:98
}
    8900:	e320f000 	nop	{0}
    8904:	e28bd000 	add	sp, fp, #0
    8908:	e49db004 	pop	{fp}		; (ldr fp, [sp], #4)
    890c:	e12fff1e 	bx	lr

00008910 <_Z6memcpyPKvPvi>:
_Z6memcpyPKvPvi():
/mnt/c/Users/Kuba/Documents/School/ZeroMate/examples/16-paging_userspace/stdlib/src/stdstring.cpp:101

void memcpy(const void* src, void* dst, int num)
{
    8910:	e52db004 	push	{fp}		; (str fp, [sp, #-4]!)
    8914:	e28db000 	add	fp, sp, #0
    8918:	e24dd024 	sub	sp, sp, #36	; 0x24
    891c:	e50b0018 	str	r0, [fp, #-24]	; 0xffffffe8
    8920:	e50b101c 	str	r1, [fp, #-28]	; 0xffffffe4
    8924:	e50b2020 	str	r2, [fp, #-32]	; 0xffffffe0
/mnt/c/Users/Kuba/Documents/School/ZeroMate/examples/16-paging_userspace/stdlib/src/stdstring.cpp:102
	const char* memsrc = reinterpret_cast<const char*>(src);
    8928:	e51b3018 	ldr	r3, [fp, #-24]	; 0xffffffe8
    892c:	e50b300c 	str	r3, [fp, #-12]
/mnt/c/Users/Kuba/Documents/School/ZeroMate/examples/16-paging_userspace/stdlib/src/stdstring.cpp:103
	char* memdst = reinterpret_cast<char*>(dst);
    8930:	e51b301c 	ldr	r3, [fp, #-28]	; 0xffffffe4
    8934:	e50b3010 	str	r3, [fp, #-16]
/mnt/c/Users/Kuba/Documents/School/ZeroMate/examples/16-paging_userspace/stdlib/src/stdstring.cpp:105

	for (int i = 0; i < num; i++)
    8938:	e3a03000 	mov	r3, #0
    893c:	e50b3008 	str	r3, [fp, #-8]
/mnt/c/Users/Kuba/Documents/School/ZeroMate/examples/16-paging_userspace/stdlib/src/stdstring.cpp:105 (discriminator 3)
    8940:	e51b2008 	ldr	r2, [fp, #-8]
    8944:	e51b3020 	ldr	r3, [fp, #-32]	; 0xffffffe0
    8948:	e1520003 	cmp	r2, r3
    894c:	aa00000b 	bge	8980 <_Z6memcpyPKvPvi+0x70>
/mnt/c/Users/Kuba/Documents/School/ZeroMate/examples/16-paging_userspace/stdlib/src/stdstring.cpp:106 (discriminator 2)
		memdst[i] = memsrc[i];
    8950:	e51b3008 	ldr	r3, [fp, #-8]
    8954:	e51b200c 	ldr	r2, [fp, #-12]
    8958:	e0822003 	add	r2, r2, r3
    895c:	e51b3008 	ldr	r3, [fp, #-8]
    8960:	e51b1010 	ldr	r1, [fp, #-16]
    8964:	e0813003 	add	r3, r1, r3
    8968:	e5d22000 	ldrb	r2, [r2]
    896c:	e5c32000 	strb	r2, [r3]
/mnt/c/Users/Kuba/Documents/School/ZeroMate/examples/16-paging_userspace/stdlib/src/stdstring.cpp:105 (discriminator 2)
	for (int i = 0; i < num; i++)
    8970:	e51b3008 	ldr	r3, [fp, #-8]
    8974:	e2833001 	add	r3, r3, #1
    8978:	e50b3008 	str	r3, [fp, #-8]
    897c:	eaffffef 	b	8940 <_Z6memcpyPKvPvi+0x30>
/mnt/c/Users/Kuba/Documents/School/ZeroMate/examples/16-paging_userspace/stdlib/src/stdstring.cpp:107
}
    8980:	e320f000 	nop	{0}
    8984:	e28bd000 	add	sp, fp, #0
    8988:	e49db004 	pop	{fp}		; (ldr fp, [sp], #4)
    898c:	e12fff1e 	bx	lr

00008990 <__udivsi3>:
__udivsi3():
/build/gcc-arm-none-eabi-hYfgK4/gcc-arm-none-eabi-10.3-2021.07/build/arm-none-eabi/arm/v5te/hard/libgcc/../../../../../../libgcc/config/arm/lib1funcs.S:1104
    8990:	e2512001 	subs	r2, r1, #1
/build/gcc-arm-none-eabi-hYfgK4/gcc-arm-none-eabi-10.3-2021.07/build/arm-none-eabi/arm/v5te/hard/libgcc/../../../../../../libgcc/config/arm/lib1funcs.S:1106
    8994:	012fff1e 	bxeq	lr
/build/gcc-arm-none-eabi-hYfgK4/gcc-arm-none-eabi-10.3-2021.07/build/arm-none-eabi/arm/v5te/hard/libgcc/../../../../../../libgcc/config/arm/lib1funcs.S:1107
    8998:	3a000074 	bcc	8b70 <__udivsi3+0x1e0>
/build/gcc-arm-none-eabi-hYfgK4/gcc-arm-none-eabi-10.3-2021.07/build/arm-none-eabi/arm/v5te/hard/libgcc/../../../../../../libgcc/config/arm/lib1funcs.S:1108
    899c:	e1500001 	cmp	r0, r1
/build/gcc-arm-none-eabi-hYfgK4/gcc-arm-none-eabi-10.3-2021.07/build/arm-none-eabi/arm/v5te/hard/libgcc/../../../../../../libgcc/config/arm/lib1funcs.S:1109
    89a0:	9a00006b 	bls	8b54 <__udivsi3+0x1c4>
/build/gcc-arm-none-eabi-hYfgK4/gcc-arm-none-eabi-10.3-2021.07/build/arm-none-eabi/arm/v5te/hard/libgcc/../../../../../../libgcc/config/arm/lib1funcs.S:1110
    89a4:	e1110002 	tst	r1, r2
/build/gcc-arm-none-eabi-hYfgK4/gcc-arm-none-eabi-10.3-2021.07/build/arm-none-eabi/arm/v5te/hard/libgcc/../../../../../../libgcc/config/arm/lib1funcs.S:1111
    89a8:	0a00006c 	beq	8b60 <__udivsi3+0x1d0>
/build/gcc-arm-none-eabi-hYfgK4/gcc-arm-none-eabi-10.3-2021.07/build/arm-none-eabi/arm/v5te/hard/libgcc/../../../../../../libgcc/config/arm/lib1funcs.S:1113
    89ac:	e16f3f10 	clz	r3, r0
    89b0:	e16f2f11 	clz	r2, r1
    89b4:	e0423003 	sub	r3, r2, r3
    89b8:	e273301f 	rsbs	r3, r3, #31
    89bc:	10833083 	addne	r3, r3, r3, lsl #1
    89c0:	e3a02000 	mov	r2, #0
    89c4:	108ff103 	addne	pc, pc, r3, lsl #2
    89c8:	e1a00000 	nop			; (mov r0, r0)
    89cc:	e1500f81 	cmp	r0, r1, lsl #31
    89d0:	e0a22002 	adc	r2, r2, r2
    89d4:	20400f81 	subcs	r0, r0, r1, lsl #31
    89d8:	e1500f01 	cmp	r0, r1, lsl #30
    89dc:	e0a22002 	adc	r2, r2, r2
    89e0:	20400f01 	subcs	r0, r0, r1, lsl #30
    89e4:	e1500e81 	cmp	r0, r1, lsl #29
    89e8:	e0a22002 	adc	r2, r2, r2
    89ec:	20400e81 	subcs	r0, r0, r1, lsl #29
    89f0:	e1500e01 	cmp	r0, r1, lsl #28
    89f4:	e0a22002 	adc	r2, r2, r2
    89f8:	20400e01 	subcs	r0, r0, r1, lsl #28
    89fc:	e1500d81 	cmp	r0, r1, lsl #27
    8a00:	e0a22002 	adc	r2, r2, r2
    8a04:	20400d81 	subcs	r0, r0, r1, lsl #27
    8a08:	e1500d01 	cmp	r0, r1, lsl #26
    8a0c:	e0a22002 	adc	r2, r2, r2
    8a10:	20400d01 	subcs	r0, r0, r1, lsl #26
    8a14:	e1500c81 	cmp	r0, r1, lsl #25
    8a18:	e0a22002 	adc	r2, r2, r2
    8a1c:	20400c81 	subcs	r0, r0, r1, lsl #25
    8a20:	e1500c01 	cmp	r0, r1, lsl #24
    8a24:	e0a22002 	adc	r2, r2, r2
    8a28:	20400c01 	subcs	r0, r0, r1, lsl #24
    8a2c:	e1500b81 	cmp	r0, r1, lsl #23
    8a30:	e0a22002 	adc	r2, r2, r2
    8a34:	20400b81 	subcs	r0, r0, r1, lsl #23
    8a38:	e1500b01 	cmp	r0, r1, lsl #22
    8a3c:	e0a22002 	adc	r2, r2, r2
    8a40:	20400b01 	subcs	r0, r0, r1, lsl #22
    8a44:	e1500a81 	cmp	r0, r1, lsl #21
    8a48:	e0a22002 	adc	r2, r2, r2
    8a4c:	20400a81 	subcs	r0, r0, r1, lsl #21
    8a50:	e1500a01 	cmp	r0, r1, lsl #20
    8a54:	e0a22002 	adc	r2, r2, r2
    8a58:	20400a01 	subcs	r0, r0, r1, lsl #20
    8a5c:	e1500981 	cmp	r0, r1, lsl #19
    8a60:	e0a22002 	adc	r2, r2, r2
    8a64:	20400981 	subcs	r0, r0, r1, lsl #19
    8a68:	e1500901 	cmp	r0, r1, lsl #18
    8a6c:	e0a22002 	adc	r2, r2, r2
    8a70:	20400901 	subcs	r0, r0, r1, lsl #18
    8a74:	e1500881 	cmp	r0, r1, lsl #17
    8a78:	e0a22002 	adc	r2, r2, r2
    8a7c:	20400881 	subcs	r0, r0, r1, lsl #17
    8a80:	e1500801 	cmp	r0, r1, lsl #16
    8a84:	e0a22002 	adc	r2, r2, r2
    8a88:	20400801 	subcs	r0, r0, r1, lsl #16
    8a8c:	e1500781 	cmp	r0, r1, lsl #15
    8a90:	e0a22002 	adc	r2, r2, r2
    8a94:	20400781 	subcs	r0, r0, r1, lsl #15
    8a98:	e1500701 	cmp	r0, r1, lsl #14
    8a9c:	e0a22002 	adc	r2, r2, r2
    8aa0:	20400701 	subcs	r0, r0, r1, lsl #14
    8aa4:	e1500681 	cmp	r0, r1, lsl #13
    8aa8:	e0a22002 	adc	r2, r2, r2
    8aac:	20400681 	subcs	r0, r0, r1, lsl #13
    8ab0:	e1500601 	cmp	r0, r1, lsl #12
    8ab4:	e0a22002 	adc	r2, r2, r2
    8ab8:	20400601 	subcs	r0, r0, r1, lsl #12
    8abc:	e1500581 	cmp	r0, r1, lsl #11
    8ac0:	e0a22002 	adc	r2, r2, r2
    8ac4:	20400581 	subcs	r0, r0, r1, lsl #11
    8ac8:	e1500501 	cmp	r0, r1, lsl #10
    8acc:	e0a22002 	adc	r2, r2, r2
    8ad0:	20400501 	subcs	r0, r0, r1, lsl #10
    8ad4:	e1500481 	cmp	r0, r1, lsl #9
    8ad8:	e0a22002 	adc	r2, r2, r2
    8adc:	20400481 	subcs	r0, r0, r1, lsl #9
    8ae0:	e1500401 	cmp	r0, r1, lsl #8
    8ae4:	e0a22002 	adc	r2, r2, r2
    8ae8:	20400401 	subcs	r0, r0, r1, lsl #8
    8aec:	e1500381 	cmp	r0, r1, lsl #7
    8af0:	e0a22002 	adc	r2, r2, r2
    8af4:	20400381 	subcs	r0, r0, r1, lsl #7
    8af8:	e1500301 	cmp	r0, r1, lsl #6
    8afc:	e0a22002 	adc	r2, r2, r2
    8b00:	20400301 	subcs	r0, r0, r1, lsl #6
    8b04:	e1500281 	cmp	r0, r1, lsl #5
    8b08:	e0a22002 	adc	r2, r2, r2
    8b0c:	20400281 	subcs	r0, r0, r1, lsl #5
    8b10:	e1500201 	cmp	r0, r1, lsl #4
    8b14:	e0a22002 	adc	r2, r2, r2
    8b18:	20400201 	subcs	r0, r0, r1, lsl #4
    8b1c:	e1500181 	cmp	r0, r1, lsl #3
    8b20:	e0a22002 	adc	r2, r2, r2
    8b24:	20400181 	subcs	r0, r0, r1, lsl #3
    8b28:	e1500101 	cmp	r0, r1, lsl #2
    8b2c:	e0a22002 	adc	r2, r2, r2
    8b30:	20400101 	subcs	r0, r0, r1, lsl #2
    8b34:	e1500081 	cmp	r0, r1, lsl #1
    8b38:	e0a22002 	adc	r2, r2, r2
    8b3c:	20400081 	subcs	r0, r0, r1, lsl #1
    8b40:	e1500001 	cmp	r0, r1
    8b44:	e0a22002 	adc	r2, r2, r2
    8b48:	20400001 	subcs	r0, r0, r1
/build/gcc-arm-none-eabi-hYfgK4/gcc-arm-none-eabi-10.3-2021.07/build/arm-none-eabi/arm/v5te/hard/libgcc/../../../../../../libgcc/config/arm/lib1funcs.S:1115
    8b4c:	e1a00002 	mov	r0, r2
/build/gcc-arm-none-eabi-hYfgK4/gcc-arm-none-eabi-10.3-2021.07/build/arm-none-eabi/arm/v5te/hard/libgcc/../../../../../../libgcc/config/arm/lib1funcs.S:1116
    8b50:	e12fff1e 	bx	lr
/build/gcc-arm-none-eabi-hYfgK4/gcc-arm-none-eabi-10.3-2021.07/build/arm-none-eabi/arm/v5te/hard/libgcc/../../../../../../libgcc/config/arm/lib1funcs.S:1119
    8b54:	03a00001 	moveq	r0, #1
/build/gcc-arm-none-eabi-hYfgK4/gcc-arm-none-eabi-10.3-2021.07/build/arm-none-eabi/arm/v5te/hard/libgcc/../../../../../../libgcc/config/arm/lib1funcs.S:1120
    8b58:	13a00000 	movne	r0, #0
/build/gcc-arm-none-eabi-hYfgK4/gcc-arm-none-eabi-10.3-2021.07/build/arm-none-eabi/arm/v5te/hard/libgcc/../../../../../../libgcc/config/arm/lib1funcs.S:1121
    8b5c:	e12fff1e 	bx	lr
/build/gcc-arm-none-eabi-hYfgK4/gcc-arm-none-eabi-10.3-2021.07/build/arm-none-eabi/arm/v5te/hard/libgcc/../../../../../../libgcc/config/arm/lib1funcs.S:1123
    8b60:	e16f2f11 	clz	r2, r1
    8b64:	e262201f 	rsb	r2, r2, #31
/build/gcc-arm-none-eabi-hYfgK4/gcc-arm-none-eabi-10.3-2021.07/build/arm-none-eabi/arm/v5te/hard/libgcc/../../../../../../libgcc/config/arm/lib1funcs.S:1125
    8b68:	e1a00230 	lsr	r0, r0, r2
/build/gcc-arm-none-eabi-hYfgK4/gcc-arm-none-eabi-10.3-2021.07/build/arm-none-eabi/arm/v5te/hard/libgcc/../../../../../../libgcc/config/arm/lib1funcs.S:1126
    8b6c:	e12fff1e 	bx	lr
/build/gcc-arm-none-eabi-hYfgK4/gcc-arm-none-eabi-10.3-2021.07/build/arm-none-eabi/arm/v5te/hard/libgcc/../../../../../../libgcc/config/arm/lib1funcs.S:1130
    8b70:	e3500000 	cmp	r0, #0
    8b74:	13e00000 	mvnne	r0, #0
    8b78:	ea000007 	b	8b9c <__aeabi_idiv0>

00008b7c <__aeabi_uidivmod>:
__aeabi_uidivmod():
/build/gcc-arm-none-eabi-hYfgK4/gcc-arm-none-eabi-10.3-2021.07/build/arm-none-eabi/arm/v5te/hard/libgcc/../../../../../../libgcc/config/arm/lib1funcs.S:1161
    8b7c:	e3510000 	cmp	r1, #0
/build/gcc-arm-none-eabi-hYfgK4/gcc-arm-none-eabi-10.3-2021.07/build/arm-none-eabi/arm/v5te/hard/libgcc/../../../../../../libgcc/config/arm/lib1funcs.S:1162
    8b80:	0afffffa 	beq	8b70 <__udivsi3+0x1e0>
/build/gcc-arm-none-eabi-hYfgK4/gcc-arm-none-eabi-10.3-2021.07/build/arm-none-eabi/arm/v5te/hard/libgcc/../../../../../../libgcc/config/arm/lib1funcs.S:1163
    8b84:	e92d4003 	push	{r0, r1, lr}
/build/gcc-arm-none-eabi-hYfgK4/gcc-arm-none-eabi-10.3-2021.07/build/arm-none-eabi/arm/v5te/hard/libgcc/../../../../../../libgcc/config/arm/lib1funcs.S:1164
    8b88:	ebffff80 	bl	8990 <__udivsi3>
/build/gcc-arm-none-eabi-hYfgK4/gcc-arm-none-eabi-10.3-2021.07/build/arm-none-eabi/arm/v5te/hard/libgcc/../../../../../../libgcc/config/arm/lib1funcs.S:1165
    8b8c:	e8bd4006 	pop	{r1, r2, lr}
/build/gcc-arm-none-eabi-hYfgK4/gcc-arm-none-eabi-10.3-2021.07/build/arm-none-eabi/arm/v5te/hard/libgcc/../../../../../../libgcc/config/arm/lib1funcs.S:1166
    8b90:	e0030092 	mul	r3, r2, r0
/build/gcc-arm-none-eabi-hYfgK4/gcc-arm-none-eabi-10.3-2021.07/build/arm-none-eabi/arm/v5te/hard/libgcc/../../../../../../libgcc/config/arm/lib1funcs.S:1167
    8b94:	e0411003 	sub	r1, r1, r3
/build/gcc-arm-none-eabi-hYfgK4/gcc-arm-none-eabi-10.3-2021.07/build/arm-none-eabi/arm/v5te/hard/libgcc/../../../../../../libgcc/config/arm/lib1funcs.S:1168
    8b98:	e12fff1e 	bx	lr

00008b9c <__aeabi_idiv0>:
__aeabi_ldiv0():
/build/gcc-arm-none-eabi-hYfgK4/gcc-arm-none-eabi-10.3-2021.07/build/arm-none-eabi/arm/v5te/hard/libgcc/../../../../../../libgcc/config/arm/lib1funcs.S:1466
    8b9c:	e12fff1e 	bx	lr
