
./kernel:     file format elf32-littlearm


Disassembly of section .text:

00008000 <_start>:
_start():
/home/silhavyj/School/ZeroMate/examples/06-LED_toggle/kernel/src/start.s:8
;@ tady budou symboly, ktere chceme na zacatek kodove sekce
.section .text.start

;@ vstupni bod do kernelu - nechame ho vlozit na zacatek kodu
_start:
    mov sp,#0x8000			;@ nastavime stack pointer na spodek zasobniku
    8000:	e3a0d902 	mov	sp, #32768	; 0x8000
/home/silhavyj/School/ZeroMate/examples/06-LED_toggle/kernel/src/start.s:9
	bl _c_startup			;@ C startup kod (inicializace prostredi)
    8004:	eb0001a8 	bl	86ac <_c_startup>
/home/silhavyj/School/ZeroMate/examples/06-LED_toggle/kernel/src/start.s:10
	bl _cpp_startup			;@ C++ startup kod (volani globalnich konstruktoru, ...)
    8008:	eb0001c1 	bl	8714 <_cpp_startup>
/home/silhavyj/School/ZeroMate/examples/06-LED_toggle/kernel/src/start.s:11
    bl _kernel_main			;@ skocime do hlavniho kodu jadra (v C)
    800c:	eb00017b 	bl	8600 <_kernel_main>
/home/silhavyj/School/ZeroMate/examples/06-LED_toggle/kernel/src/start.s:12
	bl _cpp_shutdown		;@ C++ shutdown kod (volani globalnich destruktoru, ...)
    8010:	eb0001d5 	bl	876c <_cpp_shutdown>

00008014 <hang>:
hang():
/home/silhavyj/School/ZeroMate/examples/06-LED_toggle/kernel/src/start.s:14
hang:
    b hang
    8014:	eafffffe 	b	8014 <hang>

00008018 <__cxa_guard_acquire>:
__cxa_guard_acquire():
/home/silhavyj/School/ZeroMate/examples/06-LED_toggle/kernel/src/cxx.cpp:11
    extern "C" int __cxa_guard_acquire(__guard*);
    extern "C" void __cxa_guard_release(__guard*);
    extern "C" void __cxa_guard_abort(__guard*);

    extern "C" int __cxa_guard_acquire(__guard* g)
    {
    8018:	e52db004 	push	{fp}		; (str fp, [sp, #-4]!)
    801c:	e28db000 	add	fp, sp, #0
    8020:	e24dd00c 	sub	sp, sp, #12
    8024:	e50b0008 	str	r0, [fp, #-8]
/home/silhavyj/School/ZeroMate/examples/06-LED_toggle/kernel/src/cxx.cpp:12
        return !*(char*)(g);
    8028:	e51b3008 	ldr	r3, [fp, #-8]
    802c:	e5d33000 	ldrb	r3, [r3]
    8030:	e3530000 	cmp	r3, #0
    8034:	03a03001 	moveq	r3, #1
    8038:	13a03000 	movne	r3, #0
    803c:	e6ef3073 	uxtb	r3, r3
/home/silhavyj/School/ZeroMate/examples/06-LED_toggle/kernel/src/cxx.cpp:13
    }
    8040:	e1a00003 	mov	r0, r3
    8044:	e28bd000 	add	sp, fp, #0
    8048:	e49db004 	pop	{fp}		; (ldr fp, [sp], #4)
    804c:	e12fff1e 	bx	lr

00008050 <__cxa_guard_release>:
__cxa_guard_release():
/home/silhavyj/School/ZeroMate/examples/06-LED_toggle/kernel/src/cxx.cpp:16

    extern "C" void __cxa_guard_release(__guard* g)
    {
    8050:	e52db004 	push	{fp}		; (str fp, [sp, #-4]!)
    8054:	e28db000 	add	fp, sp, #0
    8058:	e24dd00c 	sub	sp, sp, #12
    805c:	e50b0008 	str	r0, [fp, #-8]
/home/silhavyj/School/ZeroMate/examples/06-LED_toggle/kernel/src/cxx.cpp:17
        *(char*)g = 1;
    8060:	e51b3008 	ldr	r3, [fp, #-8]
    8064:	e3a02001 	mov	r2, #1
    8068:	e5c32000 	strb	r2, [r3]
/home/silhavyj/School/ZeroMate/examples/06-LED_toggle/kernel/src/cxx.cpp:18
    }
    806c:	e320f000 	nop	{0}
    8070:	e28bd000 	add	sp, fp, #0
    8074:	e49db004 	pop	{fp}		; (ldr fp, [sp], #4)
    8078:	e12fff1e 	bx	lr

0000807c <__cxa_guard_abort>:
__cxa_guard_abort():
/home/silhavyj/School/ZeroMate/examples/06-LED_toggle/kernel/src/cxx.cpp:21

    extern "C" void __cxa_guard_abort(__guard*)
    {
    807c:	e52db004 	push	{fp}		; (str fp, [sp, #-4]!)
    8080:	e28db000 	add	fp, sp, #0
    8084:	e24dd00c 	sub	sp, sp, #12
    8088:	e50b0008 	str	r0, [fp, #-8]
/home/silhavyj/School/ZeroMate/examples/06-LED_toggle/kernel/src/cxx.cpp:22
    }
    808c:	e320f000 	nop	{0}
    8090:	e28bd000 	add	sp, fp, #0
    8094:	e49db004 	pop	{fp}		; (ldr fp, [sp], #4)
    8098:	e12fff1e 	bx	lr

0000809c <__dso_handle>:
__dso_handle():
/home/silhavyj/School/ZeroMate/examples/06-LED_toggle/kernel/src/cxx.cpp:26
}

extern "C" void __dso_handle()
{
    809c:	e52db004 	push	{fp}		; (str fp, [sp, #-4]!)
    80a0:	e28db000 	add	fp, sp, #0
/home/silhavyj/School/ZeroMate/examples/06-LED_toggle/kernel/src/cxx.cpp:28
    // ignore dtors for now
}
    80a4:	e320f000 	nop	{0}
    80a8:	e28bd000 	add	sp, fp, #0
    80ac:	e49db004 	pop	{fp}		; (ldr fp, [sp], #4)
    80b0:	e12fff1e 	bx	lr

000080b4 <__cxa_atexit>:
__cxa_atexit():
/home/silhavyj/School/ZeroMate/examples/06-LED_toggle/kernel/src/cxx.cpp:31

extern "C" void __cxa_atexit()
{
    80b4:	e52db004 	push	{fp}		; (str fp, [sp, #-4]!)
    80b8:	e28db000 	add	fp, sp, #0
/home/silhavyj/School/ZeroMate/examples/06-LED_toggle/kernel/src/cxx.cpp:33
    // ignore dtors for now
}
    80bc:	e320f000 	nop	{0}
    80c0:	e28bd000 	add	sp, fp, #0
    80c4:	e49db004 	pop	{fp}		; (ldr fp, [sp], #4)
    80c8:	e12fff1e 	bx	lr

000080cc <__cxa_pure_virtual>:
__cxa_pure_virtual():
/home/silhavyj/School/ZeroMate/examples/06-LED_toggle/kernel/src/cxx.cpp:36

extern "C" void __cxa_pure_virtual()
{
    80cc:	e52db004 	push	{fp}		; (str fp, [sp, #-4]!)
    80d0:	e28db000 	add	fp, sp, #0
/home/silhavyj/School/ZeroMate/examples/06-LED_toggle/kernel/src/cxx.cpp:38
    // pure virtual method called
}
    80d4:	e320f000 	nop	{0}
    80d8:	e28bd000 	add	sp, fp, #0
    80dc:	e49db004 	pop	{fp}		; (ldr fp, [sp], #4)
    80e0:	e12fff1e 	bx	lr

000080e4 <__aeabi_unwind_cpp_pr1>:
__aeabi_unwind_cpp_pr1():
/home/silhavyj/School/ZeroMate/examples/06-LED_toggle/kernel/src/cxx.cpp:41

extern "C" void __aeabi_unwind_cpp_pr1()
{
    80e4:	e52db004 	push	{fp}		; (str fp, [sp, #-4]!)
    80e8:	e28db000 	add	fp, sp, #0
/home/silhavyj/School/ZeroMate/examples/06-LED_toggle/kernel/src/cxx.cpp:42 (discriminator 1)
    while (true)
    80ec:	eafffffe 	b	80ec <__aeabi_unwind_cpp_pr1+0x8>

000080f0 <_ZN13CGPIO_HandlerC1Ej>:
_ZN13CGPIO_HandlerC2Ej():
/home/silhavyj/School/ZeroMate/examples/06-LED_toggle/kernel/src/drivers/gpio.cpp:6
#include <hal/peripherals.h>
#include <drivers/gpio.h>

CGPIO_Handler sGPIO(hal::GPIO_Base);

CGPIO_Handler::CGPIO_Handler(unsigned int gpio_base_addr)
    80f0:	e52db004 	push	{fp}		; (str fp, [sp, #-4]!)
    80f4:	e28db000 	add	fp, sp, #0
    80f8:	e24dd00c 	sub	sp, sp, #12
    80fc:	e50b0008 	str	r0, [fp, #-8]
    8100:	e50b100c 	str	r1, [fp, #-12]
/home/silhavyj/School/ZeroMate/examples/06-LED_toggle/kernel/src/drivers/gpio.cpp:7
: mGPIO(reinterpret_cast<unsigned int*>(gpio_base_addr))
    8104:	e51b200c 	ldr	r2, [fp, #-12]
    8108:	e51b3008 	ldr	r3, [fp, #-8]
    810c:	e5832000 	str	r2, [r3]
/home/silhavyj/School/ZeroMate/examples/06-LED_toggle/kernel/src/drivers/gpio.cpp:10
{
    //
}
    8110:	e51b3008 	ldr	r3, [fp, #-8]
    8114:	e1a00003 	mov	r0, r3
    8118:	e28bd000 	add	sp, fp, #0
    811c:	e49db004 	pop	{fp}		; (ldr fp, [sp], #4)
    8120:	e12fff1e 	bx	lr

00008124 <_ZNK13CGPIO_Handler19Get_GPFSEL_LocationEjRjS0_>:
_ZNK13CGPIO_Handler19Get_GPFSEL_LocationEjRjS0_():
/home/silhavyj/School/ZeroMate/examples/06-LED_toggle/kernel/src/drivers/gpio.cpp:13

bool CGPIO_Handler::Get_GPFSEL_Location(uint32_t pin, uint32_t& reg, uint32_t& bit_idx) const
{
    8124:	e52db004 	push	{fp}		; (str fp, [sp, #-4]!)
    8128:	e28db000 	add	fp, sp, #0
    812c:	e24dd014 	sub	sp, sp, #20
    8130:	e50b0008 	str	r0, [fp, #-8]
    8134:	e50b100c 	str	r1, [fp, #-12]
    8138:	e50b2010 	str	r2, [fp, #-16]
    813c:	e50b3014 	str	r3, [fp, #-20]	; 0xffffffec
/home/silhavyj/School/ZeroMate/examples/06-LED_toggle/kernel/src/drivers/gpio.cpp:14
    if (pin > hal::GPIO_Pin_Count)
    8140:	e51b300c 	ldr	r3, [fp, #-12]
    8144:	e3530036 	cmp	r3, #54	; 0x36
    8148:	9a000001 	bls	8154 <_ZNK13CGPIO_Handler19Get_GPFSEL_LocationEjRjS0_+0x30>
/home/silhavyj/School/ZeroMate/examples/06-LED_toggle/kernel/src/drivers/gpio.cpp:15
        return false;
    814c:	e3a03000 	mov	r3, #0
    8150:	ea000033 	b	8224 <_ZNK13CGPIO_Handler19Get_GPFSEL_LocationEjRjS0_+0x100>
/home/silhavyj/School/ZeroMate/examples/06-LED_toggle/kernel/src/drivers/gpio.cpp:17

    switch (pin / 10)
    8154:	e51b300c 	ldr	r3, [fp, #-12]
    8158:	e59f20d4 	ldr	r2, [pc, #212]	; 8234 <_ZNK13CGPIO_Handler19Get_GPFSEL_LocationEjRjS0_+0x110>
    815c:	e0832392 	umull	r2, r3, r2, r3
    8160:	e1a031a3 	lsr	r3, r3, #3
    8164:	e3530005 	cmp	r3, #5
    8168:	979ff103 	ldrls	pc, [pc, r3, lsl #2]
    816c:	ea00001d 	b	81e8 <_ZNK13CGPIO_Handler19Get_GPFSEL_LocationEjRjS0_+0xc4>
    8170:	00008188 	andeq	r8, r0, r8, lsl #3
    8174:	00008198 	muleq	r0, r8, r1
    8178:	000081a8 	andeq	r8, r0, r8, lsr #3
    817c:	000081b8 			; <UNDEFINED> instruction: 0x000081b8
    8180:	000081c8 	andeq	r8, r0, r8, asr #3
    8184:	000081d8 	ldrdeq	r8, [r0], -r8	; <UNPREDICTABLE>
/home/silhavyj/School/ZeroMate/examples/06-LED_toggle/kernel/src/drivers/gpio.cpp:20
    {
        case 0:
            reg = static_cast<uint32_t>(hal::GPIO_Reg::GPFSEL0);
    8188:	e51b3010 	ldr	r3, [fp, #-16]
    818c:	e3a02000 	mov	r2, #0
    8190:	e5832000 	str	r2, [r3]
/home/silhavyj/School/ZeroMate/examples/06-LED_toggle/kernel/src/drivers/gpio.cpp:21
            break;
    8194:	ea000013 	b	81e8 <_ZNK13CGPIO_Handler19Get_GPFSEL_LocationEjRjS0_+0xc4>
/home/silhavyj/School/ZeroMate/examples/06-LED_toggle/kernel/src/drivers/gpio.cpp:23
        case 1:
            reg = static_cast<uint32_t>(hal::GPIO_Reg::GPFSEL1);
    8198:	e51b3010 	ldr	r3, [fp, #-16]
    819c:	e3a02001 	mov	r2, #1
    81a0:	e5832000 	str	r2, [r3]
/home/silhavyj/School/ZeroMate/examples/06-LED_toggle/kernel/src/drivers/gpio.cpp:24
            break;
    81a4:	ea00000f 	b	81e8 <_ZNK13CGPIO_Handler19Get_GPFSEL_LocationEjRjS0_+0xc4>
/home/silhavyj/School/ZeroMate/examples/06-LED_toggle/kernel/src/drivers/gpio.cpp:26
        case 2:
            reg = static_cast<uint32_t>(hal::GPIO_Reg::GPFSEL2);
    81a8:	e51b3010 	ldr	r3, [fp, #-16]
    81ac:	e3a02002 	mov	r2, #2
    81b0:	e5832000 	str	r2, [r3]
/home/silhavyj/School/ZeroMate/examples/06-LED_toggle/kernel/src/drivers/gpio.cpp:27
            break;
    81b4:	ea00000b 	b	81e8 <_ZNK13CGPIO_Handler19Get_GPFSEL_LocationEjRjS0_+0xc4>
/home/silhavyj/School/ZeroMate/examples/06-LED_toggle/kernel/src/drivers/gpio.cpp:29
        case 3:
            reg = static_cast<uint32_t>(hal::GPIO_Reg::GPFSEL3);
    81b8:	e51b3010 	ldr	r3, [fp, #-16]
    81bc:	e3a02003 	mov	r2, #3
    81c0:	e5832000 	str	r2, [r3]
/home/silhavyj/School/ZeroMate/examples/06-LED_toggle/kernel/src/drivers/gpio.cpp:30
            break;
    81c4:	ea000007 	b	81e8 <_ZNK13CGPIO_Handler19Get_GPFSEL_LocationEjRjS0_+0xc4>
/home/silhavyj/School/ZeroMate/examples/06-LED_toggle/kernel/src/drivers/gpio.cpp:32
        case 4:
            reg = static_cast<uint32_t>(hal::GPIO_Reg::GPFSEL4);
    81c8:	e51b3010 	ldr	r3, [fp, #-16]
    81cc:	e3a02004 	mov	r2, #4
    81d0:	e5832000 	str	r2, [r3]
/home/silhavyj/School/ZeroMate/examples/06-LED_toggle/kernel/src/drivers/gpio.cpp:33
            break;
    81d4:	ea000003 	b	81e8 <_ZNK13CGPIO_Handler19Get_GPFSEL_LocationEjRjS0_+0xc4>
/home/silhavyj/School/ZeroMate/examples/06-LED_toggle/kernel/src/drivers/gpio.cpp:35
        case 5:
            reg = static_cast<uint32_t>(hal::GPIO_Reg::GPFSEL5);
    81d8:	e51b3010 	ldr	r3, [fp, #-16]
    81dc:	e3a02005 	mov	r2, #5
    81e0:	e5832000 	str	r2, [r3]
/home/silhavyj/School/ZeroMate/examples/06-LED_toggle/kernel/src/drivers/gpio.cpp:36
            break;
    81e4:	e320f000 	nop	{0}
/home/silhavyj/School/ZeroMate/examples/06-LED_toggle/kernel/src/drivers/gpio.cpp:39
    }

    bit_idx = (pin % 10) * 3;
    81e8:	e51b100c 	ldr	r1, [fp, #-12]
    81ec:	e59f3040 	ldr	r3, [pc, #64]	; 8234 <_ZNK13CGPIO_Handler19Get_GPFSEL_LocationEjRjS0_+0x110>
    81f0:	e0832193 	umull	r2, r3, r3, r1
    81f4:	e1a021a3 	lsr	r2, r3, #3
    81f8:	e1a03002 	mov	r3, r2
    81fc:	e1a03103 	lsl	r3, r3, #2
    8200:	e0833002 	add	r3, r3, r2
    8204:	e1a03083 	lsl	r3, r3, #1
    8208:	e0412003 	sub	r2, r1, r3
    820c:	e1a03002 	mov	r3, r2
    8210:	e1a03083 	lsl	r3, r3, #1
    8214:	e0832002 	add	r2, r3, r2
    8218:	e51b3014 	ldr	r3, [fp, #-20]	; 0xffffffec
    821c:	e5832000 	str	r2, [r3]
/home/silhavyj/School/ZeroMate/examples/06-LED_toggle/kernel/src/drivers/gpio.cpp:41

    return true;
    8220:	e3a03001 	mov	r3, #1
/home/silhavyj/School/ZeroMate/examples/06-LED_toggle/kernel/src/drivers/gpio.cpp:42
}
    8224:	e1a00003 	mov	r0, r3
    8228:	e28bd000 	add	sp, fp, #0
    822c:	e49db004 	pop	{fp}		; (ldr fp, [sp], #4)
    8230:	e12fff1e 	bx	lr
    8234:	cccccccd 	stclgt	12, cr12, [ip], {205}	; 0xcd

00008238 <_ZNK13CGPIO_Handler18Get_GPCLR_LocationEjRjS0_>:
_ZNK13CGPIO_Handler18Get_GPCLR_LocationEjRjS0_():
/home/silhavyj/School/ZeroMate/examples/06-LED_toggle/kernel/src/drivers/gpio.cpp:45

bool CGPIO_Handler::Get_GPCLR_Location(uint32_t pin, uint32_t& reg, uint32_t& bit_idx) const
{
    8238:	e52db004 	push	{fp}		; (str fp, [sp, #-4]!)
    823c:	e28db000 	add	fp, sp, #0
    8240:	e24dd014 	sub	sp, sp, #20
    8244:	e50b0008 	str	r0, [fp, #-8]
    8248:	e50b100c 	str	r1, [fp, #-12]
    824c:	e50b2010 	str	r2, [fp, #-16]
    8250:	e50b3014 	str	r3, [fp, #-20]	; 0xffffffec
/home/silhavyj/School/ZeroMate/examples/06-LED_toggle/kernel/src/drivers/gpio.cpp:46
    if (pin > hal::GPIO_Pin_Count)
    8254:	e51b300c 	ldr	r3, [fp, #-12]
    8258:	e3530036 	cmp	r3, #54	; 0x36
    825c:	9a000001 	bls	8268 <_ZNK13CGPIO_Handler18Get_GPCLR_LocationEjRjS0_+0x30>
/home/silhavyj/School/ZeroMate/examples/06-LED_toggle/kernel/src/drivers/gpio.cpp:47
        return false;
    8260:	e3a03000 	mov	r3, #0
    8264:	ea00000c 	b	829c <_ZNK13CGPIO_Handler18Get_GPCLR_LocationEjRjS0_+0x64>
/home/silhavyj/School/ZeroMate/examples/06-LED_toggle/kernel/src/drivers/gpio.cpp:49

    reg = static_cast<uint32_t>((pin < 32) ? hal::GPIO_Reg::GPCLR0 : hal::GPIO_Reg::GPCLR1);
    8268:	e51b300c 	ldr	r3, [fp, #-12]
    826c:	e353001f 	cmp	r3, #31
    8270:	8a000001 	bhi	827c <_ZNK13CGPIO_Handler18Get_GPCLR_LocationEjRjS0_+0x44>
/home/silhavyj/School/ZeroMate/examples/06-LED_toggle/kernel/src/drivers/gpio.cpp:49 (discriminator 1)
    8274:	e3a0200a 	mov	r2, #10
    8278:	ea000000 	b	8280 <_ZNK13CGPIO_Handler18Get_GPCLR_LocationEjRjS0_+0x48>
/home/silhavyj/School/ZeroMate/examples/06-LED_toggle/kernel/src/drivers/gpio.cpp:49 (discriminator 2)
    827c:	e3a0200b 	mov	r2, #11
/home/silhavyj/School/ZeroMate/examples/06-LED_toggle/kernel/src/drivers/gpio.cpp:49 (discriminator 4)
    8280:	e51b3010 	ldr	r3, [fp, #-16]
    8284:	e5832000 	str	r2, [r3]
/home/silhavyj/School/ZeroMate/examples/06-LED_toggle/kernel/src/drivers/gpio.cpp:50 (discriminator 4)
    bit_idx = pin % 32;
    8288:	e51b300c 	ldr	r3, [fp, #-12]
    828c:	e203201f 	and	r2, r3, #31
    8290:	e51b3014 	ldr	r3, [fp, #-20]	; 0xffffffec
    8294:	e5832000 	str	r2, [r3]
/home/silhavyj/School/ZeroMate/examples/06-LED_toggle/kernel/src/drivers/gpio.cpp:52 (discriminator 4)

    return true;
    8298:	e3a03001 	mov	r3, #1
/home/silhavyj/School/ZeroMate/examples/06-LED_toggle/kernel/src/drivers/gpio.cpp:53
}
    829c:	e1a00003 	mov	r0, r3
    82a0:	e28bd000 	add	sp, fp, #0
    82a4:	e49db004 	pop	{fp}		; (ldr fp, [sp], #4)
    82a8:	e12fff1e 	bx	lr

000082ac <_ZNK13CGPIO_Handler18Get_GPSET_LocationEjRjS0_>:
_ZNK13CGPIO_Handler18Get_GPSET_LocationEjRjS0_():
/home/silhavyj/School/ZeroMate/examples/06-LED_toggle/kernel/src/drivers/gpio.cpp:56

bool CGPIO_Handler::Get_GPSET_Location(uint32_t pin, uint32_t& reg, uint32_t& bit_idx) const
{
    82ac:	e52db004 	push	{fp}		; (str fp, [sp, #-4]!)
    82b0:	e28db000 	add	fp, sp, #0
    82b4:	e24dd014 	sub	sp, sp, #20
    82b8:	e50b0008 	str	r0, [fp, #-8]
    82bc:	e50b100c 	str	r1, [fp, #-12]
    82c0:	e50b2010 	str	r2, [fp, #-16]
    82c4:	e50b3014 	str	r3, [fp, #-20]	; 0xffffffec
/home/silhavyj/School/ZeroMate/examples/06-LED_toggle/kernel/src/drivers/gpio.cpp:57
    if (pin > hal::GPIO_Pin_Count)
    82c8:	e51b300c 	ldr	r3, [fp, #-12]
    82cc:	e3530036 	cmp	r3, #54	; 0x36
    82d0:	9a000001 	bls	82dc <_ZNK13CGPIO_Handler18Get_GPSET_LocationEjRjS0_+0x30>
/home/silhavyj/School/ZeroMate/examples/06-LED_toggle/kernel/src/drivers/gpio.cpp:58
        return false;
    82d4:	e3a03000 	mov	r3, #0
    82d8:	ea00000c 	b	8310 <_ZNK13CGPIO_Handler18Get_GPSET_LocationEjRjS0_+0x64>
/home/silhavyj/School/ZeroMate/examples/06-LED_toggle/kernel/src/drivers/gpio.cpp:60

    reg = static_cast<uint32_t>((pin < 32) ? hal::GPIO_Reg::GPSET0 : hal::GPIO_Reg::GPSET1);
    82dc:	e51b300c 	ldr	r3, [fp, #-12]
    82e0:	e353001f 	cmp	r3, #31
    82e4:	8a000001 	bhi	82f0 <_ZNK13CGPIO_Handler18Get_GPSET_LocationEjRjS0_+0x44>
/home/silhavyj/School/ZeroMate/examples/06-LED_toggle/kernel/src/drivers/gpio.cpp:60 (discriminator 1)
    82e8:	e3a02007 	mov	r2, #7
    82ec:	ea000000 	b	82f4 <_ZNK13CGPIO_Handler18Get_GPSET_LocationEjRjS0_+0x48>
/home/silhavyj/School/ZeroMate/examples/06-LED_toggle/kernel/src/drivers/gpio.cpp:60 (discriminator 2)
    82f0:	e3a02008 	mov	r2, #8
/home/silhavyj/School/ZeroMate/examples/06-LED_toggle/kernel/src/drivers/gpio.cpp:60 (discriminator 4)
    82f4:	e51b3010 	ldr	r3, [fp, #-16]
    82f8:	e5832000 	str	r2, [r3]
/home/silhavyj/School/ZeroMate/examples/06-LED_toggle/kernel/src/drivers/gpio.cpp:61 (discriminator 4)
    bit_idx = pin % 32;
    82fc:	e51b300c 	ldr	r3, [fp, #-12]
    8300:	e203201f 	and	r2, r3, #31
    8304:	e51b3014 	ldr	r3, [fp, #-20]	; 0xffffffec
    8308:	e5832000 	str	r2, [r3]
/home/silhavyj/School/ZeroMate/examples/06-LED_toggle/kernel/src/drivers/gpio.cpp:63 (discriminator 4)

    return true;
    830c:	e3a03001 	mov	r3, #1
/home/silhavyj/School/ZeroMate/examples/06-LED_toggle/kernel/src/drivers/gpio.cpp:64
}
    8310:	e1a00003 	mov	r0, r3
    8314:	e28bd000 	add	sp, fp, #0
    8318:	e49db004 	pop	{fp}		; (ldr fp, [sp], #4)
    831c:	e12fff1e 	bx	lr

00008320 <_ZNK13CGPIO_Handler18Get_GPLEV_LocationEjRjS0_>:
_ZNK13CGPIO_Handler18Get_GPLEV_LocationEjRjS0_():
/home/silhavyj/School/ZeroMate/examples/06-LED_toggle/kernel/src/drivers/gpio.cpp:67

bool CGPIO_Handler::Get_GPLEV_Location(uint32_t pin, uint32_t& reg, uint32_t& bit_idx) const
{
    8320:	e52db004 	push	{fp}		; (str fp, [sp, #-4]!)
    8324:	e28db000 	add	fp, sp, #0
    8328:	e24dd014 	sub	sp, sp, #20
    832c:	e50b0008 	str	r0, [fp, #-8]
    8330:	e50b100c 	str	r1, [fp, #-12]
    8334:	e50b2010 	str	r2, [fp, #-16]
    8338:	e50b3014 	str	r3, [fp, #-20]	; 0xffffffec
/home/silhavyj/School/ZeroMate/examples/06-LED_toggle/kernel/src/drivers/gpio.cpp:68
    if (pin > hal::GPIO_Pin_Count)
    833c:	e51b300c 	ldr	r3, [fp, #-12]
    8340:	e3530036 	cmp	r3, #54	; 0x36
    8344:	9a000001 	bls	8350 <_ZNK13CGPIO_Handler18Get_GPLEV_LocationEjRjS0_+0x30>
/home/silhavyj/School/ZeroMate/examples/06-LED_toggle/kernel/src/drivers/gpio.cpp:69
        return false;
    8348:	e3a03000 	mov	r3, #0
    834c:	ea00000c 	b	8384 <_ZNK13CGPIO_Handler18Get_GPLEV_LocationEjRjS0_+0x64>
/home/silhavyj/School/ZeroMate/examples/06-LED_toggle/kernel/src/drivers/gpio.cpp:71

    reg = static_cast<uint32_t>((pin < 32) ? hal::GPIO_Reg::GPLEV0 : hal::GPIO_Reg::GPLEV1);
    8350:	e51b300c 	ldr	r3, [fp, #-12]
    8354:	e353001f 	cmp	r3, #31
    8358:	8a000001 	bhi	8364 <_ZNK13CGPIO_Handler18Get_GPLEV_LocationEjRjS0_+0x44>
/home/silhavyj/School/ZeroMate/examples/06-LED_toggle/kernel/src/drivers/gpio.cpp:71 (discriminator 1)
    835c:	e3a0200d 	mov	r2, #13
    8360:	ea000000 	b	8368 <_ZNK13CGPIO_Handler18Get_GPLEV_LocationEjRjS0_+0x48>
/home/silhavyj/School/ZeroMate/examples/06-LED_toggle/kernel/src/drivers/gpio.cpp:71 (discriminator 2)
    8364:	e3a0200e 	mov	r2, #14
/home/silhavyj/School/ZeroMate/examples/06-LED_toggle/kernel/src/drivers/gpio.cpp:71 (discriminator 4)
    8368:	e51b3010 	ldr	r3, [fp, #-16]
    836c:	e5832000 	str	r2, [r3]
/home/silhavyj/School/ZeroMate/examples/06-LED_toggle/kernel/src/drivers/gpio.cpp:72 (discriminator 4)
    bit_idx = pin % 32;
    8370:	e51b300c 	ldr	r3, [fp, #-12]
    8374:	e203201f 	and	r2, r3, #31
    8378:	e51b3014 	ldr	r3, [fp, #-20]	; 0xffffffec
    837c:	e5832000 	str	r2, [r3]
/home/silhavyj/School/ZeroMate/examples/06-LED_toggle/kernel/src/drivers/gpio.cpp:74 (discriminator 4)

    return true;
    8380:	e3a03001 	mov	r3, #1
/home/silhavyj/School/ZeroMate/examples/06-LED_toggle/kernel/src/drivers/gpio.cpp:75
}
    8384:	e1a00003 	mov	r0, r3
    8388:	e28bd000 	add	sp, fp, #0
    838c:	e49db004 	pop	{fp}		; (ldr fp, [sp], #4)
    8390:	e12fff1e 	bx	lr

00008394 <_ZN13CGPIO_Handler17Set_GPIO_FunctionEj14NGPIO_Function>:
_ZN13CGPIO_Handler17Set_GPIO_FunctionEj14NGPIO_Function():
/home/silhavyj/School/ZeroMate/examples/06-LED_toggle/kernel/src/drivers/gpio.cpp:78

void CGPIO_Handler::Set_GPIO_Function(uint32_t pin, NGPIO_Function func)
{
    8394:	e92d4800 	push	{fp, lr}
    8398:	e28db004 	add	fp, sp, #4
    839c:	e24dd018 	sub	sp, sp, #24
    83a0:	e50b0010 	str	r0, [fp, #-16]
    83a4:	e50b1014 	str	r1, [fp, #-20]	; 0xffffffec
    83a8:	e1a03002 	mov	r3, r2
    83ac:	e54b3015 	strb	r3, [fp, #-21]	; 0xffffffeb
/home/silhavyj/School/ZeroMate/examples/06-LED_toggle/kernel/src/drivers/gpio.cpp:80
    uint32_t reg, bit;
    if (!Get_GPFSEL_Location(pin, reg, bit))
    83b0:	e24b300c 	sub	r3, fp, #12
    83b4:	e24b2008 	sub	r2, fp, #8
    83b8:	e51b1014 	ldr	r1, [fp, #-20]	; 0xffffffec
    83bc:	e51b0010 	ldr	r0, [fp, #-16]
    83c0:	ebffff57 	bl	8124 <_ZNK13CGPIO_Handler19Get_GPFSEL_LocationEjRjS0_>
    83c4:	e1a03000 	mov	r3, r0
    83c8:	e2233001 	eor	r3, r3, #1
    83cc:	e6ef3073 	uxtb	r3, r3
    83d0:	e3530000 	cmp	r3, #0
    83d4:	1a000015 	bne	8430 <_ZN13CGPIO_Handler17Set_GPIO_FunctionEj14NGPIO_Function+0x9c>
/home/silhavyj/School/ZeroMate/examples/06-LED_toggle/kernel/src/drivers/gpio.cpp:83
        return;

    mGPIO[reg] = (mGPIO[reg] & (~static_cast<unsigned int>(7 << bit))) | (static_cast<unsigned int>(func) << bit);
    83d8:	e51b3010 	ldr	r3, [fp, #-16]
    83dc:	e5932000 	ldr	r2, [r3]
    83e0:	e51b3008 	ldr	r3, [fp, #-8]
    83e4:	e1a03103 	lsl	r3, r3, #2
    83e8:	e0823003 	add	r3, r2, r3
    83ec:	e5932000 	ldr	r2, [r3]
    83f0:	e51b300c 	ldr	r3, [fp, #-12]
    83f4:	e3a01007 	mov	r1, #7
    83f8:	e1a03311 	lsl	r3, r1, r3
    83fc:	e1e03003 	mvn	r3, r3
    8400:	e0021003 	and	r1, r2, r3
    8404:	e55b2015 	ldrb	r2, [fp, #-21]	; 0xffffffeb
    8408:	e51b300c 	ldr	r3, [fp, #-12]
    840c:	e1a02312 	lsl	r2, r2, r3
    8410:	e51b3010 	ldr	r3, [fp, #-16]
    8414:	e5930000 	ldr	r0, [r3]
    8418:	e51b3008 	ldr	r3, [fp, #-8]
    841c:	e1a03103 	lsl	r3, r3, #2
    8420:	e0803003 	add	r3, r0, r3
    8424:	e1812002 	orr	r2, r1, r2
    8428:	e5832000 	str	r2, [r3]
    842c:	ea000000 	b	8434 <_ZN13CGPIO_Handler17Set_GPIO_FunctionEj14NGPIO_Function+0xa0>
/home/silhavyj/School/ZeroMate/examples/06-LED_toggle/kernel/src/drivers/gpio.cpp:81
        return;
    8430:	e320f000 	nop	{0}
/home/silhavyj/School/ZeroMate/examples/06-LED_toggle/kernel/src/drivers/gpio.cpp:84
}
    8434:	e24bd004 	sub	sp, fp, #4
    8438:	e8bd8800 	pop	{fp, pc}

0000843c <_ZNK13CGPIO_Handler17Get_GPIO_FunctionEj>:
_ZNK13CGPIO_Handler17Get_GPIO_FunctionEj():
/home/silhavyj/School/ZeroMate/examples/06-LED_toggle/kernel/src/drivers/gpio.cpp:87

NGPIO_Function CGPIO_Handler::Get_GPIO_Function(uint32_t pin) const
{
    843c:	e92d4800 	push	{fp, lr}
    8440:	e28db004 	add	fp, sp, #4
    8444:	e24dd010 	sub	sp, sp, #16
    8448:	e50b0010 	str	r0, [fp, #-16]
    844c:	e50b1014 	str	r1, [fp, #-20]	; 0xffffffec
/home/silhavyj/School/ZeroMate/examples/06-LED_toggle/kernel/src/drivers/gpio.cpp:89
    uint32_t reg, bit;
    if (!Get_GPFSEL_Location(pin, reg, bit))
    8450:	e24b300c 	sub	r3, fp, #12
    8454:	e24b2008 	sub	r2, fp, #8
    8458:	e51b1014 	ldr	r1, [fp, #-20]	; 0xffffffec
    845c:	e51b0010 	ldr	r0, [fp, #-16]
    8460:	ebffff2f 	bl	8124 <_ZNK13CGPIO_Handler19Get_GPFSEL_LocationEjRjS0_>
    8464:	e1a03000 	mov	r3, r0
    8468:	e2233001 	eor	r3, r3, #1
    846c:	e6ef3073 	uxtb	r3, r3
    8470:	e3530000 	cmp	r3, #0
    8474:	0a000001 	beq	8480 <_ZNK13CGPIO_Handler17Get_GPIO_FunctionEj+0x44>
/home/silhavyj/School/ZeroMate/examples/06-LED_toggle/kernel/src/drivers/gpio.cpp:90
        return NGPIO_Function::Unspecified;
    8478:	e3a03008 	mov	r3, #8
    847c:	ea00000a 	b	84ac <_ZNK13CGPIO_Handler17Get_GPIO_FunctionEj+0x70>
/home/silhavyj/School/ZeroMate/examples/06-LED_toggle/kernel/src/drivers/gpio.cpp:92

    return static_cast<NGPIO_Function>((mGPIO[reg] >> bit) & 7);
    8480:	e51b3010 	ldr	r3, [fp, #-16]
    8484:	e5932000 	ldr	r2, [r3]
    8488:	e51b3008 	ldr	r3, [fp, #-8]
    848c:	e1a03103 	lsl	r3, r3, #2
    8490:	e0823003 	add	r3, r2, r3
    8494:	e5932000 	ldr	r2, [r3]
    8498:	e51b300c 	ldr	r3, [fp, #-12]
    849c:	e1a03332 	lsr	r3, r2, r3
    84a0:	e6ef3073 	uxtb	r3, r3
    84a4:	e2033007 	and	r3, r3, #7
    84a8:	e6ef3073 	uxtb	r3, r3
/home/silhavyj/School/ZeroMate/examples/06-LED_toggle/kernel/src/drivers/gpio.cpp:93 (discriminator 1)
}
    84ac:	e1a00003 	mov	r0, r3
    84b0:	e24bd004 	sub	sp, fp, #4
    84b4:	e8bd8800 	pop	{fp, pc}

000084b8 <_ZN13CGPIO_Handler10Set_OutputEjb>:
_ZN13CGPIO_Handler10Set_OutputEjb():
/home/silhavyj/School/ZeroMate/examples/06-LED_toggle/kernel/src/drivers/gpio.cpp:96

void CGPIO_Handler::Set_Output(uint32_t pin, bool set)
{
    84b8:	e92d4800 	push	{fp, lr}
    84bc:	e28db004 	add	fp, sp, #4
    84c0:	e24dd018 	sub	sp, sp, #24
    84c4:	e50b0010 	str	r0, [fp, #-16]
    84c8:	e50b1014 	str	r1, [fp, #-20]	; 0xffffffec
    84cc:	e1a03002 	mov	r3, r2
    84d0:	e54b3015 	strb	r3, [fp, #-21]	; 0xffffffeb
/home/silhavyj/School/ZeroMate/examples/06-LED_toggle/kernel/src/drivers/gpio.cpp:98
    uint32_t reg, bit;
    if (!(set && Get_GPSET_Location(pin, reg, bit)) && !(!set && Get_GPCLR_Location(pin, reg, bit)))
    84d4:	e55b3015 	ldrb	r3, [fp, #-21]	; 0xffffffeb
    84d8:	e2233001 	eor	r3, r3, #1
    84dc:	e6ef3073 	uxtb	r3, r3
    84e0:	e3530000 	cmp	r3, #0
    84e4:	1a000009 	bne	8510 <_ZN13CGPIO_Handler10Set_OutputEjb+0x58>
/home/silhavyj/School/ZeroMate/examples/06-LED_toggle/kernel/src/drivers/gpio.cpp:98 (discriminator 2)
    84e8:	e24b300c 	sub	r3, fp, #12
    84ec:	e24b2008 	sub	r2, fp, #8
    84f0:	e51b1014 	ldr	r1, [fp, #-20]	; 0xffffffec
    84f4:	e51b0010 	ldr	r0, [fp, #-16]
    84f8:	ebffff6b 	bl	82ac <_ZNK13CGPIO_Handler18Get_GPSET_LocationEjRjS0_>
    84fc:	e1a03000 	mov	r3, r0
    8500:	e2233001 	eor	r3, r3, #1
    8504:	e6ef3073 	uxtb	r3, r3
    8508:	e3530000 	cmp	r3, #0
    850c:	0a00000e 	beq	854c <_ZN13CGPIO_Handler10Set_OutputEjb+0x94>
/home/silhavyj/School/ZeroMate/examples/06-LED_toggle/kernel/src/drivers/gpio.cpp:98 (discriminator 3)
    8510:	e55b3015 	ldrb	r3, [fp, #-21]	; 0xffffffeb
    8514:	e3530000 	cmp	r3, #0
    8518:	1a000009 	bne	8544 <_ZN13CGPIO_Handler10Set_OutputEjb+0x8c>
/home/silhavyj/School/ZeroMate/examples/06-LED_toggle/kernel/src/drivers/gpio.cpp:98 (discriminator 6)
    851c:	e24b300c 	sub	r3, fp, #12
    8520:	e24b2008 	sub	r2, fp, #8
    8524:	e51b1014 	ldr	r1, [fp, #-20]	; 0xffffffec
    8528:	e51b0010 	ldr	r0, [fp, #-16]
    852c:	ebffff41 	bl	8238 <_ZNK13CGPIO_Handler18Get_GPCLR_LocationEjRjS0_>
    8530:	e1a03000 	mov	r3, r0
    8534:	e2233001 	eor	r3, r3, #1
    8538:	e6ef3073 	uxtb	r3, r3
    853c:	e3530000 	cmp	r3, #0
    8540:	0a000001 	beq	854c <_ZN13CGPIO_Handler10Set_OutputEjb+0x94>
/home/silhavyj/School/ZeroMate/examples/06-LED_toggle/kernel/src/drivers/gpio.cpp:98 (discriminator 7)
    8544:	e3a03001 	mov	r3, #1
    8548:	ea000000 	b	8550 <_ZN13CGPIO_Handler10Set_OutputEjb+0x98>
/home/silhavyj/School/ZeroMate/examples/06-LED_toggle/kernel/src/drivers/gpio.cpp:98 (discriminator 8)
    854c:	e3a03000 	mov	r3, #0
/home/silhavyj/School/ZeroMate/examples/06-LED_toggle/kernel/src/drivers/gpio.cpp:98 (discriminator 10)
    8550:	e3530000 	cmp	r3, #0
    8554:	1a00000a 	bne	8584 <_ZN13CGPIO_Handler10Set_OutputEjb+0xcc>
/home/silhavyj/School/ZeroMate/examples/06-LED_toggle/kernel/src/drivers/gpio.cpp:101
        return;

    mGPIO[reg] = (1 << bit);
    8558:	e51b300c 	ldr	r3, [fp, #-12]
    855c:	e3a02001 	mov	r2, #1
    8560:	e1a01312 	lsl	r1, r2, r3
    8564:	e51b3010 	ldr	r3, [fp, #-16]
    8568:	e5932000 	ldr	r2, [r3]
    856c:	e51b3008 	ldr	r3, [fp, #-8]
    8570:	e1a03103 	lsl	r3, r3, #2
    8574:	e0823003 	add	r3, r2, r3
    8578:	e1a02001 	mov	r2, r1
    857c:	e5832000 	str	r2, [r3]
    8580:	ea000000 	b	8588 <_ZN13CGPIO_Handler10Set_OutputEjb+0xd0>
/home/silhavyj/School/ZeroMate/examples/06-LED_toggle/kernel/src/drivers/gpio.cpp:99
        return;
    8584:	e320f000 	nop	{0}
/home/silhavyj/School/ZeroMate/examples/06-LED_toggle/kernel/src/drivers/gpio.cpp:102
}
    8588:	e24bd004 	sub	sp, fp, #4
    858c:	e8bd8800 	pop	{fp, pc}

00008590 <_Z41__static_initialization_and_destruction_0ii>:
_Z41__static_initialization_and_destruction_0ii():
/home/silhavyj/School/ZeroMate/examples/06-LED_toggle/kernel/src/drivers/gpio.cpp:102
    8590:	e92d4800 	push	{fp, lr}
    8594:	e28db004 	add	fp, sp, #4
    8598:	e24dd008 	sub	sp, sp, #8
    859c:	e50b0008 	str	r0, [fp, #-8]
    85a0:	e50b100c 	str	r1, [fp, #-12]
    85a4:	e51b3008 	ldr	r3, [fp, #-8]
    85a8:	e3530001 	cmp	r3, #1
    85ac:	1a000006 	bne	85cc <_Z41__static_initialization_and_destruction_0ii+0x3c>
/home/silhavyj/School/ZeroMate/examples/06-LED_toggle/kernel/src/drivers/gpio.cpp:102 (discriminator 1)
    85b0:	e51b300c 	ldr	r3, [fp, #-12]
    85b4:	e59f201c 	ldr	r2, [pc, #28]	; 85d8 <_Z41__static_initialization_and_destruction_0ii+0x48>
    85b8:	e1530002 	cmp	r3, r2
    85bc:	1a000002 	bne	85cc <_Z41__static_initialization_and_destruction_0ii+0x3c>
/home/silhavyj/School/ZeroMate/examples/06-LED_toggle/kernel/src/drivers/gpio.cpp:4
CGPIO_Handler sGPIO(hal::GPIO_Base);
    85c0:	e59f1014 	ldr	r1, [pc, #20]	; 85dc <_Z41__static_initialization_and_destruction_0ii+0x4c>
    85c4:	e59f0014 	ldr	r0, [pc, #20]	; 85e0 <_Z41__static_initialization_and_destruction_0ii+0x50>
    85c8:	ebfffec8 	bl	80f0 <_ZN13CGPIO_HandlerC1Ej>
/home/silhavyj/School/ZeroMate/examples/06-LED_toggle/kernel/src/drivers/gpio.cpp:102
}
    85cc:	e320f000 	nop	{0}
    85d0:	e24bd004 	sub	sp, fp, #4
    85d4:	e8bd8800 	pop	{fp, pc}
    85d8:	0000ffff 	strdeq	pc, [r0], -pc	; <UNPREDICTABLE>
    85dc:	20200000 	eorcs	r0, r0, r0
    85e0:	0000882c 	andeq	r8, r0, ip, lsr #16

000085e4 <_GLOBAL__sub_I_sGPIO>:
_GLOBAL__sub_I_sGPIO():
/home/silhavyj/School/ZeroMate/examples/06-LED_toggle/kernel/src/drivers/gpio.cpp:102
    85e4:	e92d4800 	push	{fp, lr}
    85e8:	e28db004 	add	fp, sp, #4
    85ec:	e59f1008 	ldr	r1, [pc, #8]	; 85fc <_GLOBAL__sub_I_sGPIO+0x18>
    85f0:	e3a00001 	mov	r0, #1
    85f4:	ebffffe5 	bl	8590 <_Z41__static_initialization_and_destruction_0ii>
    85f8:	e8bd8800 	pop	{fp, pc}
    85fc:	0000ffff 	strdeq	pc, [r0], -pc	; <UNPREDICTABLE>

00008600 <_kernel_main>:
_kernel_main():
/home/silhavyj/School/ZeroMate/examples/06-LED_toggle/kernel/src/main.cpp:7

// GPIO pin 47 je pripojeny na LED na desce (tzv. ACT LED)
constexpr uint32_t ACT_Pin = 47;

extern "C" int _kernel_main(void)
{
    8600:	e92d4800 	push	{fp, lr}
    8604:	e28db004 	add	fp, sp, #4
    8608:	e24dd008 	sub	sp, sp, #8
/home/silhavyj/School/ZeroMate/examples/06-LED_toggle/kernel/src/main.cpp:9
    // nastavime ACT LED pin na vystupni
    sGPIO.Set_GPIO_Function(ACT_Pin, NGPIO_Function::Output);
    860c:	e3a02001 	mov	r2, #1
    8610:	e3a0102f 	mov	r1, #47	; 0x2f
    8614:	e59f008c 	ldr	r0, [pc, #140]	; 86a8 <_kernel_main+0xa8>
    8618:	ebffff5d 	bl	8394 <_ZN13CGPIO_Handler17Set_GPIO_FunctionEj14NGPIO_Function>
/home/silhavyj/School/ZeroMate/examples/06-LED_toggle/kernel/src/main.cpp:16
    volatile unsigned int tim;

    while (1)
    {
        // spalime 500000 taktu (cekani par milisekund)
        for (tim = 0; tim < 0x5000; tim++)
    861c:	e3a03000 	mov	r3, #0
    8620:	e50b3008 	str	r3, [fp, #-8]
/home/silhavyj/School/ZeroMate/examples/06-LED_toggle/kernel/src/main.cpp:16 (discriminator 3)
    8624:	e51b3008 	ldr	r3, [fp, #-8]
    8628:	e3530a05 	cmp	r3, #20480	; 0x5000
    862c:	33a03001 	movcc	r3, #1
    8630:	23a03000 	movcs	r3, #0
    8634:	e6ef3073 	uxtb	r3, r3
    8638:	e3530000 	cmp	r3, #0
    863c:	0a000003 	beq	8650 <_kernel_main+0x50>
/home/silhavyj/School/ZeroMate/examples/06-LED_toggle/kernel/src/main.cpp:16 (discriminator 2)
    8640:	e51b3008 	ldr	r3, [fp, #-8]
    8644:	e2833001 	add	r3, r3, #1
    8648:	e50b3008 	str	r3, [fp, #-8]
    864c:	eafffff4 	b	8624 <_kernel_main+0x24>
/home/silhavyj/School/ZeroMate/examples/06-LED_toggle/kernel/src/main.cpp:20
            ;

        // zhasneme LED
        sGPIO.Set_Output(ACT_Pin, true);
    8650:	e3a02001 	mov	r2, #1
    8654:	e3a0102f 	mov	r1, #47	; 0x2f
    8658:	e59f0048 	ldr	r0, [pc, #72]	; 86a8 <_kernel_main+0xa8>
    865c:	ebffff95 	bl	84b8 <_ZN13CGPIO_Handler10Set_OutputEjb>
/home/silhavyj/School/ZeroMate/examples/06-LED_toggle/kernel/src/main.cpp:23

        // opet cekani
        for (tim = 0; tim < 0x5000; tim++)
    8660:	e3a03000 	mov	r3, #0
    8664:	e50b3008 	str	r3, [fp, #-8]
/home/silhavyj/School/ZeroMate/examples/06-LED_toggle/kernel/src/main.cpp:23 (discriminator 3)
    8668:	e51b3008 	ldr	r3, [fp, #-8]
    866c:	e3530a05 	cmp	r3, #20480	; 0x5000
    8670:	33a03001 	movcc	r3, #1
    8674:	23a03000 	movcs	r3, #0
    8678:	e6ef3073 	uxtb	r3, r3
    867c:	e3530000 	cmp	r3, #0
    8680:	0a000003 	beq	8694 <_kernel_main+0x94>
/home/silhavyj/School/ZeroMate/examples/06-LED_toggle/kernel/src/main.cpp:23 (discriminator 2)
    8684:	e51b3008 	ldr	r3, [fp, #-8]
    8688:	e2833001 	add	r3, r3, #1
    868c:	e50b3008 	str	r3, [fp, #-8]
    8690:	eafffff4 	b	8668 <_kernel_main+0x68>
/home/silhavyj/School/ZeroMate/examples/06-LED_toggle/kernel/src/main.cpp:27
            ;

        // rozsvitime LED
        sGPIO.Set_Output(ACT_Pin, false);
    8694:	e3a02000 	mov	r2, #0
    8698:	e3a0102f 	mov	r1, #47	; 0x2f
    869c:	e59f0004 	ldr	r0, [pc, #4]	; 86a8 <_kernel_main+0xa8>
    86a0:	ebffff84 	bl	84b8 <_ZN13CGPIO_Handler10Set_OutputEjb>
/home/silhavyj/School/ZeroMate/examples/06-LED_toggle/kernel/src/main.cpp:16
        for (tim = 0; tim < 0x5000; tim++)
    86a4:	eaffffdc 	b	861c <_kernel_main+0x1c>
    86a8:	0000882c 	andeq	r8, r0, ip, lsr #16

000086ac <_c_startup>:
_c_startup():
/home/silhavyj/School/ZeroMate/examples/06-LED_toggle/kernel/src/startup.cpp:21
extern "C" dtor_ptr __DTOR_LIST__[0];
// konec pole destruktoru
extern "C" dtor_ptr __DTOR_END__[0];

extern "C" int _c_startup(void)
{
    86ac:	e52db004 	push	{fp}		; (str fp, [sp, #-4]!)
    86b0:	e28db000 	add	fp, sp, #0
    86b4:	e24dd00c 	sub	sp, sp, #12
/home/silhavyj/School/ZeroMate/examples/06-LED_toggle/kernel/src/startup.cpp:25
    int* i;

    // vynulujeme .bss sekci
    for (i = (int*)_bss_start; i < (int*)_bss_end; i++)
    86b8:	e59f304c 	ldr	r3, [pc, #76]	; 870c <_c_startup+0x60>
    86bc:	e5933000 	ldr	r3, [r3]
    86c0:	e50b3008 	str	r3, [fp, #-8]
/home/silhavyj/School/ZeroMate/examples/06-LED_toggle/kernel/src/startup.cpp:25 (discriminator 3)
    86c4:	e59f3044 	ldr	r3, [pc, #68]	; 8710 <_c_startup+0x64>
    86c8:	e5933000 	ldr	r3, [r3]
    86cc:	e1a02003 	mov	r2, r3
    86d0:	e51b3008 	ldr	r3, [fp, #-8]
    86d4:	e1530002 	cmp	r3, r2
    86d8:	2a000006 	bcs	86f8 <_c_startup+0x4c>
/home/silhavyj/School/ZeroMate/examples/06-LED_toggle/kernel/src/startup.cpp:26 (discriminator 2)
        *i = 0;
    86dc:	e51b3008 	ldr	r3, [fp, #-8]
    86e0:	e3a02000 	mov	r2, #0
    86e4:	e5832000 	str	r2, [r3]
/home/silhavyj/School/ZeroMate/examples/06-LED_toggle/kernel/src/startup.cpp:25 (discriminator 2)
    for (i = (int*)_bss_start; i < (int*)_bss_end; i++)
    86e8:	e51b3008 	ldr	r3, [fp, #-8]
    86ec:	e2833004 	add	r3, r3, #4
    86f0:	e50b3008 	str	r3, [fp, #-8]
    86f4:	eafffff2 	b	86c4 <_c_startup+0x18>
/home/silhavyj/School/ZeroMate/examples/06-LED_toggle/kernel/src/startup.cpp:28

    return 0;
    86f8:	e3a03000 	mov	r3, #0
/home/silhavyj/School/ZeroMate/examples/06-LED_toggle/kernel/src/startup.cpp:29
}
    86fc:	e1a00003 	mov	r0, r3
    8700:	e28bd000 	add	sp, fp, #0
    8704:	e49db004 	pop	{fp}		; (ldr fp, [sp], #4)
    8708:	e12fff1e 	bx	lr
    870c:	0000882c 	andeq	r8, r0, ip, lsr #16
    8710:	00008840 	andeq	r8, r0, r0, asr #16

00008714 <_cpp_startup>:
_cpp_startup():
/home/silhavyj/School/ZeroMate/examples/06-LED_toggle/kernel/src/startup.cpp:32

extern "C" int _cpp_startup(void)
{
    8714:	e92d4800 	push	{fp, lr}
    8718:	e28db004 	add	fp, sp, #4
    871c:	e24dd008 	sub	sp, sp, #8
/home/silhavyj/School/ZeroMate/examples/06-LED_toggle/kernel/src/startup.cpp:37
    ctor_ptr* fnptr;

    // zavolame konstruktory globalnich C++ trid
    // v poli __CTOR_LIST__ jsou ukazatele na vygenerovane stuby volani konstruktoru
    for (fnptr = __CTOR_LIST__; fnptr < __CTOR_END__; fnptr++)
    8720:	e59f303c 	ldr	r3, [pc, #60]	; 8764 <_cpp_startup+0x50>
    8724:	e50b3008 	str	r3, [fp, #-8]
/home/silhavyj/School/ZeroMate/examples/06-LED_toggle/kernel/src/startup.cpp:37 (discriminator 3)
    8728:	e51b3008 	ldr	r3, [fp, #-8]
    872c:	e59f2034 	ldr	r2, [pc, #52]	; 8768 <_cpp_startup+0x54>
    8730:	e1530002 	cmp	r3, r2
    8734:	2a000006 	bcs	8754 <_cpp_startup+0x40>
/home/silhavyj/School/ZeroMate/examples/06-LED_toggle/kernel/src/startup.cpp:38 (discriminator 2)
        (*fnptr)();
    8738:	e51b3008 	ldr	r3, [fp, #-8]
    873c:	e5933000 	ldr	r3, [r3]
    8740:	e12fff33 	blx	r3
/home/silhavyj/School/ZeroMate/examples/06-LED_toggle/kernel/src/startup.cpp:37 (discriminator 2)
    for (fnptr = __CTOR_LIST__; fnptr < __CTOR_END__; fnptr++)
    8744:	e51b3008 	ldr	r3, [fp, #-8]
    8748:	e2833004 	add	r3, r3, #4
    874c:	e50b3008 	str	r3, [fp, #-8]
    8750:	eafffff4 	b	8728 <_cpp_startup+0x14>
/home/silhavyj/School/ZeroMate/examples/06-LED_toggle/kernel/src/startup.cpp:40

    return 0;
    8754:	e3a03000 	mov	r3, #0
/home/silhavyj/School/ZeroMate/examples/06-LED_toggle/kernel/src/startup.cpp:41
}
    8758:	e1a00003 	mov	r0, r3
    875c:	e24bd004 	sub	sp, fp, #4
    8760:	e8bd8800 	pop	{fp, pc}
    8764:	00008828 	andeq	r8, r0, r8, lsr #16
    8768:	0000882c 	andeq	r8, r0, ip, lsr #16

0000876c <_cpp_shutdown>:
_cpp_shutdown():
/home/silhavyj/School/ZeroMate/examples/06-LED_toggle/kernel/src/startup.cpp:44

extern "C" int _cpp_shutdown(void)
{
    876c:	e92d4800 	push	{fp, lr}
    8770:	e28db004 	add	fp, sp, #4
    8774:	e24dd008 	sub	sp, sp, #8
/home/silhavyj/School/ZeroMate/examples/06-LED_toggle/kernel/src/startup.cpp:48
    dtor_ptr* fnptr;

    // zavolame destruktory globalnich C++ trid
    for (fnptr = __DTOR_LIST__; fnptr < __DTOR_END__; fnptr++)
    8778:	e59f303c 	ldr	r3, [pc, #60]	; 87bc <_cpp_shutdown+0x50>
    877c:	e50b3008 	str	r3, [fp, #-8]
/home/silhavyj/School/ZeroMate/examples/06-LED_toggle/kernel/src/startup.cpp:48 (discriminator 3)
    8780:	e51b3008 	ldr	r3, [fp, #-8]
    8784:	e59f2034 	ldr	r2, [pc, #52]	; 87c0 <_cpp_shutdown+0x54>
    8788:	e1530002 	cmp	r3, r2
    878c:	2a000006 	bcs	87ac <_cpp_shutdown+0x40>
/home/silhavyj/School/ZeroMate/examples/06-LED_toggle/kernel/src/startup.cpp:49 (discriminator 2)
        (*fnptr)();
    8790:	e51b3008 	ldr	r3, [fp, #-8]
    8794:	e5933000 	ldr	r3, [r3]
    8798:	e12fff33 	blx	r3
/home/silhavyj/School/ZeroMate/examples/06-LED_toggle/kernel/src/startup.cpp:48 (discriminator 2)
    for (fnptr = __DTOR_LIST__; fnptr < __DTOR_END__; fnptr++)
    879c:	e51b3008 	ldr	r3, [fp, #-8]
    87a0:	e2833004 	add	r3, r3, #4
    87a4:	e50b3008 	str	r3, [fp, #-8]
    87a8:	eafffff4 	b	8780 <_cpp_shutdown+0x14>
/home/silhavyj/School/ZeroMate/examples/06-LED_toggle/kernel/src/startup.cpp:51

    return 0;
    87ac:	e3a03000 	mov	r3, #0
/home/silhavyj/School/ZeroMate/examples/06-LED_toggle/kernel/src/startup.cpp:52
}
    87b0:	e1a00003 	mov	r0, r3
    87b4:	e24bd004 	sub	sp, fp, #4
    87b8:	e8bd8800 	pop	{fp, pc}
    87bc:	0000882c 	andeq	r8, r0, ip, lsr #16
    87c0:	0000882c 	andeq	r8, r0, ip, lsr #16
