
./kernel:     file format elf32-littlearm


Disassembly of section .text:

00008000 <_start>:
_start():
/mnt/c/Users/Kuba/Documents/ZeroMate/examples/19-I2C/kernel/src/start.s:14
	;@	- sem skoci bootloader, prvni na co narazi je "ldr pc, _reset_ptr" -> tedy se chova jako kdyby slo o reset a skoci na zacatek provadeni
	;@	- v cele svoji krase (vsechny "ldr" instrukce) slouzi jako predloha skutecne tabulce vektoru preruseni
	;@ na dany offset procesor skoci, kdyz je vyvolano libovolne preruseni
	;@ ARM nastavuje rovnou registr PC na tuto adresu, tzn. na teto adrese musi byt kodovana 4B instrukce skoku nekam jinam
	;@ oproti tomu napr. x86 (x86_64) obsahuje v tabulce rovnou adresu a procesor nastavuje PC (CS:IP) na adresu kterou najde v tabulce
	ldr pc, _reset_ptr						;@ 0x00 - reset - vyvolano pri resetu procesoru
    8000:	e59ff018 	ldr	pc, [pc, #24]	; 8020 <_reset_ptr>
/mnt/c/Users/Kuba/Documents/ZeroMate/examples/19-I2C/kernel/src/start.s:15
	ldr pc, _undefined_instruction_ptr		;@ 0x04 - undefined instruction - vyjimka, vyvolana pri dekodovani nezname instrukce
    8004:	e59ff018 	ldr	pc, [pc, #24]	; 8024 <_undefined_instruction_ptr>
/mnt/c/Users/Kuba/Documents/ZeroMate/examples/19-I2C/kernel/src/start.s:16
	ldr pc, _software_interrupt_ptr			;@ 0x08 - software interrupt - vyvolano, kdyz procesor provede instrukci swi
    8008:	e59ff018 	ldr	pc, [pc, #24]	; 8028 <_software_interrupt_ptr>
/mnt/c/Users/Kuba/Documents/ZeroMate/examples/19-I2C/kernel/src/start.s:17
	ldr pc, _prefetch_abort_ptr				;@ 0x0C - prefetch abort - vyvolano, kdyz se procesor snazi napr. nacist instrukci z mista, odkud nacist nejde
    800c:	e59ff018 	ldr	pc, [pc, #24]	; 802c <_prefetch_abort_ptr>
/mnt/c/Users/Kuba/Documents/ZeroMate/examples/19-I2C/kernel/src/start.s:18
	ldr pc, _data_abort_ptr					;@ 0x10 - data abort - vyvolano, kdyz se procesor snazi napr. nacist data z mista, odkud nacist nejdou
    8010:	e59ff018 	ldr	pc, [pc, #24]	; 8030 <_data_abort_ptr>
/mnt/c/Users/Kuba/Documents/ZeroMate/examples/19-I2C/kernel/src/start.s:19
	ldr pc, _unused_handler_ptr				;@ 0x14 - unused - ve specifikaci ARM neni uvedeno zadne vyuziti
    8014:	e59ff018 	ldr	pc, [pc, #24]	; 8034 <_unused_handler_ptr>
/mnt/c/Users/Kuba/Documents/ZeroMate/examples/19-I2C/kernel/src/start.s:20
	ldr pc, _irq_ptr						;@ 0x18 - IRQ - hardwarove preruseni (general purpose)
    8018:	e59ff018 	ldr	pc, [pc, #24]	; 8038 <_irq_ptr>
/mnt/c/Users/Kuba/Documents/ZeroMate/examples/19-I2C/kernel/src/start.s:21
	ldr pc, _fast_interrupt_ptr				;@ 0x1C - fast interrupt request - prioritni IRQ pro vysokorychlostni zalezitosti
    801c:	e59ff018 	ldr	pc, [pc, #24]	; 803c <_fast_interrupt_ptr>

00008020 <_reset_ptr>:
_reset_ptr():
/mnt/c/Users/Kuba/Documents/ZeroMate/examples/19-I2C/kernel/src/start.s:21
    8020:	00008040 	andeq	r8, r0, r0, asr #32

00008024 <_undefined_instruction_ptr>:
_undefined_instruction_ptr():
/mnt/c/Users/Kuba/Documents/ZeroMate/examples/19-I2C/kernel/src/start.s:21
    8024:	0000eb9c 	muleq	r0, ip, fp

00008028 <_software_interrupt_ptr>:
_software_interrupt_ptr():
/mnt/c/Users/Kuba/Documents/ZeroMate/examples/19-I2C/kernel/src/start.s:21
    8028:	0000eba0 	andeq	lr, r0, r0, lsr #23

0000802c <_prefetch_abort_ptr>:
_prefetch_abort_ptr():
/mnt/c/Users/Kuba/Documents/ZeroMate/examples/19-I2C/kernel/src/start.s:21
    802c:	0000ebe8 	andeq	lr, r0, r8, ror #23

00008030 <_data_abort_ptr>:
_data_abort_ptr():
/mnt/c/Users/Kuba/Documents/ZeroMate/examples/19-I2C/kernel/src/start.s:21
    8030:	0000ebec 	andeq	lr, r0, ip, ror #23

00008034 <_unused_handler_ptr>:
_unused_handler_ptr():
/mnt/c/Users/Kuba/Documents/ZeroMate/examples/19-I2C/kernel/src/start.s:21
    8034:	00008040 	andeq	r8, r0, r0, asr #32

00008038 <_irq_ptr>:
_irq_ptr():
/mnt/c/Users/Kuba/Documents/ZeroMate/examples/19-I2C/kernel/src/start.s:21
    8038:	0000ebc0 	andeq	lr, r0, r0, asr #23

0000803c <_fast_interrupt_ptr>:
_fast_interrupt_ptr():
/mnt/c/Users/Kuba/Documents/ZeroMate/examples/19-I2C/kernel/src/start.s:21
    803c:	0000d62c 	andeq	sp, r0, ip, lsr #12

00008040 <_reset>:
_reset():
/mnt/c/Users/Kuba/Documents/ZeroMate/examples/19-I2C/kernel/src/start.s:52


;@ kernel reset vektor - tento kod se vykona pri kazdem resetu zarizeni (i prvnim spusteni)
_reset:
	;@ nacteni tabulky vektoru preruseni do pameti
	mov r0, #0x8000			;@ adresa 0x8000 (_start) do r0
    8040:	e3a00902 	mov	r0, #32768	; 0x8000
/mnt/c/Users/Kuba/Documents/ZeroMate/examples/19-I2C/kernel/src/start.s:53
    mov r1, #0x0000			;@ adresa 0x0000 (pocatek RAM) do r1 - tam budeme vkladat tabulku vektoru preruseni
    8044:	e3a01000 	mov	r1, #0
/mnt/c/Users/Kuba/Documents/ZeroMate/examples/19-I2C/kernel/src/start.s:57

	;@ Thumb instrukce - nacteni 4B slov z pameti ulozene v r0 (0x8000) do registru r2, 3, ... 9
	;@                 - ulozeni obsahu registru r2, 3, ... 9 do pameti ulozene v registru r1 (0x0000)
    ldmia r0!,{r2, r3, r4, r5, r6, r7, r8, r9}
    8048:	e8b003fc 	ldm	r0!, {r2, r3, r4, r5, r6, r7, r8, r9}
/mnt/c/Users/Kuba/Documents/ZeroMate/examples/19-I2C/kernel/src/start.s:58
    stmia r1!,{r2, r3, r4, r5, r6, r7, r8, r9}
    804c:	e8a103fc 	stmia	r1!, {r2, r3, r4, r5, r6, r7, r8, r9}
/mnt/c/Users/Kuba/Documents/ZeroMate/examples/19-I2C/kernel/src/start.s:59
    ldmia r0!,{r2, r3, r4, r5, r6, r7, r8, r9}
    8050:	e8b003fc 	ldm	r0!, {r2, r3, r4, r5, r6, r7, r8, r9}
/mnt/c/Users/Kuba/Documents/ZeroMate/examples/19-I2C/kernel/src/start.s:60
    stmia r1!,{r2, r3, r4, r5, r6, r7, r8, r9}
    8054:	e8a103fc 	stmia	r1!, {r2, r3, r4, r5, r6, r7, r8, r9}
/mnt/c/Users/Kuba/Documents/ZeroMate/examples/19-I2C/kernel/src/start.s:63

	;@ baze pro systemove zasobniky
	mov r4, #0x0
    8058:	e3a04000 	mov	r4, #0
/mnt/c/Users/Kuba/Documents/ZeroMate/examples/19-I2C/kernel/src/start.s:66

	;@ nejdrive supervisor mod a jeho stack
    mov r0, #(CPSR_MODE_SVR | CPSR_IRQ_INHIBIT | CPSR_FIQ_INHIBIT)
    805c:	e3a000d3 	mov	r0, #211	; 0xd3
/mnt/c/Users/Kuba/Documents/ZeroMate/examples/19-I2C/kernel/src/start.s:67
    msr cpsr_c, r0
    8060:	e121f000 	msr	CPSR_c, r0
/mnt/c/Users/Kuba/Documents/ZeroMate/examples/19-I2C/kernel/src/start.s:68
	add sp, r4, #0x8000
    8064:	e284d902 	add	sp, r4, #32768	; 0x8000
/mnt/c/Users/Kuba/Documents/ZeroMate/examples/19-I2C/kernel/src/start.s:71

	;@ na moment se prepneme do IRQ rezimu, nastavime mu stack pointer
	mov r0, #(CPSR_MODE_IRQ | CPSR_IRQ_INHIBIT | CPSR_FIQ_INHIBIT)
    8068:	e3a000d2 	mov	r0, #210	; 0xd2
/mnt/c/Users/Kuba/Documents/ZeroMate/examples/19-I2C/kernel/src/start.s:72
    msr cpsr_c, r0
    806c:	e121f000 	msr	CPSR_c, r0
/mnt/c/Users/Kuba/Documents/ZeroMate/examples/19-I2C/kernel/src/start.s:73
	add sp, r4, #0x7000
    8070:	e284da07 	add	sp, r4, #28672	; 0x7000
/mnt/c/Users/Kuba/Documents/ZeroMate/examples/19-I2C/kernel/src/start.s:76

	;@ na moment se prepneme do FIQ rezimu, nastavime mu stack pointer
	mov r0, #(CPSR_MODE_FIQ | CPSR_IRQ_INHIBIT | CPSR_FIQ_INHIBIT)
    8074:	e3a000d1 	mov	r0, #209	; 0xd1
/mnt/c/Users/Kuba/Documents/ZeroMate/examples/19-I2C/kernel/src/start.s:77
    msr cpsr_c, r0
    8078:	e121f000 	msr	CPSR_c, r0
/mnt/c/Users/Kuba/Documents/ZeroMate/examples/19-I2C/kernel/src/start.s:78
	add sp, r4, #0x6000
    807c:	e284da06 	add	sp, r4, #24576	; 0x6000
/mnt/c/Users/Kuba/Documents/ZeroMate/examples/19-I2C/kernel/src/start.s:81

	;@ nakonec system mod a stack
    mov r0, #(CPSR_MODE_SYS | CPSR_IRQ_INHIBIT | CPSR_FIQ_INHIBIT)
    8080:	e3a000df 	mov	r0, #223	; 0xdf
/mnt/c/Users/Kuba/Documents/ZeroMate/examples/19-I2C/kernel/src/start.s:82
    msr cpsr_c, r0
    8084:	e121f000 	msr	CPSR_c, r0
/mnt/c/Users/Kuba/Documents/ZeroMate/examples/19-I2C/kernel/src/start.s:83
	add sp, r4, #0x5000
    8088:	e284da05 	add	sp, r4, #20480	; 0x5000
/mnt/c/Users/Kuba/Documents/ZeroMate/examples/19-I2C/kernel/src/start.s:86

	;@ zapneme nezarovnany pristup do pameti (nemusi byt zadouci, ale pro nase potreby je to v poradku)
	mrc p15, #0, r4, c1, c0, #0
    808c:	ee114f10 	mrc	15, 0, r4, cr1, cr0, {0}
/mnt/c/Users/Kuba/Documents/ZeroMate/examples/19-I2C/kernel/src/start.s:87
	orr r4, #0x400000
    8090:	e3844501 	orr	r4, r4, #4194304	; 0x400000
/mnt/c/Users/Kuba/Documents/ZeroMate/examples/19-I2C/kernel/src/start.s:88
	mcr p15, #0, r4, c1, c0, #0
    8094:	ee014f10 	mcr	15, 0, r4, cr1, cr0, {0}
/mnt/c/Users/Kuba/Documents/ZeroMate/examples/19-I2C/kernel/src/start.s:90

	bl _c_startup			;@ C startup kod (inicializace prostredi)
    8098:	eb001ad4 	bl	ebf0 <_c_startup>
/mnt/c/Users/Kuba/Documents/ZeroMate/examples/19-I2C/kernel/src/start.s:91
	bl _cpp_startup			;@ C++ startup kod (volani globalnich konstruktoru, ...)
    809c:	eb001aed 	bl	ec58 <_cpp_startup>
/mnt/c/Users/Kuba/Documents/ZeroMate/examples/19-I2C/kernel/src/start.s:92
	bl _kernel_main			;@ skocime do hlavniho kodu jadra (v C)
    80a0:	eb0015ed 	bl	d85c <_kernel_main>
/mnt/c/Users/Kuba/Documents/ZeroMate/examples/19-I2C/kernel/src/start.s:93
	bl _cpp_shutdown		;@ C++ shutdown kod (volani globalnich destruktoru, ...)
    80a4:	eb001b01 	bl	ecb0 <_cpp_shutdown>

000080a8 <hang>:
hang():
/mnt/c/Users/Kuba/Documents/ZeroMate/examples/19-I2C/kernel/src/start.s:95
hang:
	b hang
    80a8:	eafffffe 	b	80a8 <hang>

000080ac <__cxa_guard_acquire>:
__cxa_guard_acquire():
/mnt/c/Users/Kuba/Documents/ZeroMate/examples/19-I2C/kernel/src/cxx.cpp:11
    extern "C" int __cxa_guard_acquire(__guard*);
    extern "C" void __cxa_guard_release(__guard*);
    extern "C" void __cxa_guard_abort(__guard*);

    extern "C" int __cxa_guard_acquire(__guard* g)
    {
    80ac:	e52db004 	push	{fp}		; (str fp, [sp, #-4]!)
    80b0:	e28db000 	add	fp, sp, #0
    80b4:	e24dd00c 	sub	sp, sp, #12
    80b8:	e50b0008 	str	r0, [fp, #-8]
/mnt/c/Users/Kuba/Documents/ZeroMate/examples/19-I2C/kernel/src/cxx.cpp:12
        return !*(char*)(g);
    80bc:	e51b3008 	ldr	r3, [fp, #-8]
    80c0:	e5d33000 	ldrb	r3, [r3]
    80c4:	e3530000 	cmp	r3, #0
    80c8:	03a03001 	moveq	r3, #1
    80cc:	13a03000 	movne	r3, #0
    80d0:	e6ef3073 	uxtb	r3, r3
/mnt/c/Users/Kuba/Documents/ZeroMate/examples/19-I2C/kernel/src/cxx.cpp:13
    }
    80d4:	e1a00003 	mov	r0, r3
    80d8:	e28bd000 	add	sp, fp, #0
    80dc:	e49db004 	pop	{fp}		; (ldr fp, [sp], #4)
    80e0:	e12fff1e 	bx	lr

000080e4 <__cxa_guard_release>:
__cxa_guard_release():
/mnt/c/Users/Kuba/Documents/ZeroMate/examples/19-I2C/kernel/src/cxx.cpp:16

    extern "C" void __cxa_guard_release(__guard* g)
    {
    80e4:	e52db004 	push	{fp}		; (str fp, [sp, #-4]!)
    80e8:	e28db000 	add	fp, sp, #0
    80ec:	e24dd00c 	sub	sp, sp, #12
    80f0:	e50b0008 	str	r0, [fp, #-8]
/mnt/c/Users/Kuba/Documents/ZeroMate/examples/19-I2C/kernel/src/cxx.cpp:17
        *(char*)g = 1;
    80f4:	e51b3008 	ldr	r3, [fp, #-8]
    80f8:	e3a02001 	mov	r2, #1
    80fc:	e5c32000 	strb	r2, [r3]
/mnt/c/Users/Kuba/Documents/ZeroMate/examples/19-I2C/kernel/src/cxx.cpp:18
    }
    8100:	e320f000 	nop	{0}
    8104:	e28bd000 	add	sp, fp, #0
    8108:	e49db004 	pop	{fp}		; (ldr fp, [sp], #4)
    810c:	e12fff1e 	bx	lr

00008110 <__cxa_guard_abort>:
__cxa_guard_abort():
/mnt/c/Users/Kuba/Documents/ZeroMate/examples/19-I2C/kernel/src/cxx.cpp:21

    extern "C" void __cxa_guard_abort(__guard*)
    {
    8110:	e52db004 	push	{fp}		; (str fp, [sp, #-4]!)
    8114:	e28db000 	add	fp, sp, #0
    8118:	e24dd00c 	sub	sp, sp, #12
    811c:	e50b0008 	str	r0, [fp, #-8]
/mnt/c/Users/Kuba/Documents/ZeroMate/examples/19-I2C/kernel/src/cxx.cpp:22
    }
    8120:	e320f000 	nop	{0}
    8124:	e28bd000 	add	sp, fp, #0
    8128:	e49db004 	pop	{fp}		; (ldr fp, [sp], #4)
    812c:	e12fff1e 	bx	lr

00008130 <__dso_handle>:
__dso_handle():
/mnt/c/Users/Kuba/Documents/ZeroMate/examples/19-I2C/kernel/src/cxx.cpp:26
}

extern "C" void __dso_handle()
{
    8130:	e52db004 	push	{fp}		; (str fp, [sp, #-4]!)
    8134:	e28db000 	add	fp, sp, #0
/mnt/c/Users/Kuba/Documents/ZeroMate/examples/19-I2C/kernel/src/cxx.cpp:28
    // ignore dtors for now
}
    8138:	e320f000 	nop	{0}
    813c:	e28bd000 	add	sp, fp, #0
    8140:	e49db004 	pop	{fp}		; (ldr fp, [sp], #4)
    8144:	e12fff1e 	bx	lr

00008148 <__cxa_atexit>:
__cxa_atexit():
/mnt/c/Users/Kuba/Documents/ZeroMate/examples/19-I2C/kernel/src/cxx.cpp:31

extern "C" void __cxa_atexit()
{
    8148:	e52db004 	push	{fp}		; (str fp, [sp, #-4]!)
    814c:	e28db000 	add	fp, sp, #0
/mnt/c/Users/Kuba/Documents/ZeroMate/examples/19-I2C/kernel/src/cxx.cpp:33
    // ignore dtors for now
}
    8150:	e320f000 	nop	{0}
    8154:	e28bd000 	add	sp, fp, #0
    8158:	e49db004 	pop	{fp}		; (ldr fp, [sp], #4)
    815c:	e12fff1e 	bx	lr

00008160 <__cxa_pure_virtual>:
__cxa_pure_virtual():
/mnt/c/Users/Kuba/Documents/ZeroMate/examples/19-I2C/kernel/src/cxx.cpp:36

extern "C" void __cxa_pure_virtual()
{
    8160:	e52db004 	push	{fp}		; (str fp, [sp, #-4]!)
    8164:	e28db000 	add	fp, sp, #0
/mnt/c/Users/Kuba/Documents/ZeroMate/examples/19-I2C/kernel/src/cxx.cpp:38
    // pure virtual method called
}
    8168:	e320f000 	nop	{0}
    816c:	e28bd000 	add	sp, fp, #0
    8170:	e49db004 	pop	{fp}		; (ldr fp, [sp], #4)
    8174:	e12fff1e 	bx	lr

00008178 <__aeabi_unwind_cpp_pr1>:
__aeabi_unwind_cpp_pr1():
/mnt/c/Users/Kuba/Documents/ZeroMate/examples/19-I2C/kernel/src/cxx.cpp:41

extern "C" void __aeabi_unwind_cpp_pr1()
{
    8178:	e52db004 	push	{fp}		; (str fp, [sp, #-4]!)
    817c:	e28db000 	add	fp, sp, #0
/mnt/c/Users/Kuba/Documents/ZeroMate/examples/19-I2C/kernel/src/cxx.cpp:42 (discriminator 1)
    while (true)
    8180:	eafffffe 	b	8180 <__aeabi_unwind_cpp_pr1+0x8>

00008184 <_ZN13CGPIO_HandlerC1Ej>:
_ZN13CGPIO_HandlerC2Ej():
/mnt/c/Users/Kuba/Documents/ZeroMate/examples/19-I2C/kernel/src/drivers/gpio.cpp:8

#include <stdstring.h>

CGPIO_Handler sGPIO(hal::GPIO_Base);

CGPIO_Handler::CGPIO_Handler(unsigned int gpio_base_addr)
    8184:	e92d4800 	push	{fp, lr}
    8188:	e28db004 	add	fp, sp, #4
    818c:	e24dd008 	sub	sp, sp, #8
    8190:	e50b0008 	str	r0, [fp, #-8]
    8194:	e50b100c 	str	r1, [fp, #-12]
/mnt/c/Users/Kuba/Documents/ZeroMate/examples/19-I2C/kernel/src/drivers/gpio.cpp:9
: mGPIO(reinterpret_cast<unsigned int*>(gpio_base_addr))
    8198:	e51b200c 	ldr	r2, [fp, #-12]
    819c:	e51b3008 	ldr	r3, [fp, #-8]
    81a0:	e5832000 	str	r2, [r3]
/mnt/c/Users/Kuba/Documents/ZeroMate/examples/19-I2C/kernel/src/drivers/gpio.cpp:11
{
    bzero(&mPin_Reservations_Read, sizeof(mPin_Reservations_Read));
    81a4:	e51b3008 	ldr	r3, [fp, #-8]
    81a8:	e2833004 	add	r3, r3, #4
    81ac:	e3a01008 	mov	r1, #8
    81b0:	e1a00003 	mov	r0, r3
    81b4:	eb001d7f 	bl	f7b8 <_Z5bzeroPvi>
/mnt/c/Users/Kuba/Documents/ZeroMate/examples/19-I2C/kernel/src/drivers/gpio.cpp:12
    bzero(&mPin_Reservations_Write, sizeof(mPin_Reservations_Write));
    81b8:	e51b3008 	ldr	r3, [fp, #-8]
    81bc:	e283300c 	add	r3, r3, #12
    81c0:	e3a01008 	mov	r1, #8
    81c4:	e1a00003 	mov	r0, r3
    81c8:	eb001d7a 	bl	f7b8 <_Z5bzeroPvi>
/mnt/c/Users/Kuba/Documents/ZeroMate/examples/19-I2C/kernel/src/drivers/gpio.cpp:13
}
    81cc:	e51b3008 	ldr	r3, [fp, #-8]
    81d0:	e1a00003 	mov	r0, r3
    81d4:	e24bd004 	sub	sp, fp, #4
    81d8:	e8bd8800 	pop	{fp, pc}

000081dc <_ZNK13CGPIO_Handler19Get_GPFSEL_LocationEjRjS0_>:
_ZNK13CGPIO_Handler19Get_GPFSEL_LocationEjRjS0_():
/mnt/c/Users/Kuba/Documents/ZeroMate/examples/19-I2C/kernel/src/drivers/gpio.cpp:16

bool CGPIO_Handler::Get_GPFSEL_Location(uint32_t pin, uint32_t& reg, uint32_t& bit_idx) const
{
    81dc:	e52db004 	push	{fp}		; (str fp, [sp, #-4]!)
    81e0:	e28db000 	add	fp, sp, #0
    81e4:	e24dd014 	sub	sp, sp, #20
    81e8:	e50b0008 	str	r0, [fp, #-8]
    81ec:	e50b100c 	str	r1, [fp, #-12]
    81f0:	e50b2010 	str	r2, [fp, #-16]
    81f4:	e50b3014 	str	r3, [fp, #-20]	; 0xffffffec
/mnt/c/Users/Kuba/Documents/ZeroMate/examples/19-I2C/kernel/src/drivers/gpio.cpp:17
    if (pin > hal::GPIO_Pin_Count)
    81f8:	e51b300c 	ldr	r3, [fp, #-12]
    81fc:	e3530036 	cmp	r3, #54	; 0x36
    8200:	9a000001 	bls	820c <_ZNK13CGPIO_Handler19Get_GPFSEL_LocationEjRjS0_+0x30>
/mnt/c/Users/Kuba/Documents/ZeroMate/examples/19-I2C/kernel/src/drivers/gpio.cpp:18
        return false;
    8204:	e3a03000 	mov	r3, #0
    8208:	ea000014 	b	8260 <_ZNK13CGPIO_Handler19Get_GPFSEL_LocationEjRjS0_+0x84>
/mnt/c/Users/Kuba/Documents/ZeroMate/examples/19-I2C/kernel/src/drivers/gpio.cpp:20

    reg = pin / 10;
    820c:	e51b300c 	ldr	r3, [fp, #-12]
    8210:	e59f2058 	ldr	r2, [pc, #88]	; 8270 <_ZNK13CGPIO_Handler19Get_GPFSEL_LocationEjRjS0_+0x94>
    8214:	e0832392 	umull	r2, r3, r2, r3
    8218:	e1a021a3 	lsr	r2, r3, #3
    821c:	e51b3010 	ldr	r3, [fp, #-16]
    8220:	e5832000 	str	r2, [r3]
/mnt/c/Users/Kuba/Documents/ZeroMate/examples/19-I2C/kernel/src/drivers/gpio.cpp:31
            case 3: reg = static_cast<uint32_t>(hal::GPIO_Reg::GPFSEL3); break;
            case 4: reg = static_cast<uint32_t>(hal::GPIO_Reg::GPFSEL4); break;
            case 5: reg = static_cast<uint32_t>(hal::GPIO_Reg::GPFSEL5); break;
    }*/

    bit_idx = (pin % 10) * 3;
    8224:	e51b100c 	ldr	r1, [fp, #-12]
    8228:	e59f3040 	ldr	r3, [pc, #64]	; 8270 <_ZNK13CGPIO_Handler19Get_GPFSEL_LocationEjRjS0_+0x94>
    822c:	e0832193 	umull	r2, r3, r3, r1
    8230:	e1a021a3 	lsr	r2, r3, #3
    8234:	e1a03002 	mov	r3, r2
    8238:	e1a03103 	lsl	r3, r3, #2
    823c:	e0833002 	add	r3, r3, r2
    8240:	e1a03083 	lsl	r3, r3, #1
    8244:	e0412003 	sub	r2, r1, r3
    8248:	e1a03002 	mov	r3, r2
    824c:	e1a03083 	lsl	r3, r3, #1
    8250:	e0832002 	add	r2, r3, r2
    8254:	e51b3014 	ldr	r3, [fp, #-20]	; 0xffffffec
    8258:	e5832000 	str	r2, [r3]
/mnt/c/Users/Kuba/Documents/ZeroMate/examples/19-I2C/kernel/src/drivers/gpio.cpp:33

    return true;
    825c:	e3a03001 	mov	r3, #1
/mnt/c/Users/Kuba/Documents/ZeroMate/examples/19-I2C/kernel/src/drivers/gpio.cpp:34
}
    8260:	e1a00003 	mov	r0, r3
    8264:	e28bd000 	add	sp, fp, #0
    8268:	e49db004 	pop	{fp}		; (ldr fp, [sp], #4)
    826c:	e12fff1e 	bx	lr
    8270:	cccccccd 	stclgt	12, cr12, [ip], {205}	; 0xcd

00008274 <_ZNK13CGPIO_Handler18Get_GPCLR_LocationEjRjS0_>:
_ZNK13CGPIO_Handler18Get_GPCLR_LocationEjRjS0_():
/mnt/c/Users/Kuba/Documents/ZeroMate/examples/19-I2C/kernel/src/drivers/gpio.cpp:37

bool CGPIO_Handler::Get_GPCLR_Location(uint32_t pin, uint32_t& reg, uint32_t& bit_idx) const
{
    8274:	e52db004 	push	{fp}		; (str fp, [sp, #-4]!)
    8278:	e28db000 	add	fp, sp, #0
    827c:	e24dd014 	sub	sp, sp, #20
    8280:	e50b0008 	str	r0, [fp, #-8]
    8284:	e50b100c 	str	r1, [fp, #-12]
    8288:	e50b2010 	str	r2, [fp, #-16]
    828c:	e50b3014 	str	r3, [fp, #-20]	; 0xffffffec
/mnt/c/Users/Kuba/Documents/ZeroMate/examples/19-I2C/kernel/src/drivers/gpio.cpp:38
    if (pin > hal::GPIO_Pin_Count)
    8290:	e51b300c 	ldr	r3, [fp, #-12]
    8294:	e3530036 	cmp	r3, #54	; 0x36
    8298:	9a000001 	bls	82a4 <_ZNK13CGPIO_Handler18Get_GPCLR_LocationEjRjS0_+0x30>
/mnt/c/Users/Kuba/Documents/ZeroMate/examples/19-I2C/kernel/src/drivers/gpio.cpp:39
        return false;
    829c:	e3a03000 	mov	r3, #0
    82a0:	ea00000c 	b	82d8 <_ZNK13CGPIO_Handler18Get_GPCLR_LocationEjRjS0_+0x64>
/mnt/c/Users/Kuba/Documents/ZeroMate/examples/19-I2C/kernel/src/drivers/gpio.cpp:41

    reg = static_cast<uint32_t>((pin < 32) ? hal::GPIO_Reg::GPCLR0 : hal::GPIO_Reg::GPCLR1);
    82a4:	e51b300c 	ldr	r3, [fp, #-12]
    82a8:	e353001f 	cmp	r3, #31
    82ac:	8a000001 	bhi	82b8 <_ZNK13CGPIO_Handler18Get_GPCLR_LocationEjRjS0_+0x44>
/mnt/c/Users/Kuba/Documents/ZeroMate/examples/19-I2C/kernel/src/drivers/gpio.cpp:41 (discriminator 1)
    82b0:	e3a0200a 	mov	r2, #10
    82b4:	ea000000 	b	82bc <_ZNK13CGPIO_Handler18Get_GPCLR_LocationEjRjS0_+0x48>
/mnt/c/Users/Kuba/Documents/ZeroMate/examples/19-I2C/kernel/src/drivers/gpio.cpp:41 (discriminator 2)
    82b8:	e3a0200b 	mov	r2, #11
/mnt/c/Users/Kuba/Documents/ZeroMate/examples/19-I2C/kernel/src/drivers/gpio.cpp:41 (discriminator 4)
    82bc:	e51b3010 	ldr	r3, [fp, #-16]
    82c0:	e5832000 	str	r2, [r3]
/mnt/c/Users/Kuba/Documents/ZeroMate/examples/19-I2C/kernel/src/drivers/gpio.cpp:42 (discriminator 4)
    bit_idx = pin % 32;
    82c4:	e51b300c 	ldr	r3, [fp, #-12]
    82c8:	e203201f 	and	r2, r3, #31
    82cc:	e51b3014 	ldr	r3, [fp, #-20]	; 0xffffffec
    82d0:	e5832000 	str	r2, [r3]
/mnt/c/Users/Kuba/Documents/ZeroMate/examples/19-I2C/kernel/src/drivers/gpio.cpp:44 (discriminator 4)

    return true;
    82d4:	e3a03001 	mov	r3, #1
/mnt/c/Users/Kuba/Documents/ZeroMate/examples/19-I2C/kernel/src/drivers/gpio.cpp:45
}
    82d8:	e1a00003 	mov	r0, r3
    82dc:	e28bd000 	add	sp, fp, #0
    82e0:	e49db004 	pop	{fp}		; (ldr fp, [sp], #4)
    82e4:	e12fff1e 	bx	lr

000082e8 <_ZNK13CGPIO_Handler18Get_GPSET_LocationEjRjS0_>:
_ZNK13CGPIO_Handler18Get_GPSET_LocationEjRjS0_():
/mnt/c/Users/Kuba/Documents/ZeroMate/examples/19-I2C/kernel/src/drivers/gpio.cpp:48

bool CGPIO_Handler::Get_GPSET_Location(uint32_t pin, uint32_t& reg, uint32_t& bit_idx) const
{
    82e8:	e52db004 	push	{fp}		; (str fp, [sp, #-4]!)
    82ec:	e28db000 	add	fp, sp, #0
    82f0:	e24dd014 	sub	sp, sp, #20
    82f4:	e50b0008 	str	r0, [fp, #-8]
    82f8:	e50b100c 	str	r1, [fp, #-12]
    82fc:	e50b2010 	str	r2, [fp, #-16]
    8300:	e50b3014 	str	r3, [fp, #-20]	; 0xffffffec
/mnt/c/Users/Kuba/Documents/ZeroMate/examples/19-I2C/kernel/src/drivers/gpio.cpp:49
    if (pin > hal::GPIO_Pin_Count)
    8304:	e51b300c 	ldr	r3, [fp, #-12]
    8308:	e3530036 	cmp	r3, #54	; 0x36
    830c:	9a000001 	bls	8318 <_ZNK13CGPIO_Handler18Get_GPSET_LocationEjRjS0_+0x30>
/mnt/c/Users/Kuba/Documents/ZeroMate/examples/19-I2C/kernel/src/drivers/gpio.cpp:50
        return false;
    8310:	e3a03000 	mov	r3, #0
    8314:	ea00000c 	b	834c <_ZNK13CGPIO_Handler18Get_GPSET_LocationEjRjS0_+0x64>
/mnt/c/Users/Kuba/Documents/ZeroMate/examples/19-I2C/kernel/src/drivers/gpio.cpp:52

    reg = static_cast<uint32_t>((pin < 32) ? hal::GPIO_Reg::GPSET0 : hal::GPIO_Reg::GPSET1);
    8318:	e51b300c 	ldr	r3, [fp, #-12]
    831c:	e353001f 	cmp	r3, #31
    8320:	8a000001 	bhi	832c <_ZNK13CGPIO_Handler18Get_GPSET_LocationEjRjS0_+0x44>
/mnt/c/Users/Kuba/Documents/ZeroMate/examples/19-I2C/kernel/src/drivers/gpio.cpp:52 (discriminator 1)
    8324:	e3a02007 	mov	r2, #7
    8328:	ea000000 	b	8330 <_ZNK13CGPIO_Handler18Get_GPSET_LocationEjRjS0_+0x48>
/mnt/c/Users/Kuba/Documents/ZeroMate/examples/19-I2C/kernel/src/drivers/gpio.cpp:52 (discriminator 2)
    832c:	e3a02008 	mov	r2, #8
/mnt/c/Users/Kuba/Documents/ZeroMate/examples/19-I2C/kernel/src/drivers/gpio.cpp:52 (discriminator 4)
    8330:	e51b3010 	ldr	r3, [fp, #-16]
    8334:	e5832000 	str	r2, [r3]
/mnt/c/Users/Kuba/Documents/ZeroMate/examples/19-I2C/kernel/src/drivers/gpio.cpp:53 (discriminator 4)
    bit_idx = pin % 32;
    8338:	e51b300c 	ldr	r3, [fp, #-12]
    833c:	e203201f 	and	r2, r3, #31
    8340:	e51b3014 	ldr	r3, [fp, #-20]	; 0xffffffec
    8344:	e5832000 	str	r2, [r3]
/mnt/c/Users/Kuba/Documents/ZeroMate/examples/19-I2C/kernel/src/drivers/gpio.cpp:55 (discriminator 4)

    return true;
    8348:	e3a03001 	mov	r3, #1
/mnt/c/Users/Kuba/Documents/ZeroMate/examples/19-I2C/kernel/src/drivers/gpio.cpp:56
}
    834c:	e1a00003 	mov	r0, r3
    8350:	e28bd000 	add	sp, fp, #0
    8354:	e49db004 	pop	{fp}		; (ldr fp, [sp], #4)
    8358:	e12fff1e 	bx	lr

0000835c <_ZNK13CGPIO_Handler18Get_GPLEV_LocationEjRjS0_>:
_ZNK13CGPIO_Handler18Get_GPLEV_LocationEjRjS0_():
/mnt/c/Users/Kuba/Documents/ZeroMate/examples/19-I2C/kernel/src/drivers/gpio.cpp:59

bool CGPIO_Handler::Get_GPLEV_Location(uint32_t pin, uint32_t& reg, uint32_t& bit_idx) const
{
    835c:	e52db004 	push	{fp}		; (str fp, [sp, #-4]!)
    8360:	e28db000 	add	fp, sp, #0
    8364:	e24dd014 	sub	sp, sp, #20
    8368:	e50b0008 	str	r0, [fp, #-8]
    836c:	e50b100c 	str	r1, [fp, #-12]
    8370:	e50b2010 	str	r2, [fp, #-16]
    8374:	e50b3014 	str	r3, [fp, #-20]	; 0xffffffec
/mnt/c/Users/Kuba/Documents/ZeroMate/examples/19-I2C/kernel/src/drivers/gpio.cpp:60
    if (pin > hal::GPIO_Pin_Count)
    8378:	e51b300c 	ldr	r3, [fp, #-12]
    837c:	e3530036 	cmp	r3, #54	; 0x36
    8380:	9a000001 	bls	838c <_ZNK13CGPIO_Handler18Get_GPLEV_LocationEjRjS0_+0x30>
/mnt/c/Users/Kuba/Documents/ZeroMate/examples/19-I2C/kernel/src/drivers/gpio.cpp:61
        return false;
    8384:	e3a03000 	mov	r3, #0
    8388:	ea00000c 	b	83c0 <_ZNK13CGPIO_Handler18Get_GPLEV_LocationEjRjS0_+0x64>
/mnt/c/Users/Kuba/Documents/ZeroMate/examples/19-I2C/kernel/src/drivers/gpio.cpp:63

    reg = static_cast<uint32_t>((pin < 32) ? hal::GPIO_Reg::GPLEV0 : hal::GPIO_Reg::GPLEV1);
    838c:	e51b300c 	ldr	r3, [fp, #-12]
    8390:	e353001f 	cmp	r3, #31
    8394:	8a000001 	bhi	83a0 <_ZNK13CGPIO_Handler18Get_GPLEV_LocationEjRjS0_+0x44>
/mnt/c/Users/Kuba/Documents/ZeroMate/examples/19-I2C/kernel/src/drivers/gpio.cpp:63 (discriminator 1)
    8398:	e3a0200d 	mov	r2, #13
    839c:	ea000000 	b	83a4 <_ZNK13CGPIO_Handler18Get_GPLEV_LocationEjRjS0_+0x48>
/mnt/c/Users/Kuba/Documents/ZeroMate/examples/19-I2C/kernel/src/drivers/gpio.cpp:63 (discriminator 2)
    83a0:	e3a0200e 	mov	r2, #14
/mnt/c/Users/Kuba/Documents/ZeroMate/examples/19-I2C/kernel/src/drivers/gpio.cpp:63 (discriminator 4)
    83a4:	e51b3010 	ldr	r3, [fp, #-16]
    83a8:	e5832000 	str	r2, [r3]
/mnt/c/Users/Kuba/Documents/ZeroMate/examples/19-I2C/kernel/src/drivers/gpio.cpp:64 (discriminator 4)
    bit_idx = pin % 32;
    83ac:	e51b300c 	ldr	r3, [fp, #-12]
    83b0:	e203201f 	and	r2, r3, #31
    83b4:	e51b3014 	ldr	r3, [fp, #-20]	; 0xffffffec
    83b8:	e5832000 	str	r2, [r3]
/mnt/c/Users/Kuba/Documents/ZeroMate/examples/19-I2C/kernel/src/drivers/gpio.cpp:66 (discriminator 4)

    return true;
    83bc:	e3a03001 	mov	r3, #1
/mnt/c/Users/Kuba/Documents/ZeroMate/examples/19-I2C/kernel/src/drivers/gpio.cpp:67
}
    83c0:	e1a00003 	mov	r0, r3
    83c4:	e28bd000 	add	sp, fp, #0
    83c8:	e49db004 	pop	{fp}		; (ldr fp, [sp], #4)
    83cc:	e12fff1e 	bx	lr

000083d0 <_ZN13CGPIO_Handler17Set_GPIO_FunctionEj14NGPIO_Function>:
_ZN13CGPIO_Handler17Set_GPIO_FunctionEj14NGPIO_Function():
/mnt/c/Users/Kuba/Documents/ZeroMate/examples/19-I2C/kernel/src/drivers/gpio.cpp:70

void CGPIO_Handler::Set_GPIO_Function(uint32_t pin, NGPIO_Function func)
{
    83d0:	e92d4800 	push	{fp, lr}
    83d4:	e28db004 	add	fp, sp, #4
    83d8:	e24dd020 	sub	sp, sp, #32
    83dc:	e50b0018 	str	r0, [fp, #-24]	; 0xffffffe8
    83e0:	e50b101c 	str	r1, [fp, #-28]	; 0xffffffe4
    83e4:	e50b2020 	str	r2, [fp, #-32]	; 0xffffffe0
/mnt/c/Users/Kuba/Documents/ZeroMate/examples/19-I2C/kernel/src/drivers/gpio.cpp:72
    uint32_t reg, bit;
    if (!Get_GPFSEL_Location(pin, reg, bit))
    83e8:	e24b3014 	sub	r3, fp, #20
    83ec:	e24b2010 	sub	r2, fp, #16
    83f0:	e51b101c 	ldr	r1, [fp, #-28]	; 0xffffffe4
    83f4:	e51b0018 	ldr	r0, [fp, #-24]	; 0xffffffe8
    83f8:	ebffff77 	bl	81dc <_ZNK13CGPIO_Handler19Get_GPFSEL_LocationEjRjS0_>
    83fc:	e1a03000 	mov	r3, r0
    8400:	e2233001 	eor	r3, r3, #1
    8404:	e6ef3073 	uxtb	r3, r3
    8408:	e3530000 	cmp	r3, #0
    840c:	1a00001e 	bne	848c <_ZN13CGPIO_Handler17Set_GPIO_FunctionEj14NGPIO_Function+0xbc>
/mnt/c/Users/Kuba/Documents/ZeroMate/examples/19-I2C/kernel/src/drivers/gpio.cpp:75
        return;

    unsigned int mode = static_cast<unsigned int>(func);
    8410:	e51b3020 	ldr	r3, [fp, #-32]	; 0xffffffe0
    8414:	e50b3008 	str	r3, [fp, #-8]
/mnt/c/Users/Kuba/Documents/ZeroMate/examples/19-I2C/kernel/src/drivers/gpio.cpp:77

    unsigned int rd = mGPIO[reg];
    8418:	e51b3018 	ldr	r3, [fp, #-24]	; 0xffffffe8
    841c:	e5932000 	ldr	r2, [r3]
    8420:	e51b3010 	ldr	r3, [fp, #-16]
    8424:	e1a03103 	lsl	r3, r3, #2
    8428:	e0823003 	add	r3, r2, r3
    842c:	e5933000 	ldr	r3, [r3]
    8430:	e50b300c 	str	r3, [fp, #-12]
/mnt/c/Users/Kuba/Documents/ZeroMate/examples/19-I2C/kernel/src/drivers/gpio.cpp:78
    rd &= ~(7 << bit);
    8434:	e51b3014 	ldr	r3, [fp, #-20]	; 0xffffffec
    8438:	e3a02007 	mov	r2, #7
    843c:	e1a03312 	lsl	r3, r2, r3
    8440:	e1e03003 	mvn	r3, r3
    8444:	e1a02003 	mov	r2, r3
    8448:	e51b300c 	ldr	r3, [fp, #-12]
    844c:	e0033002 	and	r3, r3, r2
    8450:	e50b300c 	str	r3, [fp, #-12]
/mnt/c/Users/Kuba/Documents/ZeroMate/examples/19-I2C/kernel/src/drivers/gpio.cpp:79
    rd |= (mode << bit);
    8454:	e51b3014 	ldr	r3, [fp, #-20]	; 0xffffffec
    8458:	e51b2008 	ldr	r2, [fp, #-8]
    845c:	e1a03312 	lsl	r3, r2, r3
    8460:	e51b200c 	ldr	r2, [fp, #-12]
    8464:	e1823003 	orr	r3, r2, r3
    8468:	e50b300c 	str	r3, [fp, #-12]
/mnt/c/Users/Kuba/Documents/ZeroMate/examples/19-I2C/kernel/src/drivers/gpio.cpp:81

    mGPIO[reg] = rd;
    846c:	e51b3018 	ldr	r3, [fp, #-24]	; 0xffffffe8
    8470:	e5932000 	ldr	r2, [r3]
    8474:	e51b3010 	ldr	r3, [fp, #-16]
    8478:	e1a03103 	lsl	r3, r3, #2
    847c:	e0823003 	add	r3, r2, r3
    8480:	e51b200c 	ldr	r2, [fp, #-12]
    8484:	e5832000 	str	r2, [r3]
    8488:	ea000000 	b	8490 <_ZN13CGPIO_Handler17Set_GPIO_FunctionEj14NGPIO_Function+0xc0>
/mnt/c/Users/Kuba/Documents/ZeroMate/examples/19-I2C/kernel/src/drivers/gpio.cpp:73
        return;
    848c:	e320f000 	nop	{0}
/mnt/c/Users/Kuba/Documents/ZeroMate/examples/19-I2C/kernel/src/drivers/gpio.cpp:82
}
    8490:	e24bd004 	sub	sp, fp, #4
    8494:	e8bd8800 	pop	{fp, pc}

00008498 <_ZNK13CGPIO_Handler17Get_GPIO_FunctionEj>:
_ZNK13CGPIO_Handler17Get_GPIO_FunctionEj():
/mnt/c/Users/Kuba/Documents/ZeroMate/examples/19-I2C/kernel/src/drivers/gpio.cpp:85

NGPIO_Function CGPIO_Handler::Get_GPIO_Function(uint32_t pin) const
{
    8498:	e92d4800 	push	{fp, lr}
    849c:	e28db004 	add	fp, sp, #4
    84a0:	e24dd010 	sub	sp, sp, #16
    84a4:	e50b0010 	str	r0, [fp, #-16]
    84a8:	e50b1014 	str	r1, [fp, #-20]	; 0xffffffec
/mnt/c/Users/Kuba/Documents/ZeroMate/examples/19-I2C/kernel/src/drivers/gpio.cpp:87
    uint32_t reg, bit;
    if (!Get_GPFSEL_Location(pin, reg, bit))
    84ac:	e24b300c 	sub	r3, fp, #12
    84b0:	e24b2008 	sub	r2, fp, #8
    84b4:	e51b1014 	ldr	r1, [fp, #-20]	; 0xffffffec
    84b8:	e51b0010 	ldr	r0, [fp, #-16]
    84bc:	ebffff46 	bl	81dc <_ZNK13CGPIO_Handler19Get_GPFSEL_LocationEjRjS0_>
    84c0:	e1a03000 	mov	r3, r0
    84c4:	e2233001 	eor	r3, r3, #1
    84c8:	e6ef3073 	uxtb	r3, r3
    84cc:	e3530000 	cmp	r3, #0
    84d0:	0a000001 	beq	84dc <_ZNK13CGPIO_Handler17Get_GPIO_FunctionEj+0x44>
/mnt/c/Users/Kuba/Documents/ZeroMate/examples/19-I2C/kernel/src/drivers/gpio.cpp:88
        return NGPIO_Function::Unspecified;
    84d4:	e3a03008 	mov	r3, #8
    84d8:	ea000008 	b	8500 <_ZNK13CGPIO_Handler17Get_GPIO_FunctionEj+0x68>
/mnt/c/Users/Kuba/Documents/ZeroMate/examples/19-I2C/kernel/src/drivers/gpio.cpp:90

    return static_cast<NGPIO_Function>((mGPIO[reg] >> bit) & 7);
    84dc:	e51b3010 	ldr	r3, [fp, #-16]
    84e0:	e5932000 	ldr	r2, [r3]
    84e4:	e51b3008 	ldr	r3, [fp, #-8]
    84e8:	e1a03103 	lsl	r3, r3, #2
    84ec:	e0823003 	add	r3, r2, r3
    84f0:	e5932000 	ldr	r2, [r3]
    84f4:	e51b300c 	ldr	r3, [fp, #-12]
    84f8:	e1a03332 	lsr	r3, r2, r3
    84fc:	e2033007 	and	r3, r3, #7
/mnt/c/Users/Kuba/Documents/ZeroMate/examples/19-I2C/kernel/src/drivers/gpio.cpp:91 (discriminator 1)
}
    8500:	e1a00003 	mov	r0, r3
    8504:	e24bd004 	sub	sp, fp, #4
    8508:	e8bd8800 	pop	{fp, pc}

0000850c <_ZN13CGPIO_Handler10Set_OutputEjb>:
_ZN13CGPIO_Handler10Set_OutputEjb():
/mnt/c/Users/Kuba/Documents/ZeroMate/examples/19-I2C/kernel/src/drivers/gpio.cpp:94

void CGPIO_Handler::Set_Output(uint32_t pin, bool set)
{
    850c:	e92d4800 	push	{fp, lr}
    8510:	e28db004 	add	fp, sp, #4
    8514:	e24dd018 	sub	sp, sp, #24
    8518:	e50b0010 	str	r0, [fp, #-16]
    851c:	e50b1014 	str	r1, [fp, #-20]	; 0xffffffec
    8520:	e1a03002 	mov	r3, r2
    8524:	e54b3015 	strb	r3, [fp, #-21]	; 0xffffffeb
/mnt/c/Users/Kuba/Documents/ZeroMate/examples/19-I2C/kernel/src/drivers/gpio.cpp:96
    uint32_t reg, bit;
    if (!(set && Get_GPSET_Location(pin, reg, bit)) && !(!set && Get_GPCLR_Location(pin, reg, bit)))
    8528:	e55b3015 	ldrb	r3, [fp, #-21]	; 0xffffffeb
    852c:	e2233001 	eor	r3, r3, #1
    8530:	e6ef3073 	uxtb	r3, r3
    8534:	e3530000 	cmp	r3, #0
    8538:	1a000009 	bne	8564 <_ZN13CGPIO_Handler10Set_OutputEjb+0x58>
/mnt/c/Users/Kuba/Documents/ZeroMate/examples/19-I2C/kernel/src/drivers/gpio.cpp:96 (discriminator 2)
    853c:	e24b300c 	sub	r3, fp, #12
    8540:	e24b2008 	sub	r2, fp, #8
    8544:	e51b1014 	ldr	r1, [fp, #-20]	; 0xffffffec
    8548:	e51b0010 	ldr	r0, [fp, #-16]
    854c:	ebffff65 	bl	82e8 <_ZNK13CGPIO_Handler18Get_GPSET_LocationEjRjS0_>
    8550:	e1a03000 	mov	r3, r0
    8554:	e2233001 	eor	r3, r3, #1
    8558:	e6ef3073 	uxtb	r3, r3
    855c:	e3530000 	cmp	r3, #0
    8560:	0a00000e 	beq	85a0 <_ZN13CGPIO_Handler10Set_OutputEjb+0x94>
/mnt/c/Users/Kuba/Documents/ZeroMate/examples/19-I2C/kernel/src/drivers/gpio.cpp:96 (discriminator 3)
    8564:	e55b3015 	ldrb	r3, [fp, #-21]	; 0xffffffeb
    8568:	e3530000 	cmp	r3, #0
    856c:	1a000009 	bne	8598 <_ZN13CGPIO_Handler10Set_OutputEjb+0x8c>
/mnt/c/Users/Kuba/Documents/ZeroMate/examples/19-I2C/kernel/src/drivers/gpio.cpp:96 (discriminator 6)
    8570:	e24b300c 	sub	r3, fp, #12
    8574:	e24b2008 	sub	r2, fp, #8
    8578:	e51b1014 	ldr	r1, [fp, #-20]	; 0xffffffec
    857c:	e51b0010 	ldr	r0, [fp, #-16]
    8580:	ebffff3b 	bl	8274 <_ZNK13CGPIO_Handler18Get_GPCLR_LocationEjRjS0_>
    8584:	e1a03000 	mov	r3, r0
    8588:	e2233001 	eor	r3, r3, #1
    858c:	e6ef3073 	uxtb	r3, r3
    8590:	e3530000 	cmp	r3, #0
    8594:	0a000001 	beq	85a0 <_ZN13CGPIO_Handler10Set_OutputEjb+0x94>
/mnt/c/Users/Kuba/Documents/ZeroMate/examples/19-I2C/kernel/src/drivers/gpio.cpp:96 (discriminator 7)
    8598:	e3a03001 	mov	r3, #1
    859c:	ea000000 	b	85a4 <_ZN13CGPIO_Handler10Set_OutputEjb+0x98>
/mnt/c/Users/Kuba/Documents/ZeroMate/examples/19-I2C/kernel/src/drivers/gpio.cpp:96 (discriminator 8)
    85a0:	e3a03000 	mov	r3, #0
/mnt/c/Users/Kuba/Documents/ZeroMate/examples/19-I2C/kernel/src/drivers/gpio.cpp:96 (discriminator 10)
    85a4:	e3530000 	cmp	r3, #0
    85a8:	1a00000a 	bne	85d8 <_ZN13CGPIO_Handler10Set_OutputEjb+0xcc>
/mnt/c/Users/Kuba/Documents/ZeroMate/examples/19-I2C/kernel/src/drivers/gpio.cpp:99
        return;

    mGPIO[reg] = (1 << bit);
    85ac:	e51b300c 	ldr	r3, [fp, #-12]
    85b0:	e3a02001 	mov	r2, #1
    85b4:	e1a01312 	lsl	r1, r2, r3
    85b8:	e51b3010 	ldr	r3, [fp, #-16]
    85bc:	e5932000 	ldr	r2, [r3]
    85c0:	e51b3008 	ldr	r3, [fp, #-8]
    85c4:	e1a03103 	lsl	r3, r3, #2
    85c8:	e0823003 	add	r3, r2, r3
    85cc:	e1a02001 	mov	r2, r1
    85d0:	e5832000 	str	r2, [r3]
    85d4:	ea000000 	b	85dc <_ZN13CGPIO_Handler10Set_OutputEjb+0xd0>
/mnt/c/Users/Kuba/Documents/ZeroMate/examples/19-I2C/kernel/src/drivers/gpio.cpp:97
        return;
    85d8:	e320f000 	nop	{0}
/mnt/c/Users/Kuba/Documents/ZeroMate/examples/19-I2C/kernel/src/drivers/gpio.cpp:100
}
    85dc:	e24bd004 	sub	sp, fp, #4
    85e0:	e8bd8800 	pop	{fp, pc}

000085e4 <_ZN13CGPIO_Handler9Get_InputEj>:
_ZN13CGPIO_Handler9Get_InputEj():
/mnt/c/Users/Kuba/Documents/ZeroMate/examples/19-I2C/kernel/src/drivers/gpio.cpp:103

bool CGPIO_Handler::Get_Input(uint32_t pin)
{
    85e4:	e92d4800 	push	{fp, lr}
    85e8:	e28db004 	add	fp, sp, #4
    85ec:	e24dd010 	sub	sp, sp, #16
    85f0:	e50b0010 	str	r0, [fp, #-16]
    85f4:	e50b1014 	str	r1, [fp, #-20]	; 0xffffffec
/mnt/c/Users/Kuba/Documents/ZeroMate/examples/19-I2C/kernel/src/drivers/gpio.cpp:105
    uint32_t reg, bit;
    if (!Get_GPLEV_Location(pin, reg, bit))
    85f8:	e24b300c 	sub	r3, fp, #12
    85fc:	e24b2008 	sub	r2, fp, #8
    8600:	e51b1014 	ldr	r1, [fp, #-20]	; 0xffffffec
    8604:	e51b0010 	ldr	r0, [fp, #-16]
    8608:	ebffff53 	bl	835c <_ZNK13CGPIO_Handler18Get_GPLEV_LocationEjRjS0_>
    860c:	e1a03000 	mov	r3, r0
    8610:	e2233001 	eor	r3, r3, #1
    8614:	e6ef3073 	uxtb	r3, r3
    8618:	e3530000 	cmp	r3, #0
    861c:	0a000001 	beq	8628 <_ZN13CGPIO_Handler9Get_InputEj+0x44>
/mnt/c/Users/Kuba/Documents/ZeroMate/examples/19-I2C/kernel/src/drivers/gpio.cpp:106
        return false;
    8620:	e3a03000 	mov	r3, #0
    8624:	ea00000c 	b	865c <_ZN13CGPIO_Handler9Get_InputEj+0x78>
/mnt/c/Users/Kuba/Documents/ZeroMate/examples/19-I2C/kernel/src/drivers/gpio.cpp:108

    return (mGPIO[reg] >> bit) & 0x1;
    8628:	e51b3010 	ldr	r3, [fp, #-16]
    862c:	e5932000 	ldr	r2, [r3]
    8630:	e51b3008 	ldr	r3, [fp, #-8]
    8634:	e1a03103 	lsl	r3, r3, #2
    8638:	e0823003 	add	r3, r2, r3
    863c:	e5932000 	ldr	r2, [r3]
    8640:	e51b300c 	ldr	r3, [fp, #-12]
    8644:	e1a03332 	lsr	r3, r2, r3
    8648:	e2033001 	and	r3, r3, #1
    864c:	e3530000 	cmp	r3, #0
    8650:	13a03001 	movne	r3, #1
    8654:	03a03000 	moveq	r3, #0
    8658:	e6ef3073 	uxtb	r3, r3
/mnt/c/Users/Kuba/Documents/ZeroMate/examples/19-I2C/kernel/src/drivers/gpio.cpp:109 (discriminator 1)
}
    865c:	e1a00003 	mov	r0, r3
    8660:	e24bd004 	sub	sp, fp, #4
    8664:	e8bd8800 	pop	{fp, pc}

00008668 <_ZN13CGPIO_Handler11Reserve_PinEjbb>:
_ZN13CGPIO_Handler11Reserve_PinEjbb():
/mnt/c/Users/Kuba/Documents/ZeroMate/examples/19-I2C/kernel/src/drivers/gpio.cpp:112

bool CGPIO_Handler::Reserve_Pin(uint32_t pin, bool read, bool write)
{
    8668:	e92d48f0 	push	{r4, r5, r6, r7, fp, lr}
    866c:	e28db014 	add	fp, sp, #20
    8670:	e24dd018 	sub	sp, sp, #24
    8674:	e50b0020 	str	r0, [fp, #-32]	; 0xffffffe0
    8678:	e50b1024 	str	r1, [fp, #-36]	; 0xffffffdc
    867c:	e1a01002 	mov	r1, r2
    8680:	e1a02003 	mov	r2, r3
    8684:	e1a03001 	mov	r3, r1
    8688:	e54b3025 	strb	r3, [fp, #-37]	; 0xffffffdb
    868c:	e1a03002 	mov	r3, r2
    8690:	e54b3026 	strb	r3, [fp, #-38]	; 0xffffffda
/mnt/c/Users/Kuba/Documents/ZeroMate/examples/19-I2C/kernel/src/drivers/gpio.cpp:115
    // TODO: zamek, tady by se neco mohlo sejit

    uint32_t bank_idx = pin / 32;
    8694:	e51b3024 	ldr	r3, [fp, #-36]	; 0xffffffdc
    8698:	e1a032a3 	lsr	r3, r3, #5
    869c:	e50b3018 	str	r3, [fp, #-24]	; 0xffffffe8
/mnt/c/Users/Kuba/Documents/ZeroMate/examples/19-I2C/kernel/src/drivers/gpio.cpp:116
    uint32_t bit_idx = pin % 32;
    86a0:	e51b3024 	ldr	r3, [fp, #-36]	; 0xffffffdc
    86a4:	e203301f 	and	r3, r3, #31
    86a8:	e50b301c 	str	r3, [fp, #-28]	; 0xffffffe4
/mnt/c/Users/Kuba/Documents/ZeroMate/examples/19-I2C/kernel/src/drivers/gpio.cpp:118

    if (read && (mPin_Reservations_Read[bank_idx] >> bit_idx) & 0x1)
    86ac:	e55b3025 	ldrb	r3, [fp, #-37]	; 0xffffffdb
    86b0:	e3530000 	cmp	r3, #0
    86b4:	0a00000b 	beq	86e8 <_ZN13CGPIO_Handler11Reserve_PinEjbb+0x80>
/mnt/c/Users/Kuba/Documents/ZeroMate/examples/19-I2C/kernel/src/drivers/gpio.cpp:118 (discriminator 1)
    86b8:	e51b2020 	ldr	r2, [fp, #-32]	; 0xffffffe0
    86bc:	e51b3018 	ldr	r3, [fp, #-24]	; 0xffffffe8
    86c0:	e1a03103 	lsl	r3, r3, #2
    86c4:	e0823003 	add	r3, r2, r3
    86c8:	e5932004 	ldr	r2, [r3, #4]
    86cc:	e51b301c 	ldr	r3, [fp, #-28]	; 0xffffffe4
    86d0:	e1a03332 	lsr	r3, r2, r3
    86d4:	e2033001 	and	r3, r3, #1
    86d8:	e3530000 	cmp	r3, #0
    86dc:	0a000001 	beq	86e8 <_ZN13CGPIO_Handler11Reserve_PinEjbb+0x80>
/mnt/c/Users/Kuba/Documents/ZeroMate/examples/19-I2C/kernel/src/drivers/gpio.cpp:119
        return false;
    86e0:	e3a03000 	mov	r3, #0
    86e4:	ea000042 	b	87f4 <_ZN13CGPIO_Handler11Reserve_PinEjbb+0x18c>
/mnt/c/Users/Kuba/Documents/ZeroMate/examples/19-I2C/kernel/src/drivers/gpio.cpp:121

    if (write && (mPin_Reservations_Write[bank_idx] >> bit_idx) & 0x1)
    86e8:	e55b3026 	ldrb	r3, [fp, #-38]	; 0xffffffda
    86ec:	e3530000 	cmp	r3, #0
    86f0:	0a00000c 	beq	8728 <_ZN13CGPIO_Handler11Reserve_PinEjbb+0xc0>
/mnt/c/Users/Kuba/Documents/ZeroMate/examples/19-I2C/kernel/src/drivers/gpio.cpp:121 (discriminator 1)
    86f4:	e51b2020 	ldr	r2, [fp, #-32]	; 0xffffffe0
    86f8:	e51b3018 	ldr	r3, [fp, #-24]	; 0xffffffe8
    86fc:	e2833002 	add	r3, r3, #2
    8700:	e1a03103 	lsl	r3, r3, #2
    8704:	e0823003 	add	r3, r2, r3
    8708:	e5932004 	ldr	r2, [r3, #4]
    870c:	e51b301c 	ldr	r3, [fp, #-28]	; 0xffffffe4
    8710:	e1a03332 	lsr	r3, r2, r3
    8714:	e2033001 	and	r3, r3, #1
    8718:	e3530000 	cmp	r3, #0
    871c:	0a000001 	beq	8728 <_ZN13CGPIO_Handler11Reserve_PinEjbb+0xc0>
/mnt/c/Users/Kuba/Documents/ZeroMate/examples/19-I2C/kernel/src/drivers/gpio.cpp:122
        return false;
    8720:	e3a03000 	mov	r3, #0
    8724:	ea000032 	b	87f4 <_ZN13CGPIO_Handler11Reserve_PinEjbb+0x18c>
/mnt/c/Users/Kuba/Documents/ZeroMate/examples/19-I2C/kernel/src/drivers/gpio.cpp:124

    if (read)
    8728:	e55b3025 	ldrb	r3, [fp, #-37]	; 0xffffffdb
    872c:	e3530000 	cmp	r3, #0
    8730:	0a000014 	beq	8788 <_ZN13CGPIO_Handler11Reserve_PinEjbb+0x120>
/mnt/c/Users/Kuba/Documents/ZeroMate/examples/19-I2C/kernel/src/drivers/gpio.cpp:125
        mPin_Reservations_Read[bank_idx] |= 1ULL << bit_idx;
    8734:	e51b2020 	ldr	r2, [fp, #-32]	; 0xffffffe0
    8738:	e51b3018 	ldr	r3, [fp, #-24]	; 0xffffffe8
    873c:	e1a03103 	lsl	r3, r3, #2
    8740:	e0823003 	add	r3, r2, r3
    8744:	e5930004 	ldr	r0, [r3, #4]
    8748:	e3a02001 	mov	r2, #1
    874c:	e3a03000 	mov	r3, #0
    8750:	e51b101c 	ldr	r1, [fp, #-28]	; 0xffffffe4
    8754:	e241e020 	sub	lr, r1, #32
    8758:	e261c020 	rsb	ip, r1, #32
    875c:	e1a07113 	lsl	r7, r3, r1
    8760:	e1877e12 	orr	r7, r7, r2, lsl lr
    8764:	e1877c32 	orr	r7, r7, r2, lsr ip
    8768:	e1a06112 	lsl	r6, r2, r1
    876c:	e1a03006 	mov	r3, r6
    8770:	e1802003 	orr	r2, r0, r3
    8774:	e51b1020 	ldr	r1, [fp, #-32]	; 0xffffffe0
    8778:	e51b3018 	ldr	r3, [fp, #-24]	; 0xffffffe8
    877c:	e1a03103 	lsl	r3, r3, #2
    8780:	e0813003 	add	r3, r1, r3
    8784:	e5832004 	str	r2, [r3, #4]
/mnt/c/Users/Kuba/Documents/ZeroMate/examples/19-I2C/kernel/src/drivers/gpio.cpp:127

    if (write)
    8788:	e55b3026 	ldrb	r3, [fp, #-38]	; 0xffffffda
    878c:	e3530000 	cmp	r3, #0
    8790:	0a000016 	beq	87f0 <_ZN13CGPIO_Handler11Reserve_PinEjbb+0x188>
/mnt/c/Users/Kuba/Documents/ZeroMate/examples/19-I2C/kernel/src/drivers/gpio.cpp:128
        mPin_Reservations_Write[bank_idx] |= 1ULL << bit_idx;
    8794:	e51b2020 	ldr	r2, [fp, #-32]	; 0xffffffe0
    8798:	e51b3018 	ldr	r3, [fp, #-24]	; 0xffffffe8
    879c:	e2833002 	add	r3, r3, #2
    87a0:	e1a03103 	lsl	r3, r3, #2
    87a4:	e0823003 	add	r3, r2, r3
    87a8:	e5930004 	ldr	r0, [r3, #4]
    87ac:	e3a02001 	mov	r2, #1
    87b0:	e3a03000 	mov	r3, #0
    87b4:	e51b101c 	ldr	r1, [fp, #-28]	; 0xffffffe4
    87b8:	e241e020 	sub	lr, r1, #32
    87bc:	e261c020 	rsb	ip, r1, #32
    87c0:	e1a05113 	lsl	r5, r3, r1
    87c4:	e1855e12 	orr	r5, r5, r2, lsl lr
    87c8:	e1855c32 	orr	r5, r5, r2, lsr ip
    87cc:	e1a04112 	lsl	r4, r2, r1
    87d0:	e1a03004 	mov	r3, r4
    87d4:	e1802003 	orr	r2, r0, r3
    87d8:	e51b1020 	ldr	r1, [fp, #-32]	; 0xffffffe0
    87dc:	e51b3018 	ldr	r3, [fp, #-24]	; 0xffffffe8
    87e0:	e2833002 	add	r3, r3, #2
    87e4:	e1a03103 	lsl	r3, r3, #2
    87e8:	e0813003 	add	r3, r1, r3
    87ec:	e5832004 	str	r2, [r3, #4]
/mnt/c/Users/Kuba/Documents/ZeroMate/examples/19-I2C/kernel/src/drivers/gpio.cpp:130

    return true;
    87f0:	e3a03001 	mov	r3, #1
/mnt/c/Users/Kuba/Documents/ZeroMate/examples/19-I2C/kernel/src/drivers/gpio.cpp:131
}
    87f4:	e1a00003 	mov	r0, r3
    87f8:	e24bd014 	sub	sp, fp, #20
    87fc:	e8bd88f0 	pop	{r4, r5, r6, r7, fp, pc}

00008800 <_ZN13CGPIO_Handler8Free_PinEjbb>:
_ZN13CGPIO_Handler8Free_PinEjbb():
/mnt/c/Users/Kuba/Documents/ZeroMate/examples/19-I2C/kernel/src/drivers/gpio.cpp:134

bool CGPIO_Handler::Free_Pin(uint32_t pin, bool read, bool write)
{
    8800:	e92d48f0 	push	{r4, r5, r6, r7, fp, lr}
    8804:	e28db014 	add	fp, sp, #20
    8808:	e24dd018 	sub	sp, sp, #24
    880c:	e50b0020 	str	r0, [fp, #-32]	; 0xffffffe0
    8810:	e50b1024 	str	r1, [fp, #-36]	; 0xffffffdc
    8814:	e1a01002 	mov	r1, r2
    8818:	e1a02003 	mov	r2, r3
    881c:	e1a03001 	mov	r3, r1
    8820:	e54b3025 	strb	r3, [fp, #-37]	; 0xffffffdb
    8824:	e1a03002 	mov	r3, r2
    8828:	e54b3026 	strb	r3, [fp, #-38]	; 0xffffffda
/mnt/c/Users/Kuba/Documents/ZeroMate/examples/19-I2C/kernel/src/drivers/gpio.cpp:135
    uint32_t bank_idx = pin / 32;
    882c:	e51b3024 	ldr	r3, [fp, #-36]	; 0xffffffdc
    8830:	e1a032a3 	lsr	r3, r3, #5
    8834:	e50b3018 	str	r3, [fp, #-24]	; 0xffffffe8
/mnt/c/Users/Kuba/Documents/ZeroMate/examples/19-I2C/kernel/src/drivers/gpio.cpp:136
    uint32_t bit_idx = pin % 32;
    8838:	e51b3024 	ldr	r3, [fp, #-36]	; 0xffffffdc
    883c:	e203301f 	and	r3, r3, #31
    8840:	e50b301c 	str	r3, [fp, #-28]	; 0xffffffe4
/mnt/c/Users/Kuba/Documents/ZeroMate/examples/19-I2C/kernel/src/drivers/gpio.cpp:138

    if (read && !((mPin_Reservations_Read[bank_idx] >> bit_idx) & 0x1))
    8844:	e55b3025 	ldrb	r3, [fp, #-37]	; 0xffffffdb
    8848:	e3530000 	cmp	r3, #0
    884c:	0a00000b 	beq	8880 <_ZN13CGPIO_Handler8Free_PinEjbb+0x80>
/mnt/c/Users/Kuba/Documents/ZeroMate/examples/19-I2C/kernel/src/drivers/gpio.cpp:138 (discriminator 1)
    8850:	e51b2020 	ldr	r2, [fp, #-32]	; 0xffffffe0
    8854:	e51b3018 	ldr	r3, [fp, #-24]	; 0xffffffe8
    8858:	e1a03103 	lsl	r3, r3, #2
    885c:	e0823003 	add	r3, r2, r3
    8860:	e5932004 	ldr	r2, [r3, #4]
    8864:	e51b301c 	ldr	r3, [fp, #-28]	; 0xffffffe4
    8868:	e1a03332 	lsr	r3, r2, r3
    886c:	e2033001 	and	r3, r3, #1
    8870:	e3530000 	cmp	r3, #0
    8874:	1a000001 	bne	8880 <_ZN13CGPIO_Handler8Free_PinEjbb+0x80>
/mnt/c/Users/Kuba/Documents/ZeroMate/examples/19-I2C/kernel/src/drivers/gpio.cpp:139
        return false;
    8878:	e3a03000 	mov	r3, #0
    887c:	ea000044 	b	8994 <_ZN13CGPIO_Handler8Free_PinEjbb+0x194>
/mnt/c/Users/Kuba/Documents/ZeroMate/examples/19-I2C/kernel/src/drivers/gpio.cpp:141

    if (write && !((mPin_Reservations_Write[bank_idx] >> bit_idx) & 0x1))
    8880:	e55b3026 	ldrb	r3, [fp, #-38]	; 0xffffffda
    8884:	e3530000 	cmp	r3, #0
    8888:	0a00000c 	beq	88c0 <_ZN13CGPIO_Handler8Free_PinEjbb+0xc0>
/mnt/c/Users/Kuba/Documents/ZeroMate/examples/19-I2C/kernel/src/drivers/gpio.cpp:141 (discriminator 1)
    888c:	e51b2020 	ldr	r2, [fp, #-32]	; 0xffffffe0
    8890:	e51b3018 	ldr	r3, [fp, #-24]	; 0xffffffe8
    8894:	e2833002 	add	r3, r3, #2
    8898:	e1a03103 	lsl	r3, r3, #2
    889c:	e0823003 	add	r3, r2, r3
    88a0:	e5932004 	ldr	r2, [r3, #4]
    88a4:	e51b301c 	ldr	r3, [fp, #-28]	; 0xffffffe4
    88a8:	e1a03332 	lsr	r3, r2, r3
    88ac:	e2033001 	and	r3, r3, #1
    88b0:	e3530000 	cmp	r3, #0
    88b4:	1a000001 	bne	88c0 <_ZN13CGPIO_Handler8Free_PinEjbb+0xc0>
/mnt/c/Users/Kuba/Documents/ZeroMate/examples/19-I2C/kernel/src/drivers/gpio.cpp:142
        return false;
    88b8:	e3a03000 	mov	r3, #0
    88bc:	ea000034 	b	8994 <_ZN13CGPIO_Handler8Free_PinEjbb+0x194>
/mnt/c/Users/Kuba/Documents/ZeroMate/examples/19-I2C/kernel/src/drivers/gpio.cpp:144

    if (read)
    88c0:	e55b3025 	ldrb	r3, [fp, #-37]	; 0xffffffdb
    88c4:	e3530000 	cmp	r3, #0
    88c8:	0a000015 	beq	8924 <_ZN13CGPIO_Handler8Free_PinEjbb+0x124>
/mnt/c/Users/Kuba/Documents/ZeroMate/examples/19-I2C/kernel/src/drivers/gpio.cpp:145
        mPin_Reservations_Read[bank_idx] &= ~(1ULL << bit_idx);
    88cc:	e51b2020 	ldr	r2, [fp, #-32]	; 0xffffffe0
    88d0:	e51b3018 	ldr	r3, [fp, #-24]	; 0xffffffe8
    88d4:	e1a03103 	lsl	r3, r3, #2
    88d8:	e0823003 	add	r3, r2, r3
    88dc:	e5930004 	ldr	r0, [r3, #4]
    88e0:	e3a02001 	mov	r2, #1
    88e4:	e3a03000 	mov	r3, #0
    88e8:	e51b101c 	ldr	r1, [fp, #-28]	; 0xffffffe4
    88ec:	e241e020 	sub	lr, r1, #32
    88f0:	e261c020 	rsb	ip, r1, #32
    88f4:	e1a07113 	lsl	r7, r3, r1
    88f8:	e1877e12 	orr	r7, r7, r2, lsl lr
    88fc:	e1877c32 	orr	r7, r7, r2, lsr ip
    8900:	e1a06112 	lsl	r6, r2, r1
    8904:	e1a03006 	mov	r3, r6
    8908:	e1e03003 	mvn	r3, r3
    890c:	e0002003 	and	r2, r0, r3
    8910:	e51b1020 	ldr	r1, [fp, #-32]	; 0xffffffe0
    8914:	e51b3018 	ldr	r3, [fp, #-24]	; 0xffffffe8
    8918:	e1a03103 	lsl	r3, r3, #2
    891c:	e0813003 	add	r3, r1, r3
    8920:	e5832004 	str	r2, [r3, #4]
/mnt/c/Users/Kuba/Documents/ZeroMate/examples/19-I2C/kernel/src/drivers/gpio.cpp:147

    if (write)
    8924:	e55b3026 	ldrb	r3, [fp, #-38]	; 0xffffffda
    8928:	e3530000 	cmp	r3, #0
    892c:	0a000017 	beq	8990 <_ZN13CGPIO_Handler8Free_PinEjbb+0x190>
/mnt/c/Users/Kuba/Documents/ZeroMate/examples/19-I2C/kernel/src/drivers/gpio.cpp:148
        mPin_Reservations_Write[bank_idx] &= ~(1ULL << bit_idx);
    8930:	e51b2020 	ldr	r2, [fp, #-32]	; 0xffffffe0
    8934:	e51b3018 	ldr	r3, [fp, #-24]	; 0xffffffe8
    8938:	e2833002 	add	r3, r3, #2
    893c:	e1a03103 	lsl	r3, r3, #2
    8940:	e0823003 	add	r3, r2, r3
    8944:	e5930004 	ldr	r0, [r3, #4]
    8948:	e3a02001 	mov	r2, #1
    894c:	e3a03000 	mov	r3, #0
    8950:	e51b101c 	ldr	r1, [fp, #-28]	; 0xffffffe4
    8954:	e241e020 	sub	lr, r1, #32
    8958:	e261c020 	rsb	ip, r1, #32
    895c:	e1a05113 	lsl	r5, r3, r1
    8960:	e1855e12 	orr	r5, r5, r2, lsl lr
    8964:	e1855c32 	orr	r5, r5, r2, lsr ip
    8968:	e1a04112 	lsl	r4, r2, r1
    896c:	e1a03004 	mov	r3, r4
    8970:	e1e03003 	mvn	r3, r3
    8974:	e0002003 	and	r2, r0, r3
    8978:	e51b1020 	ldr	r1, [fp, #-32]	; 0xffffffe0
    897c:	e51b3018 	ldr	r3, [fp, #-24]	; 0xffffffe8
    8980:	e2833002 	add	r3, r3, #2
    8984:	e1a03103 	lsl	r3, r3, #2
    8988:	e0813003 	add	r3, r1, r3
    898c:	e5832004 	str	r2, [r3, #4]
/mnt/c/Users/Kuba/Documents/ZeroMate/examples/19-I2C/kernel/src/drivers/gpio.cpp:150

    return true;
    8990:	e3a03001 	mov	r3, #1
/mnt/c/Users/Kuba/Documents/ZeroMate/examples/19-I2C/kernel/src/drivers/gpio.cpp:151
}
    8994:	e1a00003 	mov	r0, r3
    8998:	e24bd014 	sub	sp, fp, #20
    899c:	e8bd88f0 	pop	{r4, r5, r6, r7, fp, pc}

000089a0 <_Z41__static_initialization_and_destruction_0ii>:
_Z41__static_initialization_and_destruction_0ii():
/mnt/c/Users/Kuba/Documents/ZeroMate/examples/19-I2C/kernel/src/drivers/gpio.cpp:151
    89a0:	e92d4800 	push	{fp, lr}
    89a4:	e28db004 	add	fp, sp, #4
    89a8:	e24dd008 	sub	sp, sp, #8
    89ac:	e50b0008 	str	r0, [fp, #-8]
    89b0:	e50b100c 	str	r1, [fp, #-12]
    89b4:	e51b3008 	ldr	r3, [fp, #-8]
    89b8:	e3530001 	cmp	r3, #1
    89bc:	1a000006 	bne	89dc <_Z41__static_initialization_and_destruction_0ii+0x3c>
/mnt/c/Users/Kuba/Documents/ZeroMate/examples/19-I2C/kernel/src/drivers/gpio.cpp:151 (discriminator 1)
    89c0:	e51b300c 	ldr	r3, [fp, #-12]
    89c4:	e59f201c 	ldr	r2, [pc, #28]	; 89e8 <_Z41__static_initialization_and_destruction_0ii+0x48>
    89c8:	e1530002 	cmp	r3, r2
    89cc:	1a000002 	bne	89dc <_Z41__static_initialization_and_destruction_0ii+0x3c>
/mnt/c/Users/Kuba/Documents/ZeroMate/examples/19-I2C/kernel/src/drivers/gpio.cpp:6
CGPIO_Handler sGPIO(hal::GPIO_Base);
    89d0:	e59f1014 	ldr	r1, [pc, #20]	; 89ec <_Z41__static_initialization_and_destruction_0ii+0x4c>
    89d4:	e59f0014 	ldr	r0, [pc, #20]	; 89f0 <_Z41__static_initialization_and_destruction_0ii+0x50>
    89d8:	ebfffde9 	bl	8184 <_ZN13CGPIO_HandlerC1Ej>
/mnt/c/Users/Kuba/Documents/ZeroMate/examples/19-I2C/kernel/src/drivers/gpio.cpp:151
}
    89dc:	e320f000 	nop	{0}
    89e0:	e24bd004 	sub	sp, fp, #4
    89e4:	e8bd8800 	pop	{fp, pc}
    89e8:	0000ffff 	strdeq	pc, [r0], -pc	; <UNPREDICTABLE>
    89ec:	20200000 	eorcs	r0, r0, r0
    89f0:	00010b9c 	muleq	r1, ip, fp

000089f4 <_GLOBAL__sub_I_sGPIO>:
_GLOBAL__sub_I_sGPIO():
/mnt/c/Users/Kuba/Documents/ZeroMate/examples/19-I2C/kernel/src/drivers/gpio.cpp:151
    89f4:	e92d4800 	push	{fp, lr}
    89f8:	e28db004 	add	fp, sp, #4
    89fc:	e59f1008 	ldr	r1, [pc, #8]	; 8a0c <_GLOBAL__sub_I_sGPIO+0x18>
    8a00:	e3a00001 	mov	r0, #1
    8a04:	ebffffe5 	bl	89a0 <_Z41__static_initialization_and_destruction_0ii>
    8a08:	e8bd8800 	pop	{fp, pc}
    8a0c:	0000ffff 	strdeq	pc, [r0], -pc	; <UNPREDICTABLE>

00008a10 <_ZN4CI2CC1Emjj>:
_ZN4CI2CC2Emjj():
/mnt/c/Users/Kuba/Documents/ZeroMate/examples/19-I2C/kernel/src/drivers/i2c.cpp:7

#include <drivers/gpio.h>

CI2C sI2C1(hal::BSC1_Base, 2, 3);

CI2C::CI2C(unsigned long base, uint32_t pin_sda, uint32_t pin_scl)
    8a10:	e92d4800 	push	{fp, lr}
    8a14:	e28db004 	add	fp, sp, #4
    8a18:	e24dd010 	sub	sp, sp, #16
    8a1c:	e50b0008 	str	r0, [fp, #-8]
    8a20:	e50b100c 	str	r1, [fp, #-12]
    8a24:	e50b2010 	str	r2, [fp, #-16]
    8a28:	e50b3014 	str	r3, [fp, #-20]	; 0xffffffec
/mnt/c/Users/Kuba/Documents/ZeroMate/examples/19-I2C/kernel/src/drivers/i2c.cpp:8
    : mBSC_Base(reinterpret_cast<volatile uint32_t*>(base)), mOpened(false), mSDA_Pin(pin_sda), mSCL_Pin(pin_scl)
    8a2c:	e51b200c 	ldr	r2, [fp, #-12]
    8a30:	e51b3008 	ldr	r3, [fp, #-8]
    8a34:	e5832000 	str	r2, [r3]
    8a38:	e51b3008 	ldr	r3, [fp, #-8]
    8a3c:	e3a02000 	mov	r2, #0
    8a40:	e5c32004 	strb	r2, [r3, #4]
    8a44:	e51b3008 	ldr	r3, [fp, #-8]
    8a48:	e51b2010 	ldr	r2, [fp, #-16]
    8a4c:	e5832008 	str	r2, [r3, #8]
    8a50:	e51b3008 	ldr	r3, [fp, #-8]
    8a54:	e51b2014 	ldr	r2, [fp, #-20]	; 0xffffffec
    8a58:	e583200c 	str	r2, [r3, #12]
    8a5c:	e51b3008 	ldr	r3, [fp, #-8]
    8a60:	e2833010 	add	r3, r3, #16
    8a64:	e1a00003 	mov	r0, r3
    8a68:	eb0001a7 	bl	910c <_ZN16CI2C_TransactionC1Ev>
/mnt/c/Users/Kuba/Documents/ZeroMate/examples/19-I2C/kernel/src/drivers/i2c.cpp:11
{
    //
}
    8a6c:	e51b3008 	ldr	r3, [fp, #-8]
    8a70:	e1a00003 	mov	r0, r3
    8a74:	e24bd004 	sub	sp, fp, #4
    8a78:	e8bd8800 	pop	{fp, pc}

00008a7c <_ZN4CI2C3RegEN3hal7BSC_RegE>:
_ZN4CI2C3RegEN3hal7BSC_RegE():
/mnt/c/Users/Kuba/Documents/ZeroMate/examples/19-I2C/kernel/src/drivers/i2c.cpp:14

volatile uint32_t& CI2C::Reg(hal::BSC_Reg reg)
{
    8a7c:	e52db004 	push	{fp}		; (str fp, [sp, #-4]!)
    8a80:	e28db000 	add	fp, sp, #0
    8a84:	e24dd00c 	sub	sp, sp, #12
    8a88:	e50b0008 	str	r0, [fp, #-8]
    8a8c:	e50b100c 	str	r1, [fp, #-12]
/mnt/c/Users/Kuba/Documents/ZeroMate/examples/19-I2C/kernel/src/drivers/i2c.cpp:15
    return mBSC_Base[static_cast<uint32_t>(reg)];
    8a90:	e51b3008 	ldr	r3, [fp, #-8]
    8a94:	e5932000 	ldr	r2, [r3]
    8a98:	e51b300c 	ldr	r3, [fp, #-12]
    8a9c:	e1a03103 	lsl	r3, r3, #2
    8aa0:	e0823003 	add	r3, r2, r3
/mnt/c/Users/Kuba/Documents/ZeroMate/examples/19-I2C/kernel/src/drivers/i2c.cpp:16
}
    8aa4:	e1a00003 	mov	r0, r3
    8aa8:	e28bd000 	add	sp, fp, #0
    8aac:	e49db004 	pop	{fp}		; (ldr fp, [sp], #4)
    8ab0:	e12fff1e 	bx	lr

00008ab4 <_ZN4CI2C10Wait_ReadyEv>:
_ZN4CI2C10Wait_ReadyEv():
/mnt/c/Users/Kuba/Documents/ZeroMate/examples/19-I2C/kernel/src/drivers/i2c.cpp:19

void CI2C::Wait_Ready()
{
    8ab4:	e92d4800 	push	{fp, lr}
    8ab8:	e28db004 	add	fp, sp, #4
    8abc:	e24dd010 	sub	sp, sp, #16
    8ac0:	e50b0010 	str	r0, [fp, #-16]
/mnt/c/Users/Kuba/Documents/ZeroMate/examples/19-I2C/kernel/src/drivers/i2c.cpp:20
    volatile uint32_t& s = Reg(hal::BSC_Reg::Status);
    8ac4:	e3a01001 	mov	r1, #1
    8ac8:	e51b0010 	ldr	r0, [fp, #-16]
    8acc:	ebffffea 	bl	8a7c <_ZN4CI2C3RegEN3hal7BSC_RegE>
    8ad0:	e50b0008 	str	r0, [fp, #-8]
/mnt/c/Users/Kuba/Documents/ZeroMate/examples/19-I2C/kernel/src/drivers/i2c.cpp:23

    // pockame, dokud nebude ve status registru zapnuty ready bit
    while( !(s & (1 << 1)) )
    8ad4:	e51b3008 	ldr	r3, [fp, #-8]
    8ad8:	e5933000 	ldr	r3, [r3]
    8adc:	e2033002 	and	r3, r3, #2
    8ae0:	e3530000 	cmp	r3, #0
    8ae4:	03a03001 	moveq	r3, #1
    8ae8:	13a03000 	movne	r3, #0
    8aec:	e6ef3073 	uxtb	r3, r3
    8af0:	e3530000 	cmp	r3, #0
    8af4:	0a000000 	beq	8afc <_ZN4CI2C10Wait_ReadyEv+0x48>
    8af8:	eafffff5 	b	8ad4 <_ZN4CI2C10Wait_ReadyEv+0x20>
/mnt/c/Users/Kuba/Documents/ZeroMate/examples/19-I2C/kernel/src/drivers/i2c.cpp:25
        ;
}
    8afc:	e320f000 	nop	{0}
    8b00:	e24bd004 	sub	sp, fp, #4
    8b04:	e8bd8800 	pop	{fp, pc}

00008b08 <_ZN4CI2C4OpenEv>:
_ZN4CI2C4OpenEv():
/mnt/c/Users/Kuba/Documents/ZeroMate/examples/19-I2C/kernel/src/drivers/i2c.cpp:28

bool CI2C::Open()
{
    8b08:	e92d4800 	push	{fp, lr}
    8b0c:	e28db004 	add	fp, sp, #4
    8b10:	e24dd008 	sub	sp, sp, #8
    8b14:	e50b0008 	str	r0, [fp, #-8]
/mnt/c/Users/Kuba/Documents/ZeroMate/examples/19-I2C/kernel/src/drivers/i2c.cpp:29
    if (!sGPIO.Reserve_Pin(mSDA_Pin, true, true))
    8b18:	e51b3008 	ldr	r3, [fp, #-8]
    8b1c:	e5931008 	ldr	r1, [r3, #8]
    8b20:	e3a03001 	mov	r3, #1
    8b24:	e3a02001 	mov	r2, #1
    8b28:	e59f00b4 	ldr	r0, [pc, #180]	; 8be4 <_ZN4CI2C4OpenEv+0xdc>
    8b2c:	ebfffecd 	bl	8668 <_ZN13CGPIO_Handler11Reserve_PinEjbb>
    8b30:	e1a03000 	mov	r3, r0
    8b34:	e2233001 	eor	r3, r3, #1
    8b38:	e6ef3073 	uxtb	r3, r3
    8b3c:	e3530000 	cmp	r3, #0
    8b40:	0a000001 	beq	8b4c <_ZN4CI2C4OpenEv+0x44>
/mnt/c/Users/Kuba/Documents/ZeroMate/examples/19-I2C/kernel/src/drivers/i2c.cpp:30
        return false;
    8b44:	e3a03000 	mov	r3, #0
    8b48:	ea000022 	b	8bd8 <_ZN4CI2C4OpenEv+0xd0>
/mnt/c/Users/Kuba/Documents/ZeroMate/examples/19-I2C/kernel/src/drivers/i2c.cpp:32

    if (!sGPIO.Reserve_Pin(mSCL_Pin, true, true))
    8b4c:	e51b3008 	ldr	r3, [fp, #-8]
    8b50:	e593100c 	ldr	r1, [r3, #12]
    8b54:	e3a03001 	mov	r3, #1
    8b58:	e3a02001 	mov	r2, #1
    8b5c:	e59f0080 	ldr	r0, [pc, #128]	; 8be4 <_ZN4CI2C4OpenEv+0xdc>
    8b60:	ebfffec0 	bl	8668 <_ZN13CGPIO_Handler11Reserve_PinEjbb>
    8b64:	e1a03000 	mov	r3, r0
    8b68:	e2233001 	eor	r3, r3, #1
    8b6c:	e6ef3073 	uxtb	r3, r3
    8b70:	e3530000 	cmp	r3, #0
    8b74:	0a000007 	beq	8b98 <_ZN4CI2C4OpenEv+0x90>
/mnt/c/Users/Kuba/Documents/ZeroMate/examples/19-I2C/kernel/src/drivers/i2c.cpp:34
    {
        sGPIO.Free_Pin(mSDA_Pin, true, true);
    8b78:	e51b3008 	ldr	r3, [fp, #-8]
    8b7c:	e5931008 	ldr	r1, [r3, #8]
    8b80:	e3a03001 	mov	r3, #1
    8b84:	e3a02001 	mov	r2, #1
    8b88:	e59f0054 	ldr	r0, [pc, #84]	; 8be4 <_ZN4CI2C4OpenEv+0xdc>
    8b8c:	ebffff1b 	bl	8800 <_ZN13CGPIO_Handler8Free_PinEjbb>
/mnt/c/Users/Kuba/Documents/ZeroMate/examples/19-I2C/kernel/src/drivers/i2c.cpp:35
        return false;
    8b90:	e3a03000 	mov	r3, #0
    8b94:	ea00000f 	b	8bd8 <_ZN4CI2C4OpenEv+0xd0>
/mnt/c/Users/Kuba/Documents/ZeroMate/examples/19-I2C/kernel/src/drivers/i2c.cpp:40
    }

    // pro jine I2C kanaly se muze lisit cislo alternativni funkce pinu

    sGPIO.Set_GPIO_Function(mSDA_Pin, NGPIO_Function::Alt_0);
    8b98:	e51b3008 	ldr	r3, [fp, #-8]
    8b9c:	e5933008 	ldr	r3, [r3, #8]
    8ba0:	e3a02004 	mov	r2, #4
    8ba4:	e1a01003 	mov	r1, r3
    8ba8:	e59f0034 	ldr	r0, [pc, #52]	; 8be4 <_ZN4CI2C4OpenEv+0xdc>
    8bac:	ebfffe07 	bl	83d0 <_ZN13CGPIO_Handler17Set_GPIO_FunctionEj14NGPIO_Function>
/mnt/c/Users/Kuba/Documents/ZeroMate/examples/19-I2C/kernel/src/drivers/i2c.cpp:41
    sGPIO.Set_GPIO_Function(mSCL_Pin, NGPIO_Function::Alt_0);
    8bb0:	e51b3008 	ldr	r3, [fp, #-8]
    8bb4:	e593300c 	ldr	r3, [r3, #12]
    8bb8:	e3a02004 	mov	r2, #4
    8bbc:	e1a01003 	mov	r1, r3
    8bc0:	e59f001c 	ldr	r0, [pc, #28]	; 8be4 <_ZN4CI2C4OpenEv+0xdc>
    8bc4:	ebfffe01 	bl	83d0 <_ZN13CGPIO_Handler17Set_GPIO_FunctionEj14NGPIO_Function>
/mnt/c/Users/Kuba/Documents/ZeroMate/examples/19-I2C/kernel/src/drivers/i2c.cpp:43

    mOpened = true;
    8bc8:	e51b3008 	ldr	r3, [fp, #-8]
    8bcc:	e3a02001 	mov	r2, #1
    8bd0:	e5c32004 	strb	r2, [r3, #4]
/mnt/c/Users/Kuba/Documents/ZeroMate/examples/19-I2C/kernel/src/drivers/i2c.cpp:45

    return true;
    8bd4:	e3a03001 	mov	r3, #1
/mnt/c/Users/Kuba/Documents/ZeroMate/examples/19-I2C/kernel/src/drivers/i2c.cpp:46
}
    8bd8:	e1a00003 	mov	r0, r3
    8bdc:	e24bd004 	sub	sp, fp, #4
    8be0:	e8bd8800 	pop	{fp, pc}
    8be4:	00010b9c 	muleq	r1, ip, fp

00008be8 <_ZN4CI2C5CloseEv>:
_ZN4CI2C5CloseEv():
/mnt/c/Users/Kuba/Documents/ZeroMate/examples/19-I2C/kernel/src/drivers/i2c.cpp:49

void CI2C::Close()
{
    8be8:	e92d4800 	push	{fp, lr}
    8bec:	e28db004 	add	fp, sp, #4
    8bf0:	e24dd008 	sub	sp, sp, #8
    8bf4:	e50b0008 	str	r0, [fp, #-8]
/mnt/c/Users/Kuba/Documents/ZeroMate/examples/19-I2C/kernel/src/drivers/i2c.cpp:50
    Reg(hal::BSC_Reg::Control) = 0;
    8bf8:	e3a01000 	mov	r1, #0
    8bfc:	e51b0008 	ldr	r0, [fp, #-8]
    8c00:	ebffff9d 	bl	8a7c <_ZN4CI2C3RegEN3hal7BSC_RegE>
    8c04:	e1a03000 	mov	r3, r0
    8c08:	e3a02000 	mov	r2, #0
    8c0c:	e5832000 	str	r2, [r3]
/mnt/c/Users/Kuba/Documents/ZeroMate/examples/19-I2C/kernel/src/drivers/i2c.cpp:52

    sGPIO.Set_GPIO_Function(mSDA_Pin, NGPIO_Function::Input);
    8c10:	e51b3008 	ldr	r3, [fp, #-8]
    8c14:	e5933008 	ldr	r3, [r3, #8]
    8c18:	e3a02000 	mov	r2, #0
    8c1c:	e1a01003 	mov	r1, r3
    8c20:	e59f0060 	ldr	r0, [pc, #96]	; 8c88 <_ZN4CI2C5CloseEv+0xa0>
    8c24:	ebfffde9 	bl	83d0 <_ZN13CGPIO_Handler17Set_GPIO_FunctionEj14NGPIO_Function>
/mnt/c/Users/Kuba/Documents/ZeroMate/examples/19-I2C/kernel/src/drivers/i2c.cpp:53
    sGPIO.Set_GPIO_Function(mSCL_Pin, NGPIO_Function::Input);
    8c28:	e51b3008 	ldr	r3, [fp, #-8]
    8c2c:	e593300c 	ldr	r3, [r3, #12]
    8c30:	e3a02000 	mov	r2, #0
    8c34:	e1a01003 	mov	r1, r3
    8c38:	e59f0048 	ldr	r0, [pc, #72]	; 8c88 <_ZN4CI2C5CloseEv+0xa0>
    8c3c:	ebfffde3 	bl	83d0 <_ZN13CGPIO_Handler17Set_GPIO_FunctionEj14NGPIO_Function>
/mnt/c/Users/Kuba/Documents/ZeroMate/examples/19-I2C/kernel/src/drivers/i2c.cpp:55

    sGPIO.Free_Pin(mSDA_Pin, true, true);
    8c40:	e51b3008 	ldr	r3, [fp, #-8]
    8c44:	e5931008 	ldr	r1, [r3, #8]
    8c48:	e3a03001 	mov	r3, #1
    8c4c:	e3a02001 	mov	r2, #1
    8c50:	e59f0030 	ldr	r0, [pc, #48]	; 8c88 <_ZN4CI2C5CloseEv+0xa0>
    8c54:	ebfffee9 	bl	8800 <_ZN13CGPIO_Handler8Free_PinEjbb>
/mnt/c/Users/Kuba/Documents/ZeroMate/examples/19-I2C/kernel/src/drivers/i2c.cpp:56
    sGPIO.Free_Pin(mSCL_Pin, true, true);
    8c58:	e51b3008 	ldr	r3, [fp, #-8]
    8c5c:	e593100c 	ldr	r1, [r3, #12]
    8c60:	e3a03001 	mov	r3, #1
    8c64:	e3a02001 	mov	r2, #1
    8c68:	e59f0018 	ldr	r0, [pc, #24]	; 8c88 <_ZN4CI2C5CloseEv+0xa0>
    8c6c:	ebfffee3 	bl	8800 <_ZN13CGPIO_Handler8Free_PinEjbb>
/mnt/c/Users/Kuba/Documents/ZeroMate/examples/19-I2C/kernel/src/drivers/i2c.cpp:58

    mOpened = false;
    8c70:	e51b3008 	ldr	r3, [fp, #-8]
    8c74:	e3a02000 	mov	r2, #0
    8c78:	e5c32004 	strb	r2, [r3, #4]
/mnt/c/Users/Kuba/Documents/ZeroMate/examples/19-I2C/kernel/src/drivers/i2c.cpp:59
}
    8c7c:	e320f000 	nop	{0}
    8c80:	e24bd004 	sub	sp, fp, #4
    8c84:	e8bd8800 	pop	{fp, pc}
    8c88:	00010b9c 	muleq	r1, ip, fp

00008c8c <_ZNK4CI2C9Is_OpenedEv>:
_ZNK4CI2C9Is_OpenedEv():
/mnt/c/Users/Kuba/Documents/ZeroMate/examples/19-I2C/kernel/src/drivers/i2c.cpp:62

bool CI2C::Is_Opened() const
{
    8c8c:	e52db004 	push	{fp}		; (str fp, [sp, #-4]!)
    8c90:	e28db000 	add	fp, sp, #0
    8c94:	e24dd00c 	sub	sp, sp, #12
    8c98:	e50b0008 	str	r0, [fp, #-8]
/mnt/c/Users/Kuba/Documents/ZeroMate/examples/19-I2C/kernel/src/drivers/i2c.cpp:63
    return mOpened;
    8c9c:	e51b3008 	ldr	r3, [fp, #-8]
    8ca0:	e5d33004 	ldrb	r3, [r3, #4]
/mnt/c/Users/Kuba/Documents/ZeroMate/examples/19-I2C/kernel/src/drivers/i2c.cpp:64
}
    8ca4:	e1a00003 	mov	r0, r3
    8ca8:	e28bd000 	add	sp, fp, #0
    8cac:	e49db004 	pop	{fp}		; (ldr fp, [sp], #4)
    8cb0:	e12fff1e 	bx	lr

00008cb4 <_ZN4CI2C4SendEtPKcj>:
_ZN4CI2C4SendEtPKcj():
/mnt/c/Users/Kuba/Documents/ZeroMate/examples/19-I2C/kernel/src/drivers/i2c.cpp:67

void CI2C::Send(uint16_t addr, const char* buffer, uint32_t len)
{
    8cb4:	e92d4810 	push	{r4, fp, lr}
    8cb8:	e28db008 	add	fp, sp, #8
    8cbc:	e24dd01c 	sub	sp, sp, #28
    8cc0:	e50b0018 	str	r0, [fp, #-24]	; 0xffffffe8
    8cc4:	e50b2020 	str	r2, [fp, #-32]	; 0xffffffe0
    8cc8:	e50b3024 	str	r3, [fp, #-36]	; 0xffffffdc
    8ccc:	e1a03001 	mov	r3, r1
    8cd0:	e14b31ba 	strh	r3, [fp, #-26]	; 0xffffffe6
/mnt/c/Users/Kuba/Documents/ZeroMate/examples/19-I2C/kernel/src/drivers/i2c.cpp:68
    Reg(hal::BSC_Reg::Slave_Address) = addr;
    8cd4:	e3a01003 	mov	r1, #3
    8cd8:	e51b0018 	ldr	r0, [fp, #-24]	; 0xffffffe8
    8cdc:	ebffff66 	bl	8a7c <_ZN4CI2C3RegEN3hal7BSC_RegE>
    8ce0:	e1a02000 	mov	r2, r0
    8ce4:	e15b31ba 	ldrh	r3, [fp, #-26]	; 0xffffffe6
    8ce8:	e5823000 	str	r3, [r2]
/mnt/c/Users/Kuba/Documents/ZeroMate/examples/19-I2C/kernel/src/drivers/i2c.cpp:69
    Reg(hal::BSC_Reg::Data_Length) = len;
    8cec:	e3a01002 	mov	r1, #2
    8cf0:	e51b0018 	ldr	r0, [fp, #-24]	; 0xffffffe8
    8cf4:	ebffff60 	bl	8a7c <_ZN4CI2C3RegEN3hal7BSC_RegE>
    8cf8:	e1a02000 	mov	r2, r0
    8cfc:	e51b3024 	ldr	r3, [fp, #-36]	; 0xffffffdc
    8d00:	e5823000 	str	r3, [r2]
/mnt/c/Users/Kuba/Documents/ZeroMate/examples/19-I2C/kernel/src/drivers/i2c.cpp:71

    for (uint32_t i = 0; i < len; i++)
    8d04:	e3a03000 	mov	r3, #0
    8d08:	e50b3010 	str	r3, [fp, #-16]
/mnt/c/Users/Kuba/Documents/ZeroMate/examples/19-I2C/kernel/src/drivers/i2c.cpp:71 (discriminator 3)
    8d0c:	e51b2010 	ldr	r2, [fp, #-16]
    8d10:	e51b3024 	ldr	r3, [fp, #-36]	; 0xffffffdc
    8d14:	e1520003 	cmp	r2, r3
    8d18:	2a00000d 	bcs	8d54 <_ZN4CI2C4SendEtPKcj+0xa0>
/mnt/c/Users/Kuba/Documents/ZeroMate/examples/19-I2C/kernel/src/drivers/i2c.cpp:72 (discriminator 2)
        Reg(hal::BSC_Reg::Data_FIFO) = buffer[i];
    8d1c:	e51b2020 	ldr	r2, [fp, #-32]	; 0xffffffe0
    8d20:	e51b3010 	ldr	r3, [fp, #-16]
    8d24:	e0823003 	add	r3, r2, r3
    8d28:	e5d34000 	ldrb	r4, [r3]
    8d2c:	e3a01004 	mov	r1, #4
    8d30:	e51b0018 	ldr	r0, [fp, #-24]	; 0xffffffe8
    8d34:	ebffff50 	bl	8a7c <_ZN4CI2C3RegEN3hal7BSC_RegE>
    8d38:	e1a03000 	mov	r3, r0
    8d3c:	e1a02004 	mov	r2, r4
    8d40:	e5832000 	str	r2, [r3]
/mnt/c/Users/Kuba/Documents/ZeroMate/examples/19-I2C/kernel/src/drivers/i2c.cpp:71 (discriminator 2)
    for (uint32_t i = 0; i < len; i++)
    8d44:	e51b3010 	ldr	r3, [fp, #-16]
    8d48:	e2833001 	add	r3, r3, #1
    8d4c:	e50b3010 	str	r3, [fp, #-16]
    8d50:	eaffffed 	b	8d0c <_ZN4CI2C4SendEtPKcj+0x58>
/mnt/c/Users/Kuba/Documents/ZeroMate/examples/19-I2C/kernel/src/drivers/i2c.cpp:74

    Reg(hal::BSC_Reg::Status) = (1 << 9) | (1 << 8) | (1 << 1); // reset "slave clock hold", "slave fail" a "status" bitu
    8d54:	e3a01001 	mov	r1, #1
    8d58:	e51b0018 	ldr	r0, [fp, #-24]	; 0xffffffe8
    8d5c:	ebffff46 	bl	8a7c <_ZN4CI2C3RegEN3hal7BSC_RegE>
    8d60:	e1a03000 	mov	r3, r0
    8d64:	e59f202c 	ldr	r2, [pc, #44]	; 8d98 <_ZN4CI2C4SendEtPKcj+0xe4>
    8d68:	e5832000 	str	r2, [r3]
/mnt/c/Users/Kuba/Documents/ZeroMate/examples/19-I2C/kernel/src/drivers/i2c.cpp:75
    Reg(hal::BSC_Reg::Control) = (1 << 15) | (1 << 7); // zapoceti noveho prenosu (enable bsc + start transfer)
    8d6c:	e3a01000 	mov	r1, #0
    8d70:	e51b0018 	ldr	r0, [fp, #-24]	; 0xffffffe8
    8d74:	ebffff40 	bl	8a7c <_ZN4CI2C3RegEN3hal7BSC_RegE>
    8d78:	e1a03000 	mov	r3, r0
    8d7c:	e59f2018 	ldr	r2, [pc, #24]	; 8d9c <_ZN4CI2C4SendEtPKcj+0xe8>
    8d80:	e5832000 	str	r2, [r3]
/mnt/c/Users/Kuba/Documents/ZeroMate/examples/19-I2C/kernel/src/drivers/i2c.cpp:77

    Wait_Ready();
    8d84:	e51b0018 	ldr	r0, [fp, #-24]	; 0xffffffe8
    8d88:	ebffff49 	bl	8ab4 <_ZN4CI2C10Wait_ReadyEv>
/mnt/c/Users/Kuba/Documents/ZeroMate/examples/19-I2C/kernel/src/drivers/i2c.cpp:78
}
    8d8c:	e320f000 	nop	{0}
    8d90:	e24bd008 	sub	sp, fp, #8
    8d94:	e8bd8810 	pop	{r4, fp, pc}
    8d98:	00000302 	andeq	r0, r0, r2, lsl #6
    8d9c:	00008080 	andeq	r8, r0, r0, lsl #1

00008da0 <_ZN4CI2C7ReceiveEtPcj>:
_ZN4CI2C7ReceiveEtPcj():
/mnt/c/Users/Kuba/Documents/ZeroMate/examples/19-I2C/kernel/src/drivers/i2c.cpp:81

void CI2C::Receive(uint16_t addr, char* buffer, uint32_t len)
{
    8da0:	e92d4800 	push	{fp, lr}
    8da4:	e28db004 	add	fp, sp, #4
    8da8:	e24dd018 	sub	sp, sp, #24
    8dac:	e50b0010 	str	r0, [fp, #-16]
    8db0:	e50b2018 	str	r2, [fp, #-24]	; 0xffffffe8
    8db4:	e50b301c 	str	r3, [fp, #-28]	; 0xffffffe4
    8db8:	e1a03001 	mov	r3, r1
    8dbc:	e14b31b2 	strh	r3, [fp, #-18]	; 0xffffffee
/mnt/c/Users/Kuba/Documents/ZeroMate/examples/19-I2C/kernel/src/drivers/i2c.cpp:82
    Reg(hal::BSC_Reg::Slave_Address) = addr;
    8dc0:	e3a01003 	mov	r1, #3
    8dc4:	e51b0010 	ldr	r0, [fp, #-16]
    8dc8:	ebffff2b 	bl	8a7c <_ZN4CI2C3RegEN3hal7BSC_RegE>
    8dcc:	e1a02000 	mov	r2, r0
    8dd0:	e15b31b2 	ldrh	r3, [fp, #-18]	; 0xffffffee
    8dd4:	e5823000 	str	r3, [r2]
/mnt/c/Users/Kuba/Documents/ZeroMate/examples/19-I2C/kernel/src/drivers/i2c.cpp:83
    Reg(hal::BSC_Reg::Data_Length) = len;
    8dd8:	e3a01002 	mov	r1, #2
    8ddc:	e51b0010 	ldr	r0, [fp, #-16]
    8de0:	ebffff25 	bl	8a7c <_ZN4CI2C3RegEN3hal7BSC_RegE>
    8de4:	e1a02000 	mov	r2, r0
    8de8:	e51b301c 	ldr	r3, [fp, #-28]	; 0xffffffe4
    8dec:	e5823000 	str	r3, [r2]
/mnt/c/Users/Kuba/Documents/ZeroMate/examples/19-I2C/kernel/src/drivers/i2c.cpp:85

    Reg(hal::BSC_Reg::Status) = (1 << 9) | (1 << 8) | (1 << 1); // reset "slave clock hold", "slave fail" a "status" bitu
    8df0:	e3a01001 	mov	r1, #1
    8df4:	e51b0010 	ldr	r0, [fp, #-16]
    8df8:	ebffff1f 	bl	8a7c <_ZN4CI2C3RegEN3hal7BSC_RegE>
    8dfc:	e1a03000 	mov	r3, r0
    8e00:	e59f207c 	ldr	r2, [pc, #124]	; 8e84 <_ZN4CI2C7ReceiveEtPcj+0xe4>
    8e04:	e5832000 	str	r2, [r3]
/mnt/c/Users/Kuba/Documents/ZeroMate/examples/19-I2C/kernel/src/drivers/i2c.cpp:86
    Reg(hal::BSC_Reg::Control) = (1 << 15) | (1 << 7) | (1 << 4) | (1 << 0); // zapoceti cteni (enable bsc + clear fifo + start transfer + read)
    8e08:	e3a01000 	mov	r1, #0
    8e0c:	e51b0010 	ldr	r0, [fp, #-16]
    8e10:	ebffff19 	bl	8a7c <_ZN4CI2C3RegEN3hal7BSC_RegE>
    8e14:	e1a03000 	mov	r3, r0
    8e18:	e59f2068 	ldr	r2, [pc, #104]	; 8e88 <_ZN4CI2C7ReceiveEtPcj+0xe8>
    8e1c:	e5832000 	str	r2, [r3]
/mnt/c/Users/Kuba/Documents/ZeroMate/examples/19-I2C/kernel/src/drivers/i2c.cpp:88

    Wait_Ready();
    8e20:	e51b0010 	ldr	r0, [fp, #-16]
    8e24:	ebffff22 	bl	8ab4 <_ZN4CI2C10Wait_ReadyEv>
/mnt/c/Users/Kuba/Documents/ZeroMate/examples/19-I2C/kernel/src/drivers/i2c.cpp:90

    for (uint32_t i = 0; i < len; i++)
    8e28:	e3a03000 	mov	r3, #0
    8e2c:	e50b3008 	str	r3, [fp, #-8]
/mnt/c/Users/Kuba/Documents/ZeroMate/examples/19-I2C/kernel/src/drivers/i2c.cpp:90 (discriminator 3)
    8e30:	e51b2008 	ldr	r2, [fp, #-8]
    8e34:	e51b301c 	ldr	r3, [fp, #-28]	; 0xffffffe4
    8e38:	e1520003 	cmp	r2, r3
    8e3c:	2a00000d 	bcs	8e78 <_ZN4CI2C7ReceiveEtPcj+0xd8>
/mnt/c/Users/Kuba/Documents/ZeroMate/examples/19-I2C/kernel/src/drivers/i2c.cpp:91 (discriminator 2)
        buffer[i] = Reg(hal::BSC_Reg::Data_FIFO);
    8e40:	e3a01004 	mov	r1, #4
    8e44:	e51b0010 	ldr	r0, [fp, #-16]
    8e48:	ebffff0b 	bl	8a7c <_ZN4CI2C3RegEN3hal7BSC_RegE>
    8e4c:	e1a03000 	mov	r3, r0
    8e50:	e5931000 	ldr	r1, [r3]
    8e54:	e51b2018 	ldr	r2, [fp, #-24]	; 0xffffffe8
    8e58:	e51b3008 	ldr	r3, [fp, #-8]
    8e5c:	e0823003 	add	r3, r2, r3
    8e60:	e6ef2071 	uxtb	r2, r1
    8e64:	e5c32000 	strb	r2, [r3]
/mnt/c/Users/Kuba/Documents/ZeroMate/examples/19-I2C/kernel/src/drivers/i2c.cpp:90 (discriminator 2)
    for (uint32_t i = 0; i < len; i++)
    8e68:	e51b3008 	ldr	r3, [fp, #-8]
    8e6c:	e2833001 	add	r3, r3, #1
    8e70:	e50b3008 	str	r3, [fp, #-8]
    8e74:	eaffffed 	b	8e30 <_ZN4CI2C7ReceiveEtPcj+0x90>
/mnt/c/Users/Kuba/Documents/ZeroMate/examples/19-I2C/kernel/src/drivers/i2c.cpp:92
}
    8e78:	e320f000 	nop	{0}
    8e7c:	e24bd004 	sub	sp, fp, #4
    8e80:	e8bd8800 	pop	{fp, pc}
    8e84:	00000302 	andeq	r0, r0, r2, lsl #6
    8e88:	00008091 	muleq	r0, r1, r0

00008e8c <_ZN4CI2C17Begin_TransactionEt>:
_ZN4CI2C17Begin_TransactionEt():
/mnt/c/Users/Kuba/Documents/ZeroMate/examples/19-I2C/kernel/src/drivers/i2c.cpp:95

CI2C_Transaction& CI2C::Begin_Transaction(uint16_t addr)
{
    8e8c:	e92d4800 	push	{fp, lr}
    8e90:	e28db004 	add	fp, sp, #4
    8e94:	e24dd008 	sub	sp, sp, #8
    8e98:	e50b0008 	str	r0, [fp, #-8]
    8e9c:	e1a03001 	mov	r3, r1
    8ea0:	e14b30ba 	strh	r3, [fp, #-10]
/mnt/c/Users/Kuba/Documents/ZeroMate/examples/19-I2C/kernel/src/drivers/i2c.cpp:96
    if (mTransaction.mIn_Progress)
    8ea4:	e51b3008 	ldr	r3, [fp, #-8]
    8ea8:	e5d33010 	ldrb	r3, [r3, #16]
    8eac:	e3530000 	cmp	r3, #0
    8eb0:	0a000002 	beq	8ec0 <_ZN4CI2C17Begin_TransactionEt+0x34>
/mnt/c/Users/Kuba/Documents/ZeroMate/examples/19-I2C/kernel/src/drivers/i2c.cpp:97
        return mTransaction;
    8eb4:	e51b3008 	ldr	r3, [fp, #-8]
    8eb8:	e2833010 	add	r3, r3, #16
    8ebc:	ea00000d 	b	8ef8 <_ZN4CI2C17Begin_TransactionEt+0x6c>
/mnt/c/Users/Kuba/Documents/ZeroMate/examples/19-I2C/kernel/src/drivers/i2c.cpp:99

    mTransaction.mIn_Progress = true;
    8ec0:	e51b3008 	ldr	r3, [fp, #-8]
    8ec4:	e3a02001 	mov	r2, #1
    8ec8:	e5c32010 	strb	r2, [r3, #16]
/mnt/c/Users/Kuba/Documents/ZeroMate/examples/19-I2C/kernel/src/drivers/i2c.cpp:100
    mTransaction.mLength = 0;
    8ecc:	e51b3008 	ldr	r3, [fp, #-8]
    8ed0:	e3a02000 	mov	r2, #0
    8ed4:	e583201c 	str	r2, [r3, #28]
/mnt/c/Users/Kuba/Documents/ZeroMate/examples/19-I2C/kernel/src/drivers/i2c.cpp:101
    mTransaction.Set_Address(addr);
    8ed8:	e51b3008 	ldr	r3, [fp, #-8]
    8edc:	e2833010 	add	r3, r3, #16
    8ee0:	e15b20ba 	ldrh	r2, [fp, #-10]
    8ee4:	e1a01002 	mov	r1, r2
    8ee8:	e1a00003 	mov	r0, r3
    8eec:	eb000079 	bl	90d8 <_ZN16CI2C_Transaction11Set_AddressEt>
/mnt/c/Users/Kuba/Documents/ZeroMate/examples/19-I2C/kernel/src/drivers/i2c.cpp:103

    return mTransaction;
    8ef0:	e51b3008 	ldr	r3, [fp, #-8]
    8ef4:	e2833010 	add	r3, r3, #16
/mnt/c/Users/Kuba/Documents/ZeroMate/examples/19-I2C/kernel/src/drivers/i2c.cpp:104
}
    8ef8:	e1a00003 	mov	r0, r3
    8efc:	e24bd004 	sub	sp, fp, #4
    8f00:	e8bd8800 	pop	{fp, pc}

00008f04 <_ZN4CI2C15End_TransactionER16CI2C_Transactionb>:
_ZN4CI2C15End_TransactionER16CI2C_Transactionb():
/mnt/c/Users/Kuba/Documents/ZeroMate/examples/19-I2C/kernel/src/drivers/i2c.cpp:107

void CI2C::End_Transaction(CI2C_Transaction& transaction, bool commit)
{
    8f04:	e92d4810 	push	{r4, fp, lr}
    8f08:	e28db008 	add	fp, sp, #8
    8f0c:	e24dd01c 	sub	sp, sp, #28
    8f10:	e50b0018 	str	r0, [fp, #-24]	; 0xffffffe8
    8f14:	e50b101c 	str	r1, [fp, #-28]	; 0xffffffe4
    8f18:	e1a03002 	mov	r3, r2
    8f1c:	e54b301d 	strb	r3, [fp, #-29]	; 0xffffffe3
/mnt/c/Users/Kuba/Documents/ZeroMate/examples/19-I2C/kernel/src/drivers/i2c.cpp:108
    if (!transaction.mIn_Progress)
    8f20:	e51b301c 	ldr	r3, [fp, #-28]	; 0xffffffe4
    8f24:	e5d33000 	ldrb	r3, [r3]
    8f28:	e2233001 	eor	r3, r3, #1
    8f2c:	e6ef3073 	uxtb	r3, r3
    8f30:	e3530000 	cmp	r3, #0
    8f34:	1a000042 	bne	9044 <_ZN4CI2C15End_TransactionER16CI2C_Transactionb+0x140>
/mnt/c/Users/Kuba/Documents/ZeroMate/examples/19-I2C/kernel/src/drivers/i2c.cpp:111
        return;

    transaction.mIn_Progress = false;
    8f38:	e51b301c 	ldr	r3, [fp, #-28]	; 0xffffffe4
    8f3c:	e3a02000 	mov	r2, #0
    8f40:	e5c32000 	strb	r2, [r3]
/mnt/c/Users/Kuba/Documents/ZeroMate/examples/19-I2C/kernel/src/drivers/i2c.cpp:113

    if (!commit || transaction.mLength == 0)
    8f44:	e55b301d 	ldrb	r3, [fp, #-29]	; 0xffffffe3
    8f48:	e2233001 	eor	r3, r3, #1
    8f4c:	e6ef3073 	uxtb	r3, r3
    8f50:	e3530000 	cmp	r3, #0
    8f54:	1a00003c 	bne	904c <_ZN4CI2C15End_TransactionER16CI2C_Transactionb+0x148>
/mnt/c/Users/Kuba/Documents/ZeroMate/examples/19-I2C/kernel/src/drivers/i2c.cpp:113 (discriminator 1)
    8f58:	e51b301c 	ldr	r3, [fp, #-28]	; 0xffffffe4
    8f5c:	e593300c 	ldr	r3, [r3, #12]
    8f60:	e3530000 	cmp	r3, #0
    8f64:	0a000038 	beq	904c <_ZN4CI2C15End_TransactionER16CI2C_Transactionb+0x148>
/mnt/c/Users/Kuba/Documents/ZeroMate/examples/19-I2C/kernel/src/drivers/i2c.cpp:116
        return;

    Reg(hal::BSC_Reg::Slave_Address) = transaction.mAddress;
    8f68:	e51b301c 	ldr	r3, [fp, #-28]	; 0xffffffe4
    8f6c:	e1d341b0 	ldrh	r4, [r3, #16]
    8f70:	e3a01003 	mov	r1, #3
    8f74:	e51b0018 	ldr	r0, [fp, #-24]	; 0xffffffe8
    8f78:	ebfffebf 	bl	8a7c <_ZN4CI2C3RegEN3hal7BSC_RegE>
    8f7c:	e1a03000 	mov	r3, r0
    8f80:	e1a02004 	mov	r2, r4
    8f84:	e5832000 	str	r2, [r3]
/mnt/c/Users/Kuba/Documents/ZeroMate/examples/19-I2C/kernel/src/drivers/i2c.cpp:117
    Reg(hal::BSC_Reg::Data_Length) = transaction.mLength;
    8f88:	e3a01002 	mov	r1, #2
    8f8c:	e51b0018 	ldr	r0, [fp, #-24]	; 0xffffffe8
    8f90:	ebfffeb9 	bl	8a7c <_ZN4CI2C3RegEN3hal7BSC_RegE>
    8f94:	e1a02000 	mov	r2, r0
    8f98:	e51b301c 	ldr	r3, [fp, #-28]	; 0xffffffe4
    8f9c:	e593300c 	ldr	r3, [r3, #12]
    8fa0:	e5823000 	str	r3, [r2]
/mnt/c/Users/Kuba/Documents/ZeroMate/examples/19-I2C/kernel/src/drivers/i2c.cpp:119

    for (volatile int i = 0; i < transaction.mLength; i++)
    8fa4:	e3a03000 	mov	r3, #0
    8fa8:	e50b3010 	str	r3, [fp, #-16]
/mnt/c/Users/Kuba/Documents/ZeroMate/examples/19-I2C/kernel/src/drivers/i2c.cpp:119 (discriminator 3)
    8fac:	e51b301c 	ldr	r3, [fp, #-28]	; 0xffffffe4
    8fb0:	e593300c 	ldr	r3, [r3, #12]
    8fb4:	e51b2010 	ldr	r2, [fp, #-16]
    8fb8:	e1530002 	cmp	r3, r2
    8fbc:	83a03001 	movhi	r3, #1
    8fc0:	93a03000 	movls	r3, #0
    8fc4:	e6ef3073 	uxtb	r3, r3
    8fc8:	e3530000 	cmp	r3, #0
    8fcc:	0a00000d 	beq	9008 <_ZN4CI2C15End_TransactionER16CI2C_Transactionb+0x104>
/mnt/c/Users/Kuba/Documents/ZeroMate/examples/19-I2C/kernel/src/drivers/i2c.cpp:120 (discriminator 2)
        Reg(hal::BSC_Reg::Data_FIFO) = transaction.mBuffer[i];
    8fd0:	e51b3010 	ldr	r3, [fp, #-16]
    8fd4:	e51b201c 	ldr	r2, [fp, #-28]	; 0xffffffe4
    8fd8:	e0823003 	add	r3, r2, r3
    8fdc:	e5d34001 	ldrb	r4, [r3, #1]
    8fe0:	e3a01004 	mov	r1, #4
    8fe4:	e51b0018 	ldr	r0, [fp, #-24]	; 0xffffffe8
    8fe8:	ebfffea3 	bl	8a7c <_ZN4CI2C3RegEN3hal7BSC_RegE>
    8fec:	e1a03000 	mov	r3, r0
    8ff0:	e1a02004 	mov	r2, r4
    8ff4:	e5832000 	str	r2, [r3]
/mnt/c/Users/Kuba/Documents/ZeroMate/examples/19-I2C/kernel/src/drivers/i2c.cpp:119 (discriminator 2)
    for (volatile int i = 0; i < transaction.mLength; i++)
    8ff8:	e51b3010 	ldr	r3, [fp, #-16]
    8ffc:	e2833001 	add	r3, r3, #1
    9000:	e50b3010 	str	r3, [fp, #-16]
    9004:	eaffffe8 	b	8fac <_ZN4CI2C15End_TransactionER16CI2C_Transactionb+0xa8>
/mnt/c/Users/Kuba/Documents/ZeroMate/examples/19-I2C/kernel/src/drivers/i2c.cpp:122

    Reg(hal::BSC_Reg::Status) = (1 << 9) | (1 << 8) | (1 << 1); // reset "slave clock hold", "slave fail" a "status" bitu
    9008:	e3a01001 	mov	r1, #1
    900c:	e51b0018 	ldr	r0, [fp, #-24]	; 0xffffffe8
    9010:	ebfffe99 	bl	8a7c <_ZN4CI2C3RegEN3hal7BSC_RegE>
    9014:	e1a03000 	mov	r3, r0
    9018:	e59f2038 	ldr	r2, [pc, #56]	; 9058 <_ZN4CI2C15End_TransactionER16CI2C_Transactionb+0x154>
    901c:	e5832000 	str	r2, [r3]
/mnt/c/Users/Kuba/Documents/ZeroMate/examples/19-I2C/kernel/src/drivers/i2c.cpp:123
    Reg(hal::BSC_Reg::Control) = (1 << 15) | (1 << 7); // zapoceti noveho prenosu (enable bsc + start transfer)
    9020:	e3a01000 	mov	r1, #0
    9024:	e51b0018 	ldr	r0, [fp, #-24]	; 0xffffffe8
    9028:	ebfffe93 	bl	8a7c <_ZN4CI2C3RegEN3hal7BSC_RegE>
    902c:	e1a03000 	mov	r3, r0
    9030:	e59f2024 	ldr	r2, [pc, #36]	; 905c <_ZN4CI2C15End_TransactionER16CI2C_Transactionb+0x158>
    9034:	e5832000 	str	r2, [r3]
/mnt/c/Users/Kuba/Documents/ZeroMate/examples/19-I2C/kernel/src/drivers/i2c.cpp:125

    Wait_Ready();
    9038:	e51b0018 	ldr	r0, [fp, #-24]	; 0xffffffe8
    903c:	ebfffe9c 	bl	8ab4 <_ZN4CI2C10Wait_ReadyEv>
    9040:	ea000002 	b	9050 <_ZN4CI2C15End_TransactionER16CI2C_Transactionb+0x14c>
/mnt/c/Users/Kuba/Documents/ZeroMate/examples/19-I2C/kernel/src/drivers/i2c.cpp:109
        return;
    9044:	e320f000 	nop	{0}
    9048:	ea000000 	b	9050 <_ZN4CI2C15End_TransactionER16CI2C_Transactionb+0x14c>
/mnt/c/Users/Kuba/Documents/ZeroMate/examples/19-I2C/kernel/src/drivers/i2c.cpp:114
        return;
    904c:	e320f000 	nop	{0}
/mnt/c/Users/Kuba/Documents/ZeroMate/examples/19-I2C/kernel/src/drivers/i2c.cpp:126
}
    9050:	e24bd008 	sub	sp, fp, #8
    9054:	e8bd8810 	pop	{r4, fp, pc}
    9058:	00000302 	andeq	r0, r0, r2, lsl #6
    905c:	00008080 	andeq	r8, r0, r0, lsl #1

00009060 <_Z41__static_initialization_and_destruction_0ii>:
_Z41__static_initialization_and_destruction_0ii():
/mnt/c/Users/Kuba/Documents/ZeroMate/examples/19-I2C/kernel/src/drivers/i2c.cpp:126
    9060:	e92d4800 	push	{fp, lr}
    9064:	e28db004 	add	fp, sp, #4
    9068:	e24dd008 	sub	sp, sp, #8
    906c:	e50b0008 	str	r0, [fp, #-8]
    9070:	e50b100c 	str	r1, [fp, #-12]
    9074:	e51b3008 	ldr	r3, [fp, #-8]
    9078:	e3530001 	cmp	r3, #1
    907c:	1a000008 	bne	90a4 <_Z41__static_initialization_and_destruction_0ii+0x44>
/mnt/c/Users/Kuba/Documents/ZeroMate/examples/19-I2C/kernel/src/drivers/i2c.cpp:126 (discriminator 1)
    9080:	e51b300c 	ldr	r3, [fp, #-12]
    9084:	e59f2024 	ldr	r2, [pc, #36]	; 90b0 <_Z41__static_initialization_and_destruction_0ii+0x50>
    9088:	e1530002 	cmp	r3, r2
    908c:	1a000004 	bne	90a4 <_Z41__static_initialization_and_destruction_0ii+0x44>
/mnt/c/Users/Kuba/Documents/ZeroMate/examples/19-I2C/kernel/src/drivers/i2c.cpp:5
CI2C sI2C1(hal::BSC1_Base, 2, 3);
    9090:	e3a03003 	mov	r3, #3
    9094:	e3a02002 	mov	r2, #2
    9098:	e59f1014 	ldr	r1, [pc, #20]	; 90b4 <_Z41__static_initialization_and_destruction_0ii+0x54>
    909c:	e59f0014 	ldr	r0, [pc, #20]	; 90b8 <_Z41__static_initialization_and_destruction_0ii+0x58>
    90a0:	ebfffe5a 	bl	8a10 <_ZN4CI2CC1Emjj>
/mnt/c/Users/Kuba/Documents/ZeroMate/examples/19-I2C/kernel/src/drivers/i2c.cpp:126
}
    90a4:	e320f000 	nop	{0}
    90a8:	e24bd004 	sub	sp, fp, #4
    90ac:	e8bd8800 	pop	{fp, pc}
    90b0:	0000ffff 	strdeq	pc, [r0], -pc	; <UNPREDICTABLE>
    90b4:	20804000 	addcs	r4, r0, r0
    90b8:	00010bb0 			; <UNDEFINED> instruction: 0x00010bb0

000090bc <_GLOBAL__sub_I_sI2C1>:
_GLOBAL__sub_I_sI2C1():
/mnt/c/Users/Kuba/Documents/ZeroMate/examples/19-I2C/kernel/src/drivers/i2c.cpp:126
    90bc:	e92d4800 	push	{fp, lr}
    90c0:	e28db004 	add	fp, sp, #4
    90c4:	e59f1008 	ldr	r1, [pc, #8]	; 90d4 <_GLOBAL__sub_I_sI2C1+0x18>
    90c8:	e3a00001 	mov	r0, #1
    90cc:	ebffffe3 	bl	9060 <_Z41__static_initialization_and_destruction_0ii>
    90d0:	e8bd8800 	pop	{fp, pc}
    90d4:	0000ffff 	strdeq	pc, [r0], -pc	; <UNPREDICTABLE>

000090d8 <_ZN16CI2C_Transaction11Set_AddressEt>:
_ZN16CI2C_Transaction11Set_AddressEt():
/mnt/c/Users/Kuba/Documents/ZeroMate/examples/19-I2C/kernel/include/drivers/i2c.h:26
        uint16_t mAddress = 0;

    public:
        CI2C_Transaction() = default;

        void Set_Address(uint16_t addr)
    90d8:	e52db004 	push	{fp}		; (str fp, [sp, #-4]!)
    90dc:	e28db000 	add	fp, sp, #0
    90e0:	e24dd00c 	sub	sp, sp, #12
    90e4:	e50b0008 	str	r0, [fp, #-8]
    90e8:	e1a03001 	mov	r3, r1
    90ec:	e14b30ba 	strh	r3, [fp, #-10]
/mnt/c/Users/Kuba/Documents/ZeroMate/examples/19-I2C/kernel/include/drivers/i2c.h:28
        {
            mAddress = addr;
    90f0:	e51b3008 	ldr	r3, [fp, #-8]
    90f4:	e15b20ba 	ldrh	r2, [fp, #-10]
    90f8:	e1c321b0 	strh	r2, [r3, #16]
/mnt/c/Users/Kuba/Documents/ZeroMate/examples/19-I2C/kernel/include/drivers/i2c.h:29
        } 
    90fc:	e320f000 	nop	{0}
    9100:	e28bd000 	add	sp, fp, #0
    9104:	e49db004 	pop	{fp}		; (ldr fp, [sp], #4)
    9108:	e12fff1e 	bx	lr

0000910c <_ZN16CI2C_TransactionC1Ev>:
_ZN16CI2C_TransactionC2Ev():
/mnt/c/Users/Kuba/Documents/ZeroMate/examples/19-I2C/kernel/include/drivers/i2c.h:24
        CI2C_Transaction() = default;
    910c:	e52db004 	push	{fp}		; (str fp, [sp, #-4]!)
    9110:	e28db000 	add	fp, sp, #0
    9114:	e24dd00c 	sub	sp, sp, #12
    9118:	e50b0008 	str	r0, [fp, #-8]
    911c:	e51b3008 	ldr	r3, [fp, #-8]
    9120:	e3a02000 	mov	r2, #0
    9124:	e5c32000 	strb	r2, [r3]
    9128:	e51b3008 	ldr	r3, [fp, #-8]
    912c:	e3a02000 	mov	r2, #0
    9130:	e583200c 	str	r2, [r3, #12]
    9134:	e51b3008 	ldr	r3, [fp, #-8]
    9138:	e3a02000 	mov	r2, #0
    913c:	e1c321b0 	strh	r2, [r3, #16]
    9140:	e51b3008 	ldr	r3, [fp, #-8]
    9144:	e1a00003 	mov	r0, r3
    9148:	e28bd000 	add	sp, fp, #0
    914c:	e49db004 	pop	{fp}		; (ldr fp, [sp], #4)
    9150:	e12fff1e 	bx	lr

00009154 <_ZN8CMonitorC1Ejjj>:
_ZN8CMonitorC2Ejjj():
/mnt/c/Users/Kuba/Documents/ZeroMate/examples/19-I2C/kernel/src/drivers/monitor.cpp:5
#include <drivers/monitor.h>

CMonitor sMonitor{ 0x30000000, 80, 25 };

CMonitor::CMonitor(unsigned int monitor_base_addr, unsigned int width, unsigned int height)
    9154:	e52db004 	push	{fp}		; (str fp, [sp, #-4]!)
    9158:	e28db000 	add	fp, sp, #0
    915c:	e24dd014 	sub	sp, sp, #20
    9160:	e50b0008 	str	r0, [fp, #-8]
    9164:	e50b100c 	str	r1, [fp, #-12]
    9168:	e50b2010 	str	r2, [fp, #-16]
    916c:	e50b3014 	str	r3, [fp, #-20]	; 0xffffffec
/mnt/c/Users/Kuba/Documents/ZeroMate/examples/19-I2C/kernel/src/drivers/monitor.cpp:6
: m_monitor{ reinterpret_cast<unsigned char*>(monitor_base_addr) }
    9170:	e51b200c 	ldr	r2, [fp, #-12]
/mnt/c/Users/Kuba/Documents/ZeroMate/examples/19-I2C/kernel/src/drivers/monitor.cpp:10
, m_width{ width }
, m_height{ height }
, m_cursor{ 0, 0 }
, m_number_base{ DEFAULT_NUMBER_BASE }
    9174:	e51b3008 	ldr	r3, [fp, #-8]
    9178:	e5832000 	str	r2, [r3]
    917c:	e51b3008 	ldr	r3, [fp, #-8]
    9180:	e51b2010 	ldr	r2, [fp, #-16]
    9184:	e5832004 	str	r2, [r3, #4]
    9188:	e51b3008 	ldr	r3, [fp, #-8]
    918c:	e51b2014 	ldr	r2, [fp, #-20]	; 0xffffffec
    9190:	e5832008 	str	r2, [r3, #8]
    9194:	e51b3008 	ldr	r3, [fp, #-8]
    9198:	e3a02000 	mov	r2, #0
    919c:	e583200c 	str	r2, [r3, #12]
    91a0:	e51b3008 	ldr	r3, [fp, #-8]
    91a4:	e3a02000 	mov	r2, #0
    91a8:	e5832010 	str	r2, [r3, #16]
    91ac:	e51b3008 	ldr	r3, [fp, #-8]
    91b0:	e3a0200a 	mov	r2, #10
    91b4:	e5832014 	str	r2, [r3, #20]
/mnt/c/Users/Kuba/Documents/ZeroMate/examples/19-I2C/kernel/src/drivers/monitor.cpp:12
{
}
    91b8:	e51b3008 	ldr	r3, [fp, #-8]
    91bc:	e1a00003 	mov	r0, r3
    91c0:	e28bd000 	add	sp, fp, #0
    91c4:	e49db004 	pop	{fp}		; (ldr fp, [sp], #4)
    91c8:	e12fff1e 	bx	lr

000091cc <_ZN8CMonitor5ClearEv>:
_ZN8CMonitor5ClearEv():
/mnt/c/Users/Kuba/Documents/ZeroMate/examples/19-I2C/kernel/src/drivers/monitor.cpp:21
    m_cursor.y = 0;
    m_cursor.y = 0;
}

void CMonitor::Clear()
{
    91cc:	e92d4800 	push	{fp, lr}
    91d0:	e28db004 	add	fp, sp, #4
    91d4:	e24dd010 	sub	sp, sp, #16
    91d8:	e50b0010 	str	r0, [fp, #-16]
/mnt/c/Users/Kuba/Documents/ZeroMate/examples/19-I2C/kernel/src/drivers/monitor.cpp:22
    Reset_Cursor();
    91dc:	e51b0010 	ldr	r0, [fp, #-16]
    91e0:	eb00016d 	bl	979c <_ZN8CMonitor12Reset_CursorEv>
/mnt/c/Users/Kuba/Documents/ZeroMate/examples/19-I2C/kernel/src/drivers/monitor.cpp:24

    for (unsigned int y = 0; y < m_height; ++y)
    91e4:	e3a03000 	mov	r3, #0
    91e8:	e50b3008 	str	r3, [fp, #-8]
/mnt/c/Users/Kuba/Documents/ZeroMate/examples/19-I2C/kernel/src/drivers/monitor.cpp:24 (discriminator 1)
    91ec:	e51b3010 	ldr	r3, [fp, #-16]
    91f0:	e5933008 	ldr	r3, [r3, #8]
    91f4:	e51b2008 	ldr	r2, [fp, #-8]
    91f8:	e1520003 	cmp	r2, r3
    91fc:	2a000019 	bcs	9268 <_ZN8CMonitor5ClearEv+0x9c>
/mnt/c/Users/Kuba/Documents/ZeroMate/examples/19-I2C/kernel/src/drivers/monitor.cpp:26
    {
        for (unsigned int x = 0; x < m_width; ++x)
    9200:	e3a03000 	mov	r3, #0
    9204:	e50b300c 	str	r3, [fp, #-12]
/mnt/c/Users/Kuba/Documents/ZeroMate/examples/19-I2C/kernel/src/drivers/monitor.cpp:26 (discriminator 3)
    9208:	e51b3010 	ldr	r3, [fp, #-16]
    920c:	e5933004 	ldr	r3, [r3, #4]
    9210:	e51b200c 	ldr	r2, [fp, #-12]
    9214:	e1520003 	cmp	r2, r3
    9218:	2a00000e 	bcs	9258 <_ZN8CMonitor5ClearEv+0x8c>
/mnt/c/Users/Kuba/Documents/ZeroMate/examples/19-I2C/kernel/src/drivers/monitor.cpp:28 (discriminator 2)
        {
            m_monitor[(y * m_width) + x] = ' ';
    921c:	e51b3010 	ldr	r3, [fp, #-16]
    9220:	e5932000 	ldr	r2, [r3]
    9224:	e51b3010 	ldr	r3, [fp, #-16]
    9228:	e5933004 	ldr	r3, [r3, #4]
    922c:	e51b1008 	ldr	r1, [fp, #-8]
    9230:	e0010391 	mul	r1, r1, r3
    9234:	e51b300c 	ldr	r3, [fp, #-12]
    9238:	e0813003 	add	r3, r1, r3
    923c:	e0823003 	add	r3, r2, r3
    9240:	e3a02020 	mov	r2, #32
    9244:	e5c32000 	strb	r2, [r3]
/mnt/c/Users/Kuba/Documents/ZeroMate/examples/19-I2C/kernel/src/drivers/monitor.cpp:26 (discriminator 2)
        for (unsigned int x = 0; x < m_width; ++x)
    9248:	e51b300c 	ldr	r3, [fp, #-12]
    924c:	e2833001 	add	r3, r3, #1
    9250:	e50b300c 	str	r3, [fp, #-12]
    9254:	eaffffeb 	b	9208 <_ZN8CMonitor5ClearEv+0x3c>
/mnt/c/Users/Kuba/Documents/ZeroMate/examples/19-I2C/kernel/src/drivers/monitor.cpp:24 (discriminator 2)
    for (unsigned int y = 0; y < m_height; ++y)
    9258:	e51b3008 	ldr	r3, [fp, #-8]
    925c:	e2833001 	add	r3, r3, #1
    9260:	e50b3008 	str	r3, [fp, #-8]
    9264:	eaffffe0 	b	91ec <_ZN8CMonitor5ClearEv+0x20>
/mnt/c/Users/Kuba/Documents/ZeroMate/examples/19-I2C/kernel/src/drivers/monitor.cpp:31
        }
    }
}
    9268:	e320f000 	nop	{0}
    926c:	e24bd004 	sub	sp, fp, #4
    9270:	e8bd8800 	pop	{fp, pc}

00009274 <_ZN8CMonitor6ScrollEv>:
_ZN8CMonitor6ScrollEv():
/mnt/c/Users/Kuba/Documents/ZeroMate/examples/19-I2C/kernel/src/drivers/monitor.cpp:49
        m_cursor.y = m_height - 1;
    }
}

void CMonitor::Scroll()
{
    9274:	e52db004 	push	{fp}		; (str fp, [sp, #-4]!)
    9278:	e28db000 	add	fp, sp, #0
    927c:	e24dd01c 	sub	sp, sp, #28
    9280:	e50b0018 	str	r0, [fp, #-24]	; 0xffffffe8
/mnt/c/Users/Kuba/Documents/ZeroMate/examples/19-I2C/kernel/src/drivers/monitor.cpp:50
    for (unsigned int y = 1; y < m_height; ++y)
    9284:	e3a03001 	mov	r3, #1
    9288:	e50b3008 	str	r3, [fp, #-8]
/mnt/c/Users/Kuba/Documents/ZeroMate/examples/19-I2C/kernel/src/drivers/monitor.cpp:50 (discriminator 1)
    928c:	e51b3018 	ldr	r3, [fp, #-24]	; 0xffffffe8
    9290:	e5933008 	ldr	r3, [r3, #8]
    9294:	e51b2008 	ldr	r2, [fp, #-8]
    9298:	e1520003 	cmp	r2, r3
    929c:	2a000024 	bcs	9334 <_ZN8CMonitor6ScrollEv+0xc0>
/mnt/c/Users/Kuba/Documents/ZeroMate/examples/19-I2C/kernel/src/drivers/monitor.cpp:52
    {
        for (unsigned int x = 0; x < m_width; ++x)
    92a0:	e3a03000 	mov	r3, #0
    92a4:	e50b300c 	str	r3, [fp, #-12]
/mnt/c/Users/Kuba/Documents/ZeroMate/examples/19-I2C/kernel/src/drivers/monitor.cpp:52 (discriminator 3)
    92a8:	e51b3018 	ldr	r3, [fp, #-24]	; 0xffffffe8
    92ac:	e5933004 	ldr	r3, [r3, #4]
    92b0:	e51b200c 	ldr	r2, [fp, #-12]
    92b4:	e1520003 	cmp	r2, r3
    92b8:	2a000019 	bcs	9324 <_ZN8CMonitor6ScrollEv+0xb0>
/mnt/c/Users/Kuba/Documents/ZeroMate/examples/19-I2C/kernel/src/drivers/monitor.cpp:54 (discriminator 2)
        {
            m_monitor[((y - 1) * m_width) + x] = m_monitor[(y * m_width) + x];
    92bc:	e51b3018 	ldr	r3, [fp, #-24]	; 0xffffffe8
    92c0:	e5932000 	ldr	r2, [r3]
    92c4:	e51b3018 	ldr	r3, [fp, #-24]	; 0xffffffe8
    92c8:	e5933004 	ldr	r3, [r3, #4]
    92cc:	e51b1008 	ldr	r1, [fp, #-8]
    92d0:	e0010391 	mul	r1, r1, r3
    92d4:	e51b300c 	ldr	r3, [fp, #-12]
    92d8:	e0813003 	add	r3, r1, r3
    92dc:	e0822003 	add	r2, r2, r3
    92e0:	e51b3018 	ldr	r3, [fp, #-24]	; 0xffffffe8
    92e4:	e5931000 	ldr	r1, [r3]
    92e8:	e51b3008 	ldr	r3, [fp, #-8]
    92ec:	e2433001 	sub	r3, r3, #1
    92f0:	e51b0018 	ldr	r0, [fp, #-24]	; 0xffffffe8
    92f4:	e5900004 	ldr	r0, [r0, #4]
    92f8:	e0000390 	mul	r0, r0, r3
    92fc:	e51b300c 	ldr	r3, [fp, #-12]
    9300:	e0803003 	add	r3, r0, r3
    9304:	e0813003 	add	r3, r1, r3
    9308:	e5d22000 	ldrb	r2, [r2]
    930c:	e6ef2072 	uxtb	r2, r2
    9310:	e5c32000 	strb	r2, [r3]
/mnt/c/Users/Kuba/Documents/ZeroMate/examples/19-I2C/kernel/src/drivers/monitor.cpp:52 (discriminator 2)
        for (unsigned int x = 0; x < m_width; ++x)
    9314:	e51b300c 	ldr	r3, [fp, #-12]
    9318:	e2833001 	add	r3, r3, #1
    931c:	e50b300c 	str	r3, [fp, #-12]
    9320:	eaffffe0 	b	92a8 <_ZN8CMonitor6ScrollEv+0x34>
/mnt/c/Users/Kuba/Documents/ZeroMate/examples/19-I2C/kernel/src/drivers/monitor.cpp:50 (discriminator 2)
    for (unsigned int y = 1; y < m_height; ++y)
    9324:	e51b3008 	ldr	r3, [fp, #-8]
    9328:	e2833001 	add	r3, r3, #1
    932c:	e50b3008 	str	r3, [fp, #-8]
    9330:	eaffffd5 	b	928c <_ZN8CMonitor6ScrollEv+0x18>
/mnt/c/Users/Kuba/Documents/ZeroMate/examples/19-I2C/kernel/src/drivers/monitor.cpp:58
        }
    }

    for (unsigned int x = 0; x < m_width; ++x)
    9334:	e3a03000 	mov	r3, #0
    9338:	e50b3010 	str	r3, [fp, #-16]
/mnt/c/Users/Kuba/Documents/ZeroMate/examples/19-I2C/kernel/src/drivers/monitor.cpp:58 (discriminator 3)
    933c:	e51b3018 	ldr	r3, [fp, #-24]	; 0xffffffe8
    9340:	e5933004 	ldr	r3, [r3, #4]
    9344:	e51b2010 	ldr	r2, [fp, #-16]
    9348:	e1520003 	cmp	r2, r3
    934c:	2a000010 	bcs	9394 <_ZN8CMonitor6ScrollEv+0x120>
/mnt/c/Users/Kuba/Documents/ZeroMate/examples/19-I2C/kernel/src/drivers/monitor.cpp:60 (discriminator 2)
    {
        m_monitor[((m_height - 1) * m_width) + x] = ' ';
    9350:	e51b3018 	ldr	r3, [fp, #-24]	; 0xffffffe8
    9354:	e5932000 	ldr	r2, [r3]
    9358:	e51b3018 	ldr	r3, [fp, #-24]	; 0xffffffe8
    935c:	e5933008 	ldr	r3, [r3, #8]
    9360:	e2433001 	sub	r3, r3, #1
    9364:	e51b1018 	ldr	r1, [fp, #-24]	; 0xffffffe8
    9368:	e5911004 	ldr	r1, [r1, #4]
    936c:	e0010391 	mul	r1, r1, r3
    9370:	e51b3010 	ldr	r3, [fp, #-16]
    9374:	e0813003 	add	r3, r1, r3
    9378:	e0823003 	add	r3, r2, r3
    937c:	e3a02020 	mov	r2, #32
    9380:	e5c32000 	strb	r2, [r3]
/mnt/c/Users/Kuba/Documents/ZeroMate/examples/19-I2C/kernel/src/drivers/monitor.cpp:58 (discriminator 2)
    for (unsigned int x = 0; x < m_width; ++x)
    9384:	e51b3010 	ldr	r3, [fp, #-16]
    9388:	e2833001 	add	r3, r3, #1
    938c:	e50b3010 	str	r3, [fp, #-16]
    9390:	eaffffe9 	b	933c <_ZN8CMonitor6ScrollEv+0xc8>
/mnt/c/Users/Kuba/Documents/ZeroMate/examples/19-I2C/kernel/src/drivers/monitor.cpp:62
    }
}
    9394:	e320f000 	nop	{0}
    9398:	e28bd000 	add	sp, fp, #0
    939c:	e49db004 	pop	{fp}		; (ldr fp, [sp], #4)
    93a0:	e12fff1e 	bx	lr

000093a4 <_ZN8CMonitorlsEc>:
_ZN8CMonitorlsEc():
/mnt/c/Users/Kuba/Documents/ZeroMate/examples/19-I2C/kernel/src/drivers/monitor.cpp:70
{
    m_number_base = DEFAULT_NUMBER_BASE;
}

CMonitor& CMonitor::operator<<(char c)
{
    93a4:	e92d4800 	push	{fp, lr}
    93a8:	e28db004 	add	fp, sp, #4
    93ac:	e24dd008 	sub	sp, sp, #8
    93b0:	e50b0008 	str	r0, [fp, #-8]
    93b4:	e1a03001 	mov	r3, r1
    93b8:	e54b3009 	strb	r3, [fp, #-9]
/mnt/c/Users/Kuba/Documents/ZeroMate/examples/19-I2C/kernel/src/drivers/monitor.cpp:71
    if (c != '\n')
    93bc:	e55b3009 	ldrb	r3, [fp, #-9]
    93c0:	e353000a 	cmp	r3, #10
    93c4:	0a000012 	beq	9414 <_ZN8CMonitorlsEc+0x70>
/mnt/c/Users/Kuba/Documents/ZeroMate/examples/19-I2C/kernel/src/drivers/monitor.cpp:73
    {
        m_monitor[(m_cursor.y * m_width) + m_cursor.x] = static_cast<unsigned char>(c);
    93c8:	e51b3008 	ldr	r3, [fp, #-8]
    93cc:	e5932000 	ldr	r2, [r3]
    93d0:	e51b3008 	ldr	r3, [fp, #-8]
    93d4:	e593300c 	ldr	r3, [r3, #12]
    93d8:	e51b1008 	ldr	r1, [fp, #-8]
    93dc:	e5911004 	ldr	r1, [r1, #4]
    93e0:	e0010391 	mul	r1, r1, r3
    93e4:	e51b3008 	ldr	r3, [fp, #-8]
    93e8:	e5933010 	ldr	r3, [r3, #16]
    93ec:	e0813003 	add	r3, r1, r3
    93f0:	e0823003 	add	r3, r2, r3
    93f4:	e55b2009 	ldrb	r2, [fp, #-9]
    93f8:	e5c32000 	strb	r2, [r3]
/mnt/c/Users/Kuba/Documents/ZeroMate/examples/19-I2C/kernel/src/drivers/monitor.cpp:74
        ++m_cursor.x;
    93fc:	e51b3008 	ldr	r3, [fp, #-8]
    9400:	e5933010 	ldr	r3, [r3, #16]
    9404:	e2832001 	add	r2, r3, #1
    9408:	e51b3008 	ldr	r3, [fp, #-8]
    940c:	e5832010 	str	r2, [r3, #16]
    9410:	ea000007 	b	9434 <_ZN8CMonitorlsEc+0x90>
/mnt/c/Users/Kuba/Documents/ZeroMate/examples/19-I2C/kernel/src/drivers/monitor.cpp:78
    }
    else
    {
        m_cursor.x = 0;
    9414:	e51b3008 	ldr	r3, [fp, #-8]
    9418:	e3a02000 	mov	r2, #0
    941c:	e5832010 	str	r2, [r3, #16]
/mnt/c/Users/Kuba/Documents/ZeroMate/examples/19-I2C/kernel/src/drivers/monitor.cpp:79
        ++m_cursor.y;
    9420:	e51b3008 	ldr	r3, [fp, #-8]
    9424:	e593300c 	ldr	r3, [r3, #12]
    9428:	e2832001 	add	r2, r3, #1
    942c:	e51b3008 	ldr	r3, [fp, #-8]
    9430:	e583200c 	str	r2, [r3, #12]
/mnt/c/Users/Kuba/Documents/ZeroMate/examples/19-I2C/kernel/src/drivers/monitor.cpp:82
    }

    Adjust_Cursor();
    9434:	e51b0008 	ldr	r0, [fp, #-8]
    9438:	eb0000e5 	bl	97d4 <_ZN8CMonitor13Adjust_CursorEv>
/mnt/c/Users/Kuba/Documents/ZeroMate/examples/19-I2C/kernel/src/drivers/monitor.cpp:84

    return *this;
    943c:	e51b3008 	ldr	r3, [fp, #-8]
/mnt/c/Users/Kuba/Documents/ZeroMate/examples/19-I2C/kernel/src/drivers/monitor.cpp:85
}
    9440:	e1a00003 	mov	r0, r3
    9444:	e24bd004 	sub	sp, fp, #4
    9448:	e8bd8800 	pop	{fp, pc}

0000944c <_ZN8CMonitorlsEPKc>:
_ZN8CMonitorlsEPKc():
/mnt/c/Users/Kuba/Documents/ZeroMate/examples/19-I2C/kernel/src/drivers/monitor.cpp:88

CMonitor& CMonitor::operator<<(const char* str)
{
    944c:	e92d4800 	push	{fp, lr}
    9450:	e28db004 	add	fp, sp, #4
    9454:	e24dd010 	sub	sp, sp, #16
    9458:	e50b0010 	str	r0, [fp, #-16]
    945c:	e50b1014 	str	r1, [fp, #-20]	; 0xffffffec
/mnt/c/Users/Kuba/Documents/ZeroMate/examples/19-I2C/kernel/src/drivers/monitor.cpp:89
    for (unsigned int i = 0; str[i] != '\0'; ++i)
    9460:	e3a03000 	mov	r3, #0
    9464:	e50b3008 	str	r3, [fp, #-8]
/mnt/c/Users/Kuba/Documents/ZeroMate/examples/19-I2C/kernel/src/drivers/monitor.cpp:89 (discriminator 3)
    9468:	e51b2014 	ldr	r2, [fp, #-20]	; 0xffffffec
    946c:	e51b3008 	ldr	r3, [fp, #-8]
    9470:	e0823003 	add	r3, r2, r3
    9474:	e5d33000 	ldrb	r3, [r3]
    9478:	e3530000 	cmp	r3, #0
    947c:	0a00000a 	beq	94ac <_ZN8CMonitorlsEPKc+0x60>
/mnt/c/Users/Kuba/Documents/ZeroMate/examples/19-I2C/kernel/src/drivers/monitor.cpp:91 (discriminator 2)
    {
        *this << str[i];
    9480:	e51b2014 	ldr	r2, [fp, #-20]	; 0xffffffec
    9484:	e51b3008 	ldr	r3, [fp, #-8]
    9488:	e0823003 	add	r3, r2, r3
    948c:	e5d33000 	ldrb	r3, [r3]
    9490:	e1a01003 	mov	r1, r3
    9494:	e51b0010 	ldr	r0, [fp, #-16]
    9498:	ebffffc1 	bl	93a4 <_ZN8CMonitorlsEc>
/mnt/c/Users/Kuba/Documents/ZeroMate/examples/19-I2C/kernel/src/drivers/monitor.cpp:89 (discriminator 2)
    for (unsigned int i = 0; str[i] != '\0'; ++i)
    949c:	e51b3008 	ldr	r3, [fp, #-8]
    94a0:	e2833001 	add	r3, r3, #1
    94a4:	e50b3008 	str	r3, [fp, #-8]
    94a8:	eaffffee 	b	9468 <_ZN8CMonitorlsEPKc+0x1c>
/mnt/c/Users/Kuba/Documents/ZeroMate/examples/19-I2C/kernel/src/drivers/monitor.cpp:94
    }

    Reset_Number_Base();
    94ac:	e51b0010 	ldr	r0, [fp, #-16]
    94b0:	eb0000e9 	bl	985c <_ZN8CMonitor17Reset_Number_BaseEv>
/mnt/c/Users/Kuba/Documents/ZeroMate/examples/19-I2C/kernel/src/drivers/monitor.cpp:96

    return *this;
    94b4:	e51b3010 	ldr	r3, [fp, #-16]
/mnt/c/Users/Kuba/Documents/ZeroMate/examples/19-I2C/kernel/src/drivers/monitor.cpp:97
}
    94b8:	e1a00003 	mov	r0, r3
    94bc:	e24bd004 	sub	sp, fp, #4
    94c0:	e8bd8800 	pop	{fp, pc}

000094c4 <_ZN8CMonitorlsENS_12NNumber_BaseE>:
_ZN8CMonitorlsENS_12NNumber_BaseE():
/mnt/c/Users/Kuba/Documents/ZeroMate/examples/19-I2C/kernel/src/drivers/monitor.cpp:100

CMonitor& CMonitor::operator<<(CMonitor::NNumber_Base number_base)
{
    94c4:	e52db004 	push	{fp}		; (str fp, [sp, #-4]!)
    94c8:	e28db000 	add	fp, sp, #0
    94cc:	e24dd00c 	sub	sp, sp, #12
    94d0:	e50b0008 	str	r0, [fp, #-8]
    94d4:	e50b100c 	str	r1, [fp, #-12]
/mnt/c/Users/Kuba/Documents/ZeroMate/examples/19-I2C/kernel/src/drivers/monitor.cpp:101
    m_number_base = number_base;
    94d8:	e51b3008 	ldr	r3, [fp, #-8]
    94dc:	e51b200c 	ldr	r2, [fp, #-12]
    94e0:	e5832014 	str	r2, [r3, #20]
/mnt/c/Users/Kuba/Documents/ZeroMate/examples/19-I2C/kernel/src/drivers/monitor.cpp:103

    return *this;
    94e4:	e51b3008 	ldr	r3, [fp, #-8]
/mnt/c/Users/Kuba/Documents/ZeroMate/examples/19-I2C/kernel/src/drivers/monitor.cpp:104
}
    94e8:	e1a00003 	mov	r0, r3
    94ec:	e28bd000 	add	sp, fp, #0
    94f0:	e49db004 	pop	{fp}		; (ldr fp, [sp], #4)
    94f4:	e12fff1e 	bx	lr

000094f8 <_ZN8CMonitorlsEj>:
_ZN8CMonitorlsEj():
/mnt/c/Users/Kuba/Documents/ZeroMate/examples/19-I2C/kernel/src/drivers/monitor.cpp:107

CMonitor& CMonitor::operator<<(unsigned int num)
{
    94f8:	e92d4800 	push	{fp, lr}
    94fc:	e28db004 	add	fp, sp, #4
    9500:	e24dd008 	sub	sp, sp, #8
    9504:	e50b0008 	str	r0, [fp, #-8]
    9508:	e50b100c 	str	r1, [fp, #-12]
/mnt/c/Users/Kuba/Documents/ZeroMate/examples/19-I2C/kernel/src/drivers/monitor.cpp:112
    static constexpr unsigned int BUFFER_SIZE = 16;

    static char s_buffer[BUFFER_SIZE];

    itoa(num, s_buffer, static_cast<unsigned int>(m_number_base));
    950c:	e51b3008 	ldr	r3, [fp, #-8]
    9510:	e5933014 	ldr	r3, [r3, #20]
    9514:	e59f202c 	ldr	r2, [pc, #44]	; 9548 <_ZN8CMonitorlsEj+0x50>
    9518:	e51b100c 	ldr	r1, [fp, #-12]
    951c:	e51b0008 	ldr	r0, [fp, #-8]
    9520:	eb000021 	bl	95ac <_ZN8CMonitor4itoaEjPcj>
/mnt/c/Users/Kuba/Documents/ZeroMate/examples/19-I2C/kernel/src/drivers/monitor.cpp:113
    *this << s_buffer;
    9524:	e59f101c 	ldr	r1, [pc, #28]	; 9548 <_ZN8CMonitorlsEj+0x50>
    9528:	e51b0008 	ldr	r0, [fp, #-8]
    952c:	ebffffc6 	bl	944c <_ZN8CMonitorlsEPKc>
/mnt/c/Users/Kuba/Documents/ZeroMate/examples/19-I2C/kernel/src/drivers/monitor.cpp:114
    Reset_Number_Base();
    9530:	e51b0008 	ldr	r0, [fp, #-8]
    9534:	eb0000c8 	bl	985c <_ZN8CMonitor17Reset_Number_BaseEv>
/mnt/c/Users/Kuba/Documents/ZeroMate/examples/19-I2C/kernel/src/drivers/monitor.cpp:116

    return *this;
    9538:	e51b3008 	ldr	r3, [fp, #-8]
/mnt/c/Users/Kuba/Documents/ZeroMate/examples/19-I2C/kernel/src/drivers/monitor.cpp:117
}
    953c:	e1a00003 	mov	r0, r3
    9540:	e24bd004 	sub	sp, fp, #4
    9544:	e8bd8800 	pop	{fp, pc}
    9548:	00010bec 	andeq	r0, r1, ip, ror #23

0000954c <_ZN8CMonitorlsEb>:
_ZN8CMonitorlsEb():
/mnt/c/Users/Kuba/Documents/ZeroMate/examples/19-I2C/kernel/src/drivers/monitor.cpp:120

CMonitor& CMonitor::operator<<(bool value)
{
    954c:	e92d4800 	push	{fp, lr}
    9550:	e28db004 	add	fp, sp, #4
    9554:	e24dd008 	sub	sp, sp, #8
    9558:	e50b0008 	str	r0, [fp, #-8]
    955c:	e1a03001 	mov	r3, r1
    9560:	e54b3009 	strb	r3, [fp, #-9]
/mnt/c/Users/Kuba/Documents/ZeroMate/examples/19-I2C/kernel/src/drivers/monitor.cpp:121
    if (value)
    9564:	e55b3009 	ldrb	r3, [fp, #-9]
    9568:	e3530000 	cmp	r3, #0
    956c:	0a000003 	beq	9580 <_ZN8CMonitorlsEb+0x34>
/mnt/c/Users/Kuba/Documents/ZeroMate/examples/19-I2C/kernel/src/drivers/monitor.cpp:123
    {
        *this << "true";
    9570:	e59f102c 	ldr	r1, [pc, #44]	; 95a4 <_ZN8CMonitorlsEb+0x58>
    9574:	e51b0008 	ldr	r0, [fp, #-8]
    9578:	ebffffb3 	bl	944c <_ZN8CMonitorlsEPKc>
    957c:	ea000002 	b	958c <_ZN8CMonitorlsEb+0x40>
/mnt/c/Users/Kuba/Documents/ZeroMate/examples/19-I2C/kernel/src/drivers/monitor.cpp:127
    }
    else
    {
        *this << "false";
    9580:	e59f1020 	ldr	r1, [pc, #32]	; 95a8 <_ZN8CMonitorlsEb+0x5c>
    9584:	e51b0008 	ldr	r0, [fp, #-8]
    9588:	ebffffaf 	bl	944c <_ZN8CMonitorlsEPKc>
/mnt/c/Users/Kuba/Documents/ZeroMate/examples/19-I2C/kernel/src/drivers/monitor.cpp:130
    }

    Reset_Number_Base();
    958c:	e51b0008 	ldr	r0, [fp, #-8]
    9590:	eb0000b1 	bl	985c <_ZN8CMonitor17Reset_Number_BaseEv>
/mnt/c/Users/Kuba/Documents/ZeroMate/examples/19-I2C/kernel/src/drivers/monitor.cpp:132

    return *this;
    9594:	e51b3008 	ldr	r3, [fp, #-8]
/mnt/c/Users/Kuba/Documents/ZeroMate/examples/19-I2C/kernel/src/drivers/monitor.cpp:133
}
    9598:	e1a00003 	mov	r0, r3
    959c:	e24bd004 	sub	sp, fp, #4
    95a0:	e8bd8800 	pop	{fp, pc}
    95a4:	0000ffc8 	andeq	pc, r0, r8, asr #31
    95a8:	0000ffd0 	ldrdeq	pc, [r0], -r0

000095ac <_ZN8CMonitor4itoaEjPcj>:
_ZN8CMonitor4itoaEjPcj():
/mnt/c/Users/Kuba/Documents/ZeroMate/examples/19-I2C/kernel/src/drivers/monitor.cpp:136

void CMonitor::itoa(unsigned int input, char* output, unsigned int base)
{
    95ac:	e92d4800 	push	{fp, lr}
    95b0:	e28db004 	add	fp, sp, #4
    95b4:	e24dd020 	sub	sp, sp, #32
    95b8:	e50b0018 	str	r0, [fp, #-24]	; 0xffffffe8
    95bc:	e50b101c 	str	r1, [fp, #-28]	; 0xffffffe4
    95c0:	e50b2020 	str	r2, [fp, #-32]	; 0xffffffe0
    95c4:	e50b3024 	str	r3, [fp, #-36]	; 0xffffffdc
/mnt/c/Users/Kuba/Documents/ZeroMate/examples/19-I2C/kernel/src/drivers/monitor.cpp:137
    int i = 0;
    95c8:	e3a03000 	mov	r3, #0
    95cc:	e50b3008 	str	r3, [fp, #-8]
/mnt/c/Users/Kuba/Documents/ZeroMate/examples/19-I2C/kernel/src/drivers/monitor.cpp:139

    while (input > 0)
    95d0:	e51b301c 	ldr	r3, [fp, #-28]	; 0xffffffe4
    95d4:	e3530000 	cmp	r3, #0
    95d8:	0a000015 	beq	9634 <_ZN8CMonitor4itoaEjPcj+0x88>
/mnt/c/Users/Kuba/Documents/ZeroMate/examples/19-I2C/kernel/src/drivers/monitor.cpp:141
    {
        output[i] = CharConvArr[input % base];
    95dc:	e51b301c 	ldr	r3, [fp, #-28]	; 0xffffffe4
    95e0:	e51b1024 	ldr	r1, [fp, #-36]	; 0xffffffdc
    95e4:	e1a00003 	mov	r0, r3
    95e8:	eb001a55 	bl	ff44 <__aeabi_uidivmod>
    95ec:	e1a03001 	mov	r3, r1
    95f0:	e1a02003 	mov	r2, r3
    95f4:	e59f3128 	ldr	r3, [pc, #296]	; 9724 <_ZN8CMonitor4itoaEjPcj+0x178>
    95f8:	e0822003 	add	r2, r2, r3
    95fc:	e51b3008 	ldr	r3, [fp, #-8]
    9600:	e51b1020 	ldr	r1, [fp, #-32]	; 0xffffffe0
    9604:	e0813003 	add	r3, r1, r3
    9608:	e5d22000 	ldrb	r2, [r2]
    960c:	e5c32000 	strb	r2, [r3]
/mnt/c/Users/Kuba/Documents/ZeroMate/examples/19-I2C/kernel/src/drivers/monitor.cpp:142
        input /= base;
    9610:	e51b1024 	ldr	r1, [fp, #-36]	; 0xffffffdc
    9614:	e51b001c 	ldr	r0, [fp, #-28]	; 0xffffffe4
    9618:	eb0019ce 	bl	fd58 <__udivsi3>
    961c:	e1a03000 	mov	r3, r0
    9620:	e50b301c 	str	r3, [fp, #-28]	; 0xffffffe4
/mnt/c/Users/Kuba/Documents/ZeroMate/examples/19-I2C/kernel/src/drivers/monitor.cpp:144

        i++;
    9624:	e51b3008 	ldr	r3, [fp, #-8]
    9628:	e2833001 	add	r3, r3, #1
    962c:	e50b3008 	str	r3, [fp, #-8]
/mnt/c/Users/Kuba/Documents/ZeroMate/examples/19-I2C/kernel/src/drivers/monitor.cpp:139
    while (input > 0)
    9630:	eaffffe6 	b	95d0 <_ZN8CMonitor4itoaEjPcj+0x24>
/mnt/c/Users/Kuba/Documents/ZeroMate/examples/19-I2C/kernel/src/drivers/monitor.cpp:147
    }

    if (i == 0)
    9634:	e51b3008 	ldr	r3, [fp, #-8]
    9638:	e3530000 	cmp	r3, #0
    963c:	1a000007 	bne	9660 <_ZN8CMonitor4itoaEjPcj+0xb4>
/mnt/c/Users/Kuba/Documents/ZeroMate/examples/19-I2C/kernel/src/drivers/monitor.cpp:149
    {
        output[i] = CharConvArr[0];
    9640:	e51b3008 	ldr	r3, [fp, #-8]
    9644:	e51b2020 	ldr	r2, [fp, #-32]	; 0xffffffe0
    9648:	e0823003 	add	r3, r2, r3
    964c:	e3a02030 	mov	r2, #48	; 0x30
    9650:	e5c32000 	strb	r2, [r3]
/mnt/c/Users/Kuba/Documents/ZeroMate/examples/19-I2C/kernel/src/drivers/monitor.cpp:150
        i++;
    9654:	e51b3008 	ldr	r3, [fp, #-8]
    9658:	e2833001 	add	r3, r3, #1
    965c:	e50b3008 	str	r3, [fp, #-8]
/mnt/c/Users/Kuba/Documents/ZeroMate/examples/19-I2C/kernel/src/drivers/monitor.cpp:153
    }

    output[i] = '\0';
    9660:	e51b3008 	ldr	r3, [fp, #-8]
    9664:	e51b2020 	ldr	r2, [fp, #-32]	; 0xffffffe0
    9668:	e0823003 	add	r3, r2, r3
    966c:	e3a02000 	mov	r2, #0
    9670:	e5c32000 	strb	r2, [r3]
/mnt/c/Users/Kuba/Documents/ZeroMate/examples/19-I2C/kernel/src/drivers/monitor.cpp:154
    i--;
    9674:	e51b3008 	ldr	r3, [fp, #-8]
    9678:	e2433001 	sub	r3, r3, #1
    967c:	e50b3008 	str	r3, [fp, #-8]
/mnt/c/Users/Kuba/Documents/ZeroMate/examples/19-I2C/kernel/src/drivers/monitor.cpp:156

    for (int j = 0; j <= (i / 2); j++)
    9680:	e3a03000 	mov	r3, #0
    9684:	e50b300c 	str	r3, [fp, #-12]
/mnt/c/Users/Kuba/Documents/ZeroMate/examples/19-I2C/kernel/src/drivers/monitor.cpp:156 (discriminator 3)
    9688:	e51b3008 	ldr	r3, [fp, #-8]
    968c:	e1a02fa3 	lsr	r2, r3, #31
    9690:	e0823003 	add	r3, r2, r3
    9694:	e1a030c3 	asr	r3, r3, #1
    9698:	e1a02003 	mov	r2, r3
    969c:	e51b300c 	ldr	r3, [fp, #-12]
    96a0:	e1530002 	cmp	r3, r2
    96a4:	ca00001b 	bgt	9718 <_ZN8CMonitor4itoaEjPcj+0x16c>
/mnt/c/Users/Kuba/Documents/ZeroMate/examples/19-I2C/kernel/src/drivers/monitor.cpp:158 (discriminator 2)
    {
        char c = output[i - j];
    96a8:	e51b2008 	ldr	r2, [fp, #-8]
    96ac:	e51b300c 	ldr	r3, [fp, #-12]
    96b0:	e0423003 	sub	r3, r2, r3
    96b4:	e1a02003 	mov	r2, r3
    96b8:	e51b3020 	ldr	r3, [fp, #-32]	; 0xffffffe0
    96bc:	e0833002 	add	r3, r3, r2
    96c0:	e5d33000 	ldrb	r3, [r3]
    96c4:	e54b300d 	strb	r3, [fp, #-13]
/mnt/c/Users/Kuba/Documents/ZeroMate/examples/19-I2C/kernel/src/drivers/monitor.cpp:159 (discriminator 2)
        output[i - j] = output[j];
    96c8:	e51b300c 	ldr	r3, [fp, #-12]
    96cc:	e51b2020 	ldr	r2, [fp, #-32]	; 0xffffffe0
    96d0:	e0822003 	add	r2, r2, r3
    96d4:	e51b1008 	ldr	r1, [fp, #-8]
    96d8:	e51b300c 	ldr	r3, [fp, #-12]
    96dc:	e0413003 	sub	r3, r1, r3
    96e0:	e1a01003 	mov	r1, r3
    96e4:	e51b3020 	ldr	r3, [fp, #-32]	; 0xffffffe0
    96e8:	e0833001 	add	r3, r3, r1
    96ec:	e5d22000 	ldrb	r2, [r2]
    96f0:	e5c32000 	strb	r2, [r3]
/mnt/c/Users/Kuba/Documents/ZeroMate/examples/19-I2C/kernel/src/drivers/monitor.cpp:160 (discriminator 2)
        output[j] = c;
    96f4:	e51b300c 	ldr	r3, [fp, #-12]
    96f8:	e51b2020 	ldr	r2, [fp, #-32]	; 0xffffffe0
    96fc:	e0823003 	add	r3, r2, r3
    9700:	e55b200d 	ldrb	r2, [fp, #-13]
    9704:	e5c32000 	strb	r2, [r3]
/mnt/c/Users/Kuba/Documents/ZeroMate/examples/19-I2C/kernel/src/drivers/monitor.cpp:156 (discriminator 2)
    for (int j = 0; j <= (i / 2); j++)
    9708:	e51b300c 	ldr	r3, [fp, #-12]
    970c:	e2833001 	add	r3, r3, #1
    9710:	e50b300c 	str	r3, [fp, #-12]
    9714:	eaffffdb 	b	9688 <_ZN8CMonitor4itoaEjPcj+0xdc>
/mnt/c/Users/Kuba/Documents/ZeroMate/examples/19-I2C/kernel/src/drivers/monitor.cpp:162
    }
}
    9718:	e320f000 	nop	{0}
    971c:	e24bd004 	sub	sp, fp, #4
    9720:	e8bd8800 	pop	{fp, pc}
    9724:	0000ffd8 	ldrdeq	pc, [r0], -r8

00009728 <_Z41__static_initialization_and_destruction_0ii>:
_Z41__static_initialization_and_destruction_0ii():
/mnt/c/Users/Kuba/Documents/ZeroMate/examples/19-I2C/kernel/src/drivers/monitor.cpp:162
    9728:	e92d4800 	push	{fp, lr}
    972c:	e28db004 	add	fp, sp, #4
    9730:	e24dd008 	sub	sp, sp, #8
    9734:	e50b0008 	str	r0, [fp, #-8]
    9738:	e50b100c 	str	r1, [fp, #-12]
    973c:	e51b3008 	ldr	r3, [fp, #-8]
    9740:	e3530001 	cmp	r3, #1
    9744:	1a000008 	bne	976c <_Z41__static_initialization_and_destruction_0ii+0x44>
/mnt/c/Users/Kuba/Documents/ZeroMate/examples/19-I2C/kernel/src/drivers/monitor.cpp:162 (discriminator 1)
    9748:	e51b300c 	ldr	r3, [fp, #-12]
    974c:	e59f2024 	ldr	r2, [pc, #36]	; 9778 <_Z41__static_initialization_and_destruction_0ii+0x50>
    9750:	e1530002 	cmp	r3, r2
    9754:	1a000004 	bne	976c <_Z41__static_initialization_and_destruction_0ii+0x44>
/mnt/c/Users/Kuba/Documents/ZeroMate/examples/19-I2C/kernel/src/drivers/monitor.cpp:3
CMonitor sMonitor{ 0x30000000, 80, 25 };
    9758:	e3a03019 	mov	r3, #25
    975c:	e3a02050 	mov	r2, #80	; 0x50
    9760:	e3a01203 	mov	r1, #805306368	; 0x30000000
    9764:	e59f0010 	ldr	r0, [pc, #16]	; 977c <_Z41__static_initialization_and_destruction_0ii+0x54>
    9768:	ebfffe79 	bl	9154 <_ZN8CMonitorC1Ejjj>
/mnt/c/Users/Kuba/Documents/ZeroMate/examples/19-I2C/kernel/src/drivers/monitor.cpp:162
}
    976c:	e320f000 	nop	{0}
    9770:	e24bd004 	sub	sp, fp, #4
    9774:	e8bd8800 	pop	{fp, pc}
    9778:	0000ffff 	strdeq	pc, [r0], -pc	; <UNPREDICTABLE>
    977c:	00010bd4 	ldrdeq	r0, [r1], -r4

00009780 <_GLOBAL__sub_I_sMonitor>:
_GLOBAL__sub_I_sMonitor():
/mnt/c/Users/Kuba/Documents/ZeroMate/examples/19-I2C/kernel/src/drivers/monitor.cpp:162
    9780:	e92d4800 	push	{fp, lr}
    9784:	e28db004 	add	fp, sp, #4
    9788:	e59f1008 	ldr	r1, [pc, #8]	; 9798 <_GLOBAL__sub_I_sMonitor+0x18>
    978c:	e3a00001 	mov	r0, #1
    9790:	ebffffe4 	bl	9728 <_Z41__static_initialization_and_destruction_0ii>
    9794:	e8bd8800 	pop	{fp, pc}
    9798:	0000ffff 	strdeq	pc, [r0], -pc	; <UNPREDICTABLE>

0000979c <_ZN8CMonitor12Reset_CursorEv>:
_ZN8CMonitor12Reset_CursorEv():
/mnt/c/Users/Kuba/Documents/ZeroMate/examples/19-I2C/kernel/src/drivers/monitor.cpp:15
{
    979c:	e52db004 	push	{fp}		; (str fp, [sp, #-4]!)
    97a0:	e28db000 	add	fp, sp, #0
    97a4:	e24dd00c 	sub	sp, sp, #12
    97a8:	e50b0008 	str	r0, [fp, #-8]
/mnt/c/Users/Kuba/Documents/ZeroMate/examples/19-I2C/kernel/src/drivers/monitor.cpp:16
    m_cursor.y = 0;
    97ac:	e51b3008 	ldr	r3, [fp, #-8]
    97b0:	e3a02000 	mov	r2, #0
    97b4:	e583200c 	str	r2, [r3, #12]
/mnt/c/Users/Kuba/Documents/ZeroMate/examples/19-I2C/kernel/src/drivers/monitor.cpp:17
    m_cursor.y = 0;
    97b8:	e51b3008 	ldr	r3, [fp, #-8]
    97bc:	e3a02000 	mov	r2, #0
    97c0:	e583200c 	str	r2, [r3, #12]
/mnt/c/Users/Kuba/Documents/ZeroMate/examples/19-I2C/kernel/src/drivers/monitor.cpp:18
}
    97c4:	e320f000 	nop	{0}
    97c8:	e28bd000 	add	sp, fp, #0
    97cc:	e49db004 	pop	{fp}		; (ldr fp, [sp], #4)
    97d0:	e12fff1e 	bx	lr

000097d4 <_ZN8CMonitor13Adjust_CursorEv>:
_ZN8CMonitor13Adjust_CursorEv():
/mnt/c/Users/Kuba/Documents/ZeroMate/examples/19-I2C/kernel/src/drivers/monitor.cpp:34
{
    97d4:	e92d4800 	push	{fp, lr}
    97d8:	e28db004 	add	fp, sp, #4
    97dc:	e24dd008 	sub	sp, sp, #8
    97e0:	e50b0008 	str	r0, [fp, #-8]
/mnt/c/Users/Kuba/Documents/ZeroMate/examples/19-I2C/kernel/src/drivers/monitor.cpp:35
    if (m_cursor.x >= m_width)
    97e4:	e51b3008 	ldr	r3, [fp, #-8]
    97e8:	e5932010 	ldr	r2, [r3, #16]
    97ec:	e51b3008 	ldr	r3, [fp, #-8]
    97f0:	e5933004 	ldr	r3, [r3, #4]
    97f4:	e1520003 	cmp	r2, r3
    97f8:	3a000007 	bcc	981c <_ZN8CMonitor13Adjust_CursorEv+0x48>
/mnt/c/Users/Kuba/Documents/ZeroMate/examples/19-I2C/kernel/src/drivers/monitor.cpp:37
        m_cursor.x = 0;
    97fc:	e51b3008 	ldr	r3, [fp, #-8]
    9800:	e3a02000 	mov	r2, #0
    9804:	e5832010 	str	r2, [r3, #16]
/mnt/c/Users/Kuba/Documents/ZeroMate/examples/19-I2C/kernel/src/drivers/monitor.cpp:38
        ++m_cursor.y;
    9808:	e51b3008 	ldr	r3, [fp, #-8]
    980c:	e593300c 	ldr	r3, [r3, #12]
    9810:	e2832001 	add	r2, r3, #1
    9814:	e51b3008 	ldr	r3, [fp, #-8]
    9818:	e583200c 	str	r2, [r3, #12]
/mnt/c/Users/Kuba/Documents/ZeroMate/examples/19-I2C/kernel/src/drivers/monitor.cpp:41
    if (m_cursor.y >= m_height)
    981c:	e51b3008 	ldr	r3, [fp, #-8]
    9820:	e593200c 	ldr	r2, [r3, #12]
    9824:	e51b3008 	ldr	r3, [fp, #-8]
    9828:	e5933008 	ldr	r3, [r3, #8]
    982c:	e1520003 	cmp	r2, r3
    9830:	3a000006 	bcc	9850 <_ZN8CMonitor13Adjust_CursorEv+0x7c>
/mnt/c/Users/Kuba/Documents/ZeroMate/examples/19-I2C/kernel/src/drivers/monitor.cpp:43
        Scroll();
    9834:	e51b0008 	ldr	r0, [fp, #-8]
    9838:	ebfffe8d 	bl	9274 <_ZN8CMonitor6ScrollEv>
/mnt/c/Users/Kuba/Documents/ZeroMate/examples/19-I2C/kernel/src/drivers/monitor.cpp:44
        m_cursor.y = m_height - 1;
    983c:	e51b3008 	ldr	r3, [fp, #-8]
    9840:	e5933008 	ldr	r3, [r3, #8]
    9844:	e2432001 	sub	r2, r3, #1
    9848:	e51b3008 	ldr	r3, [fp, #-8]
    984c:	e583200c 	str	r2, [r3, #12]
/mnt/c/Users/Kuba/Documents/ZeroMate/examples/19-I2C/kernel/src/drivers/monitor.cpp:46
}
    9850:	e320f000 	nop	{0}
    9854:	e24bd004 	sub	sp, fp, #4
    9858:	e8bd8800 	pop	{fp, pc}

0000985c <_ZN8CMonitor17Reset_Number_BaseEv>:
_ZN8CMonitor17Reset_Number_BaseEv():
/mnt/c/Users/Kuba/Documents/ZeroMate/examples/19-I2C/kernel/src/drivers/monitor.cpp:65
{
    985c:	e52db004 	push	{fp}		; (str fp, [sp, #-4]!)
    9860:	e28db000 	add	fp, sp, #0
    9864:	e24dd00c 	sub	sp, sp, #12
    9868:	e50b0008 	str	r0, [fp, #-8]
/mnt/c/Users/Kuba/Documents/ZeroMate/examples/19-I2C/kernel/src/drivers/monitor.cpp:66
    m_number_base = DEFAULT_NUMBER_BASE;
    986c:	e51b3008 	ldr	r3, [fp, #-8]
    9870:	e3a0200a 	mov	r2, #10
    9874:	e5832014 	str	r2, [r3, #20]
/mnt/c/Users/Kuba/Documents/ZeroMate/examples/19-I2C/kernel/src/drivers/monitor.cpp:67
}
    9878:	e320f000 	nop	{0}
    987c:	e28bd000 	add	sp, fp, #0
    9880:	e49db004 	pop	{fp}		; (ldr fp, [sp], #4)
    9884:	e12fff1e 	bx	lr

00009888 <_ZN16CDisplay_SSD1306C1ER4CI2C>:
_ZN16CDisplay_SSD1306C2ER4CI2C():
/mnt/c/Users/Kuba/Documents/ZeroMate/examples/19-I2C/kernel/src/drivers/oled_ssd1306.cpp:9

#include <drivers/bridges/display_protocol.h>

CDisplay_SSD1306 sDisplay_SSD1306(sI2C1);

CDisplay_SSD1306::CDisplay_SSD1306(CI2C& i2c)
    9888:	e52db004 	push	{fp}		; (str fp, [sp, #-4]!)
    988c:	e28db000 	add	fp, sp, #0
    9890:	e24dd00c 	sub	sp, sp, #12
    9894:	e50b0008 	str	r0, [fp, #-8]
    9898:	e50b100c 	str	r1, [fp, #-12]
/mnt/c/Users/Kuba/Documents/ZeroMate/examples/19-I2C/kernel/src/drivers/oled_ssd1306.cpp:10
    : mI2C(i2c), mOpened(false), mBuffer(nullptr), mWidth(0), mHeight(0)
    989c:	e51b3008 	ldr	r3, [fp, #-8]
    98a0:	e51b200c 	ldr	r2, [fp, #-12]
    98a4:	e5832000 	str	r2, [r3]
    98a8:	e51b3008 	ldr	r3, [fp, #-8]
    98ac:	e3a02000 	mov	r2, #0
    98b0:	e5c32004 	strb	r2, [r3, #4]
    98b4:	e51b3008 	ldr	r3, [fp, #-8]
    98b8:	e3a02000 	mov	r2, #0
    98bc:	e5832008 	str	r2, [r3, #8]
    98c0:	e51b3008 	ldr	r3, [fp, #-8]
    98c4:	e3a02000 	mov	r2, #0
    98c8:	e583200c 	str	r2, [r3, #12]
    98cc:	e51b3008 	ldr	r3, [fp, #-8]
    98d0:	e3a02000 	mov	r2, #0
    98d4:	e5832010 	str	r2, [r3, #16]
/mnt/c/Users/Kuba/Documents/ZeroMate/examples/19-I2C/kernel/src/drivers/oled_ssd1306.cpp:13
{

}
    98d8:	e51b3008 	ldr	r3, [fp, #-8]
    98dc:	e1a00003 	mov	r0, r3
    98e0:	e28bd000 	add	sp, fp, #0
    98e4:	e49db004 	pop	{fp}		; (ldr fp, [sp], #4)
    98e8:	e12fff1e 	bx	lr

000098ec <_ZN16CDisplay_SSD13064OpenEii>:
_ZN16CDisplay_SSD13064OpenEii():
/mnt/c/Users/Kuba/Documents/ZeroMate/examples/19-I2C/kernel/src/drivers/oled_ssd1306.cpp:16

bool CDisplay_SSD1306::Open(int width, int height)
{
    98ec:	e92d4800 	push	{fp, lr}
    98f0:	e28db004 	add	fp, sp, #4
    98f4:	e24dd0d8 	sub	sp, sp, #216	; 0xd8
    98f8:	e50b00d0 	str	r0, [fp, #-208]	; 0xffffff30
    98fc:	e50b10d4 	str	r1, [fp, #-212]	; 0xffffff2c
    9900:	e50b20d8 	str	r2, [fp, #-216]	; 0xffffff28
/mnt/c/Users/Kuba/Documents/ZeroMate/examples/19-I2C/kernel/src/drivers/oled_ssd1306.cpp:17
    if (!mI2C.Open())
    9904:	e51b30d0 	ldr	r3, [fp, #-208]	; 0xffffff30
    9908:	e5933000 	ldr	r3, [r3]
    990c:	e1a00003 	mov	r0, r3
    9910:	ebfffc7c 	bl	8b08 <_ZN4CI2C4OpenEv>
    9914:	e1a03000 	mov	r3, r0
    9918:	e2233001 	eor	r3, r3, #1
    991c:	e6ef3073 	uxtb	r3, r3
    9920:	e3530000 	cmp	r3, #0
    9924:	0a000001 	beq	9930 <_ZN16CDisplay_SSD13064OpenEii+0x44>
/mnt/c/Users/Kuba/Documents/ZeroMate/examples/19-I2C/kernel/src/drivers/oled_ssd1306.cpp:18
        return false;
    9928:	e3a03000 	mov	r3, #0
    992c:	ea0001b8 	b	a014 <_ZN16CDisplay_SSD13064OpenEii+0x728>
/mnt/c/Users/Kuba/Documents/ZeroMate/examples/19-I2C/kernel/src/drivers/oled_ssd1306.cpp:20

    mOpened = true;
    9930:	e51b30d0 	ldr	r3, [fp, #-208]	; 0xffffff30
    9934:	e3a02001 	mov	r2, #1
    9938:	e5c32004 	strb	r2, [r3, #4]
/mnt/c/Users/Kuba/Documents/ZeroMate/examples/19-I2C/kernel/src/drivers/oled_ssd1306.cpp:23

    // zaokrouhlime nahoru na nasobek osmi (na cele stranky)
    if (height % 8 != 0)
    993c:	e51b30d8 	ldr	r3, [fp, #-216]	; 0xffffff28
    9940:	e2033007 	and	r3, r3, #7
    9944:	e3530000 	cmp	r3, #0
    9948:	0a000008 	beq	9970 <_ZN16CDisplay_SSD13064OpenEii+0x84>
/mnt/c/Users/Kuba/Documents/ZeroMate/examples/19-I2C/kernel/src/drivers/oled_ssd1306.cpp:24
        height += 8 - (height % 8);
    994c:	e51b30d8 	ldr	r3, [fp, #-216]	; 0xffffff28
    9950:	e2732000 	rsbs	r2, r3, #0
    9954:	e2033007 	and	r3, r3, #7
    9958:	e2022007 	and	r2, r2, #7
    995c:	52623000 	rsbpl	r3, r2, #0
    9960:	e2633008 	rsb	r3, r3, #8
    9964:	e51b20d8 	ldr	r2, [fp, #-216]	; 0xffffff28
    9968:	e0823003 	add	r3, r2, r3
    996c:	e50b30d8 	str	r3, [fp, #-216]	; 0xffffff28
/mnt/c/Users/Kuba/Documents/ZeroMate/examples/19-I2C/kernel/src/drivers/oled_ssd1306.cpp:26

    mWidth = width;
    9970:	e51b30d0 	ldr	r3, [fp, #-208]	; 0xffffff30
    9974:	e51b20d4 	ldr	r2, [fp, #-212]	; 0xffffff2c
    9978:	e583200c 	str	r2, [r3, #12]
/mnt/c/Users/Kuba/Documents/ZeroMate/examples/19-I2C/kernel/src/drivers/oled_ssd1306.cpp:27
    mHeight = height;
    997c:	e51b30d0 	ldr	r3, [fp, #-208]	; 0xffffff30
    9980:	e51b20d8 	ldr	r2, [fp, #-216]	; 0xffffff28
    9984:	e5832010 	str	r2, [r3, #16]
/mnt/c/Users/Kuba/Documents/ZeroMate/examples/19-I2C/kernel/src/drivers/oled_ssd1306.cpp:32

    // alokujeme si buffer, ten je velky tak jako displej
    // dalo by se to optimalizovat, napr. primym kreslenim, bufferovanim vyrezu, apod.
    // ale to my ted nepotrebujeme, obzvlast kdyz spotrebujeme max jednotky kB a mame k dispozici >512MB RAM
    mBuffer = new uint8_t[mWidth * mHeight / 8];
    9988:	e51b30d0 	ldr	r3, [fp, #-208]	; 0xffffff30
    998c:	e593300c 	ldr	r3, [r3, #12]
    9990:	e51b20d0 	ldr	r2, [fp, #-208]	; 0xffffff30
    9994:	e5922010 	ldr	r2, [r2, #16]
    9998:	e0030392 	mul	r3, r2, r3
    999c:	e2832007 	add	r2, r3, #7
    99a0:	e3530000 	cmp	r3, #0
    99a4:	b1a03002 	movlt	r3, r2
    99a8:	a1a03003 	movge	r3, r3
    99ac:	e1a031c3 	asr	r3, r3, #3
    99b0:	e1a00003 	mov	r0, r3
    99b4:	eb0018e6 	bl	fd54 <_Znaj>
    99b8:	e1a03000 	mov	r3, r0
    99bc:	e1a02003 	mov	r2, r3
    99c0:	e51b30d0 	ldr	r3, [fp, #-208]	; 0xffffff30
    99c4:	e5832008 	str	r2, [r3, #8]
/mnt/c/Users/Kuba/Documents/ZeroMate/examples/19-I2C/kernel/src/drivers/oled_ssd1306.cpp:36

    // vypneme displej, nastavime clock ratio (z datasheetu, doporucena hodnota), nastavime multiplex ratio (vysku displeje)
    {
        auto& ta = mI2C.Begin_Transaction(SSD1306_Slave_Address);
    99c8:	e51b30d0 	ldr	r3, [fp, #-208]	; 0xffffff30
    99cc:	e5933000 	ldr	r3, [r3]
    99d0:	e3a0103c 	mov	r1, #60	; 0x3c
    99d4:	e1a00003 	mov	r0, r3
    99d8:	ebfffd2b 	bl	8e8c <_ZN4CI2C17Begin_TransactionEt>
    99dc:	e50b0008 	str	r0, [fp, #-8]
/mnt/c/Users/Kuba/Documents/ZeroMate/examples/19-I2C/kernel/src/drivers/oled_ssd1306.cpp:38

        ta << SSD1306_Cmd::Command_Start
    99e0:	e3a03000 	mov	r3, #0
    99e4:	e50b30cc 	str	r3, [fp, #-204]	; 0xffffff34
    99e8:	e24b30cc 	sub	r3, fp, #204	; 0xcc
    99ec:	e1a01003 	mov	r1, r3
    99f0:	e51b0008 	ldr	r0, [fp, #-8]
    99f4:	eb000475 	bl	abd0 <_ZN16CI2C_TransactionlsI11SSD1306_CmdEERS_RKT_>
    99f8:	e1a02000 	mov	r2, r0
/mnt/c/Users/Kuba/Documents/ZeroMate/examples/19-I2C/kernel/src/drivers/oled_ssd1306.cpp:39
            << SSD1306_Cmd::Display_Off
    99fc:	e3a030ae 	mov	r3, #174	; 0xae
    9a00:	e50b30c8 	str	r3, [fp, #-200]	; 0xffffff38
    9a04:	e24b30c8 	sub	r3, fp, #200	; 0xc8
    9a08:	e1a01003 	mov	r1, r3
    9a0c:	e1a00002 	mov	r0, r2
    9a10:	eb00046e 	bl	abd0 <_ZN16CI2C_TransactionlsI11SSD1306_CmdEERS_RKT_>
    9a14:	e1a02000 	mov	r2, r0
/mnt/c/Users/Kuba/Documents/ZeroMate/examples/19-I2C/kernel/src/drivers/oled_ssd1306.cpp:40
            << SSD1306_Cmd::Set_Display_Clock_Div_Ratio
    9a18:	e3a030d5 	mov	r3, #213	; 0xd5
    9a1c:	e50b30c4 	str	r3, [fp, #-196]	; 0xffffff3c
    9a20:	e24b30c4 	sub	r3, fp, #196	; 0xc4
    9a24:	e1a01003 	mov	r1, r3
    9a28:	e1a00002 	mov	r0, r2
    9a2c:	eb000467 	bl	abd0 <_ZN16CI2C_TransactionlsI11SSD1306_CmdEERS_RKT_>
    9a30:	e1a02000 	mov	r2, r0
/mnt/c/Users/Kuba/Documents/ZeroMate/examples/19-I2C/kernel/src/drivers/oled_ssd1306.cpp:41
            << 0x80
    9a34:	e3a03080 	mov	r3, #128	; 0x80
    9a38:	e50b30c0 	str	r3, [fp, #-192]	; 0xffffff40
    9a3c:	e24b30c0 	sub	r3, fp, #192	; 0xc0
    9a40:	e1a01003 	mov	r1, r3
    9a44:	e1a00002 	mov	r0, r2
    9a48:	eb00047c 	bl	ac40 <_ZN16CI2C_TransactionlsIiEERS_RKT_>
    9a4c:	e1a02000 	mov	r2, r0
/mnt/c/Users/Kuba/Documents/ZeroMate/examples/19-I2C/kernel/src/drivers/oled_ssd1306.cpp:42
            << SSD1306_Cmd::Set_Multiplex_Ratio;
    9a50:	e3a030a8 	mov	r3, #168	; 0xa8
    9a54:	e50b30bc 	str	r3, [fp, #-188]	; 0xffffff44
    9a58:	e24b30bc 	sub	r3, fp, #188	; 0xbc
    9a5c:	e1a01003 	mov	r1, r3
    9a60:	e1a00002 	mov	r0, r2
    9a64:	eb000459 	bl	abd0 <_ZN16CI2C_TransactionlsI11SSD1306_CmdEERS_RKT_>
/mnt/c/Users/Kuba/Documents/ZeroMate/examples/19-I2C/kernel/src/drivers/oled_ssd1306.cpp:44

        mI2C.End_Transaction(ta);
    9a68:	e51b30d0 	ldr	r3, [fp, #-208]	; 0xffffff30
    9a6c:	e5933000 	ldr	r3, [r3]
    9a70:	e3a02001 	mov	r2, #1
    9a74:	e51b1008 	ldr	r1, [fp, #-8]
    9a78:	e1a00003 	mov	r0, r3
    9a7c:	ebfffd20 	bl	8f04 <_ZN4CI2C15End_TransactionER16CI2C_Transactionb>
/mnt/c/Users/Kuba/Documents/ZeroMate/examples/19-I2C/kernel/src/drivers/oled_ssd1306.cpp:49
    }

    // pokracovani predchoziho - multiplex ratio
    {
        auto& ta = mI2C.Begin_Transaction(SSD1306_Slave_Address);
    9a80:	e51b30d0 	ldr	r3, [fp, #-208]	; 0xffffff30
    9a84:	e5933000 	ldr	r3, [r3]
    9a88:	e3a0103c 	mov	r1, #60	; 0x3c
    9a8c:	e1a00003 	mov	r0, r3
    9a90:	ebfffcfd 	bl	8e8c <_ZN4CI2C17Begin_TransactionEt>
    9a94:	e50b000c 	str	r0, [fp, #-12]
/mnt/c/Users/Kuba/Documents/ZeroMate/examples/19-I2C/kernel/src/drivers/oled_ssd1306.cpp:51

        ta << SSD1306_Cmd::Command_Start
    9a98:	e3a03000 	mov	r3, #0
    9a9c:	e50b30b8 	str	r3, [fp, #-184]	; 0xffffff48
    9aa0:	e24b30b8 	sub	r3, fp, #184	; 0xb8
    9aa4:	e1a01003 	mov	r1, r3
    9aa8:	e51b000c 	ldr	r0, [fp, #-12]
    9aac:	eb000447 	bl	abd0 <_ZN16CI2C_TransactionlsI11SSD1306_CmdEERS_RKT_>
    9ab0:	e1a02000 	mov	r2, r0
/mnt/c/Users/Kuba/Documents/ZeroMate/examples/19-I2C/kernel/src/drivers/oled_ssd1306.cpp:52
            << height - 1;
    9ab4:	e51b30d8 	ldr	r3, [fp, #-216]	; 0xffffff28
    9ab8:	e2433001 	sub	r3, r3, #1
    9abc:	e50b30b4 	str	r3, [fp, #-180]	; 0xffffff4c
    9ac0:	e24b30b4 	sub	r3, fp, #180	; 0xb4
    9ac4:	e1a01003 	mov	r1, r3
    9ac8:	e1a00002 	mov	r0, r2
    9acc:	eb00045b 	bl	ac40 <_ZN16CI2C_TransactionlsIiEERS_RKT_>
/mnt/c/Users/Kuba/Documents/ZeroMate/examples/19-I2C/kernel/src/drivers/oled_ssd1306.cpp:54

        mI2C.End_Transaction(ta);
    9ad0:	e51b30d0 	ldr	r3, [fp, #-208]	; 0xffffff30
    9ad4:	e5933000 	ldr	r3, [r3]
    9ad8:	e3a02001 	mov	r2, #1
    9adc:	e51b100c 	ldr	r1, [fp, #-12]
    9ae0:	e1a00003 	mov	r0, r3
    9ae4:	ebfffd06 	bl	8f04 <_ZN4CI2C15End_TransactionER16CI2C_Transactionb>
/mnt/c/Users/Kuba/Documents/ZeroMate/examples/19-I2C/kernel/src/drivers/oled_ssd1306.cpp:59
    }

    // nastavime display offset (pametovy offset a jeho matching na realnou matici), pocatecni radek a vlastnosti vnitrniho menice (nabojova puma)
    {
        auto& ta = mI2C.Begin_Transaction(SSD1306_Slave_Address);
    9ae8:	e51b30d0 	ldr	r3, [fp, #-208]	; 0xffffff30
    9aec:	e5933000 	ldr	r3, [r3]
    9af0:	e3a0103c 	mov	r1, #60	; 0x3c
    9af4:	e1a00003 	mov	r0, r3
    9af8:	ebfffce3 	bl	8e8c <_ZN4CI2C17Begin_TransactionEt>
    9afc:	e50b0010 	str	r0, [fp, #-16]
/mnt/c/Users/Kuba/Documents/ZeroMate/examples/19-I2C/kernel/src/drivers/oled_ssd1306.cpp:61

        ta << SSD1306_Cmd::Command_Start
    9b00:	e3a03000 	mov	r3, #0
    9b04:	e50b30b0 	str	r3, [fp, #-176]	; 0xffffff50
    9b08:	e24b30b0 	sub	r3, fp, #176	; 0xb0
    9b0c:	e1a01003 	mov	r1, r3
    9b10:	e51b0010 	ldr	r0, [fp, #-16]
    9b14:	eb00042d 	bl	abd0 <_ZN16CI2C_TransactionlsI11SSD1306_CmdEERS_RKT_>
    9b18:	e1a02000 	mov	r2, r0
/mnt/c/Users/Kuba/Documents/ZeroMate/examples/19-I2C/kernel/src/drivers/oled_ssd1306.cpp:62
            << SSD1306_Cmd::Set_Display_Offset
    9b1c:	e3a030d3 	mov	r3, #211	; 0xd3
    9b20:	e50b30ac 	str	r3, [fp, #-172]	; 0xffffff54
    9b24:	e24b30ac 	sub	r3, fp, #172	; 0xac
    9b28:	e1a01003 	mov	r1, r3
    9b2c:	e1a00002 	mov	r0, r2
    9b30:	eb000426 	bl	abd0 <_ZN16CI2C_TransactionlsI11SSD1306_CmdEERS_RKT_>
    9b34:	e1a02000 	mov	r2, r0
/mnt/c/Users/Kuba/Documents/ZeroMate/examples/19-I2C/kernel/src/drivers/oled_ssd1306.cpp:63
            << 0x00
    9b38:	e3a03000 	mov	r3, #0
    9b3c:	e50b30a8 	str	r3, [fp, #-168]	; 0xffffff58
    9b40:	e24b30a8 	sub	r3, fp, #168	; 0xa8
    9b44:	e1a01003 	mov	r1, r3
    9b48:	e1a00002 	mov	r0, r2
    9b4c:	eb00043b 	bl	ac40 <_ZN16CI2C_TransactionlsIiEERS_RKT_>
    9b50:	e1a02000 	mov	r2, r0
/mnt/c/Users/Kuba/Documents/ZeroMate/examples/19-I2C/kernel/src/drivers/oled_ssd1306.cpp:64
            << (static_cast<uint8_t>(SSD1306_Cmd::Set_Start_Line) | 0x00) // zacatek na radce 0
    9b54:	e3a03040 	mov	r3, #64	; 0x40
    9b58:	e50b30a4 	str	r3, [fp, #-164]	; 0xffffff5c
    9b5c:	e24b30a4 	sub	r3, fp, #164	; 0xa4
    9b60:	e1a01003 	mov	r1, r3
    9b64:	e1a00002 	mov	r0, r2
    9b68:	eb000434 	bl	ac40 <_ZN16CI2C_TransactionlsIiEERS_RKT_>
    9b6c:	e1a02000 	mov	r2, r0
/mnt/c/Users/Kuba/Documents/ZeroMate/examples/19-I2C/kernel/src/drivers/oled_ssd1306.cpp:65
            << SSD1306_Cmd::Charge_Pump;
    9b70:	e3a0308d 	mov	r3, #141	; 0x8d
    9b74:	e50b30a0 	str	r3, [fp, #-160]	; 0xffffff60
    9b78:	e24b30a0 	sub	r3, fp, #160	; 0xa0
    9b7c:	e1a01003 	mov	r1, r3
    9b80:	e1a00002 	mov	r0, r2
    9b84:	eb000411 	bl	abd0 <_ZN16CI2C_TransactionlsI11SSD1306_CmdEERS_RKT_>
/mnt/c/Users/Kuba/Documents/ZeroMate/examples/19-I2C/kernel/src/drivers/oled_ssd1306.cpp:67

        mI2C.End_Transaction(ta);
    9b88:	e51b30d0 	ldr	r3, [fp, #-208]	; 0xffffff30
    9b8c:	e5933000 	ldr	r3, [r3]
    9b90:	e3a02001 	mov	r2, #1
    9b94:	e51b1010 	ldr	r1, [fp, #-16]
    9b98:	e1a00003 	mov	r0, r3
    9b9c:	ebfffcd8 	bl	8f04 <_ZN4CI2C15End_TransactionER16CI2C_Transactionb>
/mnt/c/Users/Kuba/Documents/ZeroMate/examples/19-I2C/kernel/src/drivers/oled_ssd1306.cpp:72
    }

    // pokracovani predchoziho - nabojova pumpa, 0x14 je hodnota z datasheetu pro konkretni displej
    {
        auto& ta = mI2C.Begin_Transaction(SSD1306_Slave_Address);
    9ba0:	e51b30d0 	ldr	r3, [fp, #-208]	; 0xffffff30
    9ba4:	e5933000 	ldr	r3, [r3]
    9ba8:	e3a0103c 	mov	r1, #60	; 0x3c
    9bac:	e1a00003 	mov	r0, r3
    9bb0:	ebfffcb5 	bl	8e8c <_ZN4CI2C17Begin_TransactionEt>
    9bb4:	e50b0014 	str	r0, [fp, #-20]	; 0xffffffec
/mnt/c/Users/Kuba/Documents/ZeroMate/examples/19-I2C/kernel/src/drivers/oled_ssd1306.cpp:74

        ta << SSD1306_Cmd::Command_Start
    9bb8:	e3a03000 	mov	r3, #0
    9bbc:	e50b309c 	str	r3, [fp, #-156]	; 0xffffff64
    9bc0:	e24b309c 	sub	r3, fp, #156	; 0x9c
    9bc4:	e1a01003 	mov	r1, r3
    9bc8:	e51b0014 	ldr	r0, [fp, #-20]	; 0xffffffec
    9bcc:	eb0003ff 	bl	abd0 <_ZN16CI2C_TransactionlsI11SSD1306_CmdEERS_RKT_>
    9bd0:	e1a02000 	mov	r2, r0
/mnt/c/Users/Kuba/Documents/ZeroMate/examples/19-I2C/kernel/src/drivers/oled_ssd1306.cpp:75
            << 0x14;
    9bd4:	e3a03014 	mov	r3, #20
    9bd8:	e50b3098 	str	r3, [fp, #-152]	; 0xffffff68
    9bdc:	e24b3098 	sub	r3, fp, #152	; 0x98
    9be0:	e1a01003 	mov	r1, r3
    9be4:	e1a00002 	mov	r0, r2
    9be8:	eb000414 	bl	ac40 <_ZN16CI2C_TransactionlsIiEERS_RKT_>
/mnt/c/Users/Kuba/Documents/ZeroMate/examples/19-I2C/kernel/src/drivers/oled_ssd1306.cpp:77

        mI2C.End_Transaction(ta);
    9bec:	e51b30d0 	ldr	r3, [fp, #-208]	; 0xffffff30
    9bf0:	e5933000 	ldr	r3, [r3]
    9bf4:	e3a02001 	mov	r2, #1
    9bf8:	e51b1014 	ldr	r1, [fp, #-20]	; 0xffffffec
    9bfc:	e1a00003 	mov	r0, r3
    9c00:	ebfffcbf 	bl	8f04 <_ZN4CI2C15End_TransactionER16CI2C_Transactionb>
/mnt/c/Users/Kuba/Documents/ZeroMate/examples/19-I2C/kernel/src/drivers/oled_ssd1306.cpp:83
    }

    // nastavime mod adresace (0x00 - po sloupcich a po strankach) a segment remapping (to, jak je displej "obraceny")
    // "smer" skenovani vystupu ridiciho obvodu
    {
        auto& ta = mI2C.Begin_Transaction(SSD1306_Slave_Address);
    9c04:	e51b30d0 	ldr	r3, [fp, #-208]	; 0xffffff30
    9c08:	e5933000 	ldr	r3, [r3]
    9c0c:	e3a0103c 	mov	r1, #60	; 0x3c
    9c10:	e1a00003 	mov	r0, r3
    9c14:	ebfffc9c 	bl	8e8c <_ZN4CI2C17Begin_TransactionEt>
    9c18:	e50b0018 	str	r0, [fp, #-24]	; 0xffffffe8
/mnt/c/Users/Kuba/Documents/ZeroMate/examples/19-I2C/kernel/src/drivers/oled_ssd1306.cpp:85

        ta << SSD1306_Cmd::Command_Start
    9c1c:	e3a03000 	mov	r3, #0
    9c20:	e50b3094 	str	r3, [fp, #-148]	; 0xffffff6c
    9c24:	e24b3094 	sub	r3, fp, #148	; 0x94
    9c28:	e1a01003 	mov	r1, r3
    9c2c:	e51b0018 	ldr	r0, [fp, #-24]	; 0xffffffe8
    9c30:	eb0003e6 	bl	abd0 <_ZN16CI2C_TransactionlsI11SSD1306_CmdEERS_RKT_>
    9c34:	e1a02000 	mov	r2, r0
/mnt/c/Users/Kuba/Documents/ZeroMate/examples/19-I2C/kernel/src/drivers/oled_ssd1306.cpp:86
            << SSD1306_Cmd::Memory_Addr_Mode
    9c38:	e3a03020 	mov	r3, #32
    9c3c:	e50b3090 	str	r3, [fp, #-144]	; 0xffffff70
    9c40:	e24b3090 	sub	r3, fp, #144	; 0x90
    9c44:	e1a01003 	mov	r1, r3
    9c48:	e1a00002 	mov	r0, r2
    9c4c:	eb0003df 	bl	abd0 <_ZN16CI2C_TransactionlsI11SSD1306_CmdEERS_RKT_>
    9c50:	e1a02000 	mov	r2, r0
/mnt/c/Users/Kuba/Documents/ZeroMate/examples/19-I2C/kernel/src/drivers/oled_ssd1306.cpp:87
            << 0x00
    9c54:	e3a03000 	mov	r3, #0
    9c58:	e50b308c 	str	r3, [fp, #-140]	; 0xffffff74
    9c5c:	e24b308c 	sub	r3, fp, #140	; 0x8c
    9c60:	e1a01003 	mov	r1, r3
    9c64:	e1a00002 	mov	r0, r2
    9c68:	eb0003f4 	bl	ac40 <_ZN16CI2C_TransactionlsIiEERS_RKT_>
    9c6c:	e1a02000 	mov	r2, r0
/mnt/c/Users/Kuba/Documents/ZeroMate/examples/19-I2C/kernel/src/drivers/oled_ssd1306.cpp:88
            << (static_cast<uint8_t>(SSD1306_Cmd::Set_Segment_Remap) | 0x01)
    9c70:	e3a030a1 	mov	r3, #161	; 0xa1
    9c74:	e50b3088 	str	r3, [fp, #-136]	; 0xffffff78
    9c78:	e24b3088 	sub	r3, fp, #136	; 0x88
    9c7c:	e1a01003 	mov	r1, r3
    9c80:	e1a00002 	mov	r0, r2
    9c84:	eb0003ed 	bl	ac40 <_ZN16CI2C_TransactionlsIiEERS_RKT_>
    9c88:	e1a02000 	mov	r2, r0
/mnt/c/Users/Kuba/Documents/ZeroMate/examples/19-I2C/kernel/src/drivers/oled_ssd1306.cpp:89
            << SSD1306_Cmd::Com_Scan_Dir_Dec;
    9c8c:	e3a030c8 	mov	r3, #200	; 0xc8
    9c90:	e50b3084 	str	r3, [fp, #-132]	; 0xffffff7c
    9c94:	e24b3084 	sub	r3, fp, #132	; 0x84
    9c98:	e1a01003 	mov	r1, r3
    9c9c:	e1a00002 	mov	r0, r2
    9ca0:	eb0003ca 	bl	abd0 <_ZN16CI2C_TransactionlsI11SSD1306_CmdEERS_RKT_>
/mnt/c/Users/Kuba/Documents/ZeroMate/examples/19-I2C/kernel/src/drivers/oled_ssd1306.cpp:91

        mI2C.End_Transaction(ta);
    9ca4:	e51b30d0 	ldr	r3, [fp, #-208]	; 0xffffff30
    9ca8:	e5933000 	ldr	r3, [r3]
    9cac:	e3a02001 	mov	r2, #1
    9cb0:	e51b1018 	ldr	r1, [fp, #-24]	; 0xffffffe8
    9cb4:	e1a00003 	mov	r0, r3
    9cb8:	ebfffc91 	bl	8f04 <_ZN4CI2C15End_TransactionER16CI2C_Transactionb>
/mnt/c/Users/Kuba/Documents/ZeroMate/examples/19-I2C/kernel/src/drivers/oled_ssd1306.cpp:96
    }

    // mapovani na piny ridiciho obvodu
    {
        auto& ta = mI2C.Begin_Transaction(SSD1306_Slave_Address);
    9cbc:	e51b30d0 	ldr	r3, [fp, #-208]	; 0xffffff30
    9cc0:	e5933000 	ldr	r3, [r3]
    9cc4:	e3a0103c 	mov	r1, #60	; 0x3c
    9cc8:	e1a00003 	mov	r0, r3
    9ccc:	ebfffc6e 	bl	8e8c <_ZN4CI2C17Begin_TransactionEt>
    9cd0:	e50b001c 	str	r0, [fp, #-28]	; 0xffffffe4
/mnt/c/Users/Kuba/Documents/ZeroMate/examples/19-I2C/kernel/src/drivers/oled_ssd1306.cpp:98

        ta << SSD1306_Cmd::Command_Start
    9cd4:	e3a03000 	mov	r3, #0
    9cd8:	e50b3080 	str	r3, [fp, #-128]	; 0xffffff80
    9cdc:	e24b3080 	sub	r3, fp, #128	; 0x80
    9ce0:	e1a01003 	mov	r1, r3
    9ce4:	e51b001c 	ldr	r0, [fp, #-28]	; 0xffffffe4
    9ce8:	eb0003b8 	bl	abd0 <_ZN16CI2C_TransactionlsI11SSD1306_CmdEERS_RKT_>
    9cec:	e1a02000 	mov	r2, r0
/mnt/c/Users/Kuba/Documents/ZeroMate/examples/19-I2C/kernel/src/drivers/oled_ssd1306.cpp:99
            << SSD1306_Cmd::Set_Com_Pins;
    9cf0:	e3a030da 	mov	r3, #218	; 0xda
    9cf4:	e50b307c 	str	r3, [fp, #-124]	; 0xffffff84
    9cf8:	e24b307c 	sub	r3, fp, #124	; 0x7c
    9cfc:	e1a01003 	mov	r1, r3
    9d00:	e1a00002 	mov	r0, r2
    9d04:	eb0003b1 	bl	abd0 <_ZN16CI2C_TransactionlsI11SSD1306_CmdEERS_RKT_>
/mnt/c/Users/Kuba/Documents/ZeroMate/examples/19-I2C/kernel/src/drivers/oled_ssd1306.cpp:101

        mI2C.End_Transaction(ta);
    9d08:	e51b30d0 	ldr	r3, [fp, #-208]	; 0xffffff30
    9d0c:	e5933000 	ldr	r3, [r3]
    9d10:	e3a02001 	mov	r2, #1
    9d14:	e51b101c 	ldr	r1, [fp, #-28]	; 0xffffffe4
    9d18:	e1a00003 	mov	r0, r3
    9d1c:	ebfffc78 	bl	8f04 <_ZN4CI2C15End_TransactionER16CI2C_Transactionb>
/mnt/c/Users/Kuba/Documents/ZeroMate/examples/19-I2C/kernel/src/drivers/oled_ssd1306.cpp:106
    }

    // pokracovani predchoziho - neinvertovany a sekvencni pristup
    {
        auto& ta = mI2C.Begin_Transaction(SSD1306_Slave_Address);
    9d20:	e51b30d0 	ldr	r3, [fp, #-208]	; 0xffffff30
    9d24:	e5933000 	ldr	r3, [r3]
    9d28:	e3a0103c 	mov	r1, #60	; 0x3c
    9d2c:	e1a00003 	mov	r0, r3
    9d30:	ebfffc55 	bl	8e8c <_ZN4CI2C17Begin_TransactionEt>
    9d34:	e50b0020 	str	r0, [fp, #-32]	; 0xffffffe0
/mnt/c/Users/Kuba/Documents/ZeroMate/examples/19-I2C/kernel/src/drivers/oled_ssd1306.cpp:108

        ta << SSD1306_Cmd::Command_Start
    9d38:	e3a03000 	mov	r3, #0
    9d3c:	e50b3078 	str	r3, [fp, #-120]	; 0xffffff88
    9d40:	e24b3078 	sub	r3, fp, #120	; 0x78
    9d44:	e1a01003 	mov	r1, r3
    9d48:	e51b0020 	ldr	r0, [fp, #-32]	; 0xffffffe0
    9d4c:	eb00039f 	bl	abd0 <_ZN16CI2C_TransactionlsI11SSD1306_CmdEERS_RKT_>
    9d50:	e1a02000 	mov	r2, r0
/mnt/c/Users/Kuba/Documents/ZeroMate/examples/19-I2C/kernel/src/drivers/oled_ssd1306.cpp:109
            << 0x02;
    9d54:	e3a03002 	mov	r3, #2
    9d58:	e50b3074 	str	r3, [fp, #-116]	; 0xffffff8c
    9d5c:	e24b3074 	sub	r3, fp, #116	; 0x74
    9d60:	e1a01003 	mov	r1, r3
    9d64:	e1a00002 	mov	r0, r2
    9d68:	eb0003b4 	bl	ac40 <_ZN16CI2C_TransactionlsIiEERS_RKT_>
/mnt/c/Users/Kuba/Documents/ZeroMate/examples/19-I2C/kernel/src/drivers/oled_ssd1306.cpp:111

        mI2C.End_Transaction(ta);
    9d6c:	e51b30d0 	ldr	r3, [fp, #-208]	; 0xffffff30
    9d70:	e5933000 	ldr	r3, [r3]
    9d74:	e3a02001 	mov	r2, #1
    9d78:	e51b1020 	ldr	r1, [fp, #-32]	; 0xffffffe0
    9d7c:	e1a00003 	mov	r0, r3
    9d80:	ebfffc5f 	bl	8f04 <_ZN4CI2C15End_TransactionER16CI2C_Transactionb>
/mnt/c/Users/Kuba/Documents/ZeroMate/examples/19-I2C/kernel/src/drivers/oled_ssd1306.cpp:116
    }

    // nastaveni kontrastu displeje
    {
        auto& ta = mI2C.Begin_Transaction(SSD1306_Slave_Address);
    9d84:	e51b30d0 	ldr	r3, [fp, #-208]	; 0xffffff30
    9d88:	e5933000 	ldr	r3, [r3]
    9d8c:	e3a0103c 	mov	r1, #60	; 0x3c
    9d90:	e1a00003 	mov	r0, r3
    9d94:	ebfffc3c 	bl	8e8c <_ZN4CI2C17Begin_TransactionEt>
    9d98:	e50b0024 	str	r0, [fp, #-36]	; 0xffffffdc
/mnt/c/Users/Kuba/Documents/ZeroMate/examples/19-I2C/kernel/src/drivers/oled_ssd1306.cpp:118

        ta << SSD1306_Cmd::Command_Start
    9d9c:	e3a03000 	mov	r3, #0
    9da0:	e50b3070 	str	r3, [fp, #-112]	; 0xffffff90
    9da4:	e24b3070 	sub	r3, fp, #112	; 0x70
    9da8:	e1a01003 	mov	r1, r3
    9dac:	e51b0024 	ldr	r0, [fp, #-36]	; 0xffffffdc
    9db0:	eb000386 	bl	abd0 <_ZN16CI2C_TransactionlsI11SSD1306_CmdEERS_RKT_>
    9db4:	e1a02000 	mov	r2, r0
/mnt/c/Users/Kuba/Documents/ZeroMate/examples/19-I2C/kernel/src/drivers/oled_ssd1306.cpp:119
            << SSD1306_Cmd::Set_Contrast;
    9db8:	e3a03081 	mov	r3, #129	; 0x81
    9dbc:	e50b306c 	str	r3, [fp, #-108]	; 0xffffff94
    9dc0:	e24b306c 	sub	r3, fp, #108	; 0x6c
    9dc4:	e1a01003 	mov	r1, r3
    9dc8:	e1a00002 	mov	r0, r2
    9dcc:	eb00037f 	bl	abd0 <_ZN16CI2C_TransactionlsI11SSD1306_CmdEERS_RKT_>
/mnt/c/Users/Kuba/Documents/ZeroMate/examples/19-I2C/kernel/src/drivers/oled_ssd1306.cpp:121

        mI2C.End_Transaction(ta);
    9dd0:	e51b30d0 	ldr	r3, [fp, #-208]	; 0xffffff30
    9dd4:	e5933000 	ldr	r3, [r3]
    9dd8:	e3a02001 	mov	r2, #1
    9ddc:	e51b1024 	ldr	r1, [fp, #-36]	; 0xffffffdc
    9de0:	e1a00003 	mov	r0, r3
    9de4:	ebfffc46 	bl	8f04 <_ZN4CI2C15End_TransactionER16CI2C_Transactionb>
/mnt/c/Users/Kuba/Documents/ZeroMate/examples/19-I2C/kernel/src/drivers/oled_ssd1306.cpp:126
    }

    // pokracovani predchoziho - kontrast nastaven na 0x8F
    {
        auto& ta = mI2C.Begin_Transaction(SSD1306_Slave_Address);
    9de8:	e51b30d0 	ldr	r3, [fp, #-208]	; 0xffffff30
    9dec:	e5933000 	ldr	r3, [r3]
    9df0:	e3a0103c 	mov	r1, #60	; 0x3c
    9df4:	e1a00003 	mov	r0, r3
    9df8:	ebfffc23 	bl	8e8c <_ZN4CI2C17Begin_TransactionEt>
    9dfc:	e50b0028 	str	r0, [fp, #-40]	; 0xffffffd8
/mnt/c/Users/Kuba/Documents/ZeroMate/examples/19-I2C/kernel/src/drivers/oled_ssd1306.cpp:128

        ta << SSD1306_Cmd::Command_Start
    9e00:	e3a03000 	mov	r3, #0
    9e04:	e50b3068 	str	r3, [fp, #-104]	; 0xffffff98
    9e08:	e24b3068 	sub	r3, fp, #104	; 0x68
    9e0c:	e1a01003 	mov	r1, r3
    9e10:	e51b0028 	ldr	r0, [fp, #-40]	; 0xffffffd8
    9e14:	eb00036d 	bl	abd0 <_ZN16CI2C_TransactionlsI11SSD1306_CmdEERS_RKT_>
    9e18:	e1a02000 	mov	r2, r0
/mnt/c/Users/Kuba/Documents/ZeroMate/examples/19-I2C/kernel/src/drivers/oled_ssd1306.cpp:129
            << 0x8F;
    9e1c:	e3a0308f 	mov	r3, #143	; 0x8f
    9e20:	e50b3064 	str	r3, [fp, #-100]	; 0xffffff9c
    9e24:	e24b3064 	sub	r3, fp, #100	; 0x64
    9e28:	e1a01003 	mov	r1, r3
    9e2c:	e1a00002 	mov	r0, r2
    9e30:	eb000382 	bl	ac40 <_ZN16CI2C_TransactionlsIiEERS_RKT_>
/mnt/c/Users/Kuba/Documents/ZeroMate/examples/19-I2C/kernel/src/drivers/oled_ssd1306.cpp:131

        mI2C.End_Transaction(ta);
    9e34:	e51b30d0 	ldr	r3, [fp, #-208]	; 0xffffff30
    9e38:	e5933000 	ldr	r3, [r3]
    9e3c:	e3a02001 	mov	r2, #1
    9e40:	e51b1028 	ldr	r1, [fp, #-40]	; 0xffffffd8
    9e44:	e1a00003 	mov	r0, r3
    9e48:	ebfffc2d 	bl	8f04 <_ZN4CI2C15End_TransactionER16CI2C_Transactionb>
/mnt/c/Users/Kuba/Documents/ZeroMate/examples/19-I2C/kernel/src/drivers/oled_ssd1306.cpp:136
    }

    // perioda prednabiti
    {
        auto& ta = mI2C.Begin_Transaction(SSD1306_Slave_Address);
    9e4c:	e51b30d0 	ldr	r3, [fp, #-208]	; 0xffffff30
    9e50:	e5933000 	ldr	r3, [r3]
    9e54:	e3a0103c 	mov	r1, #60	; 0x3c
    9e58:	e1a00003 	mov	r0, r3
    9e5c:	ebfffc0a 	bl	8e8c <_ZN4CI2C17Begin_TransactionEt>
    9e60:	e50b002c 	str	r0, [fp, #-44]	; 0xffffffd4
/mnt/c/Users/Kuba/Documents/ZeroMate/examples/19-I2C/kernel/src/drivers/oled_ssd1306.cpp:138

        ta << SSD1306_Cmd::Command_Start
    9e64:	e3a03000 	mov	r3, #0
    9e68:	e50b3060 	str	r3, [fp, #-96]	; 0xffffffa0
    9e6c:	e24b3060 	sub	r3, fp, #96	; 0x60
    9e70:	e1a01003 	mov	r1, r3
    9e74:	e51b002c 	ldr	r0, [fp, #-44]	; 0xffffffd4
    9e78:	eb000354 	bl	abd0 <_ZN16CI2C_TransactionlsI11SSD1306_CmdEERS_RKT_>
    9e7c:	e1a02000 	mov	r2, r0
/mnt/c/Users/Kuba/Documents/ZeroMate/examples/19-I2C/kernel/src/drivers/oled_ssd1306.cpp:139
            << SSD1306_Cmd::Set_Precharge_Period;
    9e80:	e3a030d9 	mov	r3, #217	; 0xd9
    9e84:	e50b305c 	str	r3, [fp, #-92]	; 0xffffffa4
    9e88:	e24b305c 	sub	r3, fp, #92	; 0x5c
    9e8c:	e1a01003 	mov	r1, r3
    9e90:	e1a00002 	mov	r0, r2
    9e94:	eb00034d 	bl	abd0 <_ZN16CI2C_TransactionlsI11SSD1306_CmdEERS_RKT_>
/mnt/c/Users/Kuba/Documents/ZeroMate/examples/19-I2C/kernel/src/drivers/oled_ssd1306.cpp:141

        mI2C.End_Transaction(ta);
    9e98:	e51b30d0 	ldr	r3, [fp, #-208]	; 0xffffff30
    9e9c:	e5933000 	ldr	r3, [r3]
    9ea0:	e3a02001 	mov	r2, #1
    9ea4:	e51b102c 	ldr	r1, [fp, #-44]	; 0xffffffd4
    9ea8:	e1a00003 	mov	r0, r3
    9eac:	ebfffc14 	bl	8f04 <_ZN4CI2C15End_TransactionER16CI2C_Transactionb>
/mnt/c/Users/Kuba/Documents/ZeroMate/examples/19-I2C/kernel/src/drivers/oled_ssd1306.cpp:146
    }

    // pokracovani predchoziho - pro externi napajeni muze byt tato hodnota kratsi
    {
        auto& ta = mI2C.Begin_Transaction(SSD1306_Slave_Address);
    9eb0:	e51b30d0 	ldr	r3, [fp, #-208]	; 0xffffff30
    9eb4:	e5933000 	ldr	r3, [r3]
    9eb8:	e3a0103c 	mov	r1, #60	; 0x3c
    9ebc:	e1a00003 	mov	r0, r3
    9ec0:	ebfffbf1 	bl	8e8c <_ZN4CI2C17Begin_TransactionEt>
    9ec4:	e50b0030 	str	r0, [fp, #-48]	; 0xffffffd0
/mnt/c/Users/Kuba/Documents/ZeroMate/examples/19-I2C/kernel/src/drivers/oled_ssd1306.cpp:148

        ta << SSD1306_Cmd::Command_Start
    9ec8:	e3a03000 	mov	r3, #0
    9ecc:	e50b3058 	str	r3, [fp, #-88]	; 0xffffffa8
    9ed0:	e24b3058 	sub	r3, fp, #88	; 0x58
    9ed4:	e1a01003 	mov	r1, r3
    9ed8:	e51b0030 	ldr	r0, [fp, #-48]	; 0xffffffd0
    9edc:	eb00033b 	bl	abd0 <_ZN16CI2C_TransactionlsI11SSD1306_CmdEERS_RKT_>
    9ee0:	e1a02000 	mov	r2, r0
/mnt/c/Users/Kuba/Documents/ZeroMate/examples/19-I2C/kernel/src/drivers/oled_ssd1306.cpp:149
            << 0xF1;
    9ee4:	e3a030f1 	mov	r3, #241	; 0xf1
    9ee8:	e50b3054 	str	r3, [fp, #-84]	; 0xffffffac
    9eec:	e24b3054 	sub	r3, fp, #84	; 0x54
    9ef0:	e1a01003 	mov	r1, r3
    9ef4:	e1a00002 	mov	r0, r2
    9ef8:	eb000350 	bl	ac40 <_ZN16CI2C_TransactionlsIiEERS_RKT_>
/mnt/c/Users/Kuba/Documents/ZeroMate/examples/19-I2C/kernel/src/drivers/oled_ssd1306.cpp:151

        mI2C.End_Transaction(ta);
    9efc:	e51b30d0 	ldr	r3, [fp, #-208]	; 0xffffff30
    9f00:	e5933000 	ldr	r3, [r3]
    9f04:	e3a02001 	mov	r2, #1
    9f08:	e51b1030 	ldr	r1, [fp, #-48]	; 0xffffffd0
    9f0c:	e1a00003 	mov	r0, r3
    9f10:	ebfffbfb 	bl	8f04 <_ZN4CI2C15End_TransactionER16CI2C_Transactionb>
/mnt/c/Users/Kuba/Documents/ZeroMate/examples/19-I2C/kernel/src/drivers/oled_ssd1306.cpp:156
    }

    // finalni aktivace displeje - uroven detekce vstupu, nahozeni panelu, neinvertovane barvy, neskrolujeme, zapneme podsviceni
    {
        auto& ta = mI2C.Begin_Transaction(SSD1306_Slave_Address);
    9f14:	e51b30d0 	ldr	r3, [fp, #-208]	; 0xffffff30
    9f18:	e5933000 	ldr	r3, [r3]
    9f1c:	e3a0103c 	mov	r1, #60	; 0x3c
    9f20:	e1a00003 	mov	r0, r3
    9f24:	ebfffbd8 	bl	8e8c <_ZN4CI2C17Begin_TransactionEt>
    9f28:	e50b0034 	str	r0, [fp, #-52]	; 0xffffffcc
/mnt/c/Users/Kuba/Documents/ZeroMate/examples/19-I2C/kernel/src/drivers/oled_ssd1306.cpp:158

        ta << SSD1306_Cmd::Command_Start
    9f2c:	e3a03000 	mov	r3, #0
    9f30:	e50b3050 	str	r3, [fp, #-80]	; 0xffffffb0
    9f34:	e24b3050 	sub	r3, fp, #80	; 0x50
    9f38:	e1a01003 	mov	r1, r3
    9f3c:	e51b0034 	ldr	r0, [fp, #-52]	; 0xffffffcc
    9f40:	eb000322 	bl	abd0 <_ZN16CI2C_TransactionlsI11SSD1306_CmdEERS_RKT_>
    9f44:	e1a02000 	mov	r2, r0
/mnt/c/Users/Kuba/Documents/ZeroMate/examples/19-I2C/kernel/src/drivers/oled_ssd1306.cpp:159
            << SSD1306_Cmd::Set_VCOM_Detect
    9f48:	e3a030d8 	mov	r3, #216	; 0xd8
    9f4c:	e50b304c 	str	r3, [fp, #-76]	; 0xffffffb4
    9f50:	e24b304c 	sub	r3, fp, #76	; 0x4c
    9f54:	e1a01003 	mov	r1, r3
    9f58:	e1a00002 	mov	r0, r2
    9f5c:	eb00031b 	bl	abd0 <_ZN16CI2C_TransactionlsI11SSD1306_CmdEERS_RKT_>
    9f60:	e1a02000 	mov	r2, r0
/mnt/c/Users/Kuba/Documents/ZeroMate/examples/19-I2C/kernel/src/drivers/oled_ssd1306.cpp:160
            << 0x40
    9f64:	e3a03040 	mov	r3, #64	; 0x40
    9f68:	e50b3048 	str	r3, [fp, #-72]	; 0xffffffb8
    9f6c:	e24b3048 	sub	r3, fp, #72	; 0x48
    9f70:	e1a01003 	mov	r1, r3
    9f74:	e1a00002 	mov	r0, r2
    9f78:	eb000330 	bl	ac40 <_ZN16CI2C_TransactionlsIiEERS_RKT_>
    9f7c:	e1a02000 	mov	r2, r0
/mnt/c/Users/Kuba/Documents/ZeroMate/examples/19-I2C/kernel/src/drivers/oled_ssd1306.cpp:161
            << SSD1306_Cmd::Display_All_On_Resume
    9f80:	e3a030a4 	mov	r3, #164	; 0xa4
    9f84:	e50b3044 	str	r3, [fp, #-68]	; 0xffffffbc
    9f88:	e24b3044 	sub	r3, fp, #68	; 0x44
    9f8c:	e1a01003 	mov	r1, r3
    9f90:	e1a00002 	mov	r0, r2
    9f94:	eb00030d 	bl	abd0 <_ZN16CI2C_TransactionlsI11SSD1306_CmdEERS_RKT_>
    9f98:	e1a02000 	mov	r2, r0
/mnt/c/Users/Kuba/Documents/ZeroMate/examples/19-I2C/kernel/src/drivers/oled_ssd1306.cpp:162
            << SSD1306_Cmd::Normal_Display
    9f9c:	e3a030a6 	mov	r3, #166	; 0xa6
    9fa0:	e50b3040 	str	r3, [fp, #-64]	; 0xffffffc0
    9fa4:	e24b3040 	sub	r3, fp, #64	; 0x40
    9fa8:	e1a01003 	mov	r1, r3
    9fac:	e1a00002 	mov	r0, r2
    9fb0:	eb000306 	bl	abd0 <_ZN16CI2C_TransactionlsI11SSD1306_CmdEERS_RKT_>
    9fb4:	e1a02000 	mov	r2, r0
/mnt/c/Users/Kuba/Documents/ZeroMate/examples/19-I2C/kernel/src/drivers/oled_ssd1306.cpp:163
            << SSD1306_Cmd::Deactivate_Scroll
    9fb8:	e3a0302e 	mov	r3, #46	; 0x2e
    9fbc:	e50b303c 	str	r3, [fp, #-60]	; 0xffffffc4
    9fc0:	e24b303c 	sub	r3, fp, #60	; 0x3c
    9fc4:	e1a01003 	mov	r1, r3
    9fc8:	e1a00002 	mov	r0, r2
    9fcc:	eb0002ff 	bl	abd0 <_ZN16CI2C_TransactionlsI11SSD1306_CmdEERS_RKT_>
    9fd0:	e1a02000 	mov	r2, r0
/mnt/c/Users/Kuba/Documents/ZeroMate/examples/19-I2C/kernel/src/drivers/oled_ssd1306.cpp:164
            << SSD1306_Cmd::Display_On;
    9fd4:	e3a030af 	mov	r3, #175	; 0xaf
    9fd8:	e50b3038 	str	r3, [fp, #-56]	; 0xffffffc8
    9fdc:	e24b3038 	sub	r3, fp, #56	; 0x38
    9fe0:	e1a01003 	mov	r1, r3
    9fe4:	e1a00002 	mov	r0, r2
    9fe8:	eb0002f8 	bl	abd0 <_ZN16CI2C_TransactionlsI11SSD1306_CmdEERS_RKT_>
/mnt/c/Users/Kuba/Documents/ZeroMate/examples/19-I2C/kernel/src/drivers/oled_ssd1306.cpp:166

        mI2C.End_Transaction(ta);
    9fec:	e51b30d0 	ldr	r3, [fp, #-208]	; 0xffffff30
    9ff0:	e5933000 	ldr	r3, [r3]
    9ff4:	e3a02001 	mov	r2, #1
    9ff8:	e51b1034 	ldr	r1, [fp, #-52]	; 0xffffffcc
    9ffc:	e1a00003 	mov	r0, r3
    a000:	ebfffbbf 	bl	8f04 <_ZN4CI2C15End_TransactionER16CI2C_Transactionb>
/mnt/c/Users/Kuba/Documents/ZeroMate/examples/19-I2C/kernel/src/drivers/oled_ssd1306.cpp:169
    }

    Clear();
    a004:	e3a01000 	mov	r1, #0
    a008:	e51b00d0 	ldr	r0, [fp, #-208]	; 0xffffff30
    a00c:	eb000067 	bl	a1b0 <_ZN16CDisplay_SSD13065ClearEb>
/mnt/c/Users/Kuba/Documents/ZeroMate/examples/19-I2C/kernel/src/drivers/oled_ssd1306.cpp:171

    return true;
    a010:	e3a03001 	mov	r3, #1
/mnt/c/Users/Kuba/Documents/ZeroMate/examples/19-I2C/kernel/src/drivers/oled_ssd1306.cpp:172
}
    a014:	e1a00003 	mov	r0, r3
    a018:	e24bd004 	sub	sp, fp, #4
    a01c:	e8bd8800 	pop	{fp, pc}

0000a020 <_ZN16CDisplay_SSD130612Send_CommandE11SSD1306_Cmdh>:
_ZN16CDisplay_SSD130612Send_CommandE11SSD1306_Cmdh():
/mnt/c/Users/Kuba/Documents/ZeroMate/examples/19-I2C/kernel/src/drivers/oled_ssd1306.cpp:175

void CDisplay_SSD1306::Send_Command(SSD1306_Cmd cmd, uint8_t lowPart)
{
    a020:	e92d4800 	push	{fp, lr}
    a024:	e28db004 	add	fp, sp, #4
    a028:	e24dd020 	sub	sp, sp, #32
    a02c:	e50b0018 	str	r0, [fp, #-24]	; 0xffffffe8
    a030:	e50b101c 	str	r1, [fp, #-28]	; 0xffffffe4
    a034:	e1a03002 	mov	r3, r2
    a038:	e54b301d 	strb	r3, [fp, #-29]	; 0xffffffe3
/mnt/c/Users/Kuba/Documents/ZeroMate/examples/19-I2C/kernel/src/drivers/oled_ssd1306.cpp:176
    auto& ta = mI2C.Begin_Transaction(SSD1306_Slave_Address);
    a03c:	e51b3018 	ldr	r3, [fp, #-24]	; 0xffffffe8
    a040:	e5933000 	ldr	r3, [r3]
    a044:	e3a0103c 	mov	r1, #60	; 0x3c
    a048:	e1a00003 	mov	r0, r3
    a04c:	ebfffb8e 	bl	8e8c <_ZN4CI2C17Begin_TransactionEt>
    a050:	e50b0008 	str	r0, [fp, #-8]
/mnt/c/Users/Kuba/Documents/ZeroMate/examples/19-I2C/kernel/src/drivers/oled_ssd1306.cpp:178

    ta << SSD1306_Cmd::Command_Start
    a054:	e3a03000 	mov	r3, #0
    a058:	e50b3010 	str	r3, [fp, #-16]
    a05c:	e24b3010 	sub	r3, fp, #16
    a060:	e1a01003 	mov	r1, r3
    a064:	e51b0008 	ldr	r0, [fp, #-8]
    a068:	eb0002d8 	bl	abd0 <_ZN16CI2C_TransactionlsI11SSD1306_CmdEERS_RKT_>
/mnt/c/Users/Kuba/Documents/ZeroMate/examples/19-I2C/kernel/src/drivers/oled_ssd1306.cpp:179
       << (static_cast<uint8_t>(cmd) | lowPart);
    a06c:	e51b301c 	ldr	r3, [fp, #-28]	; 0xffffffe4
    a070:	e6ef2073 	uxtb	r2, r3
    a074:	e55b301d 	ldrb	r3, [fp, #-29]	; 0xffffffe3
    a078:	e1823003 	orr	r3, r2, r3
    a07c:	e6ef3073 	uxtb	r3, r3
    a080:	e50b300c 	str	r3, [fp, #-12]
    a084:	e24b300c 	sub	r3, fp, #12
    a088:	e1a01003 	mov	r1, r3
    a08c:	eb0002eb 	bl	ac40 <_ZN16CI2C_TransactionlsIiEERS_RKT_>
/mnt/c/Users/Kuba/Documents/ZeroMate/examples/19-I2C/kernel/src/drivers/oled_ssd1306.cpp:181

    mI2C.End_Transaction(ta);
    a090:	e51b3018 	ldr	r3, [fp, #-24]	; 0xffffffe8
    a094:	e5933000 	ldr	r3, [r3]
    a098:	e3a02001 	mov	r2, #1
    a09c:	e51b1008 	ldr	r1, [fp, #-8]
    a0a0:	e1a00003 	mov	r0, r3
    a0a4:	ebfffb96 	bl	8f04 <_ZN4CI2C15End_TransactionER16CI2C_Transactionb>
/mnt/c/Users/Kuba/Documents/ZeroMate/examples/19-I2C/kernel/src/drivers/oled_ssd1306.cpp:182
}
    a0a8:	e320f000 	nop	{0}
    a0ac:	e24bd004 	sub	sp, fp, #4
    a0b0:	e8bd8800 	pop	{fp, pc}

0000a0b4 <_ZN16CDisplay_SSD13065CloseEv>:
_ZN16CDisplay_SSD13065CloseEv():
/mnt/c/Users/Kuba/Documents/ZeroMate/examples/19-I2C/kernel/src/drivers/oled_ssd1306.cpp:185

void CDisplay_SSD1306::Close()
{
    a0b4:	e92d4800 	push	{fp, lr}
    a0b8:	e28db004 	add	fp, sp, #4
    a0bc:	e24dd018 	sub	sp, sp, #24
    a0c0:	e50b0018 	str	r0, [fp, #-24]	; 0xffffffe8
/mnt/c/Users/Kuba/Documents/ZeroMate/examples/19-I2C/kernel/src/drivers/oled_ssd1306.cpp:186
    if (!mOpened)
    a0c4:	e51b3018 	ldr	r3, [fp, #-24]	; 0xffffffe8
    a0c8:	e5d33004 	ldrb	r3, [r3, #4]
    a0cc:	e2233001 	eor	r3, r3, #1
    a0d0:	e6ef3073 	uxtb	r3, r3
    a0d4:	e3530000 	cmp	r3, #0
    a0d8:	1a000027 	bne	a17c <_ZN16CDisplay_SSD13065CloseEv+0xc8>
/mnt/c/Users/Kuba/Documents/ZeroMate/examples/19-I2C/kernel/src/drivers/oled_ssd1306.cpp:191
        return;

    // posleme prikaz z vypnuti displeje
    {
        auto& ta = mI2C.Begin_Transaction(SSD1306_Slave_Address);
    a0dc:	e51b3018 	ldr	r3, [fp, #-24]	; 0xffffffe8
    a0e0:	e5933000 	ldr	r3, [r3]
    a0e4:	e3a0103c 	mov	r1, #60	; 0x3c
    a0e8:	e1a00003 	mov	r0, r3
    a0ec:	ebfffb66 	bl	8e8c <_ZN4CI2C17Begin_TransactionEt>
    a0f0:	e50b0008 	str	r0, [fp, #-8]
/mnt/c/Users/Kuba/Documents/ZeroMate/examples/19-I2C/kernel/src/drivers/oled_ssd1306.cpp:193

        ta << SSD1306_Cmd::Command_Start
    a0f4:	e3a03000 	mov	r3, #0
    a0f8:	e50b3010 	str	r3, [fp, #-16]
    a0fc:	e24b3010 	sub	r3, fp, #16
    a100:	e1a01003 	mov	r1, r3
    a104:	e51b0008 	ldr	r0, [fp, #-8]
    a108:	eb0002b0 	bl	abd0 <_ZN16CI2C_TransactionlsI11SSD1306_CmdEERS_RKT_>
    a10c:	e1a02000 	mov	r2, r0
/mnt/c/Users/Kuba/Documents/ZeroMate/examples/19-I2C/kernel/src/drivers/oled_ssd1306.cpp:194
            << SSD1306_Cmd::Display_Off;
    a110:	e3a030ae 	mov	r3, #174	; 0xae
    a114:	e50b300c 	str	r3, [fp, #-12]
    a118:	e24b300c 	sub	r3, fp, #12
    a11c:	e1a01003 	mov	r1, r3
    a120:	e1a00002 	mov	r0, r2
    a124:	eb0002a9 	bl	abd0 <_ZN16CI2C_TransactionlsI11SSD1306_CmdEERS_RKT_>
/mnt/c/Users/Kuba/Documents/ZeroMate/examples/19-I2C/kernel/src/drivers/oled_ssd1306.cpp:196

        mI2C.End_Transaction(ta);
    a128:	e51b3018 	ldr	r3, [fp, #-24]	; 0xffffffe8
    a12c:	e5933000 	ldr	r3, [r3]
    a130:	e3a02001 	mov	r2, #1
    a134:	e51b1008 	ldr	r1, [fp, #-8]
    a138:	e1a00003 	mov	r0, r3
    a13c:	ebfffb70 	bl	8f04 <_ZN4CI2C15End_TransactionER16CI2C_Transactionb>
/mnt/c/Users/Kuba/Documents/ZeroMate/examples/19-I2C/kernel/src/drivers/oled_ssd1306.cpp:199
    }

    mI2C.Close();
    a140:	e51b3018 	ldr	r3, [fp, #-24]	; 0xffffffe8
    a144:	e5933000 	ldr	r3, [r3]
    a148:	e1a00003 	mov	r0, r3
    a14c:	ebfffaa5 	bl	8be8 <_ZN4CI2C5CloseEv>
/mnt/c/Users/Kuba/Documents/ZeroMate/examples/19-I2C/kernel/src/drivers/oled_ssd1306.cpp:201

    delete mBuffer;
    a150:	e51b3018 	ldr	r3, [fp, #-24]	; 0xffffffe8
    a154:	e5933008 	ldr	r3, [r3, #8]
    a158:	e3530000 	cmp	r3, #0
    a15c:	0a000002 	beq	a16c <_ZN16CDisplay_SSD13065CloseEv+0xb8>
/mnt/c/Users/Kuba/Documents/ZeroMate/examples/19-I2C/kernel/src/drivers/oled_ssd1306.cpp:201 (discriminator 1)
    a160:	e3a01001 	mov	r1, #1
    a164:	e1a00003 	mov	r0, r3
    a168:	eb00028c 	bl	aba0 <_ZdlPvj>
/mnt/c/Users/Kuba/Documents/ZeroMate/examples/19-I2C/kernel/src/drivers/oled_ssd1306.cpp:203

    mOpened = false;
    a16c:	e51b3018 	ldr	r3, [fp, #-24]	; 0xffffffe8
    a170:	e3a02000 	mov	r2, #0
    a174:	e5c32004 	strb	r2, [r3, #4]
    a178:	ea000000 	b	a180 <_ZN16CDisplay_SSD13065CloseEv+0xcc>
/mnt/c/Users/Kuba/Documents/ZeroMate/examples/19-I2C/kernel/src/drivers/oled_ssd1306.cpp:187
        return;
    a17c:	e320f000 	nop	{0}
/mnt/c/Users/Kuba/Documents/ZeroMate/examples/19-I2C/kernel/src/drivers/oled_ssd1306.cpp:204
}
    a180:	e24bd004 	sub	sp, fp, #4
    a184:	e8bd8800 	pop	{fp, pc}

0000a188 <_ZNK16CDisplay_SSD13069Is_OpenedEv>:
_ZNK16CDisplay_SSD13069Is_OpenedEv():
/mnt/c/Users/Kuba/Documents/ZeroMate/examples/19-I2C/kernel/src/drivers/oled_ssd1306.cpp:207

bool CDisplay_SSD1306::Is_Opened() const
{
    a188:	e52db004 	push	{fp}		; (str fp, [sp, #-4]!)
    a18c:	e28db000 	add	fp, sp, #0
    a190:	e24dd00c 	sub	sp, sp, #12
    a194:	e50b0008 	str	r0, [fp, #-8]
/mnt/c/Users/Kuba/Documents/ZeroMate/examples/19-I2C/kernel/src/drivers/oled_ssd1306.cpp:208
    return mOpened;
    a198:	e51b3008 	ldr	r3, [fp, #-8]
    a19c:	e5d33004 	ldrb	r3, [r3, #4]
/mnt/c/Users/Kuba/Documents/ZeroMate/examples/19-I2C/kernel/src/drivers/oled_ssd1306.cpp:209
}
    a1a0:	e1a00003 	mov	r0, r3
    a1a4:	e28bd000 	add	sp, fp, #0
    a1a8:	e49db004 	pop	{fp}		; (ldr fp, [sp], #4)
    a1ac:	e12fff1e 	bx	lr

0000a1b0 <_ZN16CDisplay_SSD13065ClearEb>:
_ZN16CDisplay_SSD13065ClearEb():
/mnt/c/Users/Kuba/Documents/ZeroMate/examples/19-I2C/kernel/src/drivers/oled_ssd1306.cpp:212

void CDisplay_SSD1306::Clear(bool clearWhite)
{
    a1b0:	e92d4800 	push	{fp, lr}
    a1b4:	e28db004 	add	fp, sp, #4
    a1b8:	e24dd018 	sub	sp, sp, #24
    a1bc:	e50b0018 	str	r0, [fp, #-24]	; 0xffffffe8
    a1c0:	e1a03001 	mov	r3, r1
    a1c4:	e54b3019 	strb	r3, [fp, #-25]	; 0xffffffe7
/mnt/c/Users/Kuba/Documents/ZeroMate/examples/19-I2C/kernel/src/drivers/oled_ssd1306.cpp:213
    if (!mOpened)
    a1c8:	e51b3018 	ldr	r3, [fp, #-24]	; 0xffffffe8
    a1cc:	e5d33004 	ldrb	r3, [r3, #4]
    a1d0:	e2233001 	eor	r3, r3, #1
    a1d4:	e6ef3073 	uxtb	r3, r3
    a1d8:	e3530000 	cmp	r3, #0
    a1dc:	1a000024 	bne	a274 <_ZN16CDisplay_SSD13065ClearEb+0xc4>
/mnt/c/Users/Kuba/Documents/ZeroMate/examples/19-I2C/kernel/src/drivers/oled_ssd1306.cpp:216
        return;

    const uint8_t clearColor = clearWhite ? 0xFF : 0x00;
    a1e0:	e55b3019 	ldrb	r3, [fp, #-25]	; 0xffffffe7
    a1e4:	e3530000 	cmp	r3, #0
    a1e8:	0a000001 	beq	a1f4 <_ZN16CDisplay_SSD13065ClearEb+0x44>
/mnt/c/Users/Kuba/Documents/ZeroMate/examples/19-I2C/kernel/src/drivers/oled_ssd1306.cpp:216 (discriminator 1)
    a1ec:	e3a030ff 	mov	r3, #255	; 0xff
    a1f0:	ea000000 	b	a1f8 <_ZN16CDisplay_SSD13065ClearEb+0x48>
/mnt/c/Users/Kuba/Documents/ZeroMate/examples/19-I2C/kernel/src/drivers/oled_ssd1306.cpp:216 (discriminator 2)
    a1f4:	e3a03000 	mov	r3, #0
/mnt/c/Users/Kuba/Documents/ZeroMate/examples/19-I2C/kernel/src/drivers/oled_ssd1306.cpp:216 (discriminator 4)
    a1f8:	e54b3009 	strb	r3, [fp, #-9]
/mnt/c/Users/Kuba/Documents/ZeroMate/examples/19-I2C/kernel/src/drivers/oled_ssd1306.cpp:218 (discriminator 4)

    const int maxIdx = mWidth * (mHeight / 8);
    a1fc:	e51b3018 	ldr	r3, [fp, #-24]	; 0xffffffe8
    a200:	e593200c 	ldr	r2, [r3, #12]
    a204:	e51b3018 	ldr	r3, [fp, #-24]	; 0xffffffe8
    a208:	e5933010 	ldr	r3, [r3, #16]
    a20c:	e2831007 	add	r1, r3, #7
    a210:	e3530000 	cmp	r3, #0
    a214:	b1a03001 	movlt	r3, r1
    a218:	a1a03003 	movge	r3, r3
    a21c:	e1a031c3 	asr	r3, r3, #3
    a220:	e0030293 	mul	r3, r3, r2
    a224:	e50b3010 	str	r3, [fp, #-16]
/mnt/c/Users/Kuba/Documents/ZeroMate/examples/19-I2C/kernel/src/drivers/oled_ssd1306.cpp:220 (discriminator 4)

    for (int i = 0; i < maxIdx; i++)
    a228:	e3a03000 	mov	r3, #0
    a22c:	e50b3008 	str	r3, [fp, #-8]
/mnt/c/Users/Kuba/Documents/ZeroMate/examples/19-I2C/kernel/src/drivers/oled_ssd1306.cpp:220 (discriminator 3)
    a230:	e51b2008 	ldr	r2, [fp, #-8]
    a234:	e51b3010 	ldr	r3, [fp, #-16]
    a238:	e1520003 	cmp	r2, r3
    a23c:	aa000009 	bge	a268 <_ZN16CDisplay_SSD13065ClearEb+0xb8>
/mnt/c/Users/Kuba/Documents/ZeroMate/examples/19-I2C/kernel/src/drivers/oled_ssd1306.cpp:221 (discriminator 2)
        mBuffer[i] = clearColor;
    a240:	e51b3018 	ldr	r3, [fp, #-24]	; 0xffffffe8
    a244:	e5932008 	ldr	r2, [r3, #8]
    a248:	e51b3008 	ldr	r3, [fp, #-8]
    a24c:	e0823003 	add	r3, r2, r3
    a250:	e55b2009 	ldrb	r2, [fp, #-9]
    a254:	e5c32000 	strb	r2, [r3]
/mnt/c/Users/Kuba/Documents/ZeroMate/examples/19-I2C/kernel/src/drivers/oled_ssd1306.cpp:220 (discriminator 2)
    for (int i = 0; i < maxIdx; i++)
    a258:	e51b3008 	ldr	r3, [fp, #-8]
    a25c:	e2833001 	add	r3, r3, #1
    a260:	e50b3008 	str	r3, [fp, #-8]
    a264:	eafffff1 	b	a230 <_ZN16CDisplay_SSD13065ClearEb+0x80>
/mnt/c/Users/Kuba/Documents/ZeroMate/examples/19-I2C/kernel/src/drivers/oled_ssd1306.cpp:223

    Flip();
    a268:	e51b0018 	ldr	r0, [fp, #-24]	; 0xffffffe8
    a26c:	eb000055 	bl	a3c8 <_ZN16CDisplay_SSD13064FlipEv>
    a270:	ea000000 	b	a278 <_ZN16CDisplay_SSD13065ClearEb+0xc8>
/mnt/c/Users/Kuba/Documents/ZeroMate/examples/19-I2C/kernel/src/drivers/oled_ssd1306.cpp:214
        return;
    a274:	e320f000 	nop	{0}
/mnt/c/Users/Kuba/Documents/ZeroMate/examples/19-I2C/kernel/src/drivers/oled_ssd1306.cpp:224
}
    a278:	e24bd004 	sub	sp, fp, #4
    a27c:	e8bd8800 	pop	{fp, pc}

0000a280 <_ZN16CDisplay_SSD13069Set_PixelEjjb>:
_ZN16CDisplay_SSD13069Set_PixelEjjb():
/mnt/c/Users/Kuba/Documents/ZeroMate/examples/19-I2C/kernel/src/drivers/oled_ssd1306.cpp:227

void CDisplay_SSD1306::Set_Pixel(uint32_t x, uint32_t y, bool set)
{
    a280:	e52db004 	push	{fp}		; (str fp, [sp, #-4]!)
    a284:	e28db000 	add	fp, sp, #0
    a288:	e24dd014 	sub	sp, sp, #20
    a28c:	e50b0008 	str	r0, [fp, #-8]
    a290:	e50b100c 	str	r1, [fp, #-12]
    a294:	e50b2010 	str	r2, [fp, #-16]
    a298:	e54b3011 	strb	r3, [fp, #-17]	; 0xffffffef
/mnt/c/Users/Kuba/Documents/ZeroMate/examples/19-I2C/kernel/src/drivers/oled_ssd1306.cpp:228
    if (!mOpened)
    a29c:	e51b3008 	ldr	r3, [fp, #-8]
    a2a0:	e5d33004 	ldrb	r3, [r3, #4]
    a2a4:	e2233001 	eor	r3, r3, #1
    a2a8:	e6ef3073 	uxtb	r3, r3
    a2ac:	e3530000 	cmp	r3, #0
    a2b0:	1a000040 	bne	a3b8 <_ZN16CDisplay_SSD13069Set_PixelEjjb+0x138>
/mnt/c/Users/Kuba/Documents/ZeroMate/examples/19-I2C/kernel/src/drivers/oled_ssd1306.cpp:231
        return;

    if (set)
    a2b4:	e55b3011 	ldrb	r3, [fp, #-17]	; 0xffffffef
    a2b8:	e3530000 	cmp	r3, #0
    a2bc:	0a00001d 	beq	a338 <_ZN16CDisplay_SSD13069Set_PixelEjjb+0xb8>
/mnt/c/Users/Kuba/Documents/ZeroMate/examples/19-I2C/kernel/src/drivers/oled_ssd1306.cpp:232
        mBuffer[x + (y / 8) * mWidth] |= (1 << (y & 7));
    a2c0:	e51b3008 	ldr	r3, [fp, #-8]
    a2c4:	e5931008 	ldr	r1, [r3, #8]
    a2c8:	e51b3010 	ldr	r3, [fp, #-16]
    a2cc:	e1a031a3 	lsr	r3, r3, #3
    a2d0:	e51b2008 	ldr	r2, [fp, #-8]
    a2d4:	e592200c 	ldr	r2, [r2, #12]
    a2d8:	e0000392 	mul	r0, r2, r3
    a2dc:	e51b200c 	ldr	r2, [fp, #-12]
    a2e0:	e0802002 	add	r2, r0, r2
    a2e4:	e0812002 	add	r2, r1, r2
    a2e8:	e5d22000 	ldrb	r2, [r2]
    a2ec:	e6af1072 	sxtb	r1, r2
    a2f0:	e51b2010 	ldr	r2, [fp, #-16]
    a2f4:	e2022007 	and	r2, r2, #7
    a2f8:	e3a00001 	mov	r0, #1
    a2fc:	e1a02210 	lsl	r2, r0, r2
    a300:	e6af2072 	sxtb	r2, r2
    a304:	e1812002 	orr	r2, r1, r2
    a308:	e6af0072 	sxtb	r0, r2
    a30c:	e51b2008 	ldr	r2, [fp, #-8]
    a310:	e5922008 	ldr	r2, [r2, #8]
    a314:	e51b1008 	ldr	r1, [fp, #-8]
    a318:	e591100c 	ldr	r1, [r1, #12]
    a31c:	e0010391 	mul	r1, r1, r3
    a320:	e51b300c 	ldr	r3, [fp, #-12]
    a324:	e0813003 	add	r3, r1, r3
    a328:	e0823003 	add	r3, r2, r3
    a32c:	e6ef2070 	uxtb	r2, r0
    a330:	e5c32000 	strb	r2, [r3]
    a334:	ea000020 	b	a3bc <_ZN16CDisplay_SSD13069Set_PixelEjjb+0x13c>
/mnt/c/Users/Kuba/Documents/ZeroMate/examples/19-I2C/kernel/src/drivers/oled_ssd1306.cpp:234
    else
        mBuffer[x + (y / 8) * mWidth] &= ~(1 << (y & 7));
    a338:	e51b3008 	ldr	r3, [fp, #-8]
    a33c:	e5931008 	ldr	r1, [r3, #8]
    a340:	e51b3010 	ldr	r3, [fp, #-16]
    a344:	e1a031a3 	lsr	r3, r3, #3
    a348:	e51b2008 	ldr	r2, [fp, #-8]
    a34c:	e592200c 	ldr	r2, [r2, #12]
    a350:	e0000392 	mul	r0, r2, r3
    a354:	e51b200c 	ldr	r2, [fp, #-12]
    a358:	e0802002 	add	r2, r0, r2
    a35c:	e0812002 	add	r2, r1, r2
    a360:	e5d22000 	ldrb	r2, [r2]
    a364:	e6af1072 	sxtb	r1, r2
    a368:	e51b2010 	ldr	r2, [fp, #-16]
    a36c:	e2022007 	and	r2, r2, #7
    a370:	e3a00001 	mov	r0, #1
    a374:	e1a02210 	lsl	r2, r0, r2
    a378:	e6af2072 	sxtb	r2, r2
    a37c:	e1e02002 	mvn	r2, r2
    a380:	e6af2072 	sxtb	r2, r2
    a384:	e0022001 	and	r2, r2, r1
    a388:	e6af0072 	sxtb	r0, r2
    a38c:	e51b2008 	ldr	r2, [fp, #-8]
    a390:	e5922008 	ldr	r2, [r2, #8]
    a394:	e51b1008 	ldr	r1, [fp, #-8]
    a398:	e591100c 	ldr	r1, [r1, #12]
    a39c:	e0010391 	mul	r1, r1, r3
    a3a0:	e51b300c 	ldr	r3, [fp, #-12]
    a3a4:	e0813003 	add	r3, r1, r3
    a3a8:	e0823003 	add	r3, r2, r3
    a3ac:	e6ef2070 	uxtb	r2, r0
    a3b0:	e5c32000 	strb	r2, [r3]
    a3b4:	ea000000 	b	a3bc <_ZN16CDisplay_SSD13069Set_PixelEjjb+0x13c>
/mnt/c/Users/Kuba/Documents/ZeroMate/examples/19-I2C/kernel/src/drivers/oled_ssd1306.cpp:229
        return;
    a3b8:	e320f000 	nop	{0}
/mnt/c/Users/Kuba/Documents/ZeroMate/examples/19-I2C/kernel/src/drivers/oled_ssd1306.cpp:235
}
    a3bc:	e28bd000 	add	sp, fp, #0
    a3c0:	e49db004 	pop	{fp}		; (ldr fp, [sp], #4)
    a3c4:	e12fff1e 	bx	lr

0000a3c8 <_ZN16CDisplay_SSD13064FlipEv>:
_ZN16CDisplay_SSD13064FlipEv():
/mnt/c/Users/Kuba/Documents/ZeroMate/examples/19-I2C/kernel/src/drivers/oled_ssd1306.cpp:238

void CDisplay_SSD1306::Flip()
{
    a3c8:	e92d4800 	push	{fp, lr}
    a3cc:	e28db004 	add	fp, sp, #4
    a3d0:	e24dd040 	sub	sp, sp, #64	; 0x40
    a3d4:	e50b0040 	str	r0, [fp, #-64]	; 0xffffffc0
/mnt/c/Users/Kuba/Documents/ZeroMate/examples/19-I2C/kernel/src/drivers/oled_ssd1306.cpp:239
    if (!mOpened)
    a3d8:	e51b3040 	ldr	r3, [fp, #-64]	; 0xffffffc0
    a3dc:	e5d33004 	ldrb	r3, [r3, #4]
    a3e0:	e2233001 	eor	r3, r3, #1
    a3e4:	e6ef3073 	uxtb	r3, r3
    a3e8:	e3530000 	cmp	r3, #0
    a3ec:	1a000078 	bne	a5d4 <_ZN16CDisplay_SSD13064FlipEv+0x20c>
/mnt/c/Users/Kuba/Documents/ZeroMate/examples/19-I2C/kernel/src/drivers/oled_ssd1306.cpp:246

    int i;

    // nastavime kurzor na levy horni roh
    {
        auto& ta = mI2C.Begin_Transaction(SSD1306_Slave_Address);
    a3f0:	e51b3040 	ldr	r3, [fp, #-64]	; 0xffffffc0
    a3f4:	e5933000 	ldr	r3, [r3]
    a3f8:	e3a0103c 	mov	r1, #60	; 0x3c
    a3fc:	e1a00003 	mov	r0, r3
    a400:	ebfffaa1 	bl	8e8c <_ZN4CI2C17Begin_TransactionEt>
    a404:	e50b0010 	str	r0, [fp, #-16]
/mnt/c/Users/Kuba/Documents/ZeroMate/examples/19-I2C/kernel/src/drivers/oled_ssd1306.cpp:248

        ta << SSD1306_Cmd::Command_Start
    a408:	e3a03000 	mov	r3, #0
    a40c:	e50b303c 	str	r3, [fp, #-60]	; 0xffffffc4
    a410:	e24b303c 	sub	r3, fp, #60	; 0x3c
    a414:	e1a01003 	mov	r1, r3
    a418:	e51b0010 	ldr	r0, [fp, #-16]
    a41c:	eb0001eb 	bl	abd0 <_ZN16CI2C_TransactionlsI11SSD1306_CmdEERS_RKT_>
    a420:	e1a02000 	mov	r2, r0
/mnt/c/Users/Kuba/Documents/ZeroMate/examples/19-I2C/kernel/src/drivers/oled_ssd1306.cpp:249
            << SSD1306_Cmd::Set_Page_Addr
    a424:	e3a03022 	mov	r3, #34	; 0x22
    a428:	e50b3038 	str	r3, [fp, #-56]	; 0xffffffc8
    a42c:	e24b3038 	sub	r3, fp, #56	; 0x38
    a430:	e1a01003 	mov	r1, r3
    a434:	e1a00002 	mov	r0, r2
    a438:	eb0001e4 	bl	abd0 <_ZN16CI2C_TransactionlsI11SSD1306_CmdEERS_RKT_>
    a43c:	e1a02000 	mov	r2, r0
/mnt/c/Users/Kuba/Documents/ZeroMate/examples/19-I2C/kernel/src/drivers/oled_ssd1306.cpp:250
            << 0x00
    a440:	e3a03000 	mov	r3, #0
    a444:	e50b3034 	str	r3, [fp, #-52]	; 0xffffffcc
    a448:	e24b3034 	sub	r3, fp, #52	; 0x34
    a44c:	e1a01003 	mov	r1, r3
    a450:	e1a00002 	mov	r0, r2
    a454:	eb0001f9 	bl	ac40 <_ZN16CI2C_TransactionlsIiEERS_RKT_>
    a458:	e1a02000 	mov	r2, r0
/mnt/c/Users/Kuba/Documents/ZeroMate/examples/19-I2C/kernel/src/drivers/oled_ssd1306.cpp:251
            << 0xFF
    a45c:	e3a030ff 	mov	r3, #255	; 0xff
    a460:	e50b3030 	str	r3, [fp, #-48]	; 0xffffffd0
    a464:	e24b3030 	sub	r3, fp, #48	; 0x30
    a468:	e1a01003 	mov	r1, r3
    a46c:	e1a00002 	mov	r0, r2
    a470:	eb0001f2 	bl	ac40 <_ZN16CI2C_TransactionlsIiEERS_RKT_>
    a474:	e1a02000 	mov	r2, r0
/mnt/c/Users/Kuba/Documents/ZeroMate/examples/19-I2C/kernel/src/drivers/oled_ssd1306.cpp:252
            << SSD1306_Cmd::Set_Column_Addr
    a478:	e3a03021 	mov	r3, #33	; 0x21
    a47c:	e50b302c 	str	r3, [fp, #-44]	; 0xffffffd4
    a480:	e24b302c 	sub	r3, fp, #44	; 0x2c
    a484:	e1a01003 	mov	r1, r3
    a488:	e1a00002 	mov	r0, r2
    a48c:	eb0001cf 	bl	abd0 <_ZN16CI2C_TransactionlsI11SSD1306_CmdEERS_RKT_>
    a490:	e1a02000 	mov	r2, r0
/mnt/c/Users/Kuba/Documents/ZeroMate/examples/19-I2C/kernel/src/drivers/oled_ssd1306.cpp:253
            << 0x00
    a494:	e3a03000 	mov	r3, #0
    a498:	e50b3028 	str	r3, [fp, #-40]	; 0xffffffd8
    a49c:	e24b3028 	sub	r3, fp, #40	; 0x28
    a4a0:	e1a01003 	mov	r1, r3
    a4a4:	e1a00002 	mov	r0, r2
    a4a8:	eb0001e4 	bl	ac40 <_ZN16CI2C_TransactionlsIiEERS_RKT_>
    a4ac:	e1a02000 	mov	r2, r0
/mnt/c/Users/Kuba/Documents/ZeroMate/examples/19-I2C/kernel/src/drivers/oled_ssd1306.cpp:254
            << mWidth - 1;
    a4b0:	e51b3040 	ldr	r3, [fp, #-64]	; 0xffffffc0
    a4b4:	e593300c 	ldr	r3, [r3, #12]
    a4b8:	e2433001 	sub	r3, r3, #1
    a4bc:	e50b3024 	str	r3, [fp, #-36]	; 0xffffffdc
    a4c0:	e24b3024 	sub	r3, fp, #36	; 0x24
    a4c4:	e1a01003 	mov	r1, r3
    a4c8:	e1a00002 	mov	r0, r2
    a4cc:	eb0001db 	bl	ac40 <_ZN16CI2C_TransactionlsIiEERS_RKT_>
/mnt/c/Users/Kuba/Documents/ZeroMate/examples/19-I2C/kernel/src/drivers/oled_ssd1306.cpp:256

        mI2C.End_Transaction(ta);
    a4d0:	e51b3040 	ldr	r3, [fp, #-64]	; 0xffffffc0
    a4d4:	e5933000 	ldr	r3, [r3]
    a4d8:	e3a02001 	mov	r2, #1
    a4dc:	e51b1010 	ldr	r1, [fp, #-16]
    a4e0:	e1a00003 	mov	r0, r3
    a4e4:	ebfffa86 	bl	8f04 <_ZN4CI2C15End_TransactionER16CI2C_Transactionb>
/mnt/c/Users/Kuba/Documents/ZeroMate/examples/19-I2C/kernel/src/drivers/oled_ssd1306.cpp:260
    }

    // budeme posilat pixely po balikach 4 sloupcu (po 8 pixelech)
    constexpr int PktSize = 4;
    a4e8:	e3a03004 	mov	r3, #4
    a4ec:	e50b3014 	str	r3, [fp, #-20]	; 0xffffffec
/mnt/c/Users/Kuba/Documents/ZeroMate/examples/19-I2C/kernel/src/drivers/oled_ssd1306.cpp:262

    const int maxIdx = mWidth * (mHeight / 8);
    a4f0:	e51b3040 	ldr	r3, [fp, #-64]	; 0xffffffc0
    a4f4:	e593200c 	ldr	r2, [r3, #12]
    a4f8:	e51b3040 	ldr	r3, [fp, #-64]	; 0xffffffc0
    a4fc:	e5933010 	ldr	r3, [r3, #16]
    a500:	e2831007 	add	r1, r3, #7
    a504:	e3530000 	cmp	r3, #0
    a508:	b1a03001 	movlt	r3, r1
    a50c:	a1a03003 	movge	r3, r3
    a510:	e1a031c3 	asr	r3, r3, #3
    a514:	e0030293 	mul	r3, r3, r2
    a518:	e50b3018 	str	r3, [fp, #-24]	; 0xffffffe8
/mnt/c/Users/Kuba/Documents/ZeroMate/examples/19-I2C/kernel/src/drivers/oled_ssd1306.cpp:264

    for (int i = 0; i < maxIdx; i += PktSize)
    a51c:	e3a03000 	mov	r3, #0
    a520:	e50b3008 	str	r3, [fp, #-8]
/mnt/c/Users/Kuba/Documents/ZeroMate/examples/19-I2C/kernel/src/drivers/oled_ssd1306.cpp:264 (discriminator 1)
    a524:	e51b2008 	ldr	r2, [fp, #-8]
    a528:	e51b3018 	ldr	r3, [fp, #-24]	; 0xffffffe8
    a52c:	e1520003 	cmp	r2, r3
    a530:	aa000028 	bge	a5d8 <_ZN16CDisplay_SSD13064FlipEv+0x210>
/mnt/c/Users/Kuba/Documents/ZeroMate/examples/19-I2C/kernel/src/drivers/oled_ssd1306.cpp:266
    {
        auto& ta = mI2C.Begin_Transaction(SSD1306_Slave_Address);
    a534:	e51b3040 	ldr	r3, [fp, #-64]	; 0xffffffc0
    a538:	e5933000 	ldr	r3, [r3]
    a53c:	e3a0103c 	mov	r1, #60	; 0x3c
    a540:	e1a00003 	mov	r0, r3
    a544:	ebfffa50 	bl	8e8c <_ZN4CI2C17Begin_TransactionEt>
    a548:	e50b001c 	str	r0, [fp, #-28]	; 0xffffffe4
/mnt/c/Users/Kuba/Documents/ZeroMate/examples/19-I2C/kernel/src/drivers/oled_ssd1306.cpp:268

        ta << SSD1306_Cmd::Data_Continue;
    a54c:	e3a03040 	mov	r3, #64	; 0x40
    a550:	e50b3020 	str	r3, [fp, #-32]	; 0xffffffe0
    a554:	e24b3020 	sub	r3, fp, #32
    a558:	e1a01003 	mov	r1, r3
    a55c:	e51b001c 	ldr	r0, [fp, #-28]	; 0xffffffe4
    a560:	eb00019a 	bl	abd0 <_ZN16CI2C_TransactionlsI11SSD1306_CmdEERS_RKT_>
/mnt/c/Users/Kuba/Documents/ZeroMate/examples/19-I2C/kernel/src/drivers/oled_ssd1306.cpp:269
        for (int j = 0; j < PktSize; j++)
    a564:	e3a03000 	mov	r3, #0
    a568:	e50b300c 	str	r3, [fp, #-12]
/mnt/c/Users/Kuba/Documents/ZeroMate/examples/19-I2C/kernel/src/drivers/oled_ssd1306.cpp:269 (discriminator 3)
    a56c:	e51b300c 	ldr	r3, [fp, #-12]
    a570:	e3530003 	cmp	r3, #3
    a574:	ca00000c 	bgt	a5ac <_ZN16CDisplay_SSD13064FlipEv+0x1e4>
/mnt/c/Users/Kuba/Documents/ZeroMate/examples/19-I2C/kernel/src/drivers/oled_ssd1306.cpp:271 (discriminator 2)
        {
            ta << mBuffer[i + j];
    a578:	e51b3040 	ldr	r3, [fp, #-64]	; 0xffffffc0
    a57c:	e5933008 	ldr	r3, [r3, #8]
    a580:	e51b1008 	ldr	r1, [fp, #-8]
    a584:	e51b200c 	ldr	r2, [fp, #-12]
    a588:	e0812002 	add	r2, r1, r2
    a58c:	e0833002 	add	r3, r3, r2
    a590:	e1a01003 	mov	r1, r3
    a594:	e51b001c 	ldr	r0, [fp, #-28]	; 0xffffffe4
    a598:	eb0001c4 	bl	acb0 <_ZN16CI2C_TransactionlsIhEERS_RKT_>
/mnt/c/Users/Kuba/Documents/ZeroMate/examples/19-I2C/kernel/src/drivers/oled_ssd1306.cpp:269 (discriminator 2)
        for (int j = 0; j < PktSize; j++)
    a59c:	e51b300c 	ldr	r3, [fp, #-12]
    a5a0:	e2833001 	add	r3, r3, #1
    a5a4:	e50b300c 	str	r3, [fp, #-12]
    a5a8:	eaffffef 	b	a56c <_ZN16CDisplay_SSD13064FlipEv+0x1a4>
/mnt/c/Users/Kuba/Documents/ZeroMate/examples/19-I2C/kernel/src/drivers/oled_ssd1306.cpp:275 (discriminator 2)
            // sMonitor << "Sending " << static_cast<unsigned int>(mBuffer[i + j]) << '\n';
        }

        mI2C.End_Transaction(ta);
    a5ac:	e51b3040 	ldr	r3, [fp, #-64]	; 0xffffffc0
    a5b0:	e5933000 	ldr	r3, [r3]
    a5b4:	e3a02001 	mov	r2, #1
    a5b8:	e51b101c 	ldr	r1, [fp, #-28]	; 0xffffffe4
    a5bc:	e1a00003 	mov	r0, r3
    a5c0:	ebfffa4f 	bl	8f04 <_ZN4CI2C15End_TransactionER16CI2C_Transactionb>
/mnt/c/Users/Kuba/Documents/ZeroMate/examples/19-I2C/kernel/src/drivers/oled_ssd1306.cpp:264 (discriminator 2)
    for (int i = 0; i < maxIdx; i += PktSize)
    a5c4:	e51b3008 	ldr	r3, [fp, #-8]
    a5c8:	e2833004 	add	r3, r3, #4
    a5cc:	e50b3008 	str	r3, [fp, #-8]
    a5d0:	eaffffd3 	b	a524 <_ZN16CDisplay_SSD13064FlipEv+0x15c>
/mnt/c/Users/Kuba/Documents/ZeroMate/examples/19-I2C/kernel/src/drivers/oled_ssd1306.cpp:240
        return;
    a5d4:	e320f000 	nop	{0}
/mnt/c/Users/Kuba/Documents/ZeroMate/examples/19-I2C/kernel/src/drivers/oled_ssd1306.cpp:277
    }
}
    a5d8:	e24bd004 	sub	sp, fp, #4
    a5dc:	e8bd8800 	pop	{fp, pc}

0000a5e0 <_ZN16CDisplay_SSD130624Process_External_CommandEPKcj>:
_ZN16CDisplay_SSD130624Process_External_CommandEPKcj():
/mnt/c/Users/Kuba/Documents/ZeroMate/examples/19-I2C/kernel/src/drivers/oled_ssd1306.cpp:280

void CDisplay_SSD1306::Process_External_Command(const char* input, uint32_t length)
{
    a5e0:	e92d4800 	push	{fp, lr}
    a5e4:	e28db004 	add	fp, sp, #4
    a5e8:	e24dd040 	sub	sp, sp, #64	; 0x40
    a5ec:	e50b0038 	str	r0, [fp, #-56]	; 0xffffffc8
    a5f0:	e50b103c 	str	r1, [fp, #-60]	; 0xffffffc4
    a5f4:	e50b2040 	str	r2, [fp, #-64]	; 0xffffffc0
/mnt/c/Users/Kuba/Documents/ZeroMate/examples/19-I2C/kernel/src/drivers/oled_ssd1306.cpp:281
    if (length <= 0)
    a5f8:	e51b3040 	ldr	r3, [fp, #-64]	; 0xffffffc0
    a5fc:	e3530000 	cmp	r3, #0
    a600:	0a000136 	beq	aae0 <_ZN16CDisplay_SSD130624Process_External_CommandEPKcj+0x500>
/mnt/c/Users/Kuba/Documents/ZeroMate/examples/19-I2C/kernel/src/drivers/oled_ssd1306.cpp:284
        return;

    NDisplay_Command cmd = static_cast<NDisplay_Command>(input[0]);
    a604:	e51b303c 	ldr	r3, [fp, #-60]	; 0xffffffc4
    a608:	e5d33000 	ldrb	r3, [r3]
    a60c:	e54b3015 	strb	r3, [fp, #-21]	; 0xffffffeb
/mnt/c/Users/Kuba/Documents/ZeroMate/examples/19-I2C/kernel/src/drivers/oled_ssd1306.cpp:286

    switch (cmd)
    a610:	e55b3015 	ldrb	r3, [fp, #-21]	; 0xffffffeb
    a614:	e3530004 	cmp	r3, #4
    a618:	979ff103 	ldrls	pc, [pc, r3, lsl #2]
    a61c:	ea00013a 	b	ab0c <_ZN16CDisplay_SSD130624Process_External_CommandEPKcj+0x52c>
    a620:	0000a634 	andeq	sl, r0, r4, lsr r6
    a624:	0000a644 	andeq	sl, r0, r4, asr #12
    a628:	0000a65c 	andeq	sl, r0, ip, asr r6
    a62c:	0000a6a4 	andeq	sl, r0, r4, lsr #13
    a630:	0000a764 	andeq	sl, r0, r4, ror #14
/mnt/c/Users/Kuba/Documents/ZeroMate/examples/19-I2C/kernel/src/drivers/oled_ssd1306.cpp:289
    {
        case NDisplay_Command::Nop:
            sMonitor << "External CMD: NOP\n";
    a634:	e59f14d8 	ldr	r1, [pc, #1240]	; ab14 <_ZN16CDisplay_SSD130624Process_External_CommandEPKcj+0x534>
    a638:	e59f04d8 	ldr	r0, [pc, #1240]	; ab18 <_ZN16CDisplay_SSD130624Process_External_CommandEPKcj+0x538>
    a63c:	ebfffb82 	bl	944c <_ZN8CMonitorlsEPKc>
/mnt/c/Users/Kuba/Documents/ZeroMate/examples/19-I2C/kernel/src/drivers/oled_ssd1306.cpp:290
            break;
    a640:	ea000131 	b	ab0c <_ZN16CDisplay_SSD130624Process_External_CommandEPKcj+0x52c>
/mnt/c/Users/Kuba/Documents/ZeroMate/examples/19-I2C/kernel/src/drivers/oled_ssd1306.cpp:293

        case NDisplay_Command::Flip:
            sMonitor << "External CMD: Flip\n";
    a644:	e59f14d0 	ldr	r1, [pc, #1232]	; ab1c <_ZN16CDisplay_SSD130624Process_External_CommandEPKcj+0x53c>
    a648:	e59f04c8 	ldr	r0, [pc, #1224]	; ab18 <_ZN16CDisplay_SSD130624Process_External_CommandEPKcj+0x538>
    a64c:	ebfffb7e 	bl	944c <_ZN8CMonitorlsEPKc>
/mnt/c/Users/Kuba/Documents/ZeroMate/examples/19-I2C/kernel/src/drivers/oled_ssd1306.cpp:294
            Flip();
    a650:	e51b0038 	ldr	r0, [fp, #-56]	; 0xffffffc8
    a654:	ebffff5b 	bl	a3c8 <_ZN16CDisplay_SSD13064FlipEv>
/mnt/c/Users/Kuba/Documents/ZeroMate/examples/19-I2C/kernel/src/drivers/oled_ssd1306.cpp:295
            break;
    a658:	ea00012b 	b	ab0c <_ZN16CDisplay_SSD130624Process_External_CommandEPKcj+0x52c>
/mnt/c/Users/Kuba/Documents/ZeroMate/examples/19-I2C/kernel/src/drivers/oled_ssd1306.cpp:299

        case NDisplay_Command::Clear:
        {
            sMonitor << "External CMD: Clear\n";
    a65c:	e59f14bc 	ldr	r1, [pc, #1212]	; ab20 <_ZN16CDisplay_SSD130624Process_External_CommandEPKcj+0x540>
    a660:	e59f04b0 	ldr	r0, [pc, #1200]	; ab18 <_ZN16CDisplay_SSD130624Process_External_CommandEPKcj+0x538>
    a664:	ebfffb78 	bl	944c <_ZN8CMonitorlsEPKc>
/mnt/c/Users/Kuba/Documents/ZeroMate/examples/19-I2C/kernel/src/drivers/oled_ssd1306.cpp:301

            if (length != sizeof(TDisplay_Clear_Packet))
    a668:	e51b3040 	ldr	r3, [fp, #-64]	; 0xffffffc0
    a66c:	e3530002 	cmp	r3, #2
    a670:	1a00011c 	bne	aae8 <_ZN16CDisplay_SSD130624Process_External_CommandEPKcj+0x508>
/mnt/c/Users/Kuba/Documents/ZeroMate/examples/19-I2C/kernel/src/drivers/oled_ssd1306.cpp:304
                return;

            const TDisplay_Clear_Packet* pkt = reinterpret_cast<const TDisplay_Clear_Packet*>(input);
    a674:	e51b303c 	ldr	r3, [fp, #-60]	; 0xffffffc4
    a678:	e50b3034 	str	r3, [fp, #-52]	; 0xffffffcc
/mnt/c/Users/Kuba/Documents/ZeroMate/examples/19-I2C/kernel/src/drivers/oled_ssd1306.cpp:306

            Clear((pkt->clearSet != 0));
    a67c:	e51b3034 	ldr	r3, [fp, #-52]	; 0xffffffcc
    a680:	e5d33001 	ldrb	r3, [r3, #1]
    a684:	e3530000 	cmp	r3, #0
    a688:	13a03001 	movne	r3, #1
    a68c:	03a03000 	moveq	r3, #0
    a690:	e6ef3073 	uxtb	r3, r3
    a694:	e1a01003 	mov	r1, r3
    a698:	e51b0038 	ldr	r0, [fp, #-56]	; 0xffffffc8
    a69c:	ebfffec3 	bl	a1b0 <_ZN16CDisplay_SSD13065ClearEb>
/mnt/c/Users/Kuba/Documents/ZeroMate/examples/19-I2C/kernel/src/drivers/oled_ssd1306.cpp:308

            break;
    a6a0:	ea000119 	b	ab0c <_ZN16CDisplay_SSD130624Process_External_CommandEPKcj+0x52c>
/mnt/c/Users/Kuba/Documents/ZeroMate/examples/19-I2C/kernel/src/drivers/oled_ssd1306.cpp:313
        }

        case NDisplay_Command::Draw_Pixel_Array:
        {
            sMonitor << "External CMD: Draw_Pixel_Array\n";
    a6a4:	e59f1478 	ldr	r1, [pc, #1144]	; ab24 <_ZN16CDisplay_SSD130624Process_External_CommandEPKcj+0x544>
    a6a8:	e59f0468 	ldr	r0, [pc, #1128]	; ab18 <_ZN16CDisplay_SSD130624Process_External_CommandEPKcj+0x538>
    a6ac:	ebfffb66 	bl	944c <_ZN8CMonitorlsEPKc>
/mnt/c/Users/Kuba/Documents/ZeroMate/examples/19-I2C/kernel/src/drivers/oled_ssd1306.cpp:315

            if (length < sizeof(TDisplay_Draw_Pixel_Array_Packet))
    a6b0:	e51b3040 	ldr	r3, [fp, #-64]	; 0xffffffc0
    a6b4:	e3530007 	cmp	r3, #7
    a6b8:	9a00010c 	bls	aaf0 <_ZN16CDisplay_SSD130624Process_External_CommandEPKcj+0x510>
/mnt/c/Users/Kuba/Documents/ZeroMate/examples/19-I2C/kernel/src/drivers/oled_ssd1306.cpp:318
                return;

            const TDisplay_Draw_Pixel_Array_Packet* pkt = reinterpret_cast<const TDisplay_Draw_Pixel_Array_Packet*>(input);
    a6bc:	e51b303c 	ldr	r3, [fp, #-60]	; 0xffffffc4
    a6c0:	e50b302c 	str	r3, [fp, #-44]	; 0xffffffd4
/mnt/c/Users/Kuba/Documents/ZeroMate/examples/19-I2C/kernel/src/drivers/oled_ssd1306.cpp:320

            const TDisplay_Pixel_Spec* ptr = &pkt->first;
    a6c4:	e51b302c 	ldr	r3, [fp, #-44]	; 0xffffffd4
    a6c8:	e2833003 	add	r3, r3, #3
    a6cc:	e50b3030 	str	r3, [fp, #-48]	; 0xffffffd0
/mnt/c/Users/Kuba/Documents/ZeroMate/examples/19-I2C/kernel/src/drivers/oled_ssd1306.cpp:322

            for (uint16_t i = 0; i < pkt->count; i++)
    a6d0:	e3a03000 	mov	r3, #0
    a6d4:	e14b30b6 	strh	r3, [fp, #-6]
/mnt/c/Users/Kuba/Documents/ZeroMate/examples/19-I2C/kernel/src/drivers/oled_ssd1306.cpp:322 (discriminator 3)
    a6d8:	e51b302c 	ldr	r3, [fp, #-44]	; 0xffffffd4
    a6dc:	e5d32001 	ldrb	r2, [r3, #1]
    a6e0:	e5d33002 	ldrb	r3, [r3, #2]
    a6e4:	e1a03403 	lsl	r3, r3, #8
    a6e8:	e1833002 	orr	r3, r3, r2
    a6ec:	e6ff3073 	uxth	r3, r3
    a6f0:	e15b20b6 	ldrh	r2, [fp, #-6]
    a6f4:	e1520003 	cmp	r2, r3
    a6f8:	2a0000fe 	bcs	aaf8 <_ZN16CDisplay_SSD130624Process_External_CommandEPKcj+0x518>
/mnt/c/Users/Kuba/Documents/ZeroMate/examples/19-I2C/kernel/src/drivers/oled_ssd1306.cpp:323 (discriminator 2)
                Set_Pixel(ptr->x, ptr->y, (ptr->set != 0));
    a6fc:	e51b3030 	ldr	r3, [fp, #-48]	; 0xffffffd0
    a700:	e5d32000 	ldrb	r2, [r3]
    a704:	e5d33001 	ldrb	r3, [r3, #1]
    a708:	e1a03403 	lsl	r3, r3, #8
    a70c:	e1833002 	orr	r3, r3, r2
    a710:	e6ff3073 	uxth	r3, r3
    a714:	e1a01003 	mov	r1, r3
    a718:	e51b3030 	ldr	r3, [fp, #-48]	; 0xffffffd0
    a71c:	e5d32002 	ldrb	r2, [r3, #2]
    a720:	e5d33003 	ldrb	r3, [r3, #3]
    a724:	e1a03403 	lsl	r3, r3, #8
    a728:	e1833002 	orr	r3, r3, r2
    a72c:	e6ff3073 	uxth	r3, r3
    a730:	e1a02003 	mov	r2, r3
    a734:	e51b3030 	ldr	r3, [fp, #-48]	; 0xffffffd0
    a738:	e5d33004 	ldrb	r3, [r3, #4]
    a73c:	e3530000 	cmp	r3, #0
    a740:	13a03001 	movne	r3, #1
    a744:	03a03000 	moveq	r3, #0
    a748:	e6ef3073 	uxtb	r3, r3
    a74c:	e51b0038 	ldr	r0, [fp, #-56]	; 0xffffffc8
    a750:	ebfffeca 	bl	a280 <_ZN16CDisplay_SSD13069Set_PixelEjjb>
/mnt/c/Users/Kuba/Documents/ZeroMate/examples/19-I2C/kernel/src/drivers/oled_ssd1306.cpp:322 (discriminator 2)
            for (uint16_t i = 0; i < pkt->count; i++)
    a754:	e15b30b6 	ldrh	r3, [fp, #-6]
    a758:	e2833001 	add	r3, r3, #1
    a75c:	e14b30b6 	strh	r3, [fp, #-6]
    a760:	eaffffdc 	b	a6d8 <_ZN16CDisplay_SSD130624Process_External_CommandEPKcj+0xf8>
/mnt/c/Users/Kuba/Documents/ZeroMate/examples/19-I2C/kernel/src/drivers/oled_ssd1306.cpp:330
            break;
        }

        case NDisplay_Command::Draw_Pixel_Array_To_Rect:
        {
            sMonitor << "External CMD: Draw_Pixel_Array_To_Rect\n";
    a764:	e59f13bc 	ldr	r1, [pc, #956]	; ab28 <_ZN16CDisplay_SSD130624Process_External_CommandEPKcj+0x548>
    a768:	e59f03a8 	ldr	r0, [pc, #936]	; ab18 <_ZN16CDisplay_SSD130624Process_External_CommandEPKcj+0x538>
    a76c:	ebfffb36 	bl	944c <_ZN8CMonitorlsEPKc>
/mnt/c/Users/Kuba/Documents/ZeroMate/examples/19-I2C/kernel/src/drivers/oled_ssd1306.cpp:332

            if (length < sizeof(TDisplay_Pixels_To_Rect))
    a770:	e51b3040 	ldr	r3, [fp, #-64]	; 0xffffffc0
    a774:	e353000a 	cmp	r3, #10
    a778:	9a0000e0 	bls	ab00 <_ZN16CDisplay_SSD130624Process_External_CommandEPKcj+0x520>
/mnt/c/Users/Kuba/Documents/ZeroMate/examples/19-I2C/kernel/src/drivers/oled_ssd1306.cpp:335
                return;

            const TDisplay_Pixels_To_Rect* pkt = reinterpret_cast<const TDisplay_Pixels_To_Rect*>(input);
    a77c:	e51b303c 	ldr	r3, [fp, #-60]	; 0xffffffc4
    a780:	e50b301c 	str	r3, [fp, #-28]	; 0xffffffe4
/mnt/c/Users/Kuba/Documents/ZeroMate/examples/19-I2C/kernel/src/drivers/oled_ssd1306.cpp:337

            const uint8_t* data = &pkt->first;
    a784:	e51b301c 	ldr	r3, [fp, #-28]	; 0xffffffe4
    a788:	e283300a 	add	r3, r3, #10
    a78c:	e50b3020 	str	r3, [fp, #-32]	; 0xffffffe0
/mnt/c/Users/Kuba/Documents/ZeroMate/examples/19-I2C/kernel/src/drivers/oled_ssd1306.cpp:339

            sMonitor << "pkt->vflip = " << (pkt->vflip == 0) << '\n';
    a790:	e59f1394 	ldr	r1, [pc, #916]	; ab2c <_ZN16CDisplay_SSD130624Process_External_CommandEPKcj+0x54c>
    a794:	e59f037c 	ldr	r0, [pc, #892]	; ab18 <_ZN16CDisplay_SSD130624Process_External_CommandEPKcj+0x538>
    a798:	ebfffb2b 	bl	944c <_ZN8CMonitorlsEPKc>
    a79c:	e1a02000 	mov	r2, r0
    a7a0:	e51b301c 	ldr	r3, [fp, #-28]	; 0xffffffe4
    a7a4:	e5d33009 	ldrb	r3, [r3, #9]
    a7a8:	e3530000 	cmp	r3, #0
    a7ac:	03a03001 	moveq	r3, #1
    a7b0:	13a03000 	movne	r3, #0
    a7b4:	e6ef3073 	uxtb	r3, r3
    a7b8:	e1a01003 	mov	r1, r3
    a7bc:	e1a00002 	mov	r0, r2
    a7c0:	ebfffb61 	bl	954c <_ZN8CMonitorlsEb>
    a7c4:	e1a03000 	mov	r3, r0
    a7c8:	e3a0100a 	mov	r1, #10
    a7cc:	e1a00003 	mov	r0, r3
    a7d0:	ebfffaf3 	bl	93a4 <_ZN8CMonitorlsEc>
/mnt/c/Users/Kuba/Documents/ZeroMate/examples/19-I2C/kernel/src/drivers/oled_ssd1306.cpp:341

            if (pkt->vflip == 0)
    a7d4:	e51b301c 	ldr	r3, [fp, #-28]	; 0xffffffe4
    a7d8:	e5d33009 	ldrb	r3, [r3, #9]
    a7dc:	e3530000 	cmp	r3, #0
    a7e0:	1a000066 	bne	a980 <_ZN16CDisplay_SSD130624Process_External_CommandEPKcj+0x3a0>
/mnt/c/Users/Kuba/Documents/ZeroMate/examples/19-I2C/kernel/src/drivers/oled_ssd1306.cpp:343
            {
                for (uint16_t x = pkt->x1; x < pkt->x1 + pkt->w; x++)
    a7e4:	e51b301c 	ldr	r3, [fp, #-28]	; 0xffffffe4
    a7e8:	e5d32001 	ldrb	r2, [r3, #1]
    a7ec:	e5d33002 	ldrb	r3, [r3, #2]
    a7f0:	e1a03403 	lsl	r3, r3, #8
    a7f4:	e1833002 	orr	r3, r3, r2
    a7f8:	e14b30b8 	strh	r3, [fp, #-8]
/mnt/c/Users/Kuba/Documents/ZeroMate/examples/19-I2C/kernel/src/drivers/oled_ssd1306.cpp:343 (discriminator 1)
    a7fc:	e15b20b8 	ldrh	r2, [fp, #-8]
    a800:	e51b301c 	ldr	r3, [fp, #-28]	; 0xffffffe4
    a804:	e5d31001 	ldrb	r1, [r3, #1]
    a808:	e5d33002 	ldrb	r3, [r3, #2]
    a80c:	e1a03403 	lsl	r3, r3, #8
    a810:	e1833001 	orr	r3, r3, r1
    a814:	e6ff3073 	uxth	r3, r3
    a818:	e1a00003 	mov	r0, r3
    a81c:	e51b301c 	ldr	r3, [fp, #-28]	; 0xffffffe4
    a820:	e5d31005 	ldrb	r1, [r3, #5]
    a824:	e5d33006 	ldrb	r3, [r3, #6]
    a828:	e1a03403 	lsl	r3, r3, #8
    a82c:	e1833001 	orr	r3, r3, r1
    a830:	e6ff3073 	uxth	r3, r3
    a834:	e0803003 	add	r3, r0, r3
    a838:	e1520003 	cmp	r2, r3
    a83c:	aa0000b1 	bge	ab08 <_ZN16CDisplay_SSD130624Process_External_CommandEPKcj+0x528>
/mnt/c/Users/Kuba/Documents/ZeroMate/examples/19-I2C/kernel/src/drivers/oled_ssd1306.cpp:345
                {
                    for (uint16_t y = pkt->y1; y < pkt->y1 + pkt->h; y++)
    a840:	e51b301c 	ldr	r3, [fp, #-28]	; 0xffffffe4
    a844:	e5d32003 	ldrb	r2, [r3, #3]
    a848:	e5d33004 	ldrb	r3, [r3, #4]
    a84c:	e1a03403 	lsl	r3, r3, #8
    a850:	e1833002 	orr	r3, r3, r2
    a854:	e14b30ba 	strh	r3, [fp, #-10]
/mnt/c/Users/Kuba/Documents/ZeroMate/examples/19-I2C/kernel/src/drivers/oled_ssd1306.cpp:345 (discriminator 3)
    a858:	e15b20ba 	ldrh	r2, [fp, #-10]
    a85c:	e51b301c 	ldr	r3, [fp, #-28]	; 0xffffffe4
    a860:	e5d31003 	ldrb	r1, [r3, #3]
    a864:	e5d33004 	ldrb	r3, [r3, #4]
    a868:	e1a03403 	lsl	r3, r3, #8
    a86c:	e1833001 	orr	r3, r3, r1
    a870:	e6ff3073 	uxth	r3, r3
    a874:	e1a00003 	mov	r0, r3
    a878:	e51b301c 	ldr	r3, [fp, #-28]	; 0xffffffe4
    a87c:	e5d31007 	ldrb	r1, [r3, #7]
    a880:	e5d33008 	ldrb	r3, [r3, #8]
    a884:	e1a03403 	lsl	r3, r3, #8
    a888:	e1833001 	orr	r3, r3, r1
    a88c:	e6ff3073 	uxth	r3, r3
    a890:	e0803003 	add	r3, r0, r3
    a894:	e1520003 	cmp	r2, r3
    a898:	aa000034 	bge	a970 <_ZN16CDisplay_SSD130624Process_External_CommandEPKcj+0x390>
/mnt/c/Users/Kuba/Documents/ZeroMate/examples/19-I2C/kernel/src/drivers/oled_ssd1306.cpp:347 (discriminator 2)
                    {
                        const uint16_t pos = ((y - pkt->y1) * pkt->w + (x - pkt->x1));
    a89c:	e51b301c 	ldr	r3, [fp, #-28]	; 0xffffffe4
    a8a0:	e5d32003 	ldrb	r2, [r3, #3]
    a8a4:	e5d33004 	ldrb	r3, [r3, #4]
    a8a8:	e1a03403 	lsl	r3, r3, #8
    a8ac:	e1833002 	orr	r3, r3, r2
    a8b0:	e6ff3073 	uxth	r3, r3
    a8b4:	e15b20ba 	ldrh	r2, [fp, #-10]
    a8b8:	e0423003 	sub	r3, r2, r3
    a8bc:	e6ff2073 	uxth	r2, r3
    a8c0:	e51b301c 	ldr	r3, [fp, #-28]	; 0xffffffe4
    a8c4:	e5d31005 	ldrb	r1, [r3, #5]
    a8c8:	e5d33006 	ldrb	r3, [r3, #6]
    a8cc:	e1a03403 	lsl	r3, r3, #8
    a8d0:	e1833001 	orr	r3, r3, r1
    a8d4:	e6ff3073 	uxth	r3, r3
    a8d8:	e1630382 	smulbb	r3, r2, r3
    a8dc:	e6ff2073 	uxth	r2, r3
    a8e0:	e51b301c 	ldr	r3, [fp, #-28]	; 0xffffffe4
    a8e4:	e5d31001 	ldrb	r1, [r3, #1]
    a8e8:	e5d33002 	ldrb	r3, [r3, #2]
    a8ec:	e1a03403 	lsl	r3, r3, #8
    a8f0:	e1833001 	orr	r3, r3, r1
    a8f4:	e6ff3073 	uxth	r3, r3
    a8f8:	e15b10b8 	ldrh	r1, [fp, #-8]
    a8fc:	e0413003 	sub	r3, r1, r3
    a900:	e6ff3073 	uxth	r3, r3
    a904:	e0823003 	add	r3, r2, r3
    a908:	e14b32b8 	strh	r3, [fp, #-40]	; 0xffffffd8
/mnt/c/Users/Kuba/Documents/ZeroMate/examples/19-I2C/kernel/src/drivers/oled_ssd1306.cpp:350 (discriminator 2)

                        
                        Set_Pixel(x, y, ((data[pos / 8] >> (7 - (pos % 8))) & 0x1) != 0);
    a90c:	e15b10b8 	ldrh	r1, [fp, #-8]
    a910:	e15b20ba 	ldrh	r2, [fp, #-10]
    a914:	e15b32b8 	ldrh	r3, [fp, #-40]	; 0xffffffd8
    a918:	e1a031a3 	lsr	r3, r3, #3
    a91c:	e6ff3073 	uxth	r3, r3
    a920:	e1a00003 	mov	r0, r3
    a924:	e51b3020 	ldr	r3, [fp, #-32]	; 0xffffffe0
    a928:	e0833000 	add	r3, r3, r0
    a92c:	e5d33000 	ldrb	r3, [r3]
    a930:	e1a00003 	mov	r0, r3
    a934:	e15b32b8 	ldrh	r3, [fp, #-40]	; 0xffffffd8
    a938:	e1e03003 	mvn	r3, r3
    a93c:	e2033007 	and	r3, r3, #7
    a940:	e1a03350 	asr	r3, r0, r3
    a944:	e2033001 	and	r3, r3, #1
    a948:	e3530000 	cmp	r3, #0
    a94c:	13a03001 	movne	r3, #1
    a950:	03a03000 	moveq	r3, #0
    a954:	e6ef3073 	uxtb	r3, r3
    a958:	e51b0038 	ldr	r0, [fp, #-56]	; 0xffffffc8
    a95c:	ebfffe47 	bl	a280 <_ZN16CDisplay_SSD13069Set_PixelEjjb>
/mnt/c/Users/Kuba/Documents/ZeroMate/examples/19-I2C/kernel/src/drivers/oled_ssd1306.cpp:345 (discriminator 2)
                    for (uint16_t y = pkt->y1; y < pkt->y1 + pkt->h; y++)
    a960:	e15b30ba 	ldrh	r3, [fp, #-10]
    a964:	e2833001 	add	r3, r3, #1
    a968:	e14b30ba 	strh	r3, [fp, #-10]
    a96c:	eaffffb9 	b	a858 <_ZN16CDisplay_SSD130624Process_External_CommandEPKcj+0x278>
/mnt/c/Users/Kuba/Documents/ZeroMate/examples/19-I2C/kernel/src/drivers/oled_ssd1306.cpp:343 (discriminator 2)
                for (uint16_t x = pkt->x1; x < pkt->x1 + pkt->w; x++)
    a970:	e15b30b8 	ldrh	r3, [fp, #-8]
    a974:	e2833001 	add	r3, r3, #1
    a978:	e14b30b8 	strh	r3, [fp, #-8]
    a97c:	eaffff9e 	b	a7fc <_ZN16CDisplay_SSD130624Process_External_CommandEPKcj+0x21c>
/mnt/c/Users/Kuba/Documents/ZeroMate/examples/19-I2C/kernel/src/drivers/oled_ssd1306.cpp:368
                {
                    sMonitor << static_cast<unsigned int>(data[i]) << " ";
                }
                sMonitor << "\n";*/

                for (uint32_t x = 0; x < pkt->w; x++)
    a980:	e3a03000 	mov	r3, #0
    a984:	e50b3010 	str	r3, [fp, #-16]
/mnt/c/Users/Kuba/Documents/ZeroMate/examples/19-I2C/kernel/src/drivers/oled_ssd1306.cpp:368 (discriminator 1)
    a988:	e51b301c 	ldr	r3, [fp, #-28]	; 0xffffffe4
    a98c:	e5d32005 	ldrb	r2, [r3, #5]
    a990:	e5d33006 	ldrb	r3, [r3, #6]
    a994:	e1a03403 	lsl	r3, r3, #8
    a998:	e1833002 	orr	r3, r3, r2
    a99c:	e6ff3073 	uxth	r3, r3
    a9a0:	e1a02003 	mov	r2, r3
    a9a4:	e51b3010 	ldr	r3, [fp, #-16]
    a9a8:	e1530002 	cmp	r3, r2
    a9ac:	2a000055 	bcs	ab08 <_ZN16CDisplay_SSD130624Process_External_CommandEPKcj+0x528>
/mnt/c/Users/Kuba/Documents/ZeroMate/examples/19-I2C/kernel/src/drivers/oled_ssd1306.cpp:370
                {
                    for (uint32_t y = 0; y < pkt->h; y++)
    a9b0:	e3a03000 	mov	r3, #0
    a9b4:	e50b3014 	str	r3, [fp, #-20]	; 0xffffffec
/mnt/c/Users/Kuba/Documents/ZeroMate/examples/19-I2C/kernel/src/drivers/oled_ssd1306.cpp:370 (discriminator 3)
    a9b8:	e51b301c 	ldr	r3, [fp, #-28]	; 0xffffffe4
    a9bc:	e5d32007 	ldrb	r2, [r3, #7]
    a9c0:	e5d33008 	ldrb	r3, [r3, #8]
    a9c4:	e1a03403 	lsl	r3, r3, #8
    a9c8:	e1833002 	orr	r3, r3, r2
    a9cc:	e6ff3073 	uxth	r3, r3
    a9d0:	e1a02003 	mov	r2, r3
    a9d4:	e51b3014 	ldr	r3, [fp, #-20]	; 0xffffffec
    a9d8:	e1530002 	cmp	r3, r2
    a9dc:	2a00003b 	bcs	aad0 <_ZN16CDisplay_SSD130624Process_External_CommandEPKcj+0x4f0>
/mnt/c/Users/Kuba/Documents/ZeroMate/examples/19-I2C/kernel/src/drivers/oled_ssd1306.cpp:372 (discriminator 2)
                    {
                        const uint32_t pos = (x * pkt->h + y);
    a9e0:	e51b301c 	ldr	r3, [fp, #-28]	; 0xffffffe4
    a9e4:	e5d32007 	ldrb	r2, [r3, #7]
    a9e8:	e5d33008 	ldrb	r3, [r3, #8]
    a9ec:	e1a03403 	lsl	r3, r3, #8
    a9f0:	e1833002 	orr	r3, r3, r2
    a9f4:	e6ff3073 	uxth	r3, r3
    a9f8:	e1a02003 	mov	r2, r3
    a9fc:	e51b3010 	ldr	r3, [fp, #-16]
    aa00:	e0030293 	mul	r3, r3, r2
    aa04:	e51b2014 	ldr	r2, [fp, #-20]	; 0xffffffec
    aa08:	e0823003 	add	r3, r2, r3
    aa0c:	e50b3024 	str	r3, [fp, #-36]	; 0xffffffdc
/mnt/c/Users/Kuba/Documents/ZeroMate/examples/19-I2C/kernel/src/drivers/oled_ssd1306.cpp:378 (discriminator 2)

                        //sMonitor << "x = " << static_cast<unsigned int>(x) << "; y = " << static_cast<unsigned int>(y) << '\n';
                        //sMonitor << "pos = " << static_cast<unsigned int>(pos) << '\n';
                        //sMonitor << "[a; b] = [" << static_cast<unsigned int>(pos / 8) << "; " << static_cast<unsigned int>(7 - (pos % 8)) << "]\n";

                        const bool set = ((data[pos / 8] >> (7 - (pos % 8))) & 0x1) != 0;
    aa10:	e51b3024 	ldr	r3, [fp, #-36]	; 0xffffffdc
    aa14:	e1a031a3 	lsr	r3, r3, #3
    aa18:	e51b2020 	ldr	r2, [fp, #-32]	; 0xffffffe0
    aa1c:	e0823003 	add	r3, r2, r3
    aa20:	e5d33000 	ldrb	r3, [r3]
    aa24:	e1a02003 	mov	r2, r3
    aa28:	e51b3024 	ldr	r3, [fp, #-36]	; 0xffffffdc
    aa2c:	e1e03003 	mvn	r3, r3
    aa30:	e2033007 	and	r3, r3, #7
    aa34:	e1a03352 	asr	r3, r2, r3
    aa38:	e2033001 	and	r3, r3, #1
    aa3c:	e3530000 	cmp	r3, #0
    aa40:	13a03001 	movne	r3, #1
    aa44:	03a03000 	moveq	r3, #0
    aa48:	e54b3025 	strb	r3, [fp, #-37]	; 0xffffffdb
/mnt/c/Users/Kuba/Documents/ZeroMate/examples/19-I2C/kernel/src/drivers/oled_ssd1306.cpp:381 (discriminator 2)
                        //sMonitor << "[" << static_cast<unsigned int>((pkt->h - y) + pkt->y1) << "; " << static_cast<unsigned int>(x + pkt->x1) << "] = " << set << "\n";

                        Set_Pixel(x + pkt->x1, (pkt->h - y) + pkt->y1, set);
    aa4c:	e51b301c 	ldr	r3, [fp, #-28]	; 0xffffffe4
    aa50:	e5d32001 	ldrb	r2, [r3, #1]
    aa54:	e5d33002 	ldrb	r3, [r3, #2]
    aa58:	e1a03403 	lsl	r3, r3, #8
    aa5c:	e1833002 	orr	r3, r3, r2
    aa60:	e6ff3073 	uxth	r3, r3
    aa64:	e1a02003 	mov	r2, r3
    aa68:	e51b3010 	ldr	r3, [fp, #-16]
    aa6c:	e0820003 	add	r0, r2, r3
    aa70:	e51b301c 	ldr	r3, [fp, #-28]	; 0xffffffe4
    aa74:	e5d32007 	ldrb	r2, [r3, #7]
    aa78:	e5d33008 	ldrb	r3, [r3, #8]
    aa7c:	e1a03403 	lsl	r3, r3, #8
    aa80:	e1833002 	orr	r3, r3, r2
    aa84:	e6ff3073 	uxth	r3, r3
    aa88:	e1a02003 	mov	r2, r3
    aa8c:	e51b3014 	ldr	r3, [fp, #-20]	; 0xffffffec
    aa90:	e0422003 	sub	r2, r2, r3
    aa94:	e51b301c 	ldr	r3, [fp, #-28]	; 0xffffffe4
    aa98:	e5d31003 	ldrb	r1, [r3, #3]
    aa9c:	e5d33004 	ldrb	r3, [r3, #4]
    aaa0:	e1a03403 	lsl	r3, r3, #8
    aaa4:	e1833001 	orr	r3, r3, r1
    aaa8:	e6ff3073 	uxth	r3, r3
    aaac:	e0822003 	add	r2, r2, r3
    aab0:	e55b3025 	ldrb	r3, [fp, #-37]	; 0xffffffdb
    aab4:	e1a01000 	mov	r1, r0
    aab8:	e51b0038 	ldr	r0, [fp, #-56]	; 0xffffffc8
    aabc:	ebfffdef 	bl	a280 <_ZN16CDisplay_SSD13069Set_PixelEjjb>
/mnt/c/Users/Kuba/Documents/ZeroMate/examples/19-I2C/kernel/src/drivers/oled_ssd1306.cpp:370 (discriminator 2)
                    for (uint32_t y = 0; y < pkt->h; y++)
    aac0:	e51b3014 	ldr	r3, [fp, #-20]	; 0xffffffec
    aac4:	e2833001 	add	r3, r3, #1
    aac8:	e50b3014 	str	r3, [fp, #-20]	; 0xffffffec
    aacc:	eaffffb9 	b	a9b8 <_ZN16CDisplay_SSD130624Process_External_CommandEPKcj+0x3d8>
/mnt/c/Users/Kuba/Documents/ZeroMate/examples/19-I2C/kernel/src/drivers/oled_ssd1306.cpp:368 (discriminator 2)
                for (uint32_t x = 0; x < pkt->w; x++)
    aad0:	e51b3010 	ldr	r3, [fp, #-16]
    aad4:	e2833001 	add	r3, r3, #1
    aad8:	e50b3010 	str	r3, [fp, #-16]
    aadc:	eaffffa9 	b	a988 <_ZN16CDisplay_SSD130624Process_External_CommandEPKcj+0x3a8>
/mnt/c/Users/Kuba/Documents/ZeroMate/examples/19-I2C/kernel/src/drivers/oled_ssd1306.cpp:282
        return;
    aae0:	e320f000 	nop	{0}
    aae4:	ea000008 	b	ab0c <_ZN16CDisplay_SSD130624Process_External_CommandEPKcj+0x52c>
/mnt/c/Users/Kuba/Documents/ZeroMate/examples/19-I2C/kernel/src/drivers/oled_ssd1306.cpp:302
                return;
    aae8:	e320f000 	nop	{0}
    aaec:	ea000006 	b	ab0c <_ZN16CDisplay_SSD130624Process_External_CommandEPKcj+0x52c>
/mnt/c/Users/Kuba/Documents/ZeroMate/examples/19-I2C/kernel/src/drivers/oled_ssd1306.cpp:316
                return;
    aaf0:	e320f000 	nop	{0}
    aaf4:	ea000004 	b	ab0c <_ZN16CDisplay_SSD130624Process_External_CommandEPKcj+0x52c>
/mnt/c/Users/Kuba/Documents/ZeroMate/examples/19-I2C/kernel/src/drivers/oled_ssd1306.cpp:325
            break;
    aaf8:	e320f000 	nop	{0}
    aafc:	ea000002 	b	ab0c <_ZN16CDisplay_SSD130624Process_External_CommandEPKcj+0x52c>
/mnt/c/Users/Kuba/Documents/ZeroMate/examples/19-I2C/kernel/src/drivers/oled_ssd1306.cpp:333
                return;
    ab00:	e320f000 	nop	{0}
    ab04:	ea000000 	b	ab0c <_ZN16CDisplay_SSD130624Process_External_CommandEPKcj+0x52c>
/mnt/c/Users/Kuba/Documents/ZeroMate/examples/19-I2C/kernel/src/drivers/oled_ssd1306.cpp:386
                    }
                }
            }

            break;
    ab08:	e320f000 	nop	{0}
/mnt/c/Users/Kuba/Documents/ZeroMate/examples/19-I2C/kernel/src/drivers/oled_ssd1306.cpp:389
        }
    }
}
    ab0c:	e24bd004 	sub	sp, fp, #4
    ab10:	e8bd8800 	pop	{fp, pc}
    ab14:	00010020 	andeq	r0, r1, r0, lsr #32
    ab18:	00010bd4 	ldrdeq	r0, [r1], -r4
    ab1c:	00010034 	andeq	r0, r1, r4, lsr r0
    ab20:	00010048 	andeq	r0, r1, r8, asr #32
    ab24:	00010060 	andeq	r0, r1, r0, rrx
    ab28:	00010080 	andeq	r0, r1, r0, lsl #1
    ab2c:	000100a8 	andeq	r0, r1, r8, lsr #1

0000ab30 <_Z41__static_initialization_and_destruction_0ii>:
_Z41__static_initialization_and_destruction_0ii():
/mnt/c/Users/Kuba/Documents/ZeroMate/examples/19-I2C/kernel/src/drivers/oled_ssd1306.cpp:389
    ab30:	e92d4800 	push	{fp, lr}
    ab34:	e28db004 	add	fp, sp, #4
    ab38:	e24dd008 	sub	sp, sp, #8
    ab3c:	e50b0008 	str	r0, [fp, #-8]
    ab40:	e50b100c 	str	r1, [fp, #-12]
    ab44:	e51b3008 	ldr	r3, [fp, #-8]
    ab48:	e3530001 	cmp	r3, #1
    ab4c:	1a000006 	bne	ab6c <_Z41__static_initialization_and_destruction_0ii+0x3c>
/mnt/c/Users/Kuba/Documents/ZeroMate/examples/19-I2C/kernel/src/drivers/oled_ssd1306.cpp:389 (discriminator 1)
    ab50:	e51b300c 	ldr	r3, [fp, #-12]
    ab54:	e59f201c 	ldr	r2, [pc, #28]	; ab78 <_Z41__static_initialization_and_destruction_0ii+0x48>
    ab58:	e1530002 	cmp	r3, r2
    ab5c:	1a000002 	bne	ab6c <_Z41__static_initialization_and_destruction_0ii+0x3c>
/mnt/c/Users/Kuba/Documents/ZeroMate/examples/19-I2C/kernel/src/drivers/oled_ssd1306.cpp:7
CDisplay_SSD1306 sDisplay_SSD1306(sI2C1);
    ab60:	e59f1014 	ldr	r1, [pc, #20]	; ab7c <_Z41__static_initialization_and_destruction_0ii+0x4c>
    ab64:	e59f0014 	ldr	r0, [pc, #20]	; ab80 <_Z41__static_initialization_and_destruction_0ii+0x50>
    ab68:	ebfffb46 	bl	9888 <_ZN16CDisplay_SSD1306C1ER4CI2C>
/mnt/c/Users/Kuba/Documents/ZeroMate/examples/19-I2C/kernel/src/drivers/oled_ssd1306.cpp:389
}
    ab6c:	e320f000 	nop	{0}
    ab70:	e24bd004 	sub	sp, fp, #4
    ab74:	e8bd8800 	pop	{fp, pc}
    ab78:	0000ffff 	strdeq	pc, [r0], -pc	; <UNPREDICTABLE>
    ab7c:	00010bb0 			; <UNDEFINED> instruction: 0x00010bb0
    ab80:	00010bfc 	strdeq	r0, [r1], -ip

0000ab84 <_GLOBAL__sub_I_sDisplay_SSD1306>:
_GLOBAL__sub_I_sDisplay_SSD1306():
/mnt/c/Users/Kuba/Documents/ZeroMate/examples/19-I2C/kernel/src/drivers/oled_ssd1306.cpp:389
    ab84:	e92d4800 	push	{fp, lr}
    ab88:	e28db004 	add	fp, sp, #4
    ab8c:	e59f1008 	ldr	r1, [pc, #8]	; ab9c <_GLOBAL__sub_I_sDisplay_SSD1306+0x18>
    ab90:	e3a00001 	mov	r0, #1
    ab94:	ebffffe5 	bl	ab30 <_Z41__static_initialization_and_destruction_0ii>
    ab98:	e8bd8800 	pop	{fp, pc}
    ab9c:	0000ffff 	strdeq	pc, [r0], -pc	; <UNPREDICTABLE>

0000aba0 <_ZdlPvj>:
_ZdlPvj():
/mnt/c/Users/Kuba/Documents/ZeroMate/examples/19-I2C/kernel/include/memory/kernel_heap.h:62
{
    sKernelMem.Free(p);
}

inline void operator delete(void* p, uint32_t)
{
    aba0:	e92d4800 	push	{fp, lr}
    aba4:	e28db004 	add	fp, sp, #4
    aba8:	e24dd008 	sub	sp, sp, #8
    abac:	e50b0008 	str	r0, [fp, #-8]
    abb0:	e50b100c 	str	r1, [fp, #-12]
/mnt/c/Users/Kuba/Documents/ZeroMate/examples/19-I2C/kernel/include/memory/kernel_heap.h:63
    sKernelMem.Free(p);
    abb4:	e51b1008 	ldr	r1, [fp, #-8]
    abb8:	e59f000c 	ldr	r0, [pc, #12]	; abcc <_ZdlPvj+0x2c>
    abbc:	eb000bc3 	bl	dad0 <_ZN20CKernel_Heap_Manager4FreeEPv>
/mnt/c/Users/Kuba/Documents/ZeroMate/examples/19-I2C/kernel/include/memory/kernel_heap.h:64
}
    abc0:	e320f000 	nop	{0}
    abc4:	e24bd004 	sub	sp, fp, #4
    abc8:	e8bd8800 	pop	{fp, pc}
    abcc:	00010cd0 	ldrdeq	r0, [r1], -r0	; <UNPREDICTABLE>

0000abd0 <_ZN16CI2C_TransactionlsI11SSD1306_CmdEERS_RKT_>:
_ZN16CI2C_TransactionlsI11SSD1306_CmdEERS_RKT_():
/mnt/c/Users/Kuba/Documents/ZeroMate/examples/19-I2C/kernel/include/drivers/i2c.h:33

        // vlozeni znaku do bufferu
        template<typename T>
        CI2C_Transaction& operator<<(const T& chr)
    abd0:	e52db004 	push	{fp}		; (str fp, [sp, #-4]!)
    abd4:	e28db000 	add	fp, sp, #0
    abd8:	e24dd00c 	sub	sp, sp, #12
    abdc:	e50b0008 	str	r0, [fp, #-8]
    abe0:	e50b100c 	str	r1, [fp, #-12]
/mnt/c/Users/Kuba/Documents/ZeroMate/examples/19-I2C/kernel/include/drivers/i2c.h:35
        {
            if (mLength >= I2C_Transaction_Max_Size)
    abe4:	e51b3008 	ldr	r3, [fp, #-8]
    abe8:	e593300c 	ldr	r3, [r3, #12]
    abec:	e3530007 	cmp	r3, #7
    abf0:	9a000001 	bls	abfc <_ZN16CI2C_TransactionlsI11SSD1306_CmdEERS_RKT_+0x2c>
/mnt/c/Users/Kuba/Documents/ZeroMate/examples/19-I2C/kernel/include/drivers/i2c.h:36
                return *this;
    abf4:	e51b3008 	ldr	r3, [fp, #-8]
    abf8:	ea00000c 	b	ac30 <_ZN16CI2C_TransactionlsI11SSD1306_CmdEERS_RKT_+0x60>
/mnt/c/Users/Kuba/Documents/ZeroMate/examples/19-I2C/kernel/include/drivers/i2c.h:38

            mBuffer[mLength++] = static_cast<uint8_t>(chr);
    abfc:	e51b300c 	ldr	r3, [fp, #-12]
    ac00:	e5930000 	ldr	r0, [r3]
    ac04:	e51b3008 	ldr	r3, [fp, #-8]
    ac08:	e593300c 	ldr	r3, [r3, #12]
    ac0c:	e2831001 	add	r1, r3, #1
    ac10:	e51b2008 	ldr	r2, [fp, #-8]
    ac14:	e582100c 	str	r1, [r2, #12]
    ac18:	e6ef1070 	uxtb	r1, r0
    ac1c:	e51b2008 	ldr	r2, [fp, #-8]
    ac20:	e0823003 	add	r3, r2, r3
    ac24:	e1a02001 	mov	r2, r1
    ac28:	e5c32001 	strb	r2, [r3, #1]
/mnt/c/Users/Kuba/Documents/ZeroMate/examples/19-I2C/kernel/include/drivers/i2c.h:40

            return *this;
    ac2c:	e51b3008 	ldr	r3, [fp, #-8]
/mnt/c/Users/Kuba/Documents/ZeroMate/examples/19-I2C/kernel/include/drivers/i2c.h:41
        }
    ac30:	e1a00003 	mov	r0, r3
    ac34:	e28bd000 	add	sp, fp, #0
    ac38:	e49db004 	pop	{fp}		; (ldr fp, [sp], #4)
    ac3c:	e12fff1e 	bx	lr

0000ac40 <_ZN16CI2C_TransactionlsIiEERS_RKT_>:
_ZN16CI2C_TransactionlsIiEERS_RKT_():
/mnt/c/Users/Kuba/Documents/ZeroMate/examples/19-I2C/kernel/include/drivers/i2c.h:33
        CI2C_Transaction& operator<<(const T& chr)
    ac40:	e52db004 	push	{fp}		; (str fp, [sp, #-4]!)
    ac44:	e28db000 	add	fp, sp, #0
    ac48:	e24dd00c 	sub	sp, sp, #12
    ac4c:	e50b0008 	str	r0, [fp, #-8]
    ac50:	e50b100c 	str	r1, [fp, #-12]
/mnt/c/Users/Kuba/Documents/ZeroMate/examples/19-I2C/kernel/include/drivers/i2c.h:35
            if (mLength >= I2C_Transaction_Max_Size)
    ac54:	e51b3008 	ldr	r3, [fp, #-8]
    ac58:	e593300c 	ldr	r3, [r3, #12]
    ac5c:	e3530007 	cmp	r3, #7
    ac60:	9a000001 	bls	ac6c <_ZN16CI2C_TransactionlsIiEERS_RKT_+0x2c>
/mnt/c/Users/Kuba/Documents/ZeroMate/examples/19-I2C/kernel/include/drivers/i2c.h:36
                return *this;
    ac64:	e51b3008 	ldr	r3, [fp, #-8]
    ac68:	ea00000c 	b	aca0 <_ZN16CI2C_TransactionlsIiEERS_RKT_+0x60>
/mnt/c/Users/Kuba/Documents/ZeroMate/examples/19-I2C/kernel/include/drivers/i2c.h:38
            mBuffer[mLength++] = static_cast<uint8_t>(chr);
    ac6c:	e51b300c 	ldr	r3, [fp, #-12]
    ac70:	e5930000 	ldr	r0, [r3]
    ac74:	e51b3008 	ldr	r3, [fp, #-8]
    ac78:	e593300c 	ldr	r3, [r3, #12]
    ac7c:	e2831001 	add	r1, r3, #1
    ac80:	e51b2008 	ldr	r2, [fp, #-8]
    ac84:	e582100c 	str	r1, [r2, #12]
    ac88:	e6ef1070 	uxtb	r1, r0
    ac8c:	e51b2008 	ldr	r2, [fp, #-8]
    ac90:	e0823003 	add	r3, r2, r3
    ac94:	e1a02001 	mov	r2, r1
    ac98:	e5c32001 	strb	r2, [r3, #1]
/mnt/c/Users/Kuba/Documents/ZeroMate/examples/19-I2C/kernel/include/drivers/i2c.h:40
            return *this;
    ac9c:	e51b3008 	ldr	r3, [fp, #-8]
/mnt/c/Users/Kuba/Documents/ZeroMate/examples/19-I2C/kernel/include/drivers/i2c.h:41
        }
    aca0:	e1a00003 	mov	r0, r3
    aca4:	e28bd000 	add	sp, fp, #0
    aca8:	e49db004 	pop	{fp}		; (ldr fp, [sp], #4)
    acac:	e12fff1e 	bx	lr

0000acb0 <_ZN16CI2C_TransactionlsIhEERS_RKT_>:
_ZN16CI2C_TransactionlsIhEERS_RKT_():
/mnt/c/Users/Kuba/Documents/ZeroMate/examples/19-I2C/kernel/include/drivers/i2c.h:33
        CI2C_Transaction& operator<<(const T& chr)
    acb0:	e52db004 	push	{fp}		; (str fp, [sp, #-4]!)
    acb4:	e28db000 	add	fp, sp, #0
    acb8:	e24dd00c 	sub	sp, sp, #12
    acbc:	e50b0008 	str	r0, [fp, #-8]
    acc0:	e50b100c 	str	r1, [fp, #-12]
/mnt/c/Users/Kuba/Documents/ZeroMate/examples/19-I2C/kernel/include/drivers/i2c.h:35
            if (mLength >= I2C_Transaction_Max_Size)
    acc4:	e51b3008 	ldr	r3, [fp, #-8]
    acc8:	e593300c 	ldr	r3, [r3, #12]
    accc:	e3530007 	cmp	r3, #7
    acd0:	9a000001 	bls	acdc <_ZN16CI2C_TransactionlsIhEERS_RKT_+0x2c>
/mnt/c/Users/Kuba/Documents/ZeroMate/examples/19-I2C/kernel/include/drivers/i2c.h:36
                return *this;
    acd4:	e51b3008 	ldr	r3, [fp, #-8]
    acd8:	ea00000b 	b	ad0c <_ZN16CI2C_TransactionlsIhEERS_RKT_+0x5c>
/mnt/c/Users/Kuba/Documents/ZeroMate/examples/19-I2C/kernel/include/drivers/i2c.h:38
            mBuffer[mLength++] = static_cast<uint8_t>(chr);
    acdc:	e51b3008 	ldr	r3, [fp, #-8]
    ace0:	e593300c 	ldr	r3, [r3, #12]
    ace4:	e2831001 	add	r1, r3, #1
    ace8:	e51b2008 	ldr	r2, [fp, #-8]
    acec:	e582100c 	str	r1, [r2, #12]
    acf0:	e51b200c 	ldr	r2, [fp, #-12]
    acf4:	e5d21000 	ldrb	r1, [r2]
    acf8:	e51b2008 	ldr	r2, [fp, #-8]
    acfc:	e0823003 	add	r3, r2, r3
    ad00:	e1a02001 	mov	r2, r1
    ad04:	e5c32001 	strb	r2, [r3, #1]
/mnt/c/Users/Kuba/Documents/ZeroMate/examples/19-I2C/kernel/include/drivers/i2c.h:40
            return *this;
    ad08:	e51b3008 	ldr	r3, [fp, #-8]
/mnt/c/Users/Kuba/Documents/ZeroMate/examples/19-I2C/kernel/include/drivers/i2c.h:41
        }
    ad0c:	e1a00003 	mov	r0, r3
    ad10:	e28bd000 	add	sp, fp, #0
    ad14:	e49db004 	pop	{fp}		; (ldr fp, [sp], #4)
    ad18:	e12fff1e 	bx	lr

0000ad1c <_ZN16CSegment_DisplayC1Ev>:
_ZN16CSegment_DisplayC2Ev():
/mnt/c/Users/Kuba/Documents/ZeroMate/examples/19-I2C/kernel/src/drivers/segmentdisplay.cpp:124
    0,          // }
    0,          // ~
    0,          // DEL
};

CSegment_Display::CSegment_Display()
    ad1c:	e52db004 	push	{fp}		; (str fp, [sp, #-4]!)
    ad20:	e28db000 	add	fp, sp, #0
    ad24:	e24dd00c 	sub	sp, sp, #12
    ad28:	e50b0008 	str	r0, [fp, #-8]
/mnt/c/Users/Kuba/Documents/ZeroMate/examples/19-I2C/kernel/src/drivers/segmentdisplay.cpp:126
: mOpened(false)
, mOutput('\0')
    ad2c:	e51b3008 	ldr	r3, [fp, #-8]
    ad30:	e3a02000 	mov	r2, #0
    ad34:	e5c32000 	strb	r2, [r3]
    ad38:	e51b3008 	ldr	r3, [fp, #-8]
    ad3c:	e3a02000 	mov	r2, #0
    ad40:	e5c32001 	strb	r2, [r3, #1]
/mnt/c/Users/Kuba/Documents/ZeroMate/examples/19-I2C/kernel/src/drivers/segmentdisplay.cpp:129
{
    //
}
    ad44:	e51b3008 	ldr	r3, [fp, #-8]
    ad48:	e1a00003 	mov	r0, r3
    ad4c:	e28bd000 	add	sp, fp, #0
    ad50:	e49db004 	pop	{fp}		; (ldr fp, [sp], #4)
    ad54:	e12fff1e 	bx	lr

0000ad58 <_ZN16CSegment_Display4OpenEv>:
_ZN16CSegment_Display4OpenEv():
/mnt/c/Users/Kuba/Documents/ZeroMate/examples/19-I2C/kernel/src/drivers/segmentdisplay.cpp:132

bool CSegment_Display::Open()
{
    ad58:	e92d4800 	push	{fp, lr}
    ad5c:	e28db004 	add	fp, sp, #4
    ad60:	e24dd008 	sub	sp, sp, #8
    ad64:	e50b0008 	str	r0, [fp, #-8]
/mnt/c/Users/Kuba/Documents/ZeroMate/examples/19-I2C/kernel/src/drivers/segmentdisplay.cpp:133
    if (mOpened)
    ad68:	e51b3008 	ldr	r3, [fp, #-8]
    ad6c:	e5d33000 	ldrb	r3, [r3]
    ad70:	e3530000 	cmp	r3, #0
    ad74:	0a000001 	beq	ad80 <_ZN16CSegment_Display4OpenEv+0x28>
/mnt/c/Users/Kuba/Documents/ZeroMate/examples/19-I2C/kernel/src/drivers/segmentdisplay.cpp:134
        return false;
    ad78:	e3a03000 	mov	r3, #0
    ad7c:	ea00000c 	b	adb4 <_ZN16CSegment_Display4OpenEv+0x5c>
/mnt/c/Users/Kuba/Documents/ZeroMate/examples/19-I2C/kernel/src/drivers/segmentdisplay.cpp:136

    if (!sShift_Register.Open())
    ad80:	e59f0038 	ldr	r0, [pc, #56]	; adc0 <_ZN16CSegment_Display4OpenEv+0x68>
    ad84:	eb000092 	bl	afd4 <_ZN15CShift_Register4OpenEv>
    ad88:	e1a03000 	mov	r3, r0
    ad8c:	e2233001 	eor	r3, r3, #1
    ad90:	e6ef3073 	uxtb	r3, r3
    ad94:	e3530000 	cmp	r3, #0
    ad98:	0a000001 	beq	ada4 <_ZN16CSegment_Display4OpenEv+0x4c>
/mnt/c/Users/Kuba/Documents/ZeroMate/examples/19-I2C/kernel/src/drivers/segmentdisplay.cpp:137
        return false;
    ad9c:	e3a03000 	mov	r3, #0
    ada0:	ea000003 	b	adb4 <_ZN16CSegment_Display4OpenEv+0x5c>
/mnt/c/Users/Kuba/Documents/ZeroMate/examples/19-I2C/kernel/src/drivers/segmentdisplay.cpp:139

    mOpened = true;
    ada4:	e51b3008 	ldr	r3, [fp, #-8]
    ada8:	e3a02001 	mov	r2, #1
    adac:	e5c32000 	strb	r2, [r3]
/mnt/c/Users/Kuba/Documents/ZeroMate/examples/19-I2C/kernel/src/drivers/segmentdisplay.cpp:141

    return true;
    adb0:	e3a03001 	mov	r3, #1
/mnt/c/Users/Kuba/Documents/ZeroMate/examples/19-I2C/kernel/src/drivers/segmentdisplay.cpp:142
}
    adb4:	e1a00003 	mov	r0, r3
    adb8:	e24bd004 	sub	sp, fp, #4
    adbc:	e8bd8800 	pop	{fp, pc}
    adc0:	00010c14 	andeq	r0, r1, r4, lsl ip

0000adc4 <_ZN16CSegment_Display5CloseEv>:
_ZN16CSegment_Display5CloseEv():
/mnt/c/Users/Kuba/Documents/ZeroMate/examples/19-I2C/kernel/src/drivers/segmentdisplay.cpp:145

void CSegment_Display::Close()
{
    adc4:	e92d4800 	push	{fp, lr}
    adc8:	e28db004 	add	fp, sp, #4
    adcc:	e24dd008 	sub	sp, sp, #8
    add0:	e50b0008 	str	r0, [fp, #-8]
/mnt/c/Users/Kuba/Documents/ZeroMate/examples/19-I2C/kernel/src/drivers/segmentdisplay.cpp:146
    if (!mOpened)
    add4:	e51b3008 	ldr	r3, [fp, #-8]
    add8:	e5d33000 	ldrb	r3, [r3]
    addc:	e2233001 	eor	r3, r3, #1
    ade0:	e6ef3073 	uxtb	r3, r3
    ade4:	e3530000 	cmp	r3, #0
    ade8:	1a000005 	bne	ae04 <_ZN16CSegment_Display5CloseEv+0x40>
/mnt/c/Users/Kuba/Documents/ZeroMate/examples/19-I2C/kernel/src/drivers/segmentdisplay.cpp:149
        return;

    sShift_Register.Close();
    adec:	e59f001c 	ldr	r0, [pc, #28]	; ae10 <_ZN16CSegment_Display5CloseEv+0x4c>
    adf0:	eb0000d4 	bl	b148 <_ZN15CShift_Register5CloseEv>
/mnt/c/Users/Kuba/Documents/ZeroMate/examples/19-I2C/kernel/src/drivers/segmentdisplay.cpp:151

    mOpened = false;
    adf4:	e51b3008 	ldr	r3, [fp, #-8]
    adf8:	e3a02000 	mov	r2, #0
    adfc:	e5c32000 	strb	r2, [r3]
    ae00:	ea000000 	b	ae08 <_ZN16CSegment_Display5CloseEv+0x44>
/mnt/c/Users/Kuba/Documents/ZeroMate/examples/19-I2C/kernel/src/drivers/segmentdisplay.cpp:147
        return;
    ae04:	e320f000 	nop	{0}
/mnt/c/Users/Kuba/Documents/ZeroMate/examples/19-I2C/kernel/src/drivers/segmentdisplay.cpp:152
}
    ae08:	e24bd004 	sub	sp, fp, #4
    ae0c:	e8bd8800 	pop	{fp, pc}
    ae10:	00010c14 	andeq	r0, r1, r4, lsl ip

0000ae14 <_ZNK16CSegment_Display9Is_OpenedEv>:
_ZNK16CSegment_Display9Is_OpenedEv():
/mnt/c/Users/Kuba/Documents/ZeroMate/examples/19-I2C/kernel/src/drivers/segmentdisplay.cpp:155

bool CSegment_Display::Is_Opened() const
{
    ae14:	e52db004 	push	{fp}		; (str fp, [sp, #-4]!)
    ae18:	e28db000 	add	fp, sp, #0
    ae1c:	e24dd00c 	sub	sp, sp, #12
    ae20:	e50b0008 	str	r0, [fp, #-8]
/mnt/c/Users/Kuba/Documents/ZeroMate/examples/19-I2C/kernel/src/drivers/segmentdisplay.cpp:156
    return mOpened;
    ae24:	e51b3008 	ldr	r3, [fp, #-8]
    ae28:	e5d33000 	ldrb	r3, [r3]
/mnt/c/Users/Kuba/Documents/ZeroMate/examples/19-I2C/kernel/src/drivers/segmentdisplay.cpp:157
}
    ae2c:	e1a00003 	mov	r0, r3
    ae30:	e28bd000 	add	sp, fp, #0
    ae34:	e49db004 	pop	{fp}		; (ldr fp, [sp], #4)
    ae38:	e12fff1e 	bx	lr

0000ae3c <_ZN16CSegment_Display5WriteEc>:
_ZN16CSegment_Display5WriteEc():
/mnt/c/Users/Kuba/Documents/ZeroMate/examples/19-I2C/kernel/src/drivers/segmentdisplay.cpp:160

void CSegment_Display::Write(char c)
{
    ae3c:	e92d4800 	push	{fp, lr}
    ae40:	e28db004 	add	fp, sp, #4
    ae44:	e24dd010 	sub	sp, sp, #16
    ae48:	e50b0010 	str	r0, [fp, #-16]
    ae4c:	e1a03001 	mov	r3, r1
    ae50:	e54b3011 	strb	r3, [fp, #-17]	; 0xffffffef
/mnt/c/Users/Kuba/Documents/ZeroMate/examples/19-I2C/kernel/src/drivers/segmentdisplay.cpp:161
    if (!mOpened)
    ae54:	e51b3010 	ldr	r3, [fp, #-16]
    ae58:	e5d33000 	ldrb	r3, [r3]
    ae5c:	e2233001 	eor	r3, r3, #1
    ae60:	e6ef3073 	uxtb	r3, r3
    ae64:	e3530000 	cmp	r3, #0
    ae68:	1a000011 	bne	aeb4 <_ZN16CSegment_Display5WriteEc+0x78>
/mnt/c/Users/Kuba/Documents/ZeroMate/examples/19-I2C/kernel/src/drivers/segmentdisplay.cpp:164
        return;

    uint8_t idx = static_cast<uint8_t>(c);
    ae6c:	e55b3011 	ldrb	r3, [fp, #-17]	; 0xffffffef
    ae70:	e54b3005 	strb	r3, [fp, #-5]
/mnt/c/Users/Kuba/Documents/ZeroMate/examples/19-I2C/kernel/src/drivers/segmentdisplay.cpp:167

    // jen tisknutelne zakladni znaky
    if (idx < 32 || idx >= 128)
    ae74:	e55b3005 	ldrb	r3, [fp, #-5]
    ae78:	e353001f 	cmp	r3, #31
    ae7c:	9a00000e 	bls	aebc <_ZN16CSegment_Display5WriteEc+0x80>
/mnt/c/Users/Kuba/Documents/ZeroMate/examples/19-I2C/kernel/src/drivers/segmentdisplay.cpp:167 (discriminator 1)
    ae80:	e15b30d5 	ldrsb	r3, [fp, #-5]
    ae84:	e3530000 	cmp	r3, #0
    ae88:	ba00000b 	blt	aebc <_ZN16CSegment_Display5WriteEc+0x80>
/mnt/c/Users/Kuba/Documents/ZeroMate/examples/19-I2C/kernel/src/drivers/segmentdisplay.cpp:171
        return;

    // segmenty jsou invertovane (spolecna katoda), takze tam kde je 0 bude segment svitit
    sShift_Register.Shift_In(static_cast<uint8_t>(~(mCharacter_Map[idx - 32])));
    ae8c:	e55b3005 	ldrb	r3, [fp, #-5]
    ae90:	e2433020 	sub	r3, r3, #32
    ae94:	e59f202c 	ldr	r2, [pc, #44]	; aec8 <_ZN16CSegment_Display5WriteEc+0x8c>
    ae98:	e7d23003 	ldrb	r3, [r2, r3]
    ae9c:	e1e03003 	mvn	r3, r3
    aea0:	e6ef3073 	uxtb	r3, r3
    aea4:	e1a01003 	mov	r1, r3
    aea8:	e59f001c 	ldr	r0, [pc, #28]	; aecc <_ZN16CSegment_Display5WriteEc+0x90>
    aeac:	eb00012e 	bl	b36c <_ZN15CShift_Register8Shift_InEh>
    aeb0:	ea000002 	b	aec0 <_ZN16CSegment_Display5WriteEc+0x84>
/mnt/c/Users/Kuba/Documents/ZeroMate/examples/19-I2C/kernel/src/drivers/segmentdisplay.cpp:162
        return;
    aeb4:	e320f000 	nop	{0}
    aeb8:	ea000000 	b	aec0 <_ZN16CSegment_Display5WriteEc+0x84>
/mnt/c/Users/Kuba/Documents/ZeroMate/examples/19-I2C/kernel/src/drivers/segmentdisplay.cpp:168
        return;
    aebc:	e320f000 	nop	{0}
/mnt/c/Users/Kuba/Documents/ZeroMate/examples/19-I2C/kernel/src/drivers/segmentdisplay.cpp:172
}
    aec0:	e24bd004 	sub	sp, fp, #4
    aec4:	e8bd8800 	pop	{fp, pc}
    aec8:	000100e4 	andeq	r0, r1, r4, ror #1
    aecc:	00010c14 	andeq	r0, r1, r4, lsl ip

0000aed0 <_ZNK16CSegment_Display4ReadEv>:
_ZNK16CSegment_Display4ReadEv():
/mnt/c/Users/Kuba/Documents/ZeroMate/examples/19-I2C/kernel/src/drivers/segmentdisplay.cpp:175

char CSegment_Display::Read() const
{
    aed0:	e52db004 	push	{fp}		; (str fp, [sp, #-4]!)
    aed4:	e28db000 	add	fp, sp, #0
    aed8:	e24dd00c 	sub	sp, sp, #12
    aedc:	e50b0008 	str	r0, [fp, #-8]
/mnt/c/Users/Kuba/Documents/ZeroMate/examples/19-I2C/kernel/src/drivers/segmentdisplay.cpp:176
    if (!mOpened)
    aee0:	e51b3008 	ldr	r3, [fp, #-8]
    aee4:	e5d33000 	ldrb	r3, [r3]
    aee8:	e2233001 	eor	r3, r3, #1
    aeec:	e6ef3073 	uxtb	r3, r3
    aef0:	e3530000 	cmp	r3, #0
    aef4:	0a000001 	beq	af00 <_ZNK16CSegment_Display4ReadEv+0x30>
/mnt/c/Users/Kuba/Documents/ZeroMate/examples/19-I2C/kernel/src/drivers/segmentdisplay.cpp:177
        return '\0';
    aef8:	e3a03000 	mov	r3, #0
    aefc:	ea000001 	b	af08 <_ZNK16CSegment_Display4ReadEv+0x38>
/mnt/c/Users/Kuba/Documents/ZeroMate/examples/19-I2C/kernel/src/drivers/segmentdisplay.cpp:179

    return mOutput;
    af00:	e51b3008 	ldr	r3, [fp, #-8]
    af04:	e5d33001 	ldrb	r3, [r3, #1]
/mnt/c/Users/Kuba/Documents/ZeroMate/examples/19-I2C/kernel/src/drivers/segmentdisplay.cpp:180
    af08:	e1a00003 	mov	r0, r3
    af0c:	e28bd000 	add	sp, fp, #0
    af10:	e49db004 	pop	{fp}		; (ldr fp, [sp], #4)
    af14:	e12fff1e 	bx	lr

0000af18 <_Z41__static_initialization_and_destruction_0ii>:
_Z41__static_initialization_and_destruction_0ii():
/mnt/c/Users/Kuba/Documents/ZeroMate/examples/19-I2C/kernel/src/drivers/segmentdisplay.cpp:180
    af18:	e92d4800 	push	{fp, lr}
    af1c:	e28db004 	add	fp, sp, #4
    af20:	e24dd008 	sub	sp, sp, #8
    af24:	e50b0008 	str	r0, [fp, #-8]
    af28:	e50b100c 	str	r1, [fp, #-12]
    af2c:	e51b3008 	ldr	r3, [fp, #-8]
    af30:	e3530001 	cmp	r3, #1
    af34:	1a000005 	bne	af50 <_Z41__static_initialization_and_destruction_0ii+0x38>
/mnt/c/Users/Kuba/Documents/ZeroMate/examples/19-I2C/kernel/src/drivers/segmentdisplay.cpp:180 (discriminator 1)
    af38:	e51b300c 	ldr	r3, [fp, #-12]
    af3c:	e59f2018 	ldr	r2, [pc, #24]	; af5c <_Z41__static_initialization_and_destruction_0ii+0x44>
    af40:	e1530002 	cmp	r3, r2
    af44:	1a000001 	bne	af50 <_Z41__static_initialization_and_destruction_0ii+0x38>
/mnt/c/Users/Kuba/Documents/ZeroMate/examples/19-I2C/kernel/src/drivers/segmentdisplay.cpp:3
CSegment_Display sSegment_Display;
    af48:	e59f0010 	ldr	r0, [pc, #16]	; af60 <_Z41__static_initialization_and_destruction_0ii+0x48>
    af4c:	ebffff72 	bl	ad1c <_ZN16CSegment_DisplayC1Ev>
/mnt/c/Users/Kuba/Documents/ZeroMate/examples/19-I2C/kernel/src/drivers/segmentdisplay.cpp:180
    af50:	e320f000 	nop	{0}
    af54:	e24bd004 	sub	sp, fp, #4
    af58:	e8bd8800 	pop	{fp, pc}
    af5c:	0000ffff 	strdeq	pc, [r0], -pc	; <UNPREDICTABLE>
    af60:	00010c10 	andeq	r0, r1, r0, lsl ip

0000af64 <_GLOBAL__sub_I_sSegment_Display>:
_GLOBAL__sub_I_sSegment_Display():
/mnt/c/Users/Kuba/Documents/ZeroMate/examples/19-I2C/kernel/src/drivers/segmentdisplay.cpp:180
    af64:	e92d4800 	push	{fp, lr}
    af68:	e28db004 	add	fp, sp, #4
    af6c:	e59f1008 	ldr	r1, [pc, #8]	; af7c <_GLOBAL__sub_I_sSegment_Display+0x18>
    af70:	e3a00001 	mov	r0, #1
    af74:	ebffffe7 	bl	af18 <_Z41__static_initialization_and_destruction_0ii>
    af78:	e8bd8800 	pop	{fp, pc}
    af7c:	0000ffff 	strdeq	pc, [r0], -pc	; <UNPREDICTABLE>

0000af80 <_ZN15CShift_RegisterC1Ejjj>:
_ZN15CShift_RegisterC2Ejjj():
/mnt/c/Users/Kuba/Documents/ZeroMate/examples/19-I2C/kernel/src/drivers/shiftregister.cpp:7

// na tvrdo definujeme, ze jsme shift registr pripojili sem - volitelne muzeme pak oddelit do nejake HAL vrstvy pro dany
// header
CShift_Register sShift_Register(2, 3, 4);

CShift_Register::CShift_Register(uint32_t latchPin, uint32_t dataPin, uint32_t clockPin)
    af80:	e52db004 	push	{fp}		; (str fp, [sp, #-4]!)
    af84:	e28db000 	add	fp, sp, #0
    af88:	e24dd014 	sub	sp, sp, #20
    af8c:	e50b0008 	str	r0, [fp, #-8]
    af90:	e50b100c 	str	r1, [fp, #-12]
    af94:	e50b2010 	str	r2, [fp, #-16]
    af98:	e50b3014 	str	r3, [fp, #-20]	; 0xffffffec
/mnt/c/Users/Kuba/Documents/ZeroMate/examples/19-I2C/kernel/src/drivers/shiftregister.cpp:10
: mLatch_Pin(latchPin)
, mData_Pin(dataPin)
, mClock_Pin(clockPin)
    af9c:	e51b3008 	ldr	r3, [fp, #-8]
    afa0:	e51b200c 	ldr	r2, [fp, #-12]
    afa4:	e5832000 	str	r2, [r3]
    afa8:	e51b3008 	ldr	r3, [fp, #-8]
    afac:	e51b2010 	ldr	r2, [fp, #-16]
    afb0:	e5832004 	str	r2, [r3, #4]
    afb4:	e51b3008 	ldr	r3, [fp, #-8]
    afb8:	e51b2014 	ldr	r2, [fp, #-20]	; 0xffffffec
    afbc:	e5832008 	str	r2, [r3, #8]
/mnt/c/Users/Kuba/Documents/ZeroMate/examples/19-I2C/kernel/src/drivers/shiftregister.cpp:13
{
    //
}
    afc0:	e51b3008 	ldr	r3, [fp, #-8]
    afc4:	e1a00003 	mov	r0, r3
    afc8:	e28bd000 	add	sp, fp, #0
    afcc:	e49db004 	pop	{fp}		; (ldr fp, [sp], #4)
    afd0:	e12fff1e 	bx	lr

0000afd4 <_ZN15CShift_Register4OpenEv>:
_ZN15CShift_Register4OpenEv():
/mnt/c/Users/Kuba/Documents/ZeroMate/examples/19-I2C/kernel/src/drivers/shiftregister.cpp:16

bool CShift_Register::Open()
{
    afd4:	e92d4800 	push	{fp, lr}
    afd8:	e28db004 	add	fp, sp, #4
    afdc:	e24dd008 	sub	sp, sp, #8
    afe0:	e50b0008 	str	r0, [fp, #-8]
/mnt/c/Users/Kuba/Documents/ZeroMate/examples/19-I2C/kernel/src/drivers/shiftregister.cpp:17
    if (mOpened)
    afe4:	e51b3008 	ldr	r3, [fp, #-8]
    afe8:	e5d3300c 	ldrb	r3, [r3, #12]
    afec:	e3530000 	cmp	r3, #0
    aff0:	0a000001 	beq	affc <_ZN15CShift_Register4OpenEv+0x28>
/mnt/c/Users/Kuba/Documents/ZeroMate/examples/19-I2C/kernel/src/drivers/shiftregister.cpp:18
        return false;
    aff4:	e3a03000 	mov	r3, #0
    aff8:	ea00004e 	b	b138 <_ZN15CShift_Register4OpenEv+0x164>
/mnt/c/Users/Kuba/Documents/ZeroMate/examples/19-I2C/kernel/src/drivers/shiftregister.cpp:22

    // rezervujeme vsechny piny pro shift registr

    if (!sGPIO.Reserve_Pin(mLatch_Pin, true, true))
    affc:	e51b3008 	ldr	r3, [fp, #-8]
    b000:	e5931000 	ldr	r1, [r3]
    b004:	e3a03001 	mov	r3, #1
    b008:	e3a02001 	mov	r2, #1
    b00c:	e59f0130 	ldr	r0, [pc, #304]	; b144 <_ZN15CShift_Register4OpenEv+0x170>
    b010:	ebfff594 	bl	8668 <_ZN13CGPIO_Handler11Reserve_PinEjbb>
    b014:	e1a03000 	mov	r3, r0
    b018:	e2233001 	eor	r3, r3, #1
    b01c:	e6ef3073 	uxtb	r3, r3
    b020:	e3530000 	cmp	r3, #0
    b024:	0a000001 	beq	b030 <_ZN15CShift_Register4OpenEv+0x5c>
/mnt/c/Users/Kuba/Documents/ZeroMate/examples/19-I2C/kernel/src/drivers/shiftregister.cpp:23
        return false;
    b028:	e3a03000 	mov	r3, #0
    b02c:	ea000041 	b	b138 <_ZN15CShift_Register4OpenEv+0x164>
/mnt/c/Users/Kuba/Documents/ZeroMate/examples/19-I2C/kernel/src/drivers/shiftregister.cpp:25

    if (!sGPIO.Reserve_Pin(mData_Pin, true, true))
    b030:	e51b3008 	ldr	r3, [fp, #-8]
    b034:	e5931004 	ldr	r1, [r3, #4]
    b038:	e3a03001 	mov	r3, #1
    b03c:	e3a02001 	mov	r2, #1
    b040:	e59f00fc 	ldr	r0, [pc, #252]	; b144 <_ZN15CShift_Register4OpenEv+0x170>
    b044:	ebfff587 	bl	8668 <_ZN13CGPIO_Handler11Reserve_PinEjbb>
    b048:	e1a03000 	mov	r3, r0
    b04c:	e2233001 	eor	r3, r3, #1
    b050:	e6ef3073 	uxtb	r3, r3
    b054:	e3530000 	cmp	r3, #0
    b058:	0a000007 	beq	b07c <_ZN15CShift_Register4OpenEv+0xa8>
/mnt/c/Users/Kuba/Documents/ZeroMate/examples/19-I2C/kernel/src/drivers/shiftregister.cpp:27
    {
        sGPIO.Free_Pin(mLatch_Pin, true, true);
    b05c:	e51b3008 	ldr	r3, [fp, #-8]
    b060:	e5931000 	ldr	r1, [r3]
    b064:	e3a03001 	mov	r3, #1
    b068:	e3a02001 	mov	r2, #1
    b06c:	e59f00d0 	ldr	r0, [pc, #208]	; b144 <_ZN15CShift_Register4OpenEv+0x170>
    b070:	ebfff5e2 	bl	8800 <_ZN13CGPIO_Handler8Free_PinEjbb>
/mnt/c/Users/Kuba/Documents/ZeroMate/examples/19-I2C/kernel/src/drivers/shiftregister.cpp:28
        return false;
    b074:	e3a03000 	mov	r3, #0
    b078:	ea00002e 	b	b138 <_ZN15CShift_Register4OpenEv+0x164>
/mnt/c/Users/Kuba/Documents/ZeroMate/examples/19-I2C/kernel/src/drivers/shiftregister.cpp:31
    }

    if (!sGPIO.Reserve_Pin(mClock_Pin, true, true))
    b07c:	e51b3008 	ldr	r3, [fp, #-8]
    b080:	e5931008 	ldr	r1, [r3, #8]
    b084:	e3a03001 	mov	r3, #1
    b088:	e3a02001 	mov	r2, #1
    b08c:	e59f00b0 	ldr	r0, [pc, #176]	; b144 <_ZN15CShift_Register4OpenEv+0x170>
    b090:	ebfff574 	bl	8668 <_ZN13CGPIO_Handler11Reserve_PinEjbb>
    b094:	e1a03000 	mov	r3, r0
    b098:	e2233001 	eor	r3, r3, #1
    b09c:	e6ef3073 	uxtb	r3, r3
    b0a0:	e3530000 	cmp	r3, #0
    b0a4:	0a00000d 	beq	b0e0 <_ZN15CShift_Register4OpenEv+0x10c>
/mnt/c/Users/Kuba/Documents/ZeroMate/examples/19-I2C/kernel/src/drivers/shiftregister.cpp:33
    {
        sGPIO.Free_Pin(mLatch_Pin, true, true);
    b0a8:	e51b3008 	ldr	r3, [fp, #-8]
    b0ac:	e5931000 	ldr	r1, [r3]
    b0b0:	e3a03001 	mov	r3, #1
    b0b4:	e3a02001 	mov	r2, #1
    b0b8:	e59f0084 	ldr	r0, [pc, #132]	; b144 <_ZN15CShift_Register4OpenEv+0x170>
    b0bc:	ebfff5cf 	bl	8800 <_ZN13CGPIO_Handler8Free_PinEjbb>
/mnt/c/Users/Kuba/Documents/ZeroMate/examples/19-I2C/kernel/src/drivers/shiftregister.cpp:34
        sGPIO.Free_Pin(mData_Pin, true, true);
    b0c0:	e51b3008 	ldr	r3, [fp, #-8]
    b0c4:	e5931004 	ldr	r1, [r3, #4]
    b0c8:	e3a03001 	mov	r3, #1
    b0cc:	e3a02001 	mov	r2, #1
    b0d0:	e59f006c 	ldr	r0, [pc, #108]	; b144 <_ZN15CShift_Register4OpenEv+0x170>
    b0d4:	ebfff5c9 	bl	8800 <_ZN13CGPIO_Handler8Free_PinEjbb>
/mnt/c/Users/Kuba/Documents/ZeroMate/examples/19-I2C/kernel/src/drivers/shiftregister.cpp:35
        return false;
    b0d8:	e3a03000 	mov	r3, #0
    b0dc:	ea000015 	b	b138 <_ZN15CShift_Register4OpenEv+0x164>
/mnt/c/Users/Kuba/Documents/ZeroMate/examples/19-I2C/kernel/src/drivers/shiftregister.cpp:39
    }

    // vsechny jsou vystupni
    sGPIO.Set_GPIO_Function(mLatch_Pin, NGPIO_Function::Output);
    b0e0:	e51b3008 	ldr	r3, [fp, #-8]
    b0e4:	e5933000 	ldr	r3, [r3]
    b0e8:	e3a02001 	mov	r2, #1
    b0ec:	e1a01003 	mov	r1, r3
    b0f0:	e59f004c 	ldr	r0, [pc, #76]	; b144 <_ZN15CShift_Register4OpenEv+0x170>
    b0f4:	ebfff4b5 	bl	83d0 <_ZN13CGPIO_Handler17Set_GPIO_FunctionEj14NGPIO_Function>
/mnt/c/Users/Kuba/Documents/ZeroMate/examples/19-I2C/kernel/src/drivers/shiftregister.cpp:40
    sGPIO.Set_GPIO_Function(mData_Pin, NGPIO_Function::Output);
    b0f8:	e51b3008 	ldr	r3, [fp, #-8]
    b0fc:	e5933004 	ldr	r3, [r3, #4]
    b100:	e3a02001 	mov	r2, #1
    b104:	e1a01003 	mov	r1, r3
    b108:	e59f0034 	ldr	r0, [pc, #52]	; b144 <_ZN15CShift_Register4OpenEv+0x170>
    b10c:	ebfff4af 	bl	83d0 <_ZN13CGPIO_Handler17Set_GPIO_FunctionEj14NGPIO_Function>
/mnt/c/Users/Kuba/Documents/ZeroMate/examples/19-I2C/kernel/src/drivers/shiftregister.cpp:41
    sGPIO.Set_GPIO_Function(mClock_Pin, NGPIO_Function::Output);
    b110:	e51b3008 	ldr	r3, [fp, #-8]
    b114:	e5933008 	ldr	r3, [r3, #8]
    b118:	e3a02001 	mov	r2, #1
    b11c:	e1a01003 	mov	r1, r3
    b120:	e59f001c 	ldr	r0, [pc, #28]	; b144 <_ZN15CShift_Register4OpenEv+0x170>
    b124:	ebfff4a9 	bl	83d0 <_ZN13CGPIO_Handler17Set_GPIO_FunctionEj14NGPIO_Function>
/mnt/c/Users/Kuba/Documents/ZeroMate/examples/19-I2C/kernel/src/drivers/shiftregister.cpp:43

    mOpened = true;
    b128:	e51b3008 	ldr	r3, [fp, #-8]
    b12c:	e3a02001 	mov	r2, #1
    b130:	e5c3200c 	strb	r2, [r3, #12]
/mnt/c/Users/Kuba/Documents/ZeroMate/examples/19-I2C/kernel/src/drivers/shiftregister.cpp:45

    return true;
    b134:	e3a03001 	mov	r3, #1
/mnt/c/Users/Kuba/Documents/ZeroMate/examples/19-I2C/kernel/src/drivers/shiftregister.cpp:46
}
    b138:	e1a00003 	mov	r0, r3
    b13c:	e24bd004 	sub	sp, fp, #4
    b140:	e8bd8800 	pop	{fp, pc}
    b144:	00010b9c 	muleq	r1, ip, fp

0000b148 <_ZN15CShift_Register5CloseEv>:
_ZN15CShift_Register5CloseEv():
/mnt/c/Users/Kuba/Documents/ZeroMate/examples/19-I2C/kernel/src/drivers/shiftregister.cpp:49

void CShift_Register::Close()
{
    b148:	e92d4800 	push	{fp, lr}
    b14c:	e28db004 	add	fp, sp, #4
    b150:	e24dd008 	sub	sp, sp, #8
    b154:	e50b0008 	str	r0, [fp, #-8]
/mnt/c/Users/Kuba/Documents/ZeroMate/examples/19-I2C/kernel/src/drivers/shiftregister.cpp:50
    if (!mOpened)
    b158:	e51b3008 	ldr	r3, [fp, #-8]
    b15c:	e5d3300c 	ldrb	r3, [r3, #12]
    b160:	e2233001 	eor	r3, r3, #1
    b164:	e6ef3073 	uxtb	r3, r3
    b168:	e3530000 	cmp	r3, #0
    b16c:	1a000027 	bne	b210 <_ZN15CShift_Register5CloseEv+0xc8>
/mnt/c/Users/Kuba/Documents/ZeroMate/examples/19-I2C/kernel/src/drivers/shiftregister.cpp:54
        return;

    // prepneme piny na vstupni (setreni energii)
    sGPIO.Set_GPIO_Function(mLatch_Pin, NGPIO_Function::Input);
    b170:	e51b3008 	ldr	r3, [fp, #-8]
    b174:	e5933000 	ldr	r3, [r3]
    b178:	e3a02000 	mov	r2, #0
    b17c:	e1a01003 	mov	r1, r3
    b180:	e59f0094 	ldr	r0, [pc, #148]	; b21c <_ZN15CShift_Register5CloseEv+0xd4>
    b184:	ebfff491 	bl	83d0 <_ZN13CGPIO_Handler17Set_GPIO_FunctionEj14NGPIO_Function>
/mnt/c/Users/Kuba/Documents/ZeroMate/examples/19-I2C/kernel/src/drivers/shiftregister.cpp:55
    sGPIO.Set_GPIO_Function(mData_Pin, NGPIO_Function::Input);
    b188:	e51b3008 	ldr	r3, [fp, #-8]
    b18c:	e5933004 	ldr	r3, [r3, #4]
    b190:	e3a02000 	mov	r2, #0
    b194:	e1a01003 	mov	r1, r3
    b198:	e59f007c 	ldr	r0, [pc, #124]	; b21c <_ZN15CShift_Register5CloseEv+0xd4>
    b19c:	ebfff48b 	bl	83d0 <_ZN13CGPIO_Handler17Set_GPIO_FunctionEj14NGPIO_Function>
/mnt/c/Users/Kuba/Documents/ZeroMate/examples/19-I2C/kernel/src/drivers/shiftregister.cpp:56
    sGPIO.Set_GPIO_Function(mClock_Pin, NGPIO_Function::Input);
    b1a0:	e51b3008 	ldr	r3, [fp, #-8]
    b1a4:	e5933008 	ldr	r3, [r3, #8]
    b1a8:	e3a02000 	mov	r2, #0
    b1ac:	e1a01003 	mov	r1, r3
    b1b0:	e59f0064 	ldr	r0, [pc, #100]	; b21c <_ZN15CShift_Register5CloseEv+0xd4>
    b1b4:	ebfff485 	bl	83d0 <_ZN13CGPIO_Handler17Set_GPIO_FunctionEj14NGPIO_Function>
/mnt/c/Users/Kuba/Documents/ZeroMate/examples/19-I2C/kernel/src/drivers/shiftregister.cpp:59

    // a vratime je
    sGPIO.Free_Pin(mLatch_Pin, true, true);
    b1b8:	e51b3008 	ldr	r3, [fp, #-8]
    b1bc:	e5931000 	ldr	r1, [r3]
    b1c0:	e3a03001 	mov	r3, #1
    b1c4:	e3a02001 	mov	r2, #1
    b1c8:	e59f004c 	ldr	r0, [pc, #76]	; b21c <_ZN15CShift_Register5CloseEv+0xd4>
    b1cc:	ebfff58b 	bl	8800 <_ZN13CGPIO_Handler8Free_PinEjbb>
/mnt/c/Users/Kuba/Documents/ZeroMate/examples/19-I2C/kernel/src/drivers/shiftregister.cpp:60
    sGPIO.Free_Pin(mData_Pin, true, true);
    b1d0:	e51b3008 	ldr	r3, [fp, #-8]
    b1d4:	e5931004 	ldr	r1, [r3, #4]
    b1d8:	e3a03001 	mov	r3, #1
    b1dc:	e3a02001 	mov	r2, #1
    b1e0:	e59f0034 	ldr	r0, [pc, #52]	; b21c <_ZN15CShift_Register5CloseEv+0xd4>
    b1e4:	ebfff585 	bl	8800 <_ZN13CGPIO_Handler8Free_PinEjbb>
/mnt/c/Users/Kuba/Documents/ZeroMate/examples/19-I2C/kernel/src/drivers/shiftregister.cpp:61
    sGPIO.Free_Pin(mClock_Pin, true, true);
    b1e8:	e51b3008 	ldr	r3, [fp, #-8]
    b1ec:	e5931008 	ldr	r1, [r3, #8]
    b1f0:	e3a03001 	mov	r3, #1
    b1f4:	e3a02001 	mov	r2, #1
    b1f8:	e59f001c 	ldr	r0, [pc, #28]	; b21c <_ZN15CShift_Register5CloseEv+0xd4>
    b1fc:	ebfff57f 	bl	8800 <_ZN13CGPIO_Handler8Free_PinEjbb>
/mnt/c/Users/Kuba/Documents/ZeroMate/examples/19-I2C/kernel/src/drivers/shiftregister.cpp:63

    mOpened = false;
    b200:	e51b3008 	ldr	r3, [fp, #-8]
    b204:	e3a02000 	mov	r2, #0
    b208:	e5c3200c 	strb	r2, [r3, #12]
    b20c:	ea000000 	b	b214 <_ZN15CShift_Register5CloseEv+0xcc>
/mnt/c/Users/Kuba/Documents/ZeroMate/examples/19-I2C/kernel/src/drivers/shiftregister.cpp:51
        return;
    b210:	e320f000 	nop	{0}
/mnt/c/Users/Kuba/Documents/ZeroMate/examples/19-I2C/kernel/src/drivers/shiftregister.cpp:64
}
    b214:	e24bd004 	sub	sp, fp, #4
    b218:	e8bd8800 	pop	{fp, pc}
    b21c:	00010b9c 	muleq	r1, ip, fp

0000b220 <_ZNK15CShift_Register9Is_OpenedEv>:
_ZNK15CShift_Register9Is_OpenedEv():
/mnt/c/Users/Kuba/Documents/ZeroMate/examples/19-I2C/kernel/src/drivers/shiftregister.cpp:67

bool CShift_Register::Is_Opened() const
{
    b220:	e52db004 	push	{fp}		; (str fp, [sp, #-4]!)
    b224:	e28db000 	add	fp, sp, #0
    b228:	e24dd00c 	sub	sp, sp, #12
    b22c:	e50b0008 	str	r0, [fp, #-8]
/mnt/c/Users/Kuba/Documents/ZeroMate/examples/19-I2C/kernel/src/drivers/shiftregister.cpp:68
    return mOpened;
    b230:	e51b3008 	ldr	r3, [fp, #-8]
    b234:	e5d3300c 	ldrb	r3, [r3, #12]
/mnt/c/Users/Kuba/Documents/ZeroMate/examples/19-I2C/kernel/src/drivers/shiftregister.cpp:69
}
    b238:	e1a00003 	mov	r0, r3
    b23c:	e28bd000 	add	sp, fp, #0
    b240:	e49db004 	pop	{fp}		; (ldr fp, [sp], #4)
    b244:	e12fff1e 	bx	lr

0000b248 <_ZN15CShift_Register8Shift_InEb>:
_ZN15CShift_Register8Shift_InEb():
/mnt/c/Users/Kuba/Documents/ZeroMate/examples/19-I2C/kernel/src/drivers/shiftregister.cpp:72

void CShift_Register::Shift_In(bool bit)
{
    b248:	e92d4800 	push	{fp, lr}
    b24c:	e28db004 	add	fp, sp, #4
    b250:	e24dd010 	sub	sp, sp, #16
    b254:	e50b0010 	str	r0, [fp, #-16]
    b258:	e1a03001 	mov	r3, r1
    b25c:	e54b3011 	strb	r3, [fp, #-17]	; 0xffffffef
/mnt/c/Users/Kuba/Documents/ZeroMate/examples/19-I2C/kernel/src/drivers/shiftregister.cpp:73
    if (!mOpened)
    b260:	e51b3010 	ldr	r3, [fp, #-16]
    b264:	e5d3300c 	ldrb	r3, [r3, #12]
    b268:	e2233001 	eor	r3, r3, #1
    b26c:	e6ef3073 	uxtb	r3, r3
    b270:	e3530000 	cmp	r3, #0
    b274:	1a000038 	bne	b35c <_ZN15CShift_Register8Shift_InEb+0x114>
/mnt/c/Users/Kuba/Documents/ZeroMate/examples/19-I2C/kernel/src/drivers/shiftregister.cpp:79
        return;

    volatile int i;

    // budeme nahravat bity do banku
    sGPIO.Set_Output(mLatch_Pin, false);
    b278:	e51b3010 	ldr	r3, [fp, #-16]
    b27c:	e5933000 	ldr	r3, [r3]
    b280:	e3a02000 	mov	r2, #0
    b284:	e1a01003 	mov	r1, r3
    b288:	e59f00d8 	ldr	r0, [pc, #216]	; b368 <_ZN15CShift_Register8Shift_InEb+0x120>
    b28c:	ebfff49e 	bl	850c <_ZN13CGPIO_Handler10Set_OutputEjb>
/mnt/c/Users/Kuba/Documents/ZeroMate/examples/19-I2C/kernel/src/drivers/shiftregister.cpp:82

    // nastavime bit
    sGPIO.Set_Output(mData_Pin, bit);
    b290:	e51b3010 	ldr	r3, [fp, #-16]
    b294:	e5933004 	ldr	r3, [r3, #4]
    b298:	e55b2011 	ldrb	r2, [fp, #-17]	; 0xffffffef
    b29c:	e1a01003 	mov	r1, r3
    b2a0:	e59f00c0 	ldr	r0, [pc, #192]	; b368 <_ZN15CShift_Register8Shift_InEb+0x120>
    b2a4:	ebfff498 	bl	850c <_ZN13CGPIO_Handler10Set_OutputEjb>
/mnt/c/Users/Kuba/Documents/ZeroMate/examples/19-I2C/kernel/src/drivers/shiftregister.cpp:84
    // clock -> shift registr nasune bit ze vstupu do banku
    sGPIO.Set_Output(mClock_Pin, true);
    b2a8:	e51b3010 	ldr	r3, [fp, #-16]
    b2ac:	e5933008 	ldr	r3, [r3, #8]
    b2b0:	e3a02001 	mov	r2, #1
    b2b4:	e1a01003 	mov	r1, r3
    b2b8:	e59f00a8 	ldr	r0, [pc, #168]	; b368 <_ZN15CShift_Register8Shift_InEb+0x120>
    b2bc:	ebfff492 	bl	850c <_ZN13CGPIO_Handler10Set_OutputEjb>
/mnt/c/Users/Kuba/Documents/ZeroMate/examples/19-I2C/kernel/src/drivers/shiftregister.cpp:87

    // pockat par milisekund
    for (i = 0; i < 0x10; i++)
    b2c0:	e3a03000 	mov	r3, #0
    b2c4:	e50b3008 	str	r3, [fp, #-8]
/mnt/c/Users/Kuba/Documents/ZeroMate/examples/19-I2C/kernel/src/drivers/shiftregister.cpp:87 (discriminator 3)
    b2c8:	e51b3008 	ldr	r3, [fp, #-8]
    b2cc:	e353000f 	cmp	r3, #15
    b2d0:	d3a03001 	movle	r3, #1
    b2d4:	c3a03000 	movgt	r3, #0
    b2d8:	e6ef3073 	uxtb	r3, r3
    b2dc:	e3530000 	cmp	r3, #0
    b2e0:	0a000003 	beq	b2f4 <_ZN15CShift_Register8Shift_InEb+0xac>
/mnt/c/Users/Kuba/Documents/ZeroMate/examples/19-I2C/kernel/src/drivers/shiftregister.cpp:87 (discriminator 2)
    b2e4:	e51b3008 	ldr	r3, [fp, #-8]
    b2e8:	e2833001 	add	r3, r3, #1
    b2ec:	e50b3008 	str	r3, [fp, #-8]
    b2f0:	eafffff4 	b	b2c8 <_ZN15CShift_Register8Shift_InEb+0x80>
/mnt/c/Users/Kuba/Documents/ZeroMate/examples/19-I2C/kernel/src/drivers/shiftregister.cpp:91
        ;

    // vratit clock zpatky
    sGPIO.Set_Output(mClock_Pin, false);
    b2f4:	e51b3010 	ldr	r3, [fp, #-16]
    b2f8:	e5933008 	ldr	r3, [r3, #8]
    b2fc:	e3a02000 	mov	r2, #0
    b300:	e1a01003 	mov	r1, r3
    b304:	e59f005c 	ldr	r0, [pc, #92]	; b368 <_ZN15CShift_Register8Shift_InEb+0x120>
    b308:	ebfff47f 	bl	850c <_ZN13CGPIO_Handler10Set_OutputEjb>
/mnt/c/Users/Kuba/Documents/ZeroMate/examples/19-I2C/kernel/src/drivers/shiftregister.cpp:94

    // pockat par milisekund
    for (i = 0; i < 0x10; i++)
    b30c:	e3a03000 	mov	r3, #0
    b310:	e50b3008 	str	r3, [fp, #-8]
/mnt/c/Users/Kuba/Documents/ZeroMate/examples/19-I2C/kernel/src/drivers/shiftregister.cpp:94 (discriminator 3)
    b314:	e51b3008 	ldr	r3, [fp, #-8]
    b318:	e353000f 	cmp	r3, #15
    b31c:	d3a03001 	movle	r3, #1
    b320:	c3a03000 	movgt	r3, #0
    b324:	e6ef3073 	uxtb	r3, r3
    b328:	e3530000 	cmp	r3, #0
    b32c:	0a000003 	beq	b340 <_ZN15CShift_Register8Shift_InEb+0xf8>
/mnt/c/Users/Kuba/Documents/ZeroMate/examples/19-I2C/kernel/src/drivers/shiftregister.cpp:94 (discriminator 2)
    b330:	e51b3008 	ldr	r3, [fp, #-8]
    b334:	e2833001 	add	r3, r3, #1
    b338:	e50b3008 	str	r3, [fp, #-8]
    b33c:	eafffff4 	b	b314 <_ZN15CShift_Register8Shift_InEb+0xcc>
/mnt/c/Users/Kuba/Documents/ZeroMate/examples/19-I2C/kernel/src/drivers/shiftregister.cpp:98
        ;

    // propiseme bank do vystupu
    sGPIO.Set_Output(mLatch_Pin, true);
    b340:	e51b3010 	ldr	r3, [fp, #-16]
    b344:	e5933000 	ldr	r3, [r3]
    b348:	e3a02001 	mov	r2, #1
    b34c:	e1a01003 	mov	r1, r3
    b350:	e59f0010 	ldr	r0, [pc, #16]	; b368 <_ZN15CShift_Register8Shift_InEb+0x120>
    b354:	ebfff46c 	bl	850c <_ZN13CGPIO_Handler10Set_OutputEjb>
    b358:	ea000000 	b	b360 <_ZN15CShift_Register8Shift_InEb+0x118>
/mnt/c/Users/Kuba/Documents/ZeroMate/examples/19-I2C/kernel/src/drivers/shiftregister.cpp:74
        return;
    b35c:	e320f000 	nop	{0}
/mnt/c/Users/Kuba/Documents/ZeroMate/examples/19-I2C/kernel/src/drivers/shiftregister.cpp:99
}
    b360:	e24bd004 	sub	sp, fp, #4
    b364:	e8bd8800 	pop	{fp, pc}
    b368:	00010b9c 	muleq	r1, ip, fp

0000b36c <_ZN15CShift_Register8Shift_InEh>:
_ZN15CShift_Register8Shift_InEh():
/mnt/c/Users/Kuba/Documents/ZeroMate/examples/19-I2C/kernel/src/drivers/shiftregister.cpp:102

void CShift_Register::Shift_In(uint8_t byte)
{
    b36c:	e92d4800 	push	{fp, lr}
    b370:	e28db004 	add	fp, sp, #4
    b374:	e24dd010 	sub	sp, sp, #16
    b378:	e50b0010 	str	r0, [fp, #-16]
    b37c:	e1a03001 	mov	r3, r1
    b380:	e54b3011 	strb	r3, [fp, #-17]	; 0xffffffef
/mnt/c/Users/Kuba/Documents/ZeroMate/examples/19-I2C/kernel/src/drivers/shiftregister.cpp:103
    if (!mOpened)
    b384:	e51b3010 	ldr	r3, [fp, #-16]
    b388:	e5d3300c 	ldrb	r3, [r3, #12]
    b38c:	e2233001 	eor	r3, r3, #1
    b390:	e6ef3073 	uxtb	r3, r3
    b394:	e3530000 	cmp	r3, #0
    b398:	1a000048 	bne	b4c0 <_ZN15CShift_Register8Shift_InEh+0x154>
/mnt/c/Users/Kuba/Documents/ZeroMate/examples/19-I2C/kernel/src/drivers/shiftregister.cpp:109
        return;

    volatile int i;

    // zapisovat do banku
    sGPIO.Set_Output(mLatch_Pin, false);
    b39c:	e51b3010 	ldr	r3, [fp, #-16]
    b3a0:	e5933000 	ldr	r3, [r3]
    b3a4:	e3a02000 	mov	r2, #0
    b3a8:	e1a01003 	mov	r1, r3
    b3ac:	e59f0118 	ldr	r0, [pc, #280]	; b4cc <_ZN15CShift_Register8Shift_InEh+0x160>
    b3b0:	ebfff455 	bl	850c <_ZN13CGPIO_Handler10Set_OutputEjb>
/mnt/c/Users/Kuba/Documents/ZeroMate/examples/19-I2C/kernel/src/drivers/shiftregister.cpp:112

    // nasuneme bity od nejvyssiho po nejnizsi (aby na vystupu byly v poradi)
    for (int j = 7; j >= 0; j--)
    b3b4:	e3a03007 	mov	r3, #7
    b3b8:	e50b3008 	str	r3, [fp, #-8]
/mnt/c/Users/Kuba/Documents/ZeroMate/examples/19-I2C/kernel/src/drivers/shiftregister.cpp:112 (discriminator 1)
    b3bc:	e51b3008 	ldr	r3, [fp, #-8]
    b3c0:	e3530000 	cmp	r3, #0
    b3c4:	ba000036 	blt	b4a4 <_ZN15CShift_Register8Shift_InEh+0x138>
/mnt/c/Users/Kuba/Documents/ZeroMate/examples/19-I2C/kernel/src/drivers/shiftregister.cpp:114
    {
        sGPIO.Set_Output(mData_Pin, ((byte >> j) & 0x1));
    b3c8:	e51b3010 	ldr	r3, [fp, #-16]
    b3cc:	e5931004 	ldr	r1, [r3, #4]
    b3d0:	e55b2011 	ldrb	r2, [fp, #-17]	; 0xffffffef
    b3d4:	e51b3008 	ldr	r3, [fp, #-8]
    b3d8:	e1a03352 	asr	r3, r2, r3
    b3dc:	e2033001 	and	r3, r3, #1
    b3e0:	e3530000 	cmp	r3, #0
    b3e4:	13a03001 	movne	r3, #1
    b3e8:	03a03000 	moveq	r3, #0
    b3ec:	e6ef3073 	uxtb	r3, r3
    b3f0:	e1a02003 	mov	r2, r3
    b3f4:	e59f00d0 	ldr	r0, [pc, #208]	; b4cc <_ZN15CShift_Register8Shift_InEh+0x160>
    b3f8:	ebfff443 	bl	850c <_ZN13CGPIO_Handler10Set_OutputEjb>
/mnt/c/Users/Kuba/Documents/ZeroMate/examples/19-I2C/kernel/src/drivers/shiftregister.cpp:115
        sGPIO.Set_Output(mClock_Pin, true);
    b3fc:	e51b3010 	ldr	r3, [fp, #-16]
    b400:	e5933008 	ldr	r3, [r3, #8]
    b404:	e3a02001 	mov	r2, #1
    b408:	e1a01003 	mov	r1, r3
    b40c:	e59f00b8 	ldr	r0, [pc, #184]	; b4cc <_ZN15CShift_Register8Shift_InEh+0x160>
    b410:	ebfff43d 	bl	850c <_ZN13CGPIO_Handler10Set_OutputEjb>
/mnt/c/Users/Kuba/Documents/ZeroMate/examples/19-I2C/kernel/src/drivers/shiftregister.cpp:117

        for (i = 0; i < 0x10; i++)
    b414:	e3a03000 	mov	r3, #0
    b418:	e50b300c 	str	r3, [fp, #-12]
/mnt/c/Users/Kuba/Documents/ZeroMate/examples/19-I2C/kernel/src/drivers/shiftregister.cpp:117 (discriminator 3)
    b41c:	e51b300c 	ldr	r3, [fp, #-12]
    b420:	e353000f 	cmp	r3, #15
    b424:	d3a03001 	movle	r3, #1
    b428:	c3a03000 	movgt	r3, #0
    b42c:	e6ef3073 	uxtb	r3, r3
    b430:	e3530000 	cmp	r3, #0
    b434:	0a000003 	beq	b448 <_ZN15CShift_Register8Shift_InEh+0xdc>
/mnt/c/Users/Kuba/Documents/ZeroMate/examples/19-I2C/kernel/src/drivers/shiftregister.cpp:117 (discriminator 2)
    b438:	e51b300c 	ldr	r3, [fp, #-12]
    b43c:	e2833001 	add	r3, r3, #1
    b440:	e50b300c 	str	r3, [fp, #-12]
    b444:	eafffff4 	b	b41c <_ZN15CShift_Register8Shift_InEh+0xb0>
/mnt/c/Users/Kuba/Documents/ZeroMate/examples/19-I2C/kernel/src/drivers/shiftregister.cpp:120
            ;

        sGPIO.Set_Output(mClock_Pin, false);
    b448:	e51b3010 	ldr	r3, [fp, #-16]
    b44c:	e5933008 	ldr	r3, [r3, #8]
    b450:	e3a02000 	mov	r2, #0
    b454:	e1a01003 	mov	r1, r3
    b458:	e59f006c 	ldr	r0, [pc, #108]	; b4cc <_ZN15CShift_Register8Shift_InEh+0x160>
    b45c:	ebfff42a 	bl	850c <_ZN13CGPIO_Handler10Set_OutputEjb>
/mnt/c/Users/Kuba/Documents/ZeroMate/examples/19-I2C/kernel/src/drivers/shiftregister.cpp:122

        for (i = 0; i < 0x10; i++)
    b460:	e3a03000 	mov	r3, #0
    b464:	e50b300c 	str	r3, [fp, #-12]
/mnt/c/Users/Kuba/Documents/ZeroMate/examples/19-I2C/kernel/src/drivers/shiftregister.cpp:122 (discriminator 3)
    b468:	e51b300c 	ldr	r3, [fp, #-12]
    b46c:	e353000f 	cmp	r3, #15
    b470:	d3a03001 	movle	r3, #1
    b474:	c3a03000 	movgt	r3, #0
    b478:	e6ef3073 	uxtb	r3, r3
    b47c:	e3530000 	cmp	r3, #0
    b480:	0a000003 	beq	b494 <_ZN15CShift_Register8Shift_InEh+0x128>
/mnt/c/Users/Kuba/Documents/ZeroMate/examples/19-I2C/kernel/src/drivers/shiftregister.cpp:122 (discriminator 2)
    b484:	e51b300c 	ldr	r3, [fp, #-12]
    b488:	e2833001 	add	r3, r3, #1
    b48c:	e50b300c 	str	r3, [fp, #-12]
    b490:	eafffff4 	b	b468 <_ZN15CShift_Register8Shift_InEh+0xfc>
/mnt/c/Users/Kuba/Documents/ZeroMate/examples/19-I2C/kernel/src/drivers/shiftregister.cpp:112 (discriminator 2)
    for (int j = 7; j >= 0; j--)
    b494:	e51b3008 	ldr	r3, [fp, #-8]
    b498:	e2433001 	sub	r3, r3, #1
    b49c:	e50b3008 	str	r3, [fp, #-8]
    b4a0:	eaffffc5 	b	b3bc <_ZN15CShift_Register8Shift_InEh+0x50>
/mnt/c/Users/Kuba/Documents/ZeroMate/examples/19-I2C/kernel/src/drivers/shiftregister.cpp:127
            ;
    }

    // propiseme bank na vystup
    sGPIO.Set_Output(mLatch_Pin, true);
    b4a4:	e51b3010 	ldr	r3, [fp, #-16]
    b4a8:	e5933000 	ldr	r3, [r3]
    b4ac:	e3a02001 	mov	r2, #1
    b4b0:	e1a01003 	mov	r1, r3
    b4b4:	e59f0010 	ldr	r0, [pc, #16]	; b4cc <_ZN15CShift_Register8Shift_InEh+0x160>
    b4b8:	ebfff413 	bl	850c <_ZN13CGPIO_Handler10Set_OutputEjb>
    b4bc:	ea000000 	b	b4c4 <_ZN15CShift_Register8Shift_InEh+0x158>
/mnt/c/Users/Kuba/Documents/ZeroMate/examples/19-I2C/kernel/src/drivers/shiftregister.cpp:104
        return;
    b4c0:	e320f000 	nop	{0}
/mnt/c/Users/Kuba/Documents/ZeroMate/examples/19-I2C/kernel/src/drivers/shiftregister.cpp:128
}
    b4c4:	e24bd004 	sub	sp, fp, #4
    b4c8:	e8bd8800 	pop	{fp, pc}
    b4cc:	00010b9c 	muleq	r1, ip, fp

0000b4d0 <_Z41__static_initialization_and_destruction_0ii>:
_Z41__static_initialization_and_destruction_0ii():
/mnt/c/Users/Kuba/Documents/ZeroMate/examples/19-I2C/kernel/src/drivers/shiftregister.cpp:128
    b4d0:	e92d4800 	push	{fp, lr}
    b4d4:	e28db004 	add	fp, sp, #4
    b4d8:	e24dd008 	sub	sp, sp, #8
    b4dc:	e50b0008 	str	r0, [fp, #-8]
    b4e0:	e50b100c 	str	r1, [fp, #-12]
    b4e4:	e51b3008 	ldr	r3, [fp, #-8]
    b4e8:	e3530001 	cmp	r3, #1
    b4ec:	1a000008 	bne	b514 <_Z41__static_initialization_and_destruction_0ii+0x44>
/mnt/c/Users/Kuba/Documents/ZeroMate/examples/19-I2C/kernel/src/drivers/shiftregister.cpp:128 (discriminator 1)
    b4f0:	e51b300c 	ldr	r3, [fp, #-12]
    b4f4:	e59f2024 	ldr	r2, [pc, #36]	; b520 <_Z41__static_initialization_and_destruction_0ii+0x50>
    b4f8:	e1530002 	cmp	r3, r2
    b4fc:	1a000004 	bne	b514 <_Z41__static_initialization_and_destruction_0ii+0x44>
/mnt/c/Users/Kuba/Documents/ZeroMate/examples/19-I2C/kernel/src/drivers/shiftregister.cpp:5
CShift_Register sShift_Register(2, 3, 4);
    b500:	e3a03004 	mov	r3, #4
    b504:	e3a02003 	mov	r2, #3
    b508:	e3a01002 	mov	r1, #2
    b50c:	e59f0010 	ldr	r0, [pc, #16]	; b524 <_Z41__static_initialization_and_destruction_0ii+0x54>
    b510:	ebfffe9a 	bl	af80 <_ZN15CShift_RegisterC1Ejjj>
/mnt/c/Users/Kuba/Documents/ZeroMate/examples/19-I2C/kernel/src/drivers/shiftregister.cpp:128
}
    b514:	e320f000 	nop	{0}
    b518:	e24bd004 	sub	sp, fp, #4
    b51c:	e8bd8800 	pop	{fp, pc}
    b520:	0000ffff 	strdeq	pc, [r0], -pc	; <UNPREDICTABLE>
    b524:	00010c14 	andeq	r0, r1, r4, lsl ip

0000b528 <_GLOBAL__sub_I_sShift_Register>:
_GLOBAL__sub_I_sShift_Register():
/mnt/c/Users/Kuba/Documents/ZeroMate/examples/19-I2C/kernel/src/drivers/shiftregister.cpp:128
    b528:	e92d4800 	push	{fp, lr}
    b52c:	e28db004 	add	fp, sp, #4
    b530:	e59f1008 	ldr	r1, [pc, #8]	; b540 <_GLOBAL__sub_I_sShift_Register+0x18>
    b534:	e3a00001 	mov	r0, #1
    b538:	ebffffe4 	bl	b4d0 <_Z41__static_initialization_and_destruction_0ii>
    b53c:	e8bd8800 	pop	{fp, pc}
    b540:	0000ffff 	strdeq	pc, [r0], -pc	; <UNPREDICTABLE>

0000b544 <_ZN6CTimerC1Em>:
_ZN6CTimerC2Em():
/mnt/c/Users/Kuba/Documents/ZeroMate/examples/19-I2C/kernel/src/drivers/timer.cpp:26
    uint16_t unused_4 : 10;
};

#pragma pack(pop)

CTimer::CTimer(unsigned long timer_reg_base)
    b544:	e52db004 	push	{fp}		; (str fp, [sp, #-4]!)
    b548:	e28db000 	add	fp, sp, #0
    b54c:	e24dd00c 	sub	sp, sp, #12
    b550:	e50b0008 	str	r0, [fp, #-8]
    b554:	e50b100c 	str	r1, [fp, #-12]
/mnt/c/Users/Kuba/Documents/ZeroMate/examples/19-I2C/kernel/src/drivers/timer.cpp:27
: mTimer_Regs(reinterpret_cast<unsigned int*>(timer_reg_base))
    b558:	e51b200c 	ldr	r2, [fp, #-12]
/mnt/c/Users/Kuba/Documents/ZeroMate/examples/19-I2C/kernel/src/drivers/timer.cpp:28
, mCallback(nullptr)
    b55c:	e51b3008 	ldr	r3, [fp, #-8]
    b560:	e5832000 	str	r2, [r3]
    b564:	e51b3008 	ldr	r3, [fp, #-8]
    b568:	e3a02000 	mov	r2, #0
    b56c:	e5832004 	str	r2, [r3, #4]
/mnt/c/Users/Kuba/Documents/ZeroMate/examples/19-I2C/kernel/src/drivers/timer.cpp:31
{
    //
}
    b570:	e51b3008 	ldr	r3, [fp, #-8]
    b574:	e1a00003 	mov	r0, r3
    b578:	e28bd000 	add	sp, fp, #0
    b57c:	e49db004 	pop	{fp}		; (ldr fp, [sp], #4)
    b580:	e12fff1e 	bx	lr

0000b584 <_ZN6CTimer4RegsEN3hal9Timer_RegE>:
_ZN6CTimer4RegsEN3hal9Timer_RegE():
/mnt/c/Users/Kuba/Documents/ZeroMate/examples/19-I2C/kernel/src/drivers/timer.cpp:34

volatile unsigned int& CTimer::Regs(hal::Timer_Reg reg)
{
    b584:	e52db004 	push	{fp}		; (str fp, [sp, #-4]!)
    b588:	e28db000 	add	fp, sp, #0
    b58c:	e24dd00c 	sub	sp, sp, #12
    b590:	e50b0008 	str	r0, [fp, #-8]
    b594:	e50b100c 	str	r1, [fp, #-12]
/mnt/c/Users/Kuba/Documents/ZeroMate/examples/19-I2C/kernel/src/drivers/timer.cpp:35
    return mTimer_Regs[static_cast<unsigned int>(reg)];
    b598:	e51b3008 	ldr	r3, [fp, #-8]
    b59c:	e5932000 	ldr	r2, [r3]
    b5a0:	e51b300c 	ldr	r3, [fp, #-12]
    b5a4:	e1a03103 	lsl	r3, r3, #2
    b5a8:	e0823003 	add	r3, r2, r3
/mnt/c/Users/Kuba/Documents/ZeroMate/examples/19-I2C/kernel/src/drivers/timer.cpp:36
}
    b5ac:	e1a00003 	mov	r0, r3
    b5b0:	e28bd000 	add	sp, fp, #0
    b5b4:	e49db004 	pop	{fp}		; (ldr fp, [sp], #4)
    b5b8:	e12fff1e 	bx	lr

0000b5bc <_ZN6CTimer6EnableEPFvvEj16NTimer_Prescaler>:
_ZN6CTimer6EnableEPFvvEj16NTimer_Prescaler():
/mnt/c/Users/Kuba/Documents/ZeroMate/examples/19-I2C/kernel/src/drivers/timer.cpp:39

void CTimer::Enable(TTimer_Callback callback, unsigned int delay, NTimer_Prescaler prescaler)
{
    b5bc:	e92d4810 	push	{r4, fp, lr}
    b5c0:	e28db008 	add	fp, sp, #8
    b5c4:	e24dd01c 	sub	sp, sp, #28
    b5c8:	e50b0018 	str	r0, [fp, #-24]	; 0xffffffe8
    b5cc:	e50b101c 	str	r1, [fp, #-28]	; 0xffffffe4
    b5d0:	e50b2020 	str	r2, [fp, #-32]	; 0xffffffe0
    b5d4:	e54b3021 	strb	r3, [fp, #-33]	; 0xffffffdf
/mnt/c/Users/Kuba/Documents/ZeroMate/examples/19-I2C/kernel/src/drivers/timer.cpp:40
    Regs(hal::Timer_Reg::Load) = delay;
    b5d8:	e3a01000 	mov	r1, #0
    b5dc:	e51b0018 	ldr	r0, [fp, #-24]	; 0xffffffe8
    b5e0:	ebffffe7 	bl	b584 <_ZN6CTimer4RegsEN3hal9Timer_RegE>
    b5e4:	e1a02000 	mov	r2, r0
    b5e8:	e51b3020 	ldr	r3, [fp, #-32]	; 0xffffffe0
    b5ec:	e5823000 	str	r3, [r2]
/mnt/c/Users/Kuba/Documents/ZeroMate/examples/19-I2C/kernel/src/drivers/timer.cpp:43

    TTimer_Ctl_Flags reg;
    reg.counter_32b = 1;
    b5f0:	e55b3014 	ldrb	r3, [fp, #-20]	; 0xffffffec
    b5f4:	e3833002 	orr	r3, r3, #2
    b5f8:	e54b3014 	strb	r3, [fp, #-20]	; 0xffffffec
/mnt/c/Users/Kuba/Documents/ZeroMate/examples/19-I2C/kernel/src/drivers/timer.cpp:44
    reg.interrupt_enabled = 1;
    b5fc:	e55b3014 	ldrb	r3, [fp, #-20]	; 0xffffffec
    b600:	e3833020 	orr	r3, r3, #32
    b604:	e54b3014 	strb	r3, [fp, #-20]	; 0xffffffec
/mnt/c/Users/Kuba/Documents/ZeroMate/examples/19-I2C/kernel/src/drivers/timer.cpp:45
    reg.timer_enabled = 1;
    b608:	e55b3014 	ldrb	r3, [fp, #-20]	; 0xffffffec
    b60c:	e3833080 	orr	r3, r3, #128	; 0x80
    b610:	e54b3014 	strb	r3, [fp, #-20]	; 0xffffffec
/mnt/c/Users/Kuba/Documents/ZeroMate/examples/19-I2C/kernel/src/drivers/timer.cpp:46
    reg.prescaler = static_cast<uint8_t>(prescaler);
    b614:	e55b3021 	ldrb	r3, [fp, #-33]	; 0xffffffdf
    b618:	e2033003 	and	r3, r3, #3
    b61c:	e6ef3073 	uxtb	r3, r3
    b620:	e55b2014 	ldrb	r2, [fp, #-20]	; 0xffffffec
    b624:	e2033003 	and	r3, r3, #3
    b628:	e3c2200c 	bic	r2, r2, #12
    b62c:	e1a03103 	lsl	r3, r3, #2
    b630:	e1833002 	orr	r3, r3, r2
    b634:	e1a02003 	mov	r2, r3
    b638:	e54b2014 	strb	r2, [fp, #-20]	; 0xffffffec
/mnt/c/Users/Kuba/Documents/ZeroMate/examples/19-I2C/kernel/src/drivers/timer.cpp:48

    Regs(hal::Timer_Reg::Control) = *reinterpret_cast<unsigned int*>(&reg);
    b63c:	e24b4014 	sub	r4, fp, #20
    b640:	e3a01002 	mov	r1, #2
    b644:	e51b0018 	ldr	r0, [fp, #-24]	; 0xffffffe8
    b648:	ebffffcd 	bl	b584 <_ZN6CTimer4RegsEN3hal9Timer_RegE>
    b64c:	e1a02000 	mov	r2, r0
    b650:	e5943000 	ldr	r3, [r4]
    b654:	e5823000 	str	r3, [r2]
/mnt/c/Users/Kuba/Documents/ZeroMate/examples/19-I2C/kernel/src/drivers/timer.cpp:50

    Regs(hal::Timer_Reg::IRQ_Clear) = 1;
    b658:	e3a01003 	mov	r1, #3
    b65c:	e51b0018 	ldr	r0, [fp, #-24]	; 0xffffffe8
    b660:	ebffffc7 	bl	b584 <_ZN6CTimer4RegsEN3hal9Timer_RegE>
    b664:	e1a03000 	mov	r3, r0
    b668:	e3a02001 	mov	r2, #1
    b66c:	e5832000 	str	r2, [r3]
/mnt/c/Users/Kuba/Documents/ZeroMate/examples/19-I2C/kernel/src/drivers/timer.cpp:52

    mCallback = callback;
    b670:	e51b3018 	ldr	r3, [fp, #-24]	; 0xffffffe8
