
./kernel:     file format elf32-littlearm


Disassembly of section .text:

00008000 <_start>:
_start():
/home/silhavyj/School/ZeroMate/examples/09-GPIO_interrupt/kernel/src/start.s:14
	;@	- sem skoci bootloader, prvni na co narazi je "ldr pc, _reset_ptr" -> tedy se chova jako kdyby slo o reset a skoci na zacatek provadeni
	;@	- v cele svoji krase (vsechny "ldr" instrukce) slouzi jako predloha skutecne tabulce vektoru preruseni
	;@ na dany offset procesor skoci, kdyz je vyvolano libovolne preruseni
	;@ ARM nastavuje rovnou registr PC na tuto adresu, tzn. na teto adrese musi byt kodovana 4B instrukce skoku nekam jinam
	;@ oproti tomu napr. x86 (x86_64) obsahuje v tabulce rovnou adresu a procesor nastavuje PC (CS:IP) na adresu kterou najde v tabulce
	ldr pc, _reset_ptr						;@ 0x00 - reset - vyvolano pri resetu procesoru
    8000:	e59ff018 	ldr	pc, [pc, #24]	; 8020 <_reset_ptr>
/home/silhavyj/School/ZeroMate/examples/09-GPIO_interrupt/kernel/src/start.s:15
	ldr pc, _undefined_instruction_ptr		;@ 0x04 - undefined instruction - vyjimka, vyvolana pri dekodovani nezname instrukce
    8004:	e59ff018 	ldr	pc, [pc, #24]	; 8024 <_undefined_instruction_ptr>
/home/silhavyj/School/ZeroMate/examples/09-GPIO_interrupt/kernel/src/start.s:16
	ldr pc, _software_interrupt_ptr			;@ 0x08 - software interrupt - vyvolano, kdyz procesor provede instrukci swi
    8008:	e59ff018 	ldr	pc, [pc, #24]	; 8028 <_software_interrupt_ptr>
/home/silhavyj/School/ZeroMate/examples/09-GPIO_interrupt/kernel/src/start.s:17
	ldr pc, _prefetch_abort_ptr				;@ 0x0C - prefetch abort - vyvolano, kdyz se procesor snazi napr. nacist instrukci z mista, odkud nacist nejde
    800c:	e59ff018 	ldr	pc, [pc, #24]	; 802c <_prefetch_abort_ptr>
/home/silhavyj/School/ZeroMate/examples/09-GPIO_interrupt/kernel/src/start.s:18
	ldr pc, _data_abort_ptr					;@ 0x10 - data abort - vyvolano, kdyz se procesor snazi napr. nacist data z mista, odkud nacist nejdou
    8010:	e59ff018 	ldr	pc, [pc, #24]	; 8030 <_data_abort_ptr>
/home/silhavyj/School/ZeroMate/examples/09-GPIO_interrupt/kernel/src/start.s:19
	ldr pc, _unused_handler_ptr				;@ 0x14 - unused - ve specifikaci ARM neni uvedeno zadne vyuziti
    8014:	e59ff018 	ldr	pc, [pc, #24]	; 8034 <_unused_handler_ptr>
/home/silhavyj/School/ZeroMate/examples/09-GPIO_interrupt/kernel/src/start.s:20
	ldr pc, _irq_ptr						;@ 0x18 - IRQ - hardwarove preruseni (general purpose)
    8018:	e59ff018 	ldr	pc, [pc, #24]	; 8038 <_irq_ptr>
/home/silhavyj/School/ZeroMate/examples/09-GPIO_interrupt/kernel/src/start.s:21
	ldr pc, _fast_interrupt_ptr				;@ 0x1C - fast interrupt request - prioritni IRQ pro vysokorychlostni zalezitosti
    801c:	e59ff018 	ldr	pc, [pc, #24]	; 803c <_fast_interrupt_ptr>

00008020 <_reset_ptr>:
_reset_ptr():
/home/silhavyj/School/ZeroMate/examples/09-GPIO_interrupt/kernel/src/start.s:21
    8020:	00008040 	andeq	r8, r0, r0, asr #32

00008024 <_undefined_instruction_ptr>:
_undefined_instruction_ptr():
/home/silhavyj/School/ZeroMate/examples/09-GPIO_interrupt/kernel/src/start.s:21
    8024:	00008cd8 	ldrdeq	r8, [r0], -r8	; <UNPREDICTABLE>

00008028 <_software_interrupt_ptr>:
_software_interrupt_ptr():
/home/silhavyj/School/ZeroMate/examples/09-GPIO_interrupt/kernel/src/start.s:21
    8028:	000089a8 	andeq	r8, r0, r8, lsr #19

0000802c <_prefetch_abort_ptr>:
_prefetch_abort_ptr():
/home/silhavyj/School/ZeroMate/examples/09-GPIO_interrupt/kernel/src/start.s:21
    802c:	00008cdc 	ldrdeq	r8, [r0], -ip

00008030 <_data_abort_ptr>:
_data_abort_ptr():
/home/silhavyj/School/ZeroMate/examples/09-GPIO_interrupt/kernel/src/start.s:21
    8030:	00008ce0 	andeq	r8, r0, r0, ror #25

00008034 <_unused_handler_ptr>:
_unused_handler_ptr():
/home/silhavyj/School/ZeroMate/examples/09-GPIO_interrupt/kernel/src/start.s:21
    8034:	00008040 	andeq	r8, r0, r0, asr #32

00008038 <_irq_ptr>:
_irq_ptr():
/home/silhavyj/School/ZeroMate/examples/09-GPIO_interrupt/kernel/src/start.s:21
    8038:	000089c0 	andeq	r8, r0, r0, asr #19

0000803c <_fast_interrupt_ptr>:
_fast_interrupt_ptr():
/home/silhavyj/School/ZeroMate/examples/09-GPIO_interrupt/kernel/src/start.s:21
    803c:	00008a1c 	andeq	r8, r0, ip, lsl sl

00008040 <_reset>:
_reset():
/home/silhavyj/School/ZeroMate/examples/09-GPIO_interrupt/kernel/src/start.s:50
.equ    CPSR_FIQ_INHIBIT,       0x40


;@ kernel reset vektor - tento kod se vykona pri kazdem resetu zarizeni (i prvnim spusteni)
_reset:
	mov sp, #0x8000			;@ nastavime stack pointer na spodek zasobniku
    8040:	e3a0d902 	mov	sp, #32768	; 0x8000
/home/silhavyj/School/ZeroMate/examples/09-GPIO_interrupt/kernel/src/start.s:53

	;@ nacteni tabulky vektoru preruseni do pameti
	mov r0, #0x8000			;@ adresa 0x8000 (_start) do r0
    8044:	e3a00902 	mov	r0, #32768	; 0x8000
/home/silhavyj/School/ZeroMate/examples/09-GPIO_interrupt/kernel/src/start.s:54
    mov r1, #0x0000			;@ adresa 0x0000 (pocatek RAM) do r1 - tam budeme vkladat tabulku vektoru preruseni
    8048:	e3a01000 	mov	r1, #0
/home/silhavyj/School/ZeroMate/examples/09-GPIO_interrupt/kernel/src/start.s:58

	;@ Thumb instrukce - nacteni 4B slov z pameti ulozene v r0 (0x8000) do registru r2, 3, ... 9
	;@                 - ulozeni obsahu registru r2, 3, ... 9 do pameti ulozene v registru r1 (0x0000)
    ldmia r0!,{r2, r3, r4, r5, r6, r7, r8, r9}
    804c:	e8b003fc 	ldm	r0!, {r2, r3, r4, r5, r6, r7, r8, r9}
/home/silhavyj/School/ZeroMate/examples/09-GPIO_interrupt/kernel/src/start.s:59
    stmia r1!,{r2, r3, r4, r5, r6, r7, r8, r9}
    8050:	e8a103fc 	stmia	r1!, {r2, r3, r4, r5, r6, r7, r8, r9}
/home/silhavyj/School/ZeroMate/examples/09-GPIO_interrupt/kernel/src/start.s:60
    ldmia r0!,{r2, r3, r4, r5, r6, r7, r8, r9}
    8054:	e8b003fc 	ldm	r0!, {r2, r3, r4, r5, r6, r7, r8, r9}
/home/silhavyj/School/ZeroMate/examples/09-GPIO_interrupt/kernel/src/start.s:61
    stmia r1!,{r2, r3, r4, r5, r6, r7, r8, r9}
    8058:	e8a103fc 	stmia	r1!, {r2, r3, r4, r5, r6, r7, r8, r9}
/home/silhavyj/School/ZeroMate/examples/09-GPIO_interrupt/kernel/src/start.s:64

	;@ na moment se prepneme do IRQ rezimu, nastavime mu stack pointer
	mov r0, #(CPSR_MODE_IRQ | CPSR_IRQ_INHIBIT | CPSR_FIQ_INHIBIT)
    805c:	e3a000d2 	mov	r0, #210	; 0xd2
/home/silhavyj/School/ZeroMate/examples/09-GPIO_interrupt/kernel/src/start.s:65
    msr cpsr_c, r0
    8060:	e121f000 	msr	CPSR_c, r0
/home/silhavyj/School/ZeroMate/examples/09-GPIO_interrupt/kernel/src/start.s:66
    mov sp, #0x7000
    8064:	e3a0da07 	mov	sp, #28672	; 0x7000
/home/silhavyj/School/ZeroMate/examples/09-GPIO_interrupt/kernel/src/start.s:69

	;@ na moment se prepneme do FIQ rezimu, nastavime mu stack pointer
	mov r0, #(CPSR_MODE_FIQ | CPSR_IRQ_INHIBIT | CPSR_FIQ_INHIBIT)
    8068:	e3a000d1 	mov	r0, #209	; 0xd1
/home/silhavyj/School/ZeroMate/examples/09-GPIO_interrupt/kernel/src/start.s:70
    msr cpsr_c, r0
    806c:	e121f000 	msr	CPSR_c, r0
/home/silhavyj/School/ZeroMate/examples/09-GPIO_interrupt/kernel/src/start.s:71
    mov sp, #0x6000
    8070:	e3a0da06 	mov	sp, #24576	; 0x6000
/home/silhavyj/School/ZeroMate/examples/09-GPIO_interrupt/kernel/src/start.s:74

	;@ a vracime se zpet do supervisor modu, SP si nastavime zpet na nasi hodnotu
    mov r0, #(CPSR_MODE_SVR | CPSR_IRQ_INHIBIT | CPSR_FIQ_INHIBIT)
    8074:	e3a000d3 	mov	r0, #211	; 0xd3
/home/silhavyj/School/ZeroMate/examples/09-GPIO_interrupt/kernel/src/start.s:75
    msr cpsr_c, r0
    8078:	e121f000 	msr	CPSR_c, r0
/home/silhavyj/School/ZeroMate/examples/09-GPIO_interrupt/kernel/src/start.s:76
    mov sp, #0x8000
    807c:	e3a0d902 	mov	sp, #32768	; 0x8000
/home/silhavyj/School/ZeroMate/examples/09-GPIO_interrupt/kernel/src/start.s:78

	bl _c_startup			;@ C startup kod (inicializace prostredi)
    8080:	eb000317 	bl	8ce4 <_c_startup>
/home/silhavyj/School/ZeroMate/examples/09-GPIO_interrupt/kernel/src/start.s:79
	bl _cpp_startup			;@ C++ startup kod (volani globalnich konstruktoru, ...)
    8084:	eb000330 	bl	8d4c <_cpp_startup>
/home/silhavyj/School/ZeroMate/examples/09-GPIO_interrupt/kernel/src/start.s:80
	bl _kernel_main			;@ skocime do hlavniho kodu jadra (v C)
    8088:	eb0002f4 	bl	8c60 <_kernel_main>
/home/silhavyj/School/ZeroMate/examples/09-GPIO_interrupt/kernel/src/start.s:81
	bl _cpp_shutdown		;@ C++ shutdown kod (volani globalnich destruktoru, ...)
    808c:	eb000344 	bl	8da4 <_cpp_shutdown>

00008090 <hang>:
hang():
/home/silhavyj/School/ZeroMate/examples/09-GPIO_interrupt/kernel/src/start.s:83
hang:
	b hang
    8090:	eafffffe 	b	8090 <hang>

00008094 <__cxa_guard_acquire>:
__cxa_guard_acquire():
/home/silhavyj/School/ZeroMate/examples/09-GPIO_interrupt/kernel/src/cxx.cpp:11
    extern "C" int __cxa_guard_acquire(__guard*);
    extern "C" void __cxa_guard_release(__guard*);
    extern "C" void __cxa_guard_abort(__guard*);

    extern "C" int __cxa_guard_acquire(__guard* g)
    {
    8094:	e52db004 	push	{fp}		; (str fp, [sp, #-4]!)
    8098:	e28db000 	add	fp, sp, #0
    809c:	e24dd00c 	sub	sp, sp, #12
    80a0:	e50b0008 	str	r0, [fp, #-8]
/home/silhavyj/School/ZeroMate/examples/09-GPIO_interrupt/kernel/src/cxx.cpp:12
        return !*(char*)(g);
    80a4:	e51b3008 	ldr	r3, [fp, #-8]
    80a8:	e5d33000 	ldrb	r3, [r3]
    80ac:	e3530000 	cmp	r3, #0
    80b0:	03a03001 	moveq	r3, #1
    80b4:	13a03000 	movne	r3, #0
    80b8:	e6ef3073 	uxtb	r3, r3
/home/silhavyj/School/ZeroMate/examples/09-GPIO_interrupt/kernel/src/cxx.cpp:13
    }
    80bc:	e1a00003 	mov	r0, r3
    80c0:	e28bd000 	add	sp, fp, #0
    80c4:	e49db004 	pop	{fp}		; (ldr fp, [sp], #4)
    80c8:	e12fff1e 	bx	lr

000080cc <__cxa_guard_release>:
__cxa_guard_release():
/home/silhavyj/School/ZeroMate/examples/09-GPIO_interrupt/kernel/src/cxx.cpp:16

    extern "C" void __cxa_guard_release(__guard* g)
    {
    80cc:	e52db004 	push	{fp}		; (str fp, [sp, #-4]!)
    80d0:	e28db000 	add	fp, sp, #0
    80d4:	e24dd00c 	sub	sp, sp, #12
    80d8:	e50b0008 	str	r0, [fp, #-8]
/home/silhavyj/School/ZeroMate/examples/09-GPIO_interrupt/kernel/src/cxx.cpp:17
        *(char*)g = 1;
    80dc:	e51b3008 	ldr	r3, [fp, #-8]
    80e0:	e3a02001 	mov	r2, #1
    80e4:	e5c32000 	strb	r2, [r3]
/home/silhavyj/School/ZeroMate/examples/09-GPIO_interrupt/kernel/src/cxx.cpp:18
    }
    80e8:	e320f000 	nop	{0}
    80ec:	e28bd000 	add	sp, fp, #0
    80f0:	e49db004 	pop	{fp}		; (ldr fp, [sp], #4)
    80f4:	e12fff1e 	bx	lr

000080f8 <__cxa_guard_abort>:
__cxa_guard_abort():
/home/silhavyj/School/ZeroMate/examples/09-GPIO_interrupt/kernel/src/cxx.cpp:21

    extern "C" void __cxa_guard_abort(__guard*)
    {
    80f8:	e52db004 	push	{fp}		; (str fp, [sp, #-4]!)
    80fc:	e28db000 	add	fp, sp, #0
    8100:	e24dd00c 	sub	sp, sp, #12
    8104:	e50b0008 	str	r0, [fp, #-8]
/home/silhavyj/School/ZeroMate/examples/09-GPIO_interrupt/kernel/src/cxx.cpp:22
    }
    8108:	e320f000 	nop	{0}
    810c:	e28bd000 	add	sp, fp, #0
    8110:	e49db004 	pop	{fp}		; (ldr fp, [sp], #4)
    8114:	e12fff1e 	bx	lr

00008118 <__dso_handle>:
__dso_handle():
/home/silhavyj/School/ZeroMate/examples/09-GPIO_interrupt/kernel/src/cxx.cpp:26
}

extern "C" void __dso_handle()
{
    8118:	e52db004 	push	{fp}		; (str fp, [sp, #-4]!)
    811c:	e28db000 	add	fp, sp, #0
/home/silhavyj/School/ZeroMate/examples/09-GPIO_interrupt/kernel/src/cxx.cpp:28
    // ignore dtors for now
}
    8120:	e320f000 	nop	{0}
    8124:	e28bd000 	add	sp, fp, #0
    8128:	e49db004 	pop	{fp}		; (ldr fp, [sp], #4)
    812c:	e12fff1e 	bx	lr

00008130 <__cxa_atexit>:
__cxa_atexit():
/home/silhavyj/School/ZeroMate/examples/09-GPIO_interrupt/kernel/src/cxx.cpp:31

extern "C" void __cxa_atexit()
{
    8130:	e52db004 	push	{fp}		; (str fp, [sp, #-4]!)
    8134:	e28db000 	add	fp, sp, #0
/home/silhavyj/School/ZeroMate/examples/09-GPIO_interrupt/kernel/src/cxx.cpp:33
    // ignore dtors for now
}
    8138:	e320f000 	nop	{0}
    813c:	e28bd000 	add	sp, fp, #0
    8140:	e49db004 	pop	{fp}		; (ldr fp, [sp], #4)
    8144:	e12fff1e 	bx	lr

00008148 <__cxa_pure_virtual>:
__cxa_pure_virtual():
/home/silhavyj/School/ZeroMate/examples/09-GPIO_interrupt/kernel/src/cxx.cpp:36

extern "C" void __cxa_pure_virtual()
{
    8148:	e52db004 	push	{fp}		; (str fp, [sp, #-4]!)
    814c:	e28db000 	add	fp, sp, #0
/home/silhavyj/School/ZeroMate/examples/09-GPIO_interrupt/kernel/src/cxx.cpp:38
    // pure virtual method called
}
    8150:	e320f000 	nop	{0}
    8154:	e28bd000 	add	sp, fp, #0
    8158:	e49db004 	pop	{fp}		; (ldr fp, [sp], #4)
    815c:	e12fff1e 	bx	lr

00008160 <__aeabi_unwind_cpp_pr1>:
__aeabi_unwind_cpp_pr1():
/home/silhavyj/School/ZeroMate/examples/09-GPIO_interrupt/kernel/src/cxx.cpp:41

extern "C" void __aeabi_unwind_cpp_pr1()
{
    8160:	e52db004 	push	{fp}		; (str fp, [sp, #-4]!)
    8164:	e28db000 	add	fp, sp, #0
/home/silhavyj/School/ZeroMate/examples/09-GPIO_interrupt/kernel/src/cxx.cpp:42 (discriminator 1)
    while (true)
    8168:	eafffffe 	b	8168 <__aeabi_unwind_cpp_pr1+0x8>

0000816c <_ZN13CGPIO_HandlerC1Ej>:
_ZN13CGPIO_HandlerC2Ej():
/home/silhavyj/School/ZeroMate/examples/09-GPIO_interrupt/kernel/src/drivers/gpio.cpp:6
#include <hal/peripherals.h>
#include <drivers/gpio.h>

CGPIO_Handler sGPIO(hal::GPIO_Base);

CGPIO_Handler::CGPIO_Handler(unsigned int gpio_base_addr)
    816c:	e52db004 	push	{fp}		; (str fp, [sp, #-4]!)
    8170:	e28db000 	add	fp, sp, #0
    8174:	e24dd00c 	sub	sp, sp, #12
    8178:	e50b0008 	str	r0, [fp, #-8]
    817c:	e50b100c 	str	r1, [fp, #-12]
/home/silhavyj/School/ZeroMate/examples/09-GPIO_interrupt/kernel/src/drivers/gpio.cpp:7
: mGPIO(reinterpret_cast<unsigned int*>(gpio_base_addr))
    8180:	e51b200c 	ldr	r2, [fp, #-12]
    8184:	e51b3008 	ldr	r3, [fp, #-8]
    8188:	e5832000 	str	r2, [r3]
/home/silhavyj/School/ZeroMate/examples/09-GPIO_interrupt/kernel/src/drivers/gpio.cpp:10
{
    //
}
    818c:	e51b3008 	ldr	r3, [fp, #-8]
    8190:	e1a00003 	mov	r0, r3
    8194:	e28bd000 	add	sp, fp, #0
    8198:	e49db004 	pop	{fp}		; (ldr fp, [sp], #4)
    819c:	e12fff1e 	bx	lr

000081a0 <_ZNK13CGPIO_Handler19Get_GPFSEL_LocationEjRjS0_>:
_ZNK13CGPIO_Handler19Get_GPFSEL_LocationEjRjS0_():
/home/silhavyj/School/ZeroMate/examples/09-GPIO_interrupt/kernel/src/drivers/gpio.cpp:13

bool CGPIO_Handler::Get_GPFSEL_Location(uint32_t pin, uint32_t& reg, uint32_t& bit_idx) const
{
    81a0:	e52db004 	push	{fp}		; (str fp, [sp, #-4]!)
    81a4:	e28db000 	add	fp, sp, #0
    81a8:	e24dd014 	sub	sp, sp, #20
    81ac:	e50b0008 	str	r0, [fp, #-8]
    81b0:	e50b100c 	str	r1, [fp, #-12]
    81b4:	e50b2010 	str	r2, [fp, #-16]
    81b8:	e50b3014 	str	r3, [fp, #-20]	; 0xffffffec
/home/silhavyj/School/ZeroMate/examples/09-GPIO_interrupt/kernel/src/drivers/gpio.cpp:14
    if (pin > hal::GPIO_Pin_Count)
    81bc:	e51b300c 	ldr	r3, [fp, #-12]
    81c0:	e3530036 	cmp	r3, #54	; 0x36
    81c4:	9a000001 	bls	81d0 <_ZNK13CGPIO_Handler19Get_GPFSEL_LocationEjRjS0_+0x30>
/home/silhavyj/School/ZeroMate/examples/09-GPIO_interrupt/kernel/src/drivers/gpio.cpp:15
        return false;
    81c8:	e3a03000 	mov	r3, #0
    81cc:	ea000033 	b	82a0 <_ZNK13CGPIO_Handler19Get_GPFSEL_LocationEjRjS0_+0x100>
/home/silhavyj/School/ZeroMate/examples/09-GPIO_interrupt/kernel/src/drivers/gpio.cpp:17

    switch (pin / 10)
    81d0:	e51b300c 	ldr	r3, [fp, #-12]
    81d4:	e59f20d4 	ldr	r2, [pc, #212]	; 82b0 <_ZNK13CGPIO_Handler19Get_GPFSEL_LocationEjRjS0_+0x110>
    81d8:	e0832392 	umull	r2, r3, r2, r3
    81dc:	e1a031a3 	lsr	r3, r3, #3
    81e0:	e3530005 	cmp	r3, #5
    81e4:	979ff103 	ldrls	pc, [pc, r3, lsl #2]
    81e8:	ea00001d 	b	8264 <_ZNK13CGPIO_Handler19Get_GPFSEL_LocationEjRjS0_+0xc4>
    81ec:	00008204 	andeq	r8, r0, r4, lsl #4
    81f0:	00008214 	andeq	r8, r0, r4, lsl r2
    81f4:	00008224 	andeq	r8, r0, r4, lsr #4
    81f8:	00008234 	andeq	r8, r0, r4, lsr r2
    81fc:	00008244 	andeq	r8, r0, r4, asr #4
    8200:	00008254 	andeq	r8, r0, r4, asr r2
/home/silhavyj/School/ZeroMate/examples/09-GPIO_interrupt/kernel/src/drivers/gpio.cpp:20
    {
        case 0:
            reg = static_cast<uint32_t>(hal::GPIO_Reg::GPFSEL0);
    8204:	e51b3010 	ldr	r3, [fp, #-16]
    8208:	e3a02000 	mov	r2, #0
    820c:	e5832000 	str	r2, [r3]
/home/silhavyj/School/ZeroMate/examples/09-GPIO_interrupt/kernel/src/drivers/gpio.cpp:21
            break;
    8210:	ea000013 	b	8264 <_ZNK13CGPIO_Handler19Get_GPFSEL_LocationEjRjS0_+0xc4>
/home/silhavyj/School/ZeroMate/examples/09-GPIO_interrupt/kernel/src/drivers/gpio.cpp:23
        case 1:
            reg = static_cast<uint32_t>(hal::GPIO_Reg::GPFSEL1);
    8214:	e51b3010 	ldr	r3, [fp, #-16]
    8218:	e3a02001 	mov	r2, #1
    821c:	e5832000 	str	r2, [r3]
/home/silhavyj/School/ZeroMate/examples/09-GPIO_interrupt/kernel/src/drivers/gpio.cpp:24
            break;
    8220:	ea00000f 	b	8264 <_ZNK13CGPIO_Handler19Get_GPFSEL_LocationEjRjS0_+0xc4>
/home/silhavyj/School/ZeroMate/examples/09-GPIO_interrupt/kernel/src/drivers/gpio.cpp:26
        case 2:
            reg = static_cast<uint32_t>(hal::GPIO_Reg::GPFSEL2);
    8224:	e51b3010 	ldr	r3, [fp, #-16]
    8228:	e3a02002 	mov	r2, #2
    822c:	e5832000 	str	r2, [r3]
/home/silhavyj/School/ZeroMate/examples/09-GPIO_interrupt/kernel/src/drivers/gpio.cpp:27
            break;
    8230:	ea00000b 	b	8264 <_ZNK13CGPIO_Handler19Get_GPFSEL_LocationEjRjS0_+0xc4>
/home/silhavyj/School/ZeroMate/examples/09-GPIO_interrupt/kernel/src/drivers/gpio.cpp:29
        case 3:
            reg = static_cast<uint32_t>(hal::GPIO_Reg::GPFSEL3);
    8234:	e51b3010 	ldr	r3, [fp, #-16]
    8238:	e3a02003 	mov	r2, #3
    823c:	e5832000 	str	r2, [r3]
/home/silhavyj/School/ZeroMate/examples/09-GPIO_interrupt/kernel/src/drivers/gpio.cpp:30
            break;
    8240:	ea000007 	b	8264 <_ZNK13CGPIO_Handler19Get_GPFSEL_LocationEjRjS0_+0xc4>
/home/silhavyj/School/ZeroMate/examples/09-GPIO_interrupt/kernel/src/drivers/gpio.cpp:32
        case 4:
            reg = static_cast<uint32_t>(hal::GPIO_Reg::GPFSEL4);
    8244:	e51b3010 	ldr	r3, [fp, #-16]
    8248:	e3a02004 	mov	r2, #4
    824c:	e5832000 	str	r2, [r3]
/home/silhavyj/School/ZeroMate/examples/09-GPIO_interrupt/kernel/src/drivers/gpio.cpp:33
            break;
    8250:	ea000003 	b	8264 <_ZNK13CGPIO_Handler19Get_GPFSEL_LocationEjRjS0_+0xc4>
/home/silhavyj/School/ZeroMate/examples/09-GPIO_interrupt/kernel/src/drivers/gpio.cpp:35
        case 5:
            reg = static_cast<uint32_t>(hal::GPIO_Reg::GPFSEL5);
    8254:	e51b3010 	ldr	r3, [fp, #-16]
    8258:	e3a02005 	mov	r2, #5
    825c:	e5832000 	str	r2, [r3]
/home/silhavyj/School/ZeroMate/examples/09-GPIO_interrupt/kernel/src/drivers/gpio.cpp:36
            break;
    8260:	e320f000 	nop	{0}
/home/silhavyj/School/ZeroMate/examples/09-GPIO_interrupt/kernel/src/drivers/gpio.cpp:39
    }

    bit_idx = (pin % 10) * 3;
    8264:	e51b100c 	ldr	r1, [fp, #-12]
    8268:	e59f3040 	ldr	r3, [pc, #64]	; 82b0 <_ZNK13CGPIO_Handler19Get_GPFSEL_LocationEjRjS0_+0x110>
    826c:	e0832193 	umull	r2, r3, r3, r1
    8270:	e1a021a3 	lsr	r2, r3, #3
    8274:	e1a03002 	mov	r3, r2
    8278:	e1a03103 	lsl	r3, r3, #2
    827c:	e0833002 	add	r3, r3, r2
    8280:	e1a03083 	lsl	r3, r3, #1
    8284:	e0412003 	sub	r2, r1, r3
    8288:	e1a03002 	mov	r3, r2
    828c:	e1a03083 	lsl	r3, r3, #1
    8290:	e0832002 	add	r2, r3, r2
    8294:	e51b3014 	ldr	r3, [fp, #-20]	; 0xffffffec
    8298:	e5832000 	str	r2, [r3]
/home/silhavyj/School/ZeroMate/examples/09-GPIO_interrupt/kernel/src/drivers/gpio.cpp:41

    return true;
    829c:	e3a03001 	mov	r3, #1
/home/silhavyj/School/ZeroMate/examples/09-GPIO_interrupt/kernel/src/drivers/gpio.cpp:42
}
    82a0:	e1a00003 	mov	r0, r3
    82a4:	e28bd000 	add	sp, fp, #0
    82a8:	e49db004 	pop	{fp}		; (ldr fp, [sp], #4)
    82ac:	e12fff1e 	bx	lr
    82b0:	cccccccd 	stclgt	12, cr12, [ip], {205}	; 0xcd

000082b4 <_ZNK13CGPIO_Handler18Get_GPCLR_LocationEjRjS0_>:
_ZNK13CGPIO_Handler18Get_GPCLR_LocationEjRjS0_():
/home/silhavyj/School/ZeroMate/examples/09-GPIO_interrupt/kernel/src/drivers/gpio.cpp:45

bool CGPIO_Handler::Get_GPCLR_Location(uint32_t pin, uint32_t& reg, uint32_t& bit_idx) const
{
    82b4:	e52db004 	push	{fp}		; (str fp, [sp, #-4]!)
    82b8:	e28db000 	add	fp, sp, #0
    82bc:	e24dd014 	sub	sp, sp, #20
    82c0:	e50b0008 	str	r0, [fp, #-8]
    82c4:	e50b100c 	str	r1, [fp, #-12]
    82c8:	e50b2010 	str	r2, [fp, #-16]
    82cc:	e50b3014 	str	r3, [fp, #-20]	; 0xffffffec
/home/silhavyj/School/ZeroMate/examples/09-GPIO_interrupt/kernel/src/drivers/gpio.cpp:46
    if (pin > hal::GPIO_Pin_Count)
    82d0:	e51b300c 	ldr	r3, [fp, #-12]
    82d4:	e3530036 	cmp	r3, #54	; 0x36
    82d8:	9a000001 	bls	82e4 <_ZNK13CGPIO_Handler18Get_GPCLR_LocationEjRjS0_+0x30>
/home/silhavyj/School/ZeroMate/examples/09-GPIO_interrupt/kernel/src/drivers/gpio.cpp:47
        return false;
    82dc:	e3a03000 	mov	r3, #0
    82e0:	ea00000c 	b	8318 <_ZNK13CGPIO_Handler18Get_GPCLR_LocationEjRjS0_+0x64>
/home/silhavyj/School/ZeroMate/examples/09-GPIO_interrupt/kernel/src/drivers/gpio.cpp:49

    reg = static_cast<uint32_t>((pin < 32) ? hal::GPIO_Reg::GPCLR0 : hal::GPIO_Reg::GPCLR1);
    82e4:	e51b300c 	ldr	r3, [fp, #-12]
    82e8:	e353001f 	cmp	r3, #31
    82ec:	8a000001 	bhi	82f8 <_ZNK13CGPIO_Handler18Get_GPCLR_LocationEjRjS0_+0x44>
/home/silhavyj/School/ZeroMate/examples/09-GPIO_interrupt/kernel/src/drivers/gpio.cpp:49 (discriminator 1)
    82f0:	e3a0200a 	mov	r2, #10
    82f4:	ea000000 	b	82fc <_ZNK13CGPIO_Handler18Get_GPCLR_LocationEjRjS0_+0x48>
/home/silhavyj/School/ZeroMate/examples/09-GPIO_interrupt/kernel/src/drivers/gpio.cpp:49 (discriminator 2)
    82f8:	e3a0200b 	mov	r2, #11
/home/silhavyj/School/ZeroMate/examples/09-GPIO_interrupt/kernel/src/drivers/gpio.cpp:49 (discriminator 4)
    82fc:	e51b3010 	ldr	r3, [fp, #-16]
    8300:	e5832000 	str	r2, [r3]
/home/silhavyj/School/ZeroMate/examples/09-GPIO_interrupt/kernel/src/drivers/gpio.cpp:50 (discriminator 4)
    bit_idx = pin % 32;
    8304:	e51b300c 	ldr	r3, [fp, #-12]
    8308:	e203201f 	and	r2, r3, #31
    830c:	e51b3014 	ldr	r3, [fp, #-20]	; 0xffffffec
    8310:	e5832000 	str	r2, [r3]
/home/silhavyj/School/ZeroMate/examples/09-GPIO_interrupt/kernel/src/drivers/gpio.cpp:52 (discriminator 4)

    return true;
    8314:	e3a03001 	mov	r3, #1
/home/silhavyj/School/ZeroMate/examples/09-GPIO_interrupt/kernel/src/drivers/gpio.cpp:53
}
    8318:	e1a00003 	mov	r0, r3
    831c:	e28bd000 	add	sp, fp, #0
    8320:	e49db004 	pop	{fp}		; (ldr fp, [sp], #4)
    8324:	e12fff1e 	bx	lr

00008328 <_ZNK13CGPIO_Handler18Get_GPSET_LocationEjRjS0_>:
_ZNK13CGPIO_Handler18Get_GPSET_LocationEjRjS0_():
/home/silhavyj/School/ZeroMate/examples/09-GPIO_interrupt/kernel/src/drivers/gpio.cpp:56

bool CGPIO_Handler::Get_GPSET_Location(uint32_t pin, uint32_t& reg, uint32_t& bit_idx) const
{
    8328:	e52db004 	push	{fp}		; (str fp, [sp, #-4]!)
    832c:	e28db000 	add	fp, sp, #0
    8330:	e24dd014 	sub	sp, sp, #20
    8334:	e50b0008 	str	r0, [fp, #-8]
    8338:	e50b100c 	str	r1, [fp, #-12]
    833c:	e50b2010 	str	r2, [fp, #-16]
    8340:	e50b3014 	str	r3, [fp, #-20]	; 0xffffffec
/home/silhavyj/School/ZeroMate/examples/09-GPIO_interrupt/kernel/src/drivers/gpio.cpp:57
    if (pin > hal::GPIO_Pin_Count)
    8344:	e51b300c 	ldr	r3, [fp, #-12]
    8348:	e3530036 	cmp	r3, #54	; 0x36
    834c:	9a000001 	bls	8358 <_ZNK13CGPIO_Handler18Get_GPSET_LocationEjRjS0_+0x30>
/home/silhavyj/School/ZeroMate/examples/09-GPIO_interrupt/kernel/src/drivers/gpio.cpp:58
        return false;
    8350:	e3a03000 	mov	r3, #0
    8354:	ea00000c 	b	838c <_ZNK13CGPIO_Handler18Get_GPSET_LocationEjRjS0_+0x64>
/home/silhavyj/School/ZeroMate/examples/09-GPIO_interrupt/kernel/src/drivers/gpio.cpp:60

    reg = static_cast<uint32_t>((pin < 32) ? hal::GPIO_Reg::GPSET0 : hal::GPIO_Reg::GPSET1);
    8358:	e51b300c 	ldr	r3, [fp, #-12]
    835c:	e353001f 	cmp	r3, #31
    8360:	8a000001 	bhi	836c <_ZNK13CGPIO_Handler18Get_GPSET_LocationEjRjS0_+0x44>
/home/silhavyj/School/ZeroMate/examples/09-GPIO_interrupt/kernel/src/drivers/gpio.cpp:60 (discriminator 1)
    8364:	e3a02007 	mov	r2, #7
    8368:	ea000000 	b	8370 <_ZNK13CGPIO_Handler18Get_GPSET_LocationEjRjS0_+0x48>
/home/silhavyj/School/ZeroMate/examples/09-GPIO_interrupt/kernel/src/drivers/gpio.cpp:60 (discriminator 2)
    836c:	e3a02008 	mov	r2, #8
/home/silhavyj/School/ZeroMate/examples/09-GPIO_interrupt/kernel/src/drivers/gpio.cpp:60 (discriminator 4)
    8370:	e51b3010 	ldr	r3, [fp, #-16]
    8374:	e5832000 	str	r2, [r3]
/home/silhavyj/School/ZeroMate/examples/09-GPIO_interrupt/kernel/src/drivers/gpio.cpp:61 (discriminator 4)
    bit_idx = pin % 32;
    8378:	e51b300c 	ldr	r3, [fp, #-12]
    837c:	e203201f 	and	r2, r3, #31
    8380:	e51b3014 	ldr	r3, [fp, #-20]	; 0xffffffec
    8384:	e5832000 	str	r2, [r3]
/home/silhavyj/School/ZeroMate/examples/09-GPIO_interrupt/kernel/src/drivers/gpio.cpp:63 (discriminator 4)

    return true;
    8388:	e3a03001 	mov	r3, #1
/home/silhavyj/School/ZeroMate/examples/09-GPIO_interrupt/kernel/src/drivers/gpio.cpp:64
}
    838c:	e1a00003 	mov	r0, r3
    8390:	e28bd000 	add	sp, fp, #0
    8394:	e49db004 	pop	{fp}		; (ldr fp, [sp], #4)
    8398:	e12fff1e 	bx	lr

0000839c <_ZNK13CGPIO_Handler18Get_GPLEV_LocationEjRjS0_>:
_ZNK13CGPIO_Handler18Get_GPLEV_LocationEjRjS0_():
/home/silhavyj/School/ZeroMate/examples/09-GPIO_interrupt/kernel/src/drivers/gpio.cpp:67

bool CGPIO_Handler::Get_GPLEV_Location(uint32_t pin, uint32_t& reg, uint32_t& bit_idx) const
{
    839c:	e52db004 	push	{fp}		; (str fp, [sp, #-4]!)
    83a0:	e28db000 	add	fp, sp, #0
    83a4:	e24dd014 	sub	sp, sp, #20
    83a8:	e50b0008 	str	r0, [fp, #-8]
    83ac:	e50b100c 	str	r1, [fp, #-12]
    83b0:	e50b2010 	str	r2, [fp, #-16]
    83b4:	e50b3014 	str	r3, [fp, #-20]	; 0xffffffec
/home/silhavyj/School/ZeroMate/examples/09-GPIO_interrupt/kernel/src/drivers/gpio.cpp:68
    if (pin > hal::GPIO_Pin_Count)
    83b8:	e51b300c 	ldr	r3, [fp, #-12]
    83bc:	e3530036 	cmp	r3, #54	; 0x36
    83c0:	9a000001 	bls	83cc <_ZNK13CGPIO_Handler18Get_GPLEV_LocationEjRjS0_+0x30>
/home/silhavyj/School/ZeroMate/examples/09-GPIO_interrupt/kernel/src/drivers/gpio.cpp:69
        return false;
    83c4:	e3a03000 	mov	r3, #0
    83c8:	ea00000c 	b	8400 <_ZNK13CGPIO_Handler18Get_GPLEV_LocationEjRjS0_+0x64>
/home/silhavyj/School/ZeroMate/examples/09-GPIO_interrupt/kernel/src/drivers/gpio.cpp:71

    reg = static_cast<uint32_t>((pin < 32) ? hal::GPIO_Reg::GPLEV0 : hal::GPIO_Reg::GPLEV1);
    83cc:	e51b300c 	ldr	r3, [fp, #-12]
    83d0:	e353001f 	cmp	r3, #31
    83d4:	8a000001 	bhi	83e0 <_ZNK13CGPIO_Handler18Get_GPLEV_LocationEjRjS0_+0x44>
/home/silhavyj/School/ZeroMate/examples/09-GPIO_interrupt/kernel/src/drivers/gpio.cpp:71 (discriminator 1)
    83d8:	e3a0200d 	mov	r2, #13
    83dc:	ea000000 	b	83e4 <_ZNK13CGPIO_Handler18Get_GPLEV_LocationEjRjS0_+0x48>
/home/silhavyj/School/ZeroMate/examples/09-GPIO_interrupt/kernel/src/drivers/gpio.cpp:71 (discriminator 2)
    83e0:	e3a0200e 	mov	r2, #14
/home/silhavyj/School/ZeroMate/examples/09-GPIO_interrupt/kernel/src/drivers/gpio.cpp:71 (discriminator 4)
    83e4:	e51b3010 	ldr	r3, [fp, #-16]
    83e8:	e5832000 	str	r2, [r3]
/home/silhavyj/School/ZeroMate/examples/09-GPIO_interrupt/kernel/src/drivers/gpio.cpp:72 (discriminator 4)
    bit_idx = pin % 32;
    83ec:	e51b300c 	ldr	r3, [fp, #-12]
    83f0:	e203201f 	and	r2, r3, #31
    83f4:	e51b3014 	ldr	r3, [fp, #-20]	; 0xffffffec
    83f8:	e5832000 	str	r2, [r3]
/home/silhavyj/School/ZeroMate/examples/09-GPIO_interrupt/kernel/src/drivers/gpio.cpp:74 (discriminator 4)

    return true;
    83fc:	e3a03001 	mov	r3, #1
/home/silhavyj/School/ZeroMate/examples/09-GPIO_interrupt/kernel/src/drivers/gpio.cpp:75
}
    8400:	e1a00003 	mov	r0, r3
    8404:	e28bd000 	add	sp, fp, #0
    8408:	e49db004 	pop	{fp}		; (ldr fp, [sp], #4)
    840c:	e12fff1e 	bx	lr

00008410 <_ZN13CGPIO_Handler17Set_GPIO_FunctionEj14NGPIO_Function>:
_ZN13CGPIO_Handler17Set_GPIO_FunctionEj14NGPIO_Function():
/home/silhavyj/School/ZeroMate/examples/09-GPIO_interrupt/kernel/src/drivers/gpio.cpp:78

void CGPIO_Handler::Set_GPIO_Function(uint32_t pin, NGPIO_Function func)
{
    8410:	e92d4800 	push	{fp, lr}
    8414:	e28db004 	add	fp, sp, #4
    8418:	e24dd018 	sub	sp, sp, #24
    841c:	e50b0010 	str	r0, [fp, #-16]
    8420:	e50b1014 	str	r1, [fp, #-20]	; 0xffffffec
    8424:	e1a03002 	mov	r3, r2
    8428:	e54b3015 	strb	r3, [fp, #-21]	; 0xffffffeb
/home/silhavyj/School/ZeroMate/examples/09-GPIO_interrupt/kernel/src/drivers/gpio.cpp:80
    uint32_t reg, bit;
    if (!Get_GPFSEL_Location(pin, reg, bit))
    842c:	e24b300c 	sub	r3, fp, #12
    8430:	e24b2008 	sub	r2, fp, #8
    8434:	e51b1014 	ldr	r1, [fp, #-20]	; 0xffffffec
    8438:	e51b0010 	ldr	r0, [fp, #-16]
    843c:	ebffff57 	bl	81a0 <_ZNK13CGPIO_Handler19Get_GPFSEL_LocationEjRjS0_>
    8440:	e1a03000 	mov	r3, r0
    8444:	e2233001 	eor	r3, r3, #1
    8448:	e6ef3073 	uxtb	r3, r3
    844c:	e3530000 	cmp	r3, #0
    8450:	1a000015 	bne	84ac <_ZN13CGPIO_Handler17Set_GPIO_FunctionEj14NGPIO_Function+0x9c>
/home/silhavyj/School/ZeroMate/examples/09-GPIO_interrupt/kernel/src/drivers/gpio.cpp:83
        return;

    mGPIO[reg] = (mGPIO[reg] & (~static_cast<unsigned int>(7 << bit))) | (static_cast<unsigned int>(func) << bit);
    8454:	e51b3010 	ldr	r3, [fp, #-16]
    8458:	e5932000 	ldr	r2, [r3]
    845c:	e51b3008 	ldr	r3, [fp, #-8]
    8460:	e1a03103 	lsl	r3, r3, #2
    8464:	e0823003 	add	r3, r2, r3
    8468:	e5932000 	ldr	r2, [r3]
    846c:	e51b300c 	ldr	r3, [fp, #-12]
    8470:	e3a01007 	mov	r1, #7
    8474:	e1a03311 	lsl	r3, r1, r3
    8478:	e1e03003 	mvn	r3, r3
    847c:	e0021003 	and	r1, r2, r3
    8480:	e55b2015 	ldrb	r2, [fp, #-21]	; 0xffffffeb
    8484:	e51b300c 	ldr	r3, [fp, #-12]
    8488:	e1a02312 	lsl	r2, r2, r3
    848c:	e51b3010 	ldr	r3, [fp, #-16]
    8490:	e5930000 	ldr	r0, [r3]
    8494:	e51b3008 	ldr	r3, [fp, #-8]
    8498:	e1a03103 	lsl	r3, r3, #2
    849c:	e0803003 	add	r3, r0, r3
    84a0:	e1812002 	orr	r2, r1, r2
    84a4:	e5832000 	str	r2, [r3]
    84a8:	ea000000 	b	84b0 <_ZN13CGPIO_Handler17Set_GPIO_FunctionEj14NGPIO_Function+0xa0>
/home/silhavyj/School/ZeroMate/examples/09-GPIO_interrupt/kernel/src/drivers/gpio.cpp:81
        return;
    84ac:	e320f000 	nop	{0}
/home/silhavyj/School/ZeroMate/examples/09-GPIO_interrupt/kernel/src/drivers/gpio.cpp:84
}
    84b0:	e24bd004 	sub	sp, fp, #4
    84b4:	e8bd8800 	pop	{fp, pc}

000084b8 <_ZNK13CGPIO_Handler17Get_GPIO_FunctionEj>:
_ZNK13CGPIO_Handler17Get_GPIO_FunctionEj():
/home/silhavyj/School/ZeroMate/examples/09-GPIO_interrupt/kernel/src/drivers/gpio.cpp:87

NGPIO_Function CGPIO_Handler::Get_GPIO_Function(uint32_t pin) const
{
    84b8:	e92d4800 	push	{fp, lr}
    84bc:	e28db004 	add	fp, sp, #4
    84c0:	e24dd010 	sub	sp, sp, #16
    84c4:	e50b0010 	str	r0, [fp, #-16]
    84c8:	e50b1014 	str	r1, [fp, #-20]	; 0xffffffec
/home/silhavyj/School/ZeroMate/examples/09-GPIO_interrupt/kernel/src/drivers/gpio.cpp:89
    uint32_t reg, bit;
    if (!Get_GPFSEL_Location(pin, reg, bit))
    84cc:	e24b300c 	sub	r3, fp, #12
    84d0:	e24b2008 	sub	r2, fp, #8
    84d4:	e51b1014 	ldr	r1, [fp, #-20]	; 0xffffffec
    84d8:	e51b0010 	ldr	r0, [fp, #-16]
    84dc:	ebffff2f 	bl	81a0 <_ZNK13CGPIO_Handler19Get_GPFSEL_LocationEjRjS0_>
    84e0:	e1a03000 	mov	r3, r0
    84e4:	e2233001 	eor	r3, r3, #1
    84e8:	e6ef3073 	uxtb	r3, r3
    84ec:	e3530000 	cmp	r3, #0
    84f0:	0a000001 	beq	84fc <_ZNK13CGPIO_Handler17Get_GPIO_FunctionEj+0x44>
/home/silhavyj/School/ZeroMate/examples/09-GPIO_interrupt/kernel/src/drivers/gpio.cpp:90
        return NGPIO_Function::Unspecified;
    84f4:	e3a03008 	mov	r3, #8
    84f8:	ea00000a 	b	8528 <_ZNK13CGPIO_Handler17Get_GPIO_FunctionEj+0x70>
/home/silhavyj/School/ZeroMate/examples/09-GPIO_interrupt/kernel/src/drivers/gpio.cpp:92

    return static_cast<NGPIO_Function>((mGPIO[reg] >> bit) & 7);
    84fc:	e51b3010 	ldr	r3, [fp, #-16]
    8500:	e5932000 	ldr	r2, [r3]
    8504:	e51b3008 	ldr	r3, [fp, #-8]
    8508:	e1a03103 	lsl	r3, r3, #2
    850c:	e0823003 	add	r3, r2, r3
    8510:	e5932000 	ldr	r2, [r3]
    8514:	e51b300c 	ldr	r3, [fp, #-12]
    8518:	e1a03332 	lsr	r3, r2, r3
    851c:	e6ef3073 	uxtb	r3, r3
    8520:	e2033007 	and	r3, r3, #7
    8524:	e6ef3073 	uxtb	r3, r3
/home/silhavyj/School/ZeroMate/examples/09-GPIO_interrupt/kernel/src/drivers/gpio.cpp:93 (discriminator 1)
}
    8528:	e1a00003 	mov	r0, r3
    852c:	e24bd004 	sub	sp, fp, #4
    8530:	e8bd8800 	pop	{fp, pc}

00008534 <_ZN13CGPIO_Handler19Enable_Event_DetectEj20NGPIO_Interrupt_Type>:
_ZN13CGPIO_Handler19Enable_Event_DetectEj20NGPIO_Interrupt_Type():
/home/silhavyj/School/ZeroMate/examples/09-GPIO_interrupt/kernel/src/drivers/gpio.cpp:96

void CGPIO_Handler::Enable_Event_Detect(uint32_t pin, NGPIO_Interrupt_Type type)
{
    8534:	e92d4800 	push	{fp, lr}
    8538:	e28db004 	add	fp, sp, #4
    853c:	e24dd020 	sub	sp, sp, #32
    8540:	e50b0010 	str	r0, [fp, #-16]
    8544:	e50b1014 	str	r1, [fp, #-20]	; 0xffffffec
    8548:	e50b2018 	str	r2, [fp, #-24]	; 0xffffffe8
/home/silhavyj/School/ZeroMate/examples/09-GPIO_interrupt/kernel/src/drivers/gpio.cpp:98
    uint32_t reg, bit;
    if (!Get_GP_IRQ_Detect_Location(pin, type, reg, bit))
    854c:	e24b2008 	sub	r2, fp, #8
    8550:	e24b300c 	sub	r3, fp, #12
    8554:	e58d3000 	str	r3, [sp]
    8558:	e1a03002 	mov	r3, r2
    855c:	e51b2018 	ldr	r2, [fp, #-24]	; 0xffffffe8
    8560:	e51b1014 	ldr	r1, [fp, #-20]	; 0xffffffec
    8564:	e51b0010 	ldr	r0, [fp, #-16]
    8568:	eb000012 	bl	85b8 <_ZNK13CGPIO_Handler26Get_GP_IRQ_Detect_LocationEj20NGPIO_Interrupt_TypeRjS1_>
    856c:	e1a03000 	mov	r3, r0
    8570:	e2233001 	eor	r3, r3, #1
    8574:	e6ef3073 	uxtb	r3, r3
    8578:	e3530000 	cmp	r3, #0
    857c:	1a00000a 	bne	85ac <_ZN13CGPIO_Handler19Enable_Event_DetectEj20NGPIO_Interrupt_Type+0x78>
/home/silhavyj/School/ZeroMate/examples/09-GPIO_interrupt/kernel/src/drivers/gpio.cpp:101
        return;

    mGPIO[reg] = (1 << bit);
    8580:	e51b300c 	ldr	r3, [fp, #-12]
    8584:	e3a02001 	mov	r2, #1
    8588:	e1a01312 	lsl	r1, r2, r3
    858c:	e51b3010 	ldr	r3, [fp, #-16]
    8590:	e5932000 	ldr	r2, [r3]
    8594:	e51b3008 	ldr	r3, [fp, #-8]
    8598:	e1a03103 	lsl	r3, r3, #2
    859c:	e0823003 	add	r3, r2, r3
    85a0:	e1a02001 	mov	r2, r1
    85a4:	e5832000 	str	r2, [r3]
    85a8:	ea000000 	b	85b0 <_ZN13CGPIO_Handler19Enable_Event_DetectEj20NGPIO_Interrupt_Type+0x7c>
/home/silhavyj/School/ZeroMate/examples/09-GPIO_interrupt/kernel/src/drivers/gpio.cpp:99
        return;
    85ac:	e320f000 	nop	{0}
/home/silhavyj/School/ZeroMate/examples/09-GPIO_interrupt/kernel/src/drivers/gpio.cpp:108
    // TODO: vyresit tohle trochu lepe
    // sInterruptCtl.Enable_IRQ(hal::IRQ_Source::GPIO_0);
    // sInterruptCtl.Enable_IRQ(hal::IRQ_Source::GPIO_1);
    // sInterruptCtl.Enable_IRQ(hal::IRQ_Source::GPIO_2);
    // sInterruptCtl.Enable_IRQ(hal::IRQ_Source::GPIO_3);
}
    85b0:	e24bd004 	sub	sp, fp, #4
    85b4:	e8bd8800 	pop	{fp, pc}

000085b8 <_ZNK13CGPIO_Handler26Get_GP_IRQ_Detect_LocationEj20NGPIO_Interrupt_TypeRjS1_>:
_ZNK13CGPIO_Handler26Get_GP_IRQ_Detect_LocationEj20NGPIO_Interrupt_TypeRjS1_():
/home/silhavyj/School/ZeroMate/examples/09-GPIO_interrupt/kernel/src/drivers/gpio.cpp:111

bool CGPIO_Handler::Get_GP_IRQ_Detect_Location(uint32_t pin, NGPIO_Interrupt_Type type, uint32_t& reg, uint32_t& bit_idx) const
{
    85b8:	e52db004 	push	{fp}		; (str fp, [sp, #-4]!)
    85bc:	e28db000 	add	fp, sp, #0
    85c0:	e24dd014 	sub	sp, sp, #20
    85c4:	e50b0008 	str	r0, [fp, #-8]
    85c8:	e50b100c 	str	r1, [fp, #-12]
    85cc:	e50b2010 	str	r2, [fp, #-16]
    85d0:	e50b3014 	str	r3, [fp, #-20]	; 0xffffffec
/home/silhavyj/School/ZeroMate/examples/09-GPIO_interrupt/kernel/src/drivers/gpio.cpp:112
    if (pin > hal::GPIO_Pin_Count)
    85d4:	e51b300c 	ldr	r3, [fp, #-12]
    85d8:	e3530036 	cmp	r3, #54	; 0x36
    85dc:	9a000001 	bls	85e8 <_ZNK13CGPIO_Handler26Get_GP_IRQ_Detect_LocationEj20NGPIO_Interrupt_TypeRjS1_+0x30>
/home/silhavyj/School/ZeroMate/examples/09-GPIO_interrupt/kernel/src/drivers/gpio.cpp:113
        return false;
    85e0:	e3a03000 	mov	r3, #0
    85e4:	ea000032 	b	86b4 <_ZNK13CGPIO_Handler26Get_GP_IRQ_Detect_LocationEj20NGPIO_Interrupt_TypeRjS1_+0xfc>
/home/silhavyj/School/ZeroMate/examples/09-GPIO_interrupt/kernel/src/drivers/gpio.cpp:115

    bit_idx = pin % 32;
    85e8:	e51b300c 	ldr	r3, [fp, #-12]
    85ec:	e203201f 	and	r2, r3, #31
    85f0:	e59b3004 	ldr	r3, [fp, #4]
    85f4:	e5832000 	str	r2, [r3]
    85f8:	e51b3010 	ldr	r3, [fp, #-16]
    85fc:	e3530003 	cmp	r3, #3
    8600:	979ff103 	ldrls	pc, [pc, r3, lsl #2]
    8604:	ea000027 	b	86a8 <_ZNK13CGPIO_Handler26Get_GP_IRQ_Detect_LocationEj20NGPIO_Interrupt_TypeRjS1_+0xf0>
    8608:	00008618 	andeq	r8, r0, r8, lsl r6
    860c:	0000863c 	andeq	r8, r0, ip, lsr r6
    8610:	00008660 	andeq	r8, r0, r0, ror #12
    8614:	00008684 	andeq	r8, r0, r4, lsl #13
/home/silhavyj/School/ZeroMate/examples/09-GPIO_interrupt/kernel/src/drivers/gpio.cpp:120

    switch (type)
    {
        case NGPIO_Interrupt_Type::Rising_Edge:
            reg = static_cast<uint32_t>((pin < 32) ? hal::GPIO_Reg::GPREN0 : hal::GPIO_Reg::GPREN1);
    8618:	e51b300c 	ldr	r3, [fp, #-12]
    861c:	e353001f 	cmp	r3, #31
    8620:	8a000001 	bhi	862c <_ZNK13CGPIO_Handler26Get_GP_IRQ_Detect_LocationEj20NGPIO_Interrupt_TypeRjS1_+0x74>
/home/silhavyj/School/ZeroMate/examples/09-GPIO_interrupt/kernel/src/drivers/gpio.cpp:120 (discriminator 1)
    8624:	e3a02013 	mov	r2, #19
    8628:	ea000000 	b	8630 <_ZNK13CGPIO_Handler26Get_GP_IRQ_Detect_LocationEj20NGPIO_Interrupt_TypeRjS1_+0x78>
/home/silhavyj/School/ZeroMate/examples/09-GPIO_interrupt/kernel/src/drivers/gpio.cpp:120 (discriminator 2)
    862c:	e3a02014 	mov	r2, #20
/home/silhavyj/School/ZeroMate/examples/09-GPIO_interrupt/kernel/src/drivers/gpio.cpp:120 (discriminator 4)
    8630:	e51b3014 	ldr	r3, [fp, #-20]	; 0xffffffec
    8634:	e5832000 	str	r2, [r3]
/home/silhavyj/School/ZeroMate/examples/09-GPIO_interrupt/kernel/src/drivers/gpio.cpp:121 (discriminator 4)
            break;
    8638:	ea00001c 	b	86b0 <_ZNK13CGPIO_Handler26Get_GP_IRQ_Detect_LocationEj20NGPIO_Interrupt_TypeRjS1_+0xf8>
/home/silhavyj/School/ZeroMate/examples/09-GPIO_interrupt/kernel/src/drivers/gpio.cpp:123
        case NGPIO_Interrupt_Type::Falling_Edge:
            reg = static_cast<uint32_t>((pin < 32) ? hal::GPIO_Reg::GPFEN0 : hal::GPIO_Reg::GPFEN1);
    863c:	e51b300c 	ldr	r3, [fp, #-12]
    8640:	e353001f 	cmp	r3, #31
    8644:	8a000001 	bhi	8650 <_ZNK13CGPIO_Handler26Get_GP_IRQ_Detect_LocationEj20NGPIO_Interrupt_TypeRjS1_+0x98>
/home/silhavyj/School/ZeroMate/examples/09-GPIO_interrupt/kernel/src/drivers/gpio.cpp:123 (discriminator 1)
    8648:	e3a02016 	mov	r2, #22
    864c:	ea000000 	b	8654 <_ZNK13CGPIO_Handler26Get_GP_IRQ_Detect_LocationEj20NGPIO_Interrupt_TypeRjS1_+0x9c>
/home/silhavyj/School/ZeroMate/examples/09-GPIO_interrupt/kernel/src/drivers/gpio.cpp:123 (discriminator 2)
    8650:	e3a02017 	mov	r2, #23
/home/silhavyj/School/ZeroMate/examples/09-GPIO_interrupt/kernel/src/drivers/gpio.cpp:123 (discriminator 4)
    8654:	e51b3014 	ldr	r3, [fp, #-20]	; 0xffffffec
    8658:	e5832000 	str	r2, [r3]
/home/silhavyj/School/ZeroMate/examples/09-GPIO_interrupt/kernel/src/drivers/gpio.cpp:124 (discriminator 4)
            break;
    865c:	ea000013 	b	86b0 <_ZNK13CGPIO_Handler26Get_GP_IRQ_Detect_LocationEj20NGPIO_Interrupt_TypeRjS1_+0xf8>
/home/silhavyj/School/ZeroMate/examples/09-GPIO_interrupt/kernel/src/drivers/gpio.cpp:126
        case NGPIO_Interrupt_Type::High:
            reg = static_cast<uint32_t>((pin < 32) ? hal::GPIO_Reg::GPHEN0 : hal::GPIO_Reg::GPHEN1);
    8660:	e51b300c 	ldr	r3, [fp, #-12]
    8664:	e353001f 	cmp	r3, #31
    8668:	8a000001 	bhi	8674 <_ZNK13CGPIO_Handler26Get_GP_IRQ_Detect_LocationEj20NGPIO_Interrupt_TypeRjS1_+0xbc>
/home/silhavyj/School/ZeroMate/examples/09-GPIO_interrupt/kernel/src/drivers/gpio.cpp:126 (discriminator 1)
    866c:	e3a02019 	mov	r2, #25
    8670:	ea000000 	b	8678 <_ZNK13CGPIO_Handler26Get_GP_IRQ_Detect_LocationEj20NGPIO_Interrupt_TypeRjS1_+0xc0>
/home/silhavyj/School/ZeroMate/examples/09-GPIO_interrupt/kernel/src/drivers/gpio.cpp:126 (discriminator 2)
    8674:	e3a0201a 	mov	r2, #26
/home/silhavyj/School/ZeroMate/examples/09-GPIO_interrupt/kernel/src/drivers/gpio.cpp:126 (discriminator 4)
    8678:	e51b3014 	ldr	r3, [fp, #-20]	; 0xffffffec
    867c:	e5832000 	str	r2, [r3]
/home/silhavyj/School/ZeroMate/examples/09-GPIO_interrupt/kernel/src/drivers/gpio.cpp:127 (discriminator 4)
            break;
    8680:	ea00000a 	b	86b0 <_ZNK13CGPIO_Handler26Get_GP_IRQ_Detect_LocationEj20NGPIO_Interrupt_TypeRjS1_+0xf8>
/home/silhavyj/School/ZeroMate/examples/09-GPIO_interrupt/kernel/src/drivers/gpio.cpp:129
        case NGPIO_Interrupt_Type::Low:
            reg = static_cast<uint32_t>((pin < 32) ? hal::GPIO_Reg::GPLEN0 : hal::GPIO_Reg::GPLEN1);
    8684:	e51b300c 	ldr	r3, [fp, #-12]
    8688:	e353001f 	cmp	r3, #31
    868c:	8a000001 	bhi	8698 <_ZNK13CGPIO_Handler26Get_GP_IRQ_Detect_LocationEj20NGPIO_Interrupt_TypeRjS1_+0xe0>
/home/silhavyj/School/ZeroMate/examples/09-GPIO_interrupt/kernel/src/drivers/gpio.cpp:129 (discriminator 1)
    8690:	e3a0201c 	mov	r2, #28
    8694:	ea000000 	b	869c <_ZNK13CGPIO_Handler26Get_GP_IRQ_Detect_LocationEj20NGPIO_Interrupt_TypeRjS1_+0xe4>
/home/silhavyj/School/ZeroMate/examples/09-GPIO_interrupt/kernel/src/drivers/gpio.cpp:129 (discriminator 2)
    8698:	e3a0201d 	mov	r2, #29
/home/silhavyj/School/ZeroMate/examples/09-GPIO_interrupt/kernel/src/drivers/gpio.cpp:129 (discriminator 4)
    869c:	e51b3014 	ldr	r3, [fp, #-20]	; 0xffffffec
    86a0:	e5832000 	str	r2, [r3]
/home/silhavyj/School/ZeroMate/examples/09-GPIO_interrupt/kernel/src/drivers/gpio.cpp:130 (discriminator 4)
            break;
    86a4:	ea000001 	b	86b0 <_ZNK13CGPIO_Handler26Get_GP_IRQ_Detect_LocationEj20NGPIO_Interrupt_TypeRjS1_+0xf8>
/home/silhavyj/School/ZeroMate/examples/09-GPIO_interrupt/kernel/src/drivers/gpio.cpp:132
        default:
            return false;
    86a8:	e3a03000 	mov	r3, #0
    86ac:	ea000000 	b	86b4 <_ZNK13CGPIO_Handler26Get_GP_IRQ_Detect_LocationEj20NGPIO_Interrupt_TypeRjS1_+0xfc>
/home/silhavyj/School/ZeroMate/examples/09-GPIO_interrupt/kernel/src/drivers/gpio.cpp:135
    }

    return true;
    86b0:	e3a03001 	mov	r3, #1
/home/silhavyj/School/ZeroMate/examples/09-GPIO_interrupt/kernel/src/drivers/gpio.cpp:136
}
    86b4:	e1a00003 	mov	r0, r3
    86b8:	e28bd000 	add	sp, fp, #0
    86bc:	e49db004 	pop	{fp}		; (ldr fp, [sp], #4)
    86c0:	e12fff1e 	bx	lr

000086c4 <_ZN13CGPIO_Handler20Disable_Event_DetectEj20NGPIO_Interrupt_Type>:
_ZN13CGPIO_Handler20Disable_Event_DetectEj20NGPIO_Interrupt_Type():
/home/silhavyj/School/ZeroMate/examples/09-GPIO_interrupt/kernel/src/drivers/gpio.cpp:139

void CGPIO_Handler::Disable_Event_Detect(uint32_t pin, NGPIO_Interrupt_Type type)
{
    86c4:	e92d4800 	push	{fp, lr}
    86c8:	e28db004 	add	fp, sp, #4
    86cc:	e24dd028 	sub	sp, sp, #40	; 0x28
    86d0:	e50b0018 	str	r0, [fp, #-24]	; 0xffffffe8
    86d4:	e50b101c 	str	r1, [fp, #-28]	; 0xffffffe4
    86d8:	e50b2020 	str	r2, [fp, #-32]	; 0xffffffe0
/home/silhavyj/School/ZeroMate/examples/09-GPIO_interrupt/kernel/src/drivers/gpio.cpp:141
    uint32_t reg, bit;
    if (!Get_GP_IRQ_Detect_Location(pin, type, reg, bit))
    86dc:	e24b200c 	sub	r2, fp, #12
    86e0:	e24b3010 	sub	r3, fp, #16
    86e4:	e58d3000 	str	r3, [sp]
    86e8:	e1a03002 	mov	r3, r2
    86ec:	e51b2020 	ldr	r2, [fp, #-32]	; 0xffffffe0
    86f0:	e51b101c 	ldr	r1, [fp, #-28]	; 0xffffffe4
    86f4:	e51b0018 	ldr	r0, [fp, #-24]	; 0xffffffe8
    86f8:	ebffffae 	bl	85b8 <_ZNK13CGPIO_Handler26Get_GP_IRQ_Detect_LocationEj20NGPIO_Interrupt_TypeRjS1_>
    86fc:	e1a03000 	mov	r3, r0
    8700:	e2233001 	eor	r3, r3, #1
    8704:	e6ef3073 	uxtb	r3, r3
    8708:	e3530000 	cmp	r3, #0
    870c:	1a000016 	bne	876c <_ZN13CGPIO_Handler20Disable_Event_DetectEj20NGPIO_Interrupt_Type+0xa8>
/home/silhavyj/School/ZeroMate/examples/09-GPIO_interrupt/kernel/src/drivers/gpio.cpp:144
        return;

    uint32_t val = mGPIO[reg];
    8710:	e51b3018 	ldr	r3, [fp, #-24]	; 0xffffffe8
    8714:	e5932000 	ldr	r2, [r3]
    8718:	e51b300c 	ldr	r3, [fp, #-12]
    871c:	e1a03103 	lsl	r3, r3, #2
    8720:	e0823003 	add	r3, r2, r3
    8724:	e5933000 	ldr	r3, [r3]
    8728:	e50b3008 	str	r3, [fp, #-8]
/home/silhavyj/School/ZeroMate/examples/09-GPIO_interrupt/kernel/src/drivers/gpio.cpp:145
    val &= ~(1 << bit);
    872c:	e51b3010 	ldr	r3, [fp, #-16]
    8730:	e3a02001 	mov	r2, #1
    8734:	e1a03312 	lsl	r3, r2, r3
    8738:	e1e03003 	mvn	r3, r3
    873c:	e1a02003 	mov	r2, r3
    8740:	e51b3008 	ldr	r3, [fp, #-8]
    8744:	e0033002 	and	r3, r3, r2
    8748:	e50b3008 	str	r3, [fp, #-8]
/home/silhavyj/School/ZeroMate/examples/09-GPIO_interrupt/kernel/src/drivers/gpio.cpp:146
    mGPIO[reg] = val;
    874c:	e51b3018 	ldr	r3, [fp, #-24]	; 0xffffffe8
    8750:	e5932000 	ldr	r2, [r3]
    8754:	e51b300c 	ldr	r3, [fp, #-12]
    8758:	e1a03103 	lsl	r3, r3, #2
    875c:	e0823003 	add	r3, r2, r3
    8760:	e51b2008 	ldr	r2, [fp, #-8]
    8764:	e5832000 	str	r2, [r3]
    8768:	ea000000 	b	8770 <_ZN13CGPIO_Handler20Disable_Event_DetectEj20NGPIO_Interrupt_Type+0xac>
/home/silhavyj/School/ZeroMate/examples/09-GPIO_interrupt/kernel/src/drivers/gpio.cpp:142
        return;
    876c:	e320f000 	nop	{0}
/home/silhavyj/School/ZeroMate/examples/09-GPIO_interrupt/kernel/src/drivers/gpio.cpp:147
}
    8770:	e24bd004 	sub	sp, fp, #4
    8774:	e8bd8800 	pop	{fp, pc}

00008778 <_ZN13CGPIO_Handler10Set_OutputEjb>:
_ZN13CGPIO_Handler10Set_OutputEjb():
/home/silhavyj/School/ZeroMate/examples/09-GPIO_interrupt/kernel/src/drivers/gpio.cpp:150

void CGPIO_Handler::Set_Output(uint32_t pin, bool set)
{
    8778:	e92d4800 	push	{fp, lr}
    877c:	e28db004 	add	fp, sp, #4
    8780:	e24dd018 	sub	sp, sp, #24
    8784:	e50b0010 	str	r0, [fp, #-16]
    8788:	e50b1014 	str	r1, [fp, #-20]	; 0xffffffec
    878c:	e1a03002 	mov	r3, r2
    8790:	e54b3015 	strb	r3, [fp, #-21]	; 0xffffffeb
/home/silhavyj/School/ZeroMate/examples/09-GPIO_interrupt/kernel/src/drivers/gpio.cpp:152
    uint32_t reg, bit;
    if (!(set && Get_GPSET_Location(pin, reg, bit)) && !(!set && Get_GPCLR_Location(pin, reg, bit)))
    8794:	e55b3015 	ldrb	r3, [fp, #-21]	; 0xffffffeb
    8798:	e2233001 	eor	r3, r3, #1
    879c:	e6ef3073 	uxtb	r3, r3
    87a0:	e3530000 	cmp	r3, #0
    87a4:	1a000009 	bne	87d0 <_ZN13CGPIO_Handler10Set_OutputEjb+0x58>
/home/silhavyj/School/ZeroMate/examples/09-GPIO_interrupt/kernel/src/drivers/gpio.cpp:152 (discriminator 2)
    87a8:	e24b300c 	sub	r3, fp, #12
    87ac:	e24b2008 	sub	r2, fp, #8
    87b0:	e51b1014 	ldr	r1, [fp, #-20]	; 0xffffffec
    87b4:	e51b0010 	ldr	r0, [fp, #-16]
    87b8:	ebfffeda 	bl	8328 <_ZNK13CGPIO_Handler18Get_GPSET_LocationEjRjS0_>
    87bc:	e1a03000 	mov	r3, r0
    87c0:	e2233001 	eor	r3, r3, #1
    87c4:	e6ef3073 	uxtb	r3, r3
    87c8:	e3530000 	cmp	r3, #0
    87cc:	0a00000e 	beq	880c <_ZN13CGPIO_Handler10Set_OutputEjb+0x94>
/home/silhavyj/School/ZeroMate/examples/09-GPIO_interrupt/kernel/src/drivers/gpio.cpp:152 (discriminator 3)
    87d0:	e55b3015 	ldrb	r3, [fp, #-21]	; 0xffffffeb
    87d4:	e3530000 	cmp	r3, #0
    87d8:	1a000009 	bne	8804 <_ZN13CGPIO_Handler10Set_OutputEjb+0x8c>
/home/silhavyj/School/ZeroMate/examples/09-GPIO_interrupt/kernel/src/drivers/gpio.cpp:152 (discriminator 6)
    87dc:	e24b300c 	sub	r3, fp, #12
    87e0:	e24b2008 	sub	r2, fp, #8
    87e4:	e51b1014 	ldr	r1, [fp, #-20]	; 0xffffffec
    87e8:	e51b0010 	ldr	r0, [fp, #-16]
    87ec:	ebfffeb0 	bl	82b4 <_ZNK13CGPIO_Handler18Get_GPCLR_LocationEjRjS0_>
    87f0:	e1a03000 	mov	r3, r0
    87f4:	e2233001 	eor	r3, r3, #1
    87f8:	e6ef3073 	uxtb	r3, r3
    87fc:	e3530000 	cmp	r3, #0
    8800:	0a000001 	beq	880c <_ZN13CGPIO_Handler10Set_OutputEjb+0x94>
/home/silhavyj/School/ZeroMate/examples/09-GPIO_interrupt/kernel/src/drivers/gpio.cpp:152 (discriminator 7)
    8804:	e3a03001 	mov	r3, #1
    8808:	ea000000 	b	8810 <_ZN13CGPIO_Handler10Set_OutputEjb+0x98>
/home/silhavyj/School/ZeroMate/examples/09-GPIO_interrupt/kernel/src/drivers/gpio.cpp:152 (discriminator 8)
    880c:	e3a03000 	mov	r3, #0
/home/silhavyj/School/ZeroMate/examples/09-GPIO_interrupt/kernel/src/drivers/gpio.cpp:152 (discriminator 10)
    8810:	e3530000 	cmp	r3, #0
    8814:	1a00000a 	bne	8844 <_ZN13CGPIO_Handler10Set_OutputEjb+0xcc>
/home/silhavyj/School/ZeroMate/examples/09-GPIO_interrupt/kernel/src/drivers/gpio.cpp:155
        return;

    mGPIO[reg] = (1 << bit);
    8818:	e51b300c 	ldr	r3, [fp, #-12]
    881c:	e3a02001 	mov	r2, #1
    8820:	e1a01312 	lsl	r1, r2, r3
    8824:	e51b3010 	ldr	r3, [fp, #-16]
    8828:	e5932000 	ldr	r2, [r3]
    882c:	e51b3008 	ldr	r3, [fp, #-8]
    8830:	e1a03103 	lsl	r3, r3, #2
    8834:	e0823003 	add	r3, r2, r3
    8838:	e1a02001 	mov	r2, r1
    883c:	e5832000 	str	r2, [r3]
    8840:	ea000000 	b	8848 <_ZN13CGPIO_Handler10Set_OutputEjb+0xd0>
/home/silhavyj/School/ZeroMate/examples/09-GPIO_interrupt/kernel/src/drivers/gpio.cpp:153
        return;
    8844:	e320f000 	nop	{0}
/home/silhavyj/School/ZeroMate/examples/09-GPIO_interrupt/kernel/src/drivers/gpio.cpp:156
}
    8848:	e24bd004 	sub	sp, fp, #4
    884c:	e8bd8800 	pop	{fp, pc}

00008850 <_ZNK13CGPIO_Handler18Get_GPEDS_LocationEjRjS0_>:
_ZNK13CGPIO_Handler18Get_GPEDS_LocationEjRjS0_():
/home/silhavyj/School/ZeroMate/examples/09-GPIO_interrupt/kernel/src/drivers/gpio.cpp:159

bool CGPIO_Handler::Get_GPEDS_Location(uint32_t pin, uint32_t& reg, uint32_t& bit_idx) const
{
    8850:	e52db004 	push	{fp}		; (str fp, [sp, #-4]!)
    8854:	e28db000 	add	fp, sp, #0
    8858:	e24dd014 	sub	sp, sp, #20
    885c:	e50b0008 	str	r0, [fp, #-8]
    8860:	e50b100c 	str	r1, [fp, #-12]
    8864:	e50b2010 	str	r2, [fp, #-16]
    8868:	e50b3014 	str	r3, [fp, #-20]	; 0xffffffec
/home/silhavyj/School/ZeroMate/examples/09-GPIO_interrupt/kernel/src/drivers/gpio.cpp:160
    if (pin > hal::GPIO_Pin_Count)
    886c:	e51b300c 	ldr	r3, [fp, #-12]
    8870:	e3530036 	cmp	r3, #54	; 0x36
    8874:	9a000001 	bls	8880 <_ZNK13CGPIO_Handler18Get_GPEDS_LocationEjRjS0_+0x30>
/home/silhavyj/School/ZeroMate/examples/09-GPIO_interrupt/kernel/src/drivers/gpio.cpp:161
        return false;
    8878:	e3a03000 	mov	r3, #0
    887c:	ea00000c 	b	88b4 <_ZNK13CGPIO_Handler18Get_GPEDS_LocationEjRjS0_+0x64>
/home/silhavyj/School/ZeroMate/examples/09-GPIO_interrupt/kernel/src/drivers/gpio.cpp:163

    reg = static_cast<uint32_t>((pin < 32) ? hal::GPIO_Reg::GPEDS0 : hal::GPIO_Reg::GPEDS1);
    8880:	e51b300c 	ldr	r3, [fp, #-12]
    8884:	e353001f 	cmp	r3, #31
    8888:	8a000001 	bhi	8894 <_ZNK13CGPIO_Handler18Get_GPEDS_LocationEjRjS0_+0x44>
/home/silhavyj/School/ZeroMate/examples/09-GPIO_interrupt/kernel/src/drivers/gpio.cpp:163 (discriminator 1)
    888c:	e3a02010 	mov	r2, #16
    8890:	ea000000 	b	8898 <_ZNK13CGPIO_Handler18Get_GPEDS_LocationEjRjS0_+0x48>
/home/silhavyj/School/ZeroMate/examples/09-GPIO_interrupt/kernel/src/drivers/gpio.cpp:163 (discriminator 2)
    8894:	e3a02011 	mov	r2, #17
/home/silhavyj/School/ZeroMate/examples/09-GPIO_interrupt/kernel/src/drivers/gpio.cpp:163 (discriminator 4)
    8898:	e51b3010 	ldr	r3, [fp, #-16]
    889c:	e5832000 	str	r2, [r3]
/home/silhavyj/School/ZeroMate/examples/09-GPIO_interrupt/kernel/src/drivers/gpio.cpp:164 (discriminator 4)
    bit_idx = pin % 32;
    88a0:	e51b300c 	ldr	r3, [fp, #-12]
    88a4:	e203201f 	and	r2, r3, #31
    88a8:	e51b3014 	ldr	r3, [fp, #-20]	; 0xffffffec
    88ac:	e5832000 	str	r2, [r3]
/home/silhavyj/School/ZeroMate/examples/09-GPIO_interrupt/kernel/src/drivers/gpio.cpp:166 (discriminator 4)

    return true;
    88b0:	e3a03001 	mov	r3, #1
/home/silhavyj/School/ZeroMate/examples/09-GPIO_interrupt/kernel/src/drivers/gpio.cpp:167
}
    88b4:	e1a00003 	mov	r0, r3
    88b8:	e28bd000 	add	sp, fp, #0
    88bc:	e49db004 	pop	{fp}		; (ldr fp, [sp], #4)
    88c0:	e12fff1e 	bx	lr

000088c4 <_ZN13CGPIO_Handler20Clear_Detected_EventEj>:
_ZN13CGPIO_Handler20Clear_Detected_EventEj():
/home/silhavyj/School/ZeroMate/examples/09-GPIO_interrupt/kernel/src/drivers/gpio.cpp:170

void CGPIO_Handler::Clear_Detected_Event(uint32_t pin)
{
    88c4:	e92d4800 	push	{fp, lr}
    88c8:	e28db004 	add	fp, sp, #4
    88cc:	e24dd010 	sub	sp, sp, #16
    88d0:	e50b0010 	str	r0, [fp, #-16]
    88d4:	e50b1014 	str	r1, [fp, #-20]	; 0xffffffec
/home/silhavyj/School/ZeroMate/examples/09-GPIO_interrupt/kernel/src/drivers/gpio.cpp:172
    uint32_t reg, bit;
    if (!Get_GPEDS_Location(pin, reg, bit))
    88d8:	e24b300c 	sub	r3, fp, #12
    88dc:	e24b2008 	sub	r2, fp, #8
    88e0:	e51b1014 	ldr	r1, [fp, #-20]	; 0xffffffec
    88e4:	e51b0010 	ldr	r0, [fp, #-16]
    88e8:	ebffffd8 	bl	8850 <_ZNK13CGPIO_Handler18Get_GPEDS_LocationEjRjS0_>
    88ec:	e1a03000 	mov	r3, r0
    88f0:	e2233001 	eor	r3, r3, #1
    88f4:	e6ef3073 	uxtb	r3, r3
    88f8:	e3530000 	cmp	r3, #0
    88fc:	1a00000a 	bne	892c <_ZN13CGPIO_Handler20Clear_Detected_EventEj+0x68>
/home/silhavyj/School/ZeroMate/examples/09-GPIO_interrupt/kernel/src/drivers/gpio.cpp:176
        return;

    // BCM2835 manual: "The bit is cleared by writing a '1' to the relevant bit."
    mGPIO[reg] = 1 << bit;
    8900:	e51b300c 	ldr	r3, [fp, #-12]
    8904:	e3a02001 	mov	r2, #1
    8908:	e1a01312 	lsl	r1, r2, r3
    890c:	e51b3010 	ldr	r3, [fp, #-16]
    8910:	e5932000 	ldr	r2, [r3]
    8914:	e51b3008 	ldr	r3, [fp, #-8]
    8918:	e1a03103 	lsl	r3, r3, #2
    891c:	e0823003 	add	r3, r2, r3
    8920:	e1a02001 	mov	r2, r1
    8924:	e5832000 	str	r2, [r3]
    8928:	ea000000 	b	8930 <_ZN13CGPIO_Handler20Clear_Detected_EventEj+0x6c>
/home/silhavyj/School/ZeroMate/examples/09-GPIO_interrupt/kernel/src/drivers/gpio.cpp:173
        return;
    892c:	e320f000 	nop	{0}
/home/silhavyj/School/ZeroMate/examples/09-GPIO_interrupt/kernel/src/drivers/gpio.cpp:177
    8930:	e24bd004 	sub	sp, fp, #4
    8934:	e8bd8800 	pop	{fp, pc}

00008938 <_Z41__static_initialization_and_destruction_0ii>:
_Z41__static_initialization_and_destruction_0ii():
/home/silhavyj/School/ZeroMate/examples/09-GPIO_interrupt/kernel/src/drivers/gpio.cpp:177
    8938:	e92d4800 	push	{fp, lr}
    893c:	e28db004 	add	fp, sp, #4
    8940:	e24dd008 	sub	sp, sp, #8
    8944:	e50b0008 	str	r0, [fp, #-8]
    8948:	e50b100c 	str	r1, [fp, #-12]
    894c:	e51b3008 	ldr	r3, [fp, #-8]
    8950:	e3530001 	cmp	r3, #1
    8954:	1a000006 	bne	8974 <_Z41__static_initialization_and_destruction_0ii+0x3c>
/home/silhavyj/School/ZeroMate/examples/09-GPIO_interrupt/kernel/src/drivers/gpio.cpp:177 (discriminator 1)
    8958:	e51b300c 	ldr	r3, [fp, #-12]
    895c:	e59f201c 	ldr	r2, [pc, #28]	; 8980 <_Z41__static_initialization_and_destruction_0ii+0x48>
    8960:	e1530002 	cmp	r3, r2
    8964:	1a000002 	bne	8974 <_Z41__static_initialization_and_destruction_0ii+0x3c>
/home/silhavyj/School/ZeroMate/examples/09-GPIO_interrupt/kernel/src/drivers/gpio.cpp:4
CGPIO_Handler sGPIO(hal::GPIO_Base);
    8968:	e59f1014 	ldr	r1, [pc, #20]	; 8984 <_Z41__static_initialization_and_destruction_0ii+0x4c>
    896c:	e59f0014 	ldr	r0, [pc, #20]	; 8988 <_Z41__static_initialization_and_destruction_0ii+0x50>
    8970:	ebfffdfd 	bl	816c <_ZN13CGPIO_HandlerC1Ej>
/home/silhavyj/School/ZeroMate/examples/09-GPIO_interrupt/kernel/src/drivers/gpio.cpp:177
    8974:	e320f000 	nop	{0}
    8978:	e24bd004 	sub	sp, fp, #4
    897c:	e8bd8800 	pop	{fp, pc}
    8980:	0000ffff 	strdeq	pc, [r0], -pc	; <UNPREDICTABLE>
    8984:	20200000 	eorcs	r0, r0, r0
    8988:	00008ecc 	andeq	r8, r0, ip, asr #29

0000898c <_GLOBAL__sub_I_sGPIO>:
_GLOBAL__sub_I_sGPIO():
/home/silhavyj/School/ZeroMate/examples/09-GPIO_interrupt/kernel/src/drivers/gpio.cpp:177
    898c:	e92d4800 	push	{fp, lr}
    8990:	e28db004 	add	fp, sp, #4
    8994:	e59f1008 	ldr	r1, [pc, #8]	; 89a4 <_GLOBAL__sub_I_sGPIO+0x18>
    8998:	e3a00001 	mov	r0, #1
    899c:	ebffffe5 	bl	8938 <_Z41__static_initialization_and_destruction_0ii>
    89a0:	e8bd8800 	pop	{fp, pc}
    89a4:	0000ffff 	strdeq	pc, [r0], -pc	; <UNPREDICTABLE>

000089a8 <software_interrupt_handler>:
software_interrupt_handler():
/home/silhavyj/School/ZeroMate/examples/09-GPIO_interrupt/kernel/src/interrupt_controller.cpp:7
#include <hal/peripherals.h>
#include <drivers/gpio.h>
#include <interrupt_controller.h>

extern "C" void __attribute__((interrupt("SWI"))) software_interrupt_handler()
{
    89a8:	e52db004 	push	{fp}		; (str fp, [sp, #-4]!)
    89ac:	e28db000 	add	fp, sp, #0
/home/silhavyj/School/ZeroMate/examples/09-GPIO_interrupt/kernel/src/interrupt_controller.cpp:8
}
    89b0:	e320f000 	nop	{0}
    89b4:	e28bd000 	add	sp, fp, #0
    89b8:	e49db004 	pop	{fp}		; (ldr fp, [sp], #4)
    89bc:	e1b0f00e 	movs	pc, lr

000089c0 <irq_handler>:
irq_handler():
/home/silhavyj/School/ZeroMate/examples/09-GPIO_interrupt/kernel/src/interrupt_controller.cpp:11

extern "C" void __attribute__((interrupt("IRQ"))) irq_handler()
{
    89c0:	e24ee004 	sub	lr, lr, #4
    89c4:	e92d581f 	push	{r0, r1, r2, r3, r4, fp, ip, lr}
    89c8:	e28db01c 	add	fp, sp, #28
/home/silhavyj/School/ZeroMate/examples/09-GPIO_interrupt/kernel/src/interrupt_controller.cpp:13
    static bool status = true;
    sGPIO.Set_Output(47, status);
    89cc:	e59f3040 	ldr	r3, [pc, #64]	; 8a14 <irq_handler+0x54>
    89d0:	e5d33000 	ldrb	r3, [r3]
    89d4:	e1a02003 	mov	r2, r3
    89d8:	e3a0102f 	mov	r1, #47	; 0x2f
    89dc:	e59f0034 	ldr	r0, [pc, #52]	; 8a18 <irq_handler+0x58>
    89e0:	ebffff64 	bl	8778 <_ZN13CGPIO_Handler10Set_OutputEjb>
/home/silhavyj/School/ZeroMate/examples/09-GPIO_interrupt/kernel/src/interrupt_controller.cpp:14
    status = !status;
    89e4:	e59f3028 	ldr	r3, [pc, #40]	; 8a14 <irq_handler+0x54>
    89e8:	e5d33000 	ldrb	r3, [r3]
    89ec:	e2233001 	eor	r3, r3, #1
    89f0:	e6ef2073 	uxtb	r2, r3
    89f4:	e59f3018 	ldr	r3, [pc, #24]	; 8a14 <irq_handler+0x54>
    89f8:	e5c32000 	strb	r2, [r3]
/home/silhavyj/School/ZeroMate/examples/09-GPIO_interrupt/kernel/src/interrupt_controller.cpp:16

    sGPIO.Clear_Detected_Event(5);
    89fc:	e3a01005 	mov	r1, #5
    8a00:	e59f0010 	ldr	r0, [pc, #16]	; 8a18 <irq_handler+0x58>
    8a04:	ebffffae 	bl	88c4 <_ZN13CGPIO_Handler20Clear_Detected_EventEj>
/home/silhavyj/School/ZeroMate/examples/09-GPIO_interrupt/kernel/src/interrupt_controller.cpp:17
}
    8a08:	e320f000 	nop	{0}
    8a0c:	e24bd01c 	sub	sp, fp, #28
    8a10:	e8fd981f 	ldm	sp!, {r0, r1, r2, r3, r4, fp, ip, pc}^
    8a14:	00008ec8 	andeq	r8, r0, r8, asr #29
    8a18:	00008ecc 	andeq	r8, r0, ip, asr #29

00008a1c <fast_interrupt_handler>:
fast_interrupt_handler():
/home/silhavyj/School/ZeroMate/examples/09-GPIO_interrupt/kernel/src/interrupt_controller.cpp:20

extern "C" void __attribute__((interrupt("FIQ"))) fast_interrupt_handler()
{
    8a1c:	e24db004 	sub	fp, sp, #4
/home/silhavyj/School/ZeroMate/examples/09-GPIO_interrupt/kernel/src/interrupt_controller.cpp:21
}
    8a20:	e320f000 	nop	{0}
    8a24:	e28bd004 	add	sp, fp, #4
    8a28:	e25ef004 	subs	pc, lr, #4

00008a2c <_ZN21CInterrupt_ControllerC1Em>:
_ZN21CInterrupt_ControllerC2Em():
/home/silhavyj/School/ZeroMate/examples/09-GPIO_interrupt/kernel/src/interrupt_controller.cpp:25

CInterrupt_Controller sInterruptCtl(hal::Interrupt_Controller_Base);

CInterrupt_Controller::CInterrupt_Controller(unsigned long base)
    8a2c:	e52db004 	push	{fp}		; (str fp, [sp, #-4]!)
    8a30:	e28db000 	add	fp, sp, #0
    8a34:	e24dd00c 	sub	sp, sp, #12
    8a38:	e50b0008 	str	r0, [fp, #-8]
    8a3c:	e50b100c 	str	r1, [fp, #-12]
/home/silhavyj/School/ZeroMate/examples/09-GPIO_interrupt/kernel/src/interrupt_controller.cpp:26
: mInterrupt_Regs(reinterpret_cast<unsigned int*>(base))
    8a40:	e51b200c 	ldr	r2, [fp, #-12]
    8a44:	e51b3008 	ldr	r3, [fp, #-8]
    8a48:	e5832000 	str	r2, [r3]
/home/silhavyj/School/ZeroMate/examples/09-GPIO_interrupt/kernel/src/interrupt_controller.cpp:28
{
}
    8a4c:	e51b3008 	ldr	r3, [fp, #-8]
    8a50:	e1a00003 	mov	r0, r3
    8a54:	e28bd000 	add	sp, fp, #0
    8a58:	e49db004 	pop	{fp}		; (ldr fp, [sp], #4)
    8a5c:	e12fff1e 	bx	lr

00008a60 <_ZN21CInterrupt_Controller4RegsEN3hal24Interrupt_Controller_RegE>:
_ZN21CInterrupt_Controller4RegsEN3hal24Interrupt_Controller_RegE():
/home/silhavyj/School/ZeroMate/examples/09-GPIO_interrupt/kernel/src/interrupt_controller.cpp:31

volatile unsigned int& CInterrupt_Controller::Regs(hal::Interrupt_Controller_Reg reg)
{
    8a60:	e52db004 	push	{fp}		; (str fp, [sp, #-4]!)
    8a64:	e28db000 	add	fp, sp, #0
    8a68:	e24dd00c 	sub	sp, sp, #12
    8a6c:	e50b0008 	str	r0, [fp, #-8]
    8a70:	e50b100c 	str	r1, [fp, #-12]
/home/silhavyj/School/ZeroMate/examples/09-GPIO_interrupt/kernel/src/interrupt_controller.cpp:32
    return mInterrupt_Regs[static_cast<unsigned int>(reg)];
    8a74:	e51b3008 	ldr	r3, [fp, #-8]
    8a78:	e5932000 	ldr	r2, [r3]
    8a7c:	e51b300c 	ldr	r3, [fp, #-12]
    8a80:	e1a03103 	lsl	r3, r3, #2
    8a84:	e0823003 	add	r3, r2, r3
/home/silhavyj/School/ZeroMate/examples/09-GPIO_interrupt/kernel/src/interrupt_controller.cpp:33
}
    8a88:	e1a00003 	mov	r0, r3
    8a8c:	e28bd000 	add	sp, fp, #0
    8a90:	e49db004 	pop	{fp}		; (ldr fp, [sp], #4)
    8a94:	e12fff1e 	bx	lr

00008a98 <_ZN21CInterrupt_Controller16Enable_Basic_IRQEN3hal16IRQ_Basic_SourceE>:
_ZN21CInterrupt_Controller16Enable_Basic_IRQEN3hal16IRQ_Basic_SourceE():
/home/silhavyj/School/ZeroMate/examples/09-GPIO_interrupt/kernel/src/interrupt_controller.cpp:36

void CInterrupt_Controller::Enable_Basic_IRQ(hal::IRQ_Basic_Source source_idx)
{
    8a98:	e92d4810 	push	{r4, fp, lr}
    8a9c:	e28db008 	add	fp, sp, #8
    8aa0:	e24dd00c 	sub	sp, sp, #12
    8aa4:	e50b0010 	str	r0, [fp, #-16]
    8aa8:	e50b1014 	str	r1, [fp, #-20]	; 0xffffffec
/home/silhavyj/School/ZeroMate/examples/09-GPIO_interrupt/kernel/src/interrupt_controller.cpp:37
    Regs(hal::Interrupt_Controller_Reg::IRQ_Basic_Enable) = (1 << static_cast<unsigned int>(source_idx));
    8aac:	e51b3014 	ldr	r3, [fp, #-20]	; 0xffffffec
    8ab0:	e3a02001 	mov	r2, #1
    8ab4:	e1a04312 	lsl	r4, r2, r3
    8ab8:	e3a01006 	mov	r1, #6
    8abc:	e51b0010 	ldr	r0, [fp, #-16]
    8ac0:	ebffffe6 	bl	8a60 <_ZN21CInterrupt_Controller4RegsEN3hal24Interrupt_Controller_RegE>
    8ac4:	e1a03000 	mov	r3, r0
    8ac8:	e1a02004 	mov	r2, r4
    8acc:	e5832000 	str	r2, [r3]
/home/silhavyj/School/ZeroMate/examples/09-GPIO_interrupt/kernel/src/interrupt_controller.cpp:38
}
    8ad0:	e320f000 	nop	{0}
    8ad4:	e24bd008 	sub	sp, fp, #8
    8ad8:	e8bd8810 	pop	{r4, fp, pc}

00008adc <_ZN21CInterrupt_Controller17Disable_Basic_IRQEN3hal16IRQ_Basic_SourceE>:
_ZN21CInterrupt_Controller17Disable_Basic_IRQEN3hal16IRQ_Basic_SourceE():
/home/silhavyj/School/ZeroMate/examples/09-GPIO_interrupt/kernel/src/interrupt_controller.cpp:41

void CInterrupt_Controller::Disable_Basic_IRQ(hal::IRQ_Basic_Source source_idx)
{
    8adc:	e92d4810 	push	{r4, fp, lr}
    8ae0:	e28db008 	add	fp, sp, #8
    8ae4:	e24dd00c 	sub	sp, sp, #12
    8ae8:	e50b0010 	str	r0, [fp, #-16]
    8aec:	e50b1014 	str	r1, [fp, #-20]	; 0xffffffec
/home/silhavyj/School/ZeroMate/examples/09-GPIO_interrupt/kernel/src/interrupt_controller.cpp:42
    Regs(hal::Interrupt_Controller_Reg::IRQ_Basic_Disable) = (1 << static_cast<unsigned int>(source_idx));
    8af0:	e51b3014 	ldr	r3, [fp, #-20]	; 0xffffffec
    8af4:	e3a02001 	mov	r2, #1
    8af8:	e1a04312 	lsl	r4, r2, r3
    8afc:	e3a01009 	mov	r1, #9
    8b00:	e51b0010 	ldr	r0, [fp, #-16]
    8b04:	ebffffd5 	bl	8a60 <_ZN21CInterrupt_Controller4RegsEN3hal24Interrupt_Controller_RegE>
    8b08:	e1a03000 	mov	r3, r0
    8b0c:	e1a02004 	mov	r2, r4
    8b10:	e5832000 	str	r2, [r3]
/home/silhavyj/School/ZeroMate/examples/09-GPIO_interrupt/kernel/src/interrupt_controller.cpp:43
}
    8b14:	e320f000 	nop	{0}
    8b18:	e24bd008 	sub	sp, fp, #8
    8b1c:	e8bd8810 	pop	{r4, fp, pc}

00008b20 <_ZN21CInterrupt_Controller10Enable_IRQEN3hal10IRQ_SourceE>:
_ZN21CInterrupt_Controller10Enable_IRQEN3hal10IRQ_SourceE():
/home/silhavyj/School/ZeroMate/examples/09-GPIO_interrupt/kernel/src/interrupt_controller.cpp:46

void CInterrupt_Controller::Enable_IRQ(hal::IRQ_Source source_idx)
{
    8b20:	e92d4810 	push	{r4, fp, lr}
    8b24:	e28db008 	add	fp, sp, #8
    8b28:	e24dd014 	sub	sp, sp, #20
    8b2c:	e50b0018 	str	r0, [fp, #-24]	; 0xffffffe8
    8b30:	e50b101c 	str	r1, [fp, #-28]	; 0xffffffe4
/home/silhavyj/School/ZeroMate/examples/09-GPIO_interrupt/kernel/src/interrupt_controller.cpp:47
    const unsigned int idx_base = static_cast<unsigned int>(source_idx);
    8b34:	e51b301c 	ldr	r3, [fp, #-28]	; 0xffffffe4
    8b38:	e50b3010 	str	r3, [fp, #-16]
/home/silhavyj/School/ZeroMate/examples/09-GPIO_interrupt/kernel/src/interrupt_controller.cpp:49

    Regs(idx_base < 32 ? hal::Interrupt_Controller_Reg::IRQ_Enable_1 : hal::Interrupt_Controller_Reg::IRQ_Enable_2) = (1 << (idx_base % 32));
    8b3c:	e51b3010 	ldr	r3, [fp, #-16]
    8b40:	e203301f 	and	r3, r3, #31
    8b44:	e3a02001 	mov	r2, #1
    8b48:	e1a04312 	lsl	r4, r2, r3
    8b4c:	e51b3010 	ldr	r3, [fp, #-16]
    8b50:	e353001f 	cmp	r3, #31
    8b54:	8a000001 	bhi	8b60 <_ZN21CInterrupt_Controller10Enable_IRQEN3hal10IRQ_SourceE+0x40>
/home/silhavyj/School/ZeroMate/examples/09-GPIO_interrupt/kernel/src/interrupt_controller.cpp:49 (discriminator 1)
    8b58:	e3a03004 	mov	r3, #4
    8b5c:	ea000000 	b	8b64 <_ZN21CInterrupt_Controller10Enable_IRQEN3hal10IRQ_SourceE+0x44>
/home/silhavyj/School/ZeroMate/examples/09-GPIO_interrupt/kernel/src/interrupt_controller.cpp:49 (discriminator 2)
    8b60:	e3a03005 	mov	r3, #5
/home/silhavyj/School/ZeroMate/examples/09-GPIO_interrupt/kernel/src/interrupt_controller.cpp:49 (discriminator 4)
    8b64:	e1a01003 	mov	r1, r3
    8b68:	e51b0018 	ldr	r0, [fp, #-24]	; 0xffffffe8
    8b6c:	ebffffbb 	bl	8a60 <_ZN21CInterrupt_Controller4RegsEN3hal24Interrupt_Controller_RegE>
    8b70:	e1a03000 	mov	r3, r0
    8b74:	e1a02004 	mov	r2, r4
    8b78:	e5832000 	str	r2, [r3]
/home/silhavyj/School/ZeroMate/examples/09-GPIO_interrupt/kernel/src/interrupt_controller.cpp:50 (discriminator 4)
}
    8b7c:	e320f000 	nop	{0}
    8b80:	e24bd008 	sub	sp, fp, #8
    8b84:	e8bd8810 	pop	{r4, fp, pc}

00008b88 <_ZN21CInterrupt_Controller11Disable_IRQEN3hal10IRQ_SourceE>:
_ZN21CInterrupt_Controller11Disable_IRQEN3hal10IRQ_SourceE():
/home/silhavyj/School/ZeroMate/examples/09-GPIO_interrupt/kernel/src/interrupt_controller.cpp:53

void CInterrupt_Controller::Disable_IRQ(hal::IRQ_Source source_idx)
{
    8b88:	e92d4810 	push	{r4, fp, lr}
    8b8c:	e28db008 	add	fp, sp, #8
    8b90:	e24dd014 	sub	sp, sp, #20
    8b94:	e50b0018 	str	r0, [fp, #-24]	; 0xffffffe8
    8b98:	e50b101c 	str	r1, [fp, #-28]	; 0xffffffe4
/home/silhavyj/School/ZeroMate/examples/09-GPIO_interrupt/kernel/src/interrupt_controller.cpp:54
    const unsigned int idx_base = static_cast<unsigned int>(source_idx);
    8b9c:	e51b301c 	ldr	r3, [fp, #-28]	; 0xffffffe4
    8ba0:	e50b3010 	str	r3, [fp, #-16]
/home/silhavyj/School/ZeroMate/examples/09-GPIO_interrupt/kernel/src/interrupt_controller.cpp:56

    Regs(idx_base < 32 ? hal::Interrupt_Controller_Reg::IRQ_Disable_1 : hal::Interrupt_Controller_Reg::IRQ_Disable_2) = (1 << (idx_base % 32));
    8ba4:	e51b3010 	ldr	r3, [fp, #-16]
    8ba8:	e203301f 	and	r3, r3, #31
    8bac:	e3a02001 	mov	r2, #1
    8bb0:	e1a04312 	lsl	r4, r2, r3
    8bb4:	e51b3010 	ldr	r3, [fp, #-16]
    8bb8:	e353001f 	cmp	r3, #31
    8bbc:	8a000001 	bhi	8bc8 <_ZN21CInterrupt_Controller11Disable_IRQEN3hal10IRQ_SourceE+0x40>
/home/silhavyj/School/ZeroMate/examples/09-GPIO_interrupt/kernel/src/interrupt_controller.cpp:56 (discriminator 1)
    8bc0:	e3a03007 	mov	r3, #7
    8bc4:	ea000000 	b	8bcc <_ZN21CInterrupt_Controller11Disable_IRQEN3hal10IRQ_SourceE+0x44>
/home/silhavyj/School/ZeroMate/examples/09-GPIO_interrupt/kernel/src/interrupt_controller.cpp:56 (discriminator 2)
    8bc8:	e3a03008 	mov	r3, #8
/home/silhavyj/School/ZeroMate/examples/09-GPIO_interrupt/kernel/src/interrupt_controller.cpp:56 (discriminator 4)
    8bcc:	e1a01003 	mov	r1, r3
    8bd0:	e51b0018 	ldr	r0, [fp, #-24]	; 0xffffffe8
    8bd4:	ebffffa1 	bl	8a60 <_ZN21CInterrupt_Controller4RegsEN3hal24Interrupt_Controller_RegE>
    8bd8:	e1a03000 	mov	r3, r0
    8bdc:	e1a02004 	mov	r2, r4
    8be0:	e5832000 	str	r2, [r3]
/home/silhavyj/School/ZeroMate/examples/09-GPIO_interrupt/kernel/src/interrupt_controller.cpp:57 (discriminator 4)
}
    8be4:	e320f000 	nop	{0}
    8be8:	e24bd008 	sub	sp, fp, #8
    8bec:	e8bd8810 	pop	{r4, fp, pc}

00008bf0 <_Z41__static_initialization_and_destruction_0ii>:
_Z41__static_initialization_and_destruction_0ii():
/home/silhavyj/School/ZeroMate/examples/09-GPIO_interrupt/kernel/src/interrupt_controller.cpp:57
    8bf0:	e92d4800 	push	{fp, lr}
    8bf4:	e28db004 	add	fp, sp, #4
    8bf8:	e24dd008 	sub	sp, sp, #8
    8bfc:	e50b0008 	str	r0, [fp, #-8]
    8c00:	e50b100c 	str	r1, [fp, #-12]
    8c04:	e51b3008 	ldr	r3, [fp, #-8]
    8c08:	e3530001 	cmp	r3, #1
    8c0c:	1a000006 	bne	8c2c <_Z41__static_initialization_and_destruction_0ii+0x3c>
/home/silhavyj/School/ZeroMate/examples/09-GPIO_interrupt/kernel/src/interrupt_controller.cpp:57 (discriminator 1)
    8c10:	e51b300c 	ldr	r3, [fp, #-12]
    8c14:	e59f201c 	ldr	r2, [pc, #28]	; 8c38 <_Z41__static_initialization_and_destruction_0ii+0x48>
    8c18:	e1530002 	cmp	r3, r2
    8c1c:	1a000002 	bne	8c2c <_Z41__static_initialization_and_destruction_0ii+0x3c>
/home/silhavyj/School/ZeroMate/examples/09-GPIO_interrupt/kernel/src/interrupt_controller.cpp:23
CInterrupt_Controller sInterruptCtl(hal::Interrupt_Controller_Base);
    8c20:	e59f1014 	ldr	r1, [pc, #20]	; 8c3c <_Z41__static_initialization_and_destruction_0ii+0x4c>
    8c24:	e59f0014 	ldr	r0, [pc, #20]	; 8c40 <_Z41__static_initialization_and_destruction_0ii+0x50>
    8c28:	ebffff7f 	bl	8a2c <_ZN21CInterrupt_ControllerC1Em>
/home/silhavyj/School/ZeroMate/examples/09-GPIO_interrupt/kernel/src/interrupt_controller.cpp:57
}
    8c2c:	e320f000 	nop	{0}
    8c30:	e24bd004 	sub	sp, fp, #4
    8c34:	e8bd8800 	pop	{fp, pc}
    8c38:	0000ffff 	strdeq	pc, [r0], -pc	; <UNPREDICTABLE>
    8c3c:	2000b200 	andcs	fp, r0, r0, lsl #4
    8c40:	00008ed0 	ldrdeq	r8, [r0], -r0

00008c44 <_GLOBAL__sub_I_software_interrupt_handler>:
_GLOBAL__sub_I_software_interrupt_handler():
/home/silhavyj/School/ZeroMate/examples/09-GPIO_interrupt/kernel/src/interrupt_controller.cpp:57
    8c44:	e92d4800 	push	{fp, lr}
    8c48:	e28db004 	add	fp, sp, #4
    8c4c:	e59f1008 	ldr	r1, [pc, #8]	; 8c5c <_GLOBAL__sub_I_software_interrupt_handler+0x18>
    8c50:	e3a00001 	mov	r0, #1
    8c54:	ebffffe5 	bl	8bf0 <_Z41__static_initialization_and_destruction_0ii>
    8c58:	e8bd8800 	pop	{fp, pc}
    8c5c:	0000ffff 	strdeq	pc, [r0], -pc	; <UNPREDICTABLE>

00008c60 <_kernel_main>:
_kernel_main():
/home/silhavyj/School/ZeroMate/examples/09-GPIO_interrupt/kernel/src/main.cpp:5
#include <drivers/gpio.h>
#include <interrupt_controller.h>

extern "C" int _kernel_main(void)
{
    8c60:	e92d4800 	push	{fp, lr}
    8c64:	e28db004 	add	fp, sp, #4
/home/silhavyj/School/ZeroMate/examples/09-GPIO_interrupt/kernel/src/main.cpp:6
    sGPIO.Set_GPIO_Function(47, NGPIO_Function::Output);
    8c68:	e3a02001 	mov	r2, #1
    8c6c:	e3a0102f 	mov	r1, #47	; 0x2f
    8c70:	e59f0044 	ldr	r0, [pc, #68]	; 8cbc <_kernel_main+0x5c>
    8c74:	ebfffde5 	bl	8410 <_ZN13CGPIO_Handler17Set_GPIO_FunctionEj14NGPIO_Function>
/home/silhavyj/School/ZeroMate/examples/09-GPIO_interrupt/kernel/src/main.cpp:7
    sGPIO.Set_GPIO_Function(5, NGPIO_Function::Input);
    8c78:	e3a02000 	mov	r2, #0
    8c7c:	e3a01005 	mov	r1, #5
    8c80:	e59f0034 	ldr	r0, [pc, #52]	; 8cbc <_kernel_main+0x5c>
    8c84:	ebfffde1 	bl	8410 <_ZN13CGPIO_Handler17Set_GPIO_FunctionEj14NGPIO_Function>
/home/silhavyj/School/ZeroMate/examples/09-GPIO_interrupt/kernel/src/main.cpp:9

    sGPIO.Enable_Event_Detect(5, NGPIO_Interrupt_Type::Rising_Edge);
    8c88:	e3a02000 	mov	r2, #0
    8c8c:	e3a01005 	mov	r1, #5
    8c90:	e59f0024 	ldr	r0, [pc, #36]	; 8cbc <_kernel_main+0x5c>
    8c94:	ebfffe26 	bl	8534 <_ZN13CGPIO_Handler19Enable_Event_DetectEj20NGPIO_Interrupt_Type>
/home/silhavyj/School/ZeroMate/examples/09-GPIO_interrupt/kernel/src/main.cpp:10
    sGPIO.Enable_Event_Detect(5, NGPIO_Interrupt_Type::Falling_Edge);
    8c98:	e3a02001 	mov	r2, #1
    8c9c:	e3a01005 	mov	r1, #5
    8ca0:	e59f0014 	ldr	r0, [pc, #20]	; 8cbc <_kernel_main+0x5c>
    8ca4:	ebfffe22 	bl	8534 <_ZN13CGPIO_Handler19Enable_Event_DetectEj20NGPIO_Interrupt_Type>
/home/silhavyj/School/ZeroMate/examples/09-GPIO_interrupt/kernel/src/main.cpp:12

    sInterruptCtl.Enable_IRQ(hal::IRQ_Source::GPIO_0);
    8ca8:	e3a01031 	mov	r1, #49	; 0x31
    8cac:	e59f000c 	ldr	r0, [pc, #12]	; 8cc0 <_kernel_main+0x60>
    8cb0:	ebffff9a 	bl	8b20 <_ZN21CInterrupt_Controller10Enable_IRQEN3hal10IRQ_SourceE>
/home/silhavyj/School/ZeroMate/examples/09-GPIO_interrupt/kernel/src/main.cpp:14

    enable_irq();
    8cb4:	eb000002 	bl	8cc4 <enable_irq>
/home/silhavyj/School/ZeroMate/examples/09-GPIO_interrupt/kernel/src/main.cpp:16 (discriminator 1)

    while (1)
    8cb8:	eafffffe 	b	8cb8 <_kernel_main+0x58>
    8cbc:	00008ecc 	andeq	r8, r0, ip, asr #29
    8cc0:	00008ed0 	ldrdeq	r8, [r0], -r0

00008cc4 <enable_irq>:
enable_irq():
/home/silhavyj/School/ZeroMate/examples/09-GPIO_interrupt/kernel/src/start.s:90
;@ tady budou ostatni symboly, ktere nevyzaduji zadne specialni misto
.section .text

.global enable_irq
enable_irq:
    mrs r0, cpsr		;@ presun ridiciho registru (CPSR) do general purpose registru (R0)
    8cc4:	e10f0000 	mrs	r0, CPSR
/home/silhavyj/School/ZeroMate/examples/09-GPIO_interrupt/kernel/src/start.s:91
    bic r0, r0, #0x80	;@ vypne bit 7 v registru r0 ("IRQ mask bit")
    8cc8:	e3c00080 	bic	r0, r0, #128	; 0x80
/home/silhavyj/School/ZeroMate/examples/09-GPIO_interrupt/kernel/src/start.s:92
    msr cpsr_c, r0		;@ nacteme upraveny general purpose (R0) registr do ridiciho (CPSR)
    8ccc:	e121f000 	msr	CPSR_c, r0
/home/silhavyj/School/ZeroMate/examples/09-GPIO_interrupt/kernel/src/start.s:93
    cpsie i				;@ povoli preruseni
    8cd0:	f1080080 	cpsie	i
/home/silhavyj/School/ZeroMate/examples/09-GPIO_interrupt/kernel/src/start.s:94
    bx lr
    8cd4:	e12fff1e 	bx	lr

00008cd8 <undefined_instruction_handler>:
undefined_instruction_handler():
/home/silhavyj/School/ZeroMate/examples/09-GPIO_interrupt/kernel/src/start.s:97

undefined_instruction_handler:
	b hang
    8cd8:	eafffcec 	b	8090 <hang>

00008cdc <prefetch_abort_handler>:
prefetch_abort_handler():
/home/silhavyj/School/ZeroMate/examples/09-GPIO_interrupt/kernel/src/start.s:102

prefetch_abort_handler:
	;@ tady pak muzeme osetrit, kdyz program zasahne do mista, ktere nema mapovane ve svem virtualnim adr. prostoru
	;@ a treba vyvolat nasi obdobu segfaultu
	b hang
    8cdc:	eafffceb 	b	8090 <hang>

00008ce0 <data_abort_handler>:
data_abort_handler():
/home/silhavyj/School/ZeroMate/examples/09-GPIO_interrupt/kernel/src/start.s:107

data_abort_handler:
	;@ tady pak muzeme osetrit, kdyz program zasahne do mista, ktere nema mapovane ve svem virtualnim adr. prostoru
	;@ a treba vyvolat nasi obdobu segfaultu
	b hang
    8ce0:	eafffcea 	b	8090 <hang>

00008ce4 <_c_startup>:
_c_startup():
/home/silhavyj/School/ZeroMate/examples/09-GPIO_interrupt/kernel/src/startup.cpp:21
extern "C" dtor_ptr __DTOR_LIST__[0];
// konec pole destruktoru
extern "C" dtor_ptr __DTOR_END__[0];

extern "C" int _c_startup(void)
{
    8ce4:	e52db004 	push	{fp}		; (str fp, [sp, #-4]!)
    8ce8:	e28db000 	add	fp, sp, #0
    8cec:	e24dd00c 	sub	sp, sp, #12
/home/silhavyj/School/ZeroMate/examples/09-GPIO_interrupt/kernel/src/startup.cpp:25
    int* i;

    // vynulujeme .bss sekci
    for (i = (int*)_bss_start; i < (int*)_bss_end; i++)
    8cf0:	e59f304c 	ldr	r3, [pc, #76]	; 8d44 <_c_startup+0x60>
    8cf4:	e5933000 	ldr	r3, [r3]
    8cf8:	e50b3008 	str	r3, [fp, #-8]
/home/silhavyj/School/ZeroMate/examples/09-GPIO_interrupt/kernel/src/startup.cpp:25 (discriminator 3)
    8cfc:	e59f3044 	ldr	r3, [pc, #68]	; 8d48 <_c_startup+0x64>
    8d00:	e5933000 	ldr	r3, [r3]
    8d04:	e1a02003 	mov	r2, r3
    8d08:	e51b3008 	ldr	r3, [fp, #-8]
    8d0c:	e1530002 	cmp	r3, r2
    8d10:	2a000006 	bcs	8d30 <_c_startup+0x4c>
/home/silhavyj/School/ZeroMate/examples/09-GPIO_interrupt/kernel/src/startup.cpp:26 (discriminator 2)
        *i = 0;
    8d14:	e51b3008 	ldr	r3, [fp, #-8]
    8d18:	e3a02000 	mov	r2, #0
    8d1c:	e5832000 	str	r2, [r3]
/home/silhavyj/School/ZeroMate/examples/09-GPIO_interrupt/kernel/src/startup.cpp:25 (discriminator 2)
    for (i = (int*)_bss_start; i < (int*)_bss_end; i++)
    8d20:	e51b3008 	ldr	r3, [fp, #-8]
    8d24:	e2833004 	add	r3, r3, #4
    8d28:	e50b3008 	str	r3, [fp, #-8]
    8d2c:	eafffff2 	b	8cfc <_c_startup+0x18>
/home/silhavyj/School/ZeroMate/examples/09-GPIO_interrupt/kernel/src/startup.cpp:28

    return 0;
    8d30:	e3a03000 	mov	r3, #0
/home/silhavyj/School/ZeroMate/examples/09-GPIO_interrupt/kernel/src/startup.cpp:29
}
    8d34:	e1a00003 	mov	r0, r3
    8d38:	e28bd000 	add	sp, fp, #0
    8d3c:	e49db004 	pop	{fp}		; (ldr fp, [sp], #4)
    8d40:	e12fff1e 	bx	lr
    8d44:	00008ecc 	andeq	r8, r0, ip, asr #29
    8d48:	00008ee4 	andeq	r8, r0, r4, ror #29

00008d4c <_cpp_startup>:
_cpp_startup():
/home/silhavyj/School/ZeroMate/examples/09-GPIO_interrupt/kernel/src/startup.cpp:32

extern "C" int _cpp_startup(void)
{
    8d4c:	e92d4800 	push	{fp, lr}
    8d50:	e28db004 	add	fp, sp, #4
    8d54:	e24dd008 	sub	sp, sp, #8
/home/silhavyj/School/ZeroMate/examples/09-GPIO_interrupt/kernel/src/startup.cpp:37
    ctor_ptr* fnptr;

    // zavolame konstruktory globalnich C++ trid
    // v poli __CTOR_LIST__ jsou ukazatele na vygenerovane stuby volani konstruktoru
    for (fnptr = __CTOR_LIST__; fnptr < __CTOR_END__; fnptr++)
    8d58:	e59f303c 	ldr	r3, [pc, #60]	; 8d9c <_cpp_startup+0x50>
    8d5c:	e50b3008 	str	r3, [fp, #-8]
/home/silhavyj/School/ZeroMate/examples/09-GPIO_interrupt/kernel/src/startup.cpp:37 (discriminator 3)
    8d60:	e51b3008 	ldr	r3, [fp, #-8]
    8d64:	e59f2034 	ldr	r2, [pc, #52]	; 8da0 <_cpp_startup+0x54>
    8d68:	e1530002 	cmp	r3, r2
    8d6c:	2a000006 	bcs	8d8c <_cpp_startup+0x40>
/home/silhavyj/School/ZeroMate/examples/09-GPIO_interrupt/kernel/src/startup.cpp:38 (discriminator 2)
        (*fnptr)();
    8d70:	e51b3008 	ldr	r3, [fp, #-8]
    8d74:	e5933000 	ldr	r3, [r3]
    8d78:	e12fff33 	blx	r3
/home/silhavyj/School/ZeroMate/examples/09-GPIO_interrupt/kernel/src/startup.cpp:37 (discriminator 2)
    for (fnptr = __CTOR_LIST__; fnptr < __CTOR_END__; fnptr++)
    8d7c:	e51b3008 	ldr	r3, [fp, #-8]
    8d80:	e2833004 	add	r3, r3, #4
    8d84:	e50b3008 	str	r3, [fp, #-8]
    8d88:	eafffff4 	b	8d60 <_cpp_startup+0x14>
/home/silhavyj/School/ZeroMate/examples/09-GPIO_interrupt/kernel/src/startup.cpp:40

    return 0;
    8d8c:	e3a03000 	mov	r3, #0
/home/silhavyj/School/ZeroMate/examples/09-GPIO_interrupt/kernel/src/startup.cpp:41
}
    8d90:	e1a00003 	mov	r0, r3
    8d94:	e24bd004 	sub	sp, fp, #4
    8d98:	e8bd8800 	pop	{fp, pc}
    8d9c:	00008ec0 	andeq	r8, r0, r0, asr #29
    8da0:	00008ec8 	andeq	r8, r0, r8, asr #29

00008da4 <_cpp_shutdown>:
_cpp_shutdown():
/home/silhavyj/School/ZeroMate/examples/09-GPIO_interrupt/kernel/src/startup.cpp:44

extern "C" int _cpp_shutdown(void)
{
    8da4:	e92d4800 	push	{fp, lr}
    8da8:	e28db004 	add	fp, sp, #4
    8dac:	e24dd008 	sub	sp, sp, #8
/home/silhavyj/School/ZeroMate/examples/09-GPIO_interrupt/kernel/src/startup.cpp:48
    dtor_ptr* fnptr;

    // zavolame destruktory globalnich C++ trid
    for (fnptr = __DTOR_LIST__; fnptr < __DTOR_END__; fnptr++)
    8db0:	e59f303c 	ldr	r3, [pc, #60]	; 8df4 <_cpp_shutdown+0x50>
    8db4:	e50b3008 	str	r3, [fp, #-8]
/home/silhavyj/School/ZeroMate/examples/09-GPIO_interrupt/kernel/src/startup.cpp:48 (discriminator 3)
    8db8:	e51b3008 	ldr	r3, [fp, #-8]
    8dbc:	e59f2034 	ldr	r2, [pc, #52]	; 8df8 <_cpp_shutdown+0x54>
    8dc0:	e1530002 	cmp	r3, r2
    8dc4:	2a000006 	bcs	8de4 <_cpp_shutdown+0x40>
/home/silhavyj/School/ZeroMate/examples/09-GPIO_interrupt/kernel/src/startup.cpp:49 (discriminator 2)
        (*fnptr)();
    8dc8:	e51b3008 	ldr	r3, [fp, #-8]
    8dcc:	e5933000 	ldr	r3, [r3]
    8dd0:	e12fff33 	blx	r3
/home/silhavyj/School/ZeroMate/examples/09-GPIO_interrupt/kernel/src/startup.cpp:48 (discriminator 2)
    for (fnptr = __DTOR_LIST__; fnptr < __DTOR_END__; fnptr++)
    8dd4:	e51b3008 	ldr	r3, [fp, #-8]
    8dd8:	e2833004 	add	r3, r3, #4
    8ddc:	e50b3008 	str	r3, [fp, #-8]
    8de0:	eafffff4 	b	8db8 <_cpp_shutdown+0x14>
/home/silhavyj/School/ZeroMate/examples/09-GPIO_interrupt/kernel/src/startup.cpp:51

    return 0;
    8de4:	e3a03000 	mov	r3, #0
/home/silhavyj/School/ZeroMate/examples/09-GPIO_interrupt/kernel/src/startup.cpp:52
}
    8de8:	e1a00003 	mov	r0, r3
    8dec:	e24bd004 	sub	sp, fp, #4
    8df0:	e8bd8800 	pop	{fp, pc}
    8df4:	00008ec8 	andeq	r8, r0, r8, asr #29
    8df8:	00008ec8 	andeq	r8, r0, r8, asr #29
