
./kernel:     file format elf32-littlearm


Disassembly of section .text:

00008000 <_start>:
_start():
/home/silhavyj/School/ZeroMate/examples/15-DPP_01_external_peripherals/kernel/src/start.s:14
	;@	- sem skoci bootloader, prvni na co narazi je "ldr pc, _reset_ptr" -> tedy se chova jako kdyby slo o reset a skoci na zacatek provadeni
	;@	- v cele svoji krase (vsechny "ldr" instrukce) slouzi jako predloha skutecne tabulce vektoru preruseni
	;@ na dany offset procesor skoci, kdyz je vyvolano libovolne preruseni
	;@ ARM nastavuje rovnou registr PC na tuto adresu, tzn. na teto adrese musi byt kodovana 4B instrukce skoku nekam jinam
	;@ oproti tomu napr. x86 (x86_64) obsahuje v tabulce rovnou adresu a procesor nastavuje PC (CS:IP) na adresu kterou najde v tabulce
	ldr pc, _reset_ptr						;@ 0x00 - reset - vyvolano pri resetu procesoru
    8000:	e59ff018 	ldr	pc, [pc, #24]	; 8020 <_reset_ptr>
/home/silhavyj/School/ZeroMate/examples/15-DPP_01_external_peripherals/kernel/src/start.s:15
	ldr pc, _undefined_instruction_ptr		;@ 0x04 - undefined instruction - vyjimka, vyvolana pri dekodovani nezname instrukce
    8004:	e59ff018 	ldr	pc, [pc, #24]	; 8024 <_undefined_instruction_ptr>
/home/silhavyj/School/ZeroMate/examples/15-DPP_01_external_peripherals/kernel/src/start.s:16
	ldr pc, _software_interrupt_ptr			;@ 0x08 - software interrupt - vyvolano, kdyz procesor provede instrukci swi
    8008:	e59ff018 	ldr	pc, [pc, #24]	; 8028 <_software_interrupt_ptr>
/home/silhavyj/School/ZeroMate/examples/15-DPP_01_external_peripherals/kernel/src/start.s:17
	ldr pc, _prefetch_abort_ptr				;@ 0x0C - prefetch abort - vyvolano, kdyz se procesor snazi napr. nacist instrukci z mista, odkud nacist nejde
    800c:	e59ff018 	ldr	pc, [pc, #24]	; 802c <_prefetch_abort_ptr>
/home/silhavyj/School/ZeroMate/examples/15-DPP_01_external_peripherals/kernel/src/start.s:18
	ldr pc, _data_abort_ptr					;@ 0x10 - data abort - vyvolano, kdyz se procesor snazi napr. nacist data z mista, odkud nacist nejdou
    8010:	e59ff018 	ldr	pc, [pc, #24]	; 8030 <_data_abort_ptr>
/home/silhavyj/School/ZeroMate/examples/15-DPP_01_external_peripherals/kernel/src/start.s:19
	ldr pc, _unused_handler_ptr				;@ 0x14 - unused - ve specifikaci ARM neni uvedeno zadne vyuziti
    8014:	e59ff018 	ldr	pc, [pc, #24]	; 8034 <_unused_handler_ptr>
/home/silhavyj/School/ZeroMate/examples/15-DPP_01_external_peripherals/kernel/src/start.s:20
	ldr pc, _irq_ptr						;@ 0x18 - IRQ - hardwarove preruseni (general purpose)
    8018:	e59ff018 	ldr	pc, [pc, #24]	; 8038 <_irq_ptr>
/home/silhavyj/School/ZeroMate/examples/15-DPP_01_external_peripherals/kernel/src/start.s:21
	ldr pc, _fast_interrupt_ptr				;@ 0x1C - fast interrupt request - prioritni IRQ pro vysokorychlostni zalezitosti
    801c:	e59ff018 	ldr	pc, [pc, #24]	; 803c <_fast_interrupt_ptr>

00008020 <_reset_ptr>:
_reset_ptr():
/home/silhavyj/School/ZeroMate/examples/15-DPP_01_external_peripherals/kernel/src/start.s:21
    8020:	00008040 	andeq	r8, r0, r0, asr #32

00008024 <_undefined_instruction_ptr>:
_undefined_instruction_ptr():
/home/silhavyj/School/ZeroMate/examples/15-DPP_01_external_peripherals/kernel/src/start.s:21
    8024:	0000ce00 	andeq	ip, r0, r0, lsl #28

00008028 <_software_interrupt_ptr>:
_software_interrupt_ptr():
/home/silhavyj/School/ZeroMate/examples/15-DPP_01_external_peripherals/kernel/src/start.s:21
    8028:	0000ce04 	andeq	ip, r0, r4, lsl #28

0000802c <_prefetch_abort_ptr>:
_prefetch_abort_ptr():
/home/silhavyj/School/ZeroMate/examples/15-DPP_01_external_peripherals/kernel/src/start.s:21
    802c:	0000ce4c 	andeq	ip, r0, ip, asr #28

00008030 <_data_abort_ptr>:
_data_abort_ptr():
/home/silhavyj/School/ZeroMate/examples/15-DPP_01_external_peripherals/kernel/src/start.s:21
    8030:	0000ce50 	andeq	ip, r0, r0, asr lr

00008034 <_unused_handler_ptr>:
_unused_handler_ptr():
/home/silhavyj/School/ZeroMate/examples/15-DPP_01_external_peripherals/kernel/src/start.s:21
    8034:	00008040 	andeq	r8, r0, r0, asr #32

00008038 <_irq_ptr>:
_irq_ptr():
/home/silhavyj/School/ZeroMate/examples/15-DPP_01_external_peripherals/kernel/src/start.s:21
    8038:	0000ce24 	andeq	ip, r0, r4, lsr #28

0000803c <_fast_interrupt_ptr>:
_fast_interrupt_ptr():
/home/silhavyj/School/ZeroMate/examples/15-DPP_01_external_peripherals/kernel/src/start.s:21
    803c:	0000b854 	andeq	fp, r0, r4, asr r8

00008040 <_reset>:
_reset():
/home/silhavyj/School/ZeroMate/examples/15-DPP_01_external_peripherals/kernel/src/start.s:52


;@ kernel reset vektor - tento kod se vykona pri kazdem resetu zarizeni (i prvnim spusteni)
_reset:
	;@ nacteni tabulky vektoru preruseni do pameti
	mov r0, #0x8000			;@ adresa 0x8000 (_start) do r0
    8040:	e3a00902 	mov	r0, #32768	; 0x8000
/home/silhavyj/School/ZeroMate/examples/15-DPP_01_external_peripherals/kernel/src/start.s:53
    mov r1, #0x0000			;@ adresa 0x0000 (pocatek RAM) do r1 - tam budeme vkladat tabulku vektoru preruseni
    8044:	e3a01000 	mov	r1, #0
/home/silhavyj/School/ZeroMate/examples/15-DPP_01_external_peripherals/kernel/src/start.s:57

	;@ Thumb instrukce - nacteni 4B slov z pameti ulozene v r0 (0x8000) do registru r2, 3, ... 9
	;@                 - ulozeni obsahu registru r2, 3, ... 9 do pameti ulozene v registru r1 (0x0000)
    ldmia r0!,{r2, r3, r4, r5, r6, r7, r8, r9}
    8048:	e8b003fc 	ldm	r0!, {r2, r3, r4, r5, r6, r7, r8, r9}
/home/silhavyj/School/ZeroMate/examples/15-DPP_01_external_peripherals/kernel/src/start.s:58
    stmia r1!,{r2, r3, r4, r5, r6, r7, r8, r9}
    804c:	e8a103fc 	stmia	r1!, {r2, r3, r4, r5, r6, r7, r8, r9}
/home/silhavyj/School/ZeroMate/examples/15-DPP_01_external_peripherals/kernel/src/start.s:59
    ldmia r0!,{r2, r3, r4, r5, r6, r7, r8, r9}
    8050:	e8b003fc 	ldm	r0!, {r2, r3, r4, r5, r6, r7, r8, r9}
/home/silhavyj/School/ZeroMate/examples/15-DPP_01_external_peripherals/kernel/src/start.s:60
    stmia r1!,{r2, r3, r4, r5, r6, r7, r8, r9}
    8054:	e8a103fc 	stmia	r1!, {r2, r3, r4, r5, r6, r7, r8, r9}
/home/silhavyj/School/ZeroMate/examples/15-DPP_01_external_peripherals/kernel/src/start.s:63

	;@ baze pro systemove zasobniky
	mov r4, #0x0
    8058:	e3a04000 	mov	r4, #0
/home/silhavyj/School/ZeroMate/examples/15-DPP_01_external_peripherals/kernel/src/start.s:66

	;@ nejdrive supervisor mod a jeho stack
    mov r0, #(CPSR_MODE_SVR | CPSR_IRQ_INHIBIT | CPSR_FIQ_INHIBIT)
    805c:	e3a000d3 	mov	r0, #211	; 0xd3
/home/silhavyj/School/ZeroMate/examples/15-DPP_01_external_peripherals/kernel/src/start.s:67
    msr cpsr_c, r0
    8060:	e121f000 	msr	CPSR_c, r0
/home/silhavyj/School/ZeroMate/examples/15-DPP_01_external_peripherals/kernel/src/start.s:68
	add sp, r4, #0x8000
    8064:	e284d902 	add	sp, r4, #32768	; 0x8000
/home/silhavyj/School/ZeroMate/examples/15-DPP_01_external_peripherals/kernel/src/start.s:71

	;@ na moment se prepneme do IRQ rezimu, nastavime mu stack pointer
	mov r0, #(CPSR_MODE_IRQ | CPSR_IRQ_INHIBIT | CPSR_FIQ_INHIBIT)
    8068:	e3a000d2 	mov	r0, #210	; 0xd2
/home/silhavyj/School/ZeroMate/examples/15-DPP_01_external_peripherals/kernel/src/start.s:72
    msr cpsr_c, r0
    806c:	e121f000 	msr	CPSR_c, r0
/home/silhavyj/School/ZeroMate/examples/15-DPP_01_external_peripherals/kernel/src/start.s:73
	add sp, r4, #0x7000
    8070:	e284da07 	add	sp, r4, #28672	; 0x7000
/home/silhavyj/School/ZeroMate/examples/15-DPP_01_external_peripherals/kernel/src/start.s:76

	;@ na moment se prepneme do FIQ rezimu, nastavime mu stack pointer
	mov r0, #(CPSR_MODE_FIQ | CPSR_IRQ_INHIBIT | CPSR_FIQ_INHIBIT)
    8074:	e3a000d1 	mov	r0, #209	; 0xd1
/home/silhavyj/School/ZeroMate/examples/15-DPP_01_external_peripherals/kernel/src/start.s:77
    msr cpsr_c, r0
    8078:	e121f000 	msr	CPSR_c, r0
/home/silhavyj/School/ZeroMate/examples/15-DPP_01_external_peripherals/kernel/src/start.s:78
	add sp, r4, #0x6000
    807c:	e284da06 	add	sp, r4, #24576	; 0x6000
/home/silhavyj/School/ZeroMate/examples/15-DPP_01_external_peripherals/kernel/src/start.s:81

	;@ nakonec system mod a stack
    mov r0, #(CPSR_MODE_SYS | CPSR_IRQ_INHIBIT | CPSR_FIQ_INHIBIT)
    8080:	e3a000df 	mov	r0, #223	; 0xdf
/home/silhavyj/School/ZeroMate/examples/15-DPP_01_external_peripherals/kernel/src/start.s:82
    msr cpsr_c, r0
    8084:	e121f000 	msr	CPSR_c, r0
/home/silhavyj/School/ZeroMate/examples/15-DPP_01_external_peripherals/kernel/src/start.s:83
	add sp, r4, #0x5000
    8088:	e284da05 	add	sp, r4, #20480	; 0x5000
/home/silhavyj/School/ZeroMate/examples/15-DPP_01_external_peripherals/kernel/src/start.s:86

	;@ zapneme nezarovnany pristup do pameti (nemusi byt zadouci, ale pro nase potreby je to v poradku)
	mrc p15, #0, r4, c1, c0, #0
    808c:	ee114f10 	mrc	15, 0, r4, cr1, cr0, {0}
/home/silhavyj/School/ZeroMate/examples/15-DPP_01_external_peripherals/kernel/src/start.s:87
	orr r4, #0x400000
    8090:	e3844501 	orr	r4, r4, #4194304	; 0x400000
/home/silhavyj/School/ZeroMate/examples/15-DPP_01_external_peripherals/kernel/src/start.s:88
	mcr p15, #0, r4, c1, c0, #0
    8094:	ee014f10 	mcr	15, 0, r4, cr1, cr0, {0}
/home/silhavyj/School/ZeroMate/examples/15-DPP_01_external_peripherals/kernel/src/start.s:90

	bl _c_startup			;@ C startup kod (inicializace prostredi)
    8098:	eb00136d 	bl	ce54 <_c_startup>
/home/silhavyj/School/ZeroMate/examples/15-DPP_01_external_peripherals/kernel/src/start.s:91
	bl _cpp_startup			;@ C++ startup kod (volani globalnich konstruktoru, ...)
    809c:	eb001386 	bl	cebc <_cpp_startup>
/home/silhavyj/School/ZeroMate/examples/15-DPP_01_external_peripherals/kernel/src/start.s:92
	bl _kernel_main			;@ skocime do hlavniho kodu jadra (v C)
    80a0:	eb000e77 	bl	ba84 <_kernel_main>
/home/silhavyj/School/ZeroMate/examples/15-DPP_01_external_peripherals/kernel/src/start.s:93
	bl _cpp_shutdown		;@ C++ shutdown kod (volani globalnich destruktoru, ...)
    80a4:	eb00139a 	bl	cf14 <_cpp_shutdown>

000080a8 <hang>:
hang():
/home/silhavyj/School/ZeroMate/examples/15-DPP_01_external_peripherals/kernel/src/start.s:95
hang:
	b hang
    80a8:	eafffffe 	b	80a8 <hang>

000080ac <__cxa_guard_acquire>:
__cxa_guard_acquire():
/home/silhavyj/School/ZeroMate/examples/15-DPP_01_external_peripherals/kernel/src/cxx.cpp:11
	extern "C" int __cxa_guard_acquire (__guard *);
	extern "C" void __cxa_guard_release (__guard *);
	extern "C" void __cxa_guard_abort (__guard *);

	extern "C" int __cxa_guard_acquire (__guard *g)
	{
    80ac:	e52db004 	push	{fp}		; (str fp, [sp, #-4]!)
    80b0:	e28db000 	add	fp, sp, #0
    80b4:	e24dd00c 	sub	sp, sp, #12
    80b8:	e50b0008 	str	r0, [fp, #-8]
/home/silhavyj/School/ZeroMate/examples/15-DPP_01_external_peripherals/kernel/src/cxx.cpp:12
		return !*(char *)(g);
    80bc:	e51b3008 	ldr	r3, [fp, #-8]
    80c0:	e5d33000 	ldrb	r3, [r3]
    80c4:	e3530000 	cmp	r3, #0
    80c8:	03a03001 	moveq	r3, #1
    80cc:	13a03000 	movne	r3, #0
    80d0:	e6ef3073 	uxtb	r3, r3
/home/silhavyj/School/ZeroMate/examples/15-DPP_01_external_peripherals/kernel/src/cxx.cpp:13
	}
    80d4:	e1a00003 	mov	r0, r3
    80d8:	e28bd000 	add	sp, fp, #0
    80dc:	e49db004 	pop	{fp}		; (ldr fp, [sp], #4)
    80e0:	e12fff1e 	bx	lr

000080e4 <__cxa_guard_release>:
__cxa_guard_release():
/home/silhavyj/School/ZeroMate/examples/15-DPP_01_external_peripherals/kernel/src/cxx.cpp:16

	extern "C" void __cxa_guard_release (__guard *g)
	{
    80e4:	e52db004 	push	{fp}		; (str fp, [sp, #-4]!)
    80e8:	e28db000 	add	fp, sp, #0
    80ec:	e24dd00c 	sub	sp, sp, #12
    80f0:	e50b0008 	str	r0, [fp, #-8]
/home/silhavyj/School/ZeroMate/examples/15-DPP_01_external_peripherals/kernel/src/cxx.cpp:17
		*(char *)g = 1;
    80f4:	e51b3008 	ldr	r3, [fp, #-8]
    80f8:	e3a02001 	mov	r2, #1
    80fc:	e5c32000 	strb	r2, [r3]
/home/silhavyj/School/ZeroMate/examples/15-DPP_01_external_peripherals/kernel/src/cxx.cpp:18
	}
    8100:	e320f000 	nop	{0}
    8104:	e28bd000 	add	sp, fp, #0
    8108:	e49db004 	pop	{fp}		; (ldr fp, [sp], #4)
    810c:	e12fff1e 	bx	lr

00008110 <__cxa_guard_abort>:
__cxa_guard_abort():
/home/silhavyj/School/ZeroMate/examples/15-DPP_01_external_peripherals/kernel/src/cxx.cpp:21

	extern "C" void __cxa_guard_abort (__guard *)
	{
    8110:	e52db004 	push	{fp}		; (str fp, [sp, #-4]!)
    8114:	e28db000 	add	fp, sp, #0
    8118:	e24dd00c 	sub	sp, sp, #12
    811c:	e50b0008 	str	r0, [fp, #-8]
/home/silhavyj/School/ZeroMate/examples/15-DPP_01_external_peripherals/kernel/src/cxx.cpp:23

	}
    8120:	e320f000 	nop	{0}
    8124:	e28bd000 	add	sp, fp, #0
    8128:	e49db004 	pop	{fp}		; (ldr fp, [sp], #4)
    812c:	e12fff1e 	bx	lr

00008130 <__dso_handle>:
__dso_handle():
/home/silhavyj/School/ZeroMate/examples/15-DPP_01_external_peripherals/kernel/src/cxx.cpp:27
}

extern "C" void __dso_handle()
{
    8130:	e52db004 	push	{fp}		; (str fp, [sp, #-4]!)
    8134:	e28db000 	add	fp, sp, #0
/home/silhavyj/School/ZeroMate/examples/15-DPP_01_external_peripherals/kernel/src/cxx.cpp:29
    // ignore dtors for now
}
    8138:	e320f000 	nop	{0}
    813c:	e28bd000 	add	sp, fp, #0
    8140:	e49db004 	pop	{fp}		; (ldr fp, [sp], #4)
    8144:	e12fff1e 	bx	lr

00008148 <__cxa_atexit>:
__cxa_atexit():
/home/silhavyj/School/ZeroMate/examples/15-DPP_01_external_peripherals/kernel/src/cxx.cpp:32

extern "C" void __cxa_atexit()
{
    8148:	e52db004 	push	{fp}		; (str fp, [sp, #-4]!)
    814c:	e28db000 	add	fp, sp, #0
/home/silhavyj/School/ZeroMate/examples/15-DPP_01_external_peripherals/kernel/src/cxx.cpp:34
    // ignore dtors for now
}
    8150:	e320f000 	nop	{0}
    8154:	e28bd000 	add	sp, fp, #0
    8158:	e49db004 	pop	{fp}		; (ldr fp, [sp], #4)
    815c:	e12fff1e 	bx	lr

00008160 <__cxa_pure_virtual>:
__cxa_pure_virtual():
/home/silhavyj/School/ZeroMate/examples/15-DPP_01_external_peripherals/kernel/src/cxx.cpp:37

extern "C" void __cxa_pure_virtual()
{
    8160:	e52db004 	push	{fp}		; (str fp, [sp, #-4]!)
    8164:	e28db000 	add	fp, sp, #0
/home/silhavyj/School/ZeroMate/examples/15-DPP_01_external_peripherals/kernel/src/cxx.cpp:39
    // pure virtual method called
}
    8168:	e320f000 	nop	{0}
    816c:	e28bd000 	add	sp, fp, #0
    8170:	e49db004 	pop	{fp}		; (ldr fp, [sp], #4)
    8174:	e12fff1e 	bx	lr

00008178 <__aeabi_unwind_cpp_pr1>:
__aeabi_unwind_cpp_pr1():
/home/silhavyj/School/ZeroMate/examples/15-DPP_01_external_peripherals/kernel/src/cxx.cpp:42

extern "C" void __aeabi_unwind_cpp_pr1()
{
    8178:	e52db004 	push	{fp}		; (str fp, [sp, #-4]!)
    817c:	e28db000 	add	fp, sp, #0
/home/silhavyj/School/ZeroMate/examples/15-DPP_01_external_peripherals/kernel/src/cxx.cpp:43 (discriminator 1)
	while (true)
    8180:	eafffffe 	b	8180 <__aeabi_unwind_cpp_pr1+0x8>

00008184 <_ZN13CGPIO_HandlerC1Ej>:
_ZN13CGPIO_HandlerC2Ej():
/home/silhavyj/School/ZeroMate/examples/15-DPP_01_external_peripherals/kernel/src/drivers/gpio.cpp:8

#include <stdstring.h>

CGPIO_Handler sGPIO(hal::GPIO_Base);

CGPIO_Handler::CGPIO_Handler(unsigned int gpio_base_addr)
    8184:	e92d4800 	push	{fp, lr}
    8188:	e28db004 	add	fp, sp, #4
    818c:	e24dd008 	sub	sp, sp, #8
    8190:	e50b0008 	str	r0, [fp, #-8]
    8194:	e50b100c 	str	r1, [fp, #-12]
/home/silhavyj/School/ZeroMate/examples/15-DPP_01_external_peripherals/kernel/src/drivers/gpio.cpp:9
	: mGPIO(reinterpret_cast<unsigned int*>(gpio_base_addr))
    8198:	e51b200c 	ldr	r2, [fp, #-12]
    819c:	e51b3008 	ldr	r3, [fp, #-8]
    81a0:	e5832000 	str	r2, [r3]
/home/silhavyj/School/ZeroMate/examples/15-DPP_01_external_peripherals/kernel/src/drivers/gpio.cpp:11
{
	bzero(&mPin_Reservations_Read, sizeof(mPin_Reservations_Read));
    81a4:	e51b3008 	ldr	r3, [fp, #-8]
    81a8:	e2833004 	add	r3, r3, #4
    81ac:	e3a01008 	mov	r1, #8
    81b0:	e1a00003 	mov	r0, r3
    81b4:	eb001602 	bl	d9c4 <_Z5bzeroPvi>
/home/silhavyj/School/ZeroMate/examples/15-DPP_01_external_peripherals/kernel/src/drivers/gpio.cpp:12
	bzero(&mPin_Reservations_Write, sizeof(mPin_Reservations_Write));
    81b8:	e51b3008 	ldr	r3, [fp, #-8]
    81bc:	e283300c 	add	r3, r3, #12
    81c0:	e3a01008 	mov	r1, #8
    81c4:	e1a00003 	mov	r0, r3
    81c8:	eb0015fd 	bl	d9c4 <_Z5bzeroPvi>
/home/silhavyj/School/ZeroMate/examples/15-DPP_01_external_peripherals/kernel/src/drivers/gpio.cpp:13
}
    81cc:	e51b3008 	ldr	r3, [fp, #-8]
    81d0:	e1a00003 	mov	r0, r3
    81d4:	e24bd004 	sub	sp, fp, #4
    81d8:	e8bd8800 	pop	{fp, pc}

000081dc <_ZNK13CGPIO_Handler19Get_GPFSEL_LocationEjRjS0_>:
_ZNK13CGPIO_Handler19Get_GPFSEL_LocationEjRjS0_():
/home/silhavyj/School/ZeroMate/examples/15-DPP_01_external_peripherals/kernel/src/drivers/gpio.cpp:16

bool CGPIO_Handler::Get_GPFSEL_Location(uint32_t pin, uint32_t& reg, uint32_t& bit_idx) const
{
    81dc:	e52db004 	push	{fp}		; (str fp, [sp, #-4]!)
    81e0:	e28db000 	add	fp, sp, #0
    81e4:	e24dd014 	sub	sp, sp, #20
    81e8:	e50b0008 	str	r0, [fp, #-8]
    81ec:	e50b100c 	str	r1, [fp, #-12]
    81f0:	e50b2010 	str	r2, [fp, #-16]
    81f4:	e50b3014 	str	r3, [fp, #-20]	; 0xffffffec
/home/silhavyj/School/ZeroMate/examples/15-DPP_01_external_peripherals/kernel/src/drivers/gpio.cpp:17
	if (pin > hal::GPIO_Pin_Count)
    81f8:	e51b300c 	ldr	r3, [fp, #-12]
    81fc:	e3530036 	cmp	r3, #54	; 0x36
    8200:	9a000001 	bls	820c <_ZNK13CGPIO_Handler19Get_GPFSEL_LocationEjRjS0_+0x30>
/home/silhavyj/School/ZeroMate/examples/15-DPP_01_external_peripherals/kernel/src/drivers/gpio.cpp:18
		return false;
    8204:	e3a03000 	mov	r3, #0
    8208:	ea000014 	b	8260 <_ZNK13CGPIO_Handler19Get_GPFSEL_LocationEjRjS0_+0x84>
/home/silhavyj/School/ZeroMate/examples/15-DPP_01_external_peripherals/kernel/src/drivers/gpio.cpp:20
	
	reg = pin / 10;
    820c:	e51b300c 	ldr	r3, [fp, #-12]
    8210:	e59f2058 	ldr	r2, [pc, #88]	; 8270 <_ZNK13CGPIO_Handler19Get_GPFSEL_LocationEjRjS0_+0x94>
    8214:	e0832392 	umull	r2, r3, r2, r3
    8218:	e1a021a3 	lsr	r2, r3, #3
    821c:	e51b3010 	ldr	r3, [fp, #-16]
    8220:	e5832000 	str	r2, [r3]
/home/silhavyj/School/ZeroMate/examples/15-DPP_01_external_peripherals/kernel/src/drivers/gpio.cpp:31
		case 3: reg = static_cast<uint32_t>(hal::GPIO_Reg::GPFSEL3); break;
		case 4: reg = static_cast<uint32_t>(hal::GPIO_Reg::GPFSEL4); break;
		case 5: reg = static_cast<uint32_t>(hal::GPIO_Reg::GPFSEL5); break;
	}*/
	
	bit_idx = (pin % 10) * 3;
    8224:	e51b100c 	ldr	r1, [fp, #-12]
    8228:	e59f3040 	ldr	r3, [pc, #64]	; 8270 <_ZNK13CGPIO_Handler19Get_GPFSEL_LocationEjRjS0_+0x94>
    822c:	e0832193 	umull	r2, r3, r3, r1
    8230:	e1a021a3 	lsr	r2, r3, #3
    8234:	e1a03002 	mov	r3, r2
    8238:	e1a03103 	lsl	r3, r3, #2
    823c:	e0833002 	add	r3, r3, r2
    8240:	e1a03083 	lsl	r3, r3, #1
    8244:	e0412003 	sub	r2, r1, r3
    8248:	e1a03002 	mov	r3, r2
    824c:	e1a03083 	lsl	r3, r3, #1
    8250:	e0832002 	add	r2, r3, r2
    8254:	e51b3014 	ldr	r3, [fp, #-20]	; 0xffffffec
    8258:	e5832000 	str	r2, [r3]
/home/silhavyj/School/ZeroMate/examples/15-DPP_01_external_peripherals/kernel/src/drivers/gpio.cpp:33
	
	return true;
    825c:	e3a03001 	mov	r3, #1
/home/silhavyj/School/ZeroMate/examples/15-DPP_01_external_peripherals/kernel/src/drivers/gpio.cpp:34
}
    8260:	e1a00003 	mov	r0, r3
    8264:	e28bd000 	add	sp, fp, #0
    8268:	e49db004 	pop	{fp}		; (ldr fp, [sp], #4)
    826c:	e12fff1e 	bx	lr
    8270:	cccccccd 	stclgt	12, cr12, [ip], {205}	; 0xcd

00008274 <_ZNK13CGPIO_Handler18Get_GPCLR_LocationEjRjS0_>:
_ZNK13CGPIO_Handler18Get_GPCLR_LocationEjRjS0_():
/home/silhavyj/School/ZeroMate/examples/15-DPP_01_external_peripherals/kernel/src/drivers/gpio.cpp:37

bool CGPIO_Handler::Get_GPCLR_Location(uint32_t pin, uint32_t& reg, uint32_t& bit_idx) const
{
    8274:	e52db004 	push	{fp}		; (str fp, [sp, #-4]!)
    8278:	e28db000 	add	fp, sp, #0
    827c:	e24dd014 	sub	sp, sp, #20
    8280:	e50b0008 	str	r0, [fp, #-8]
    8284:	e50b100c 	str	r1, [fp, #-12]
    8288:	e50b2010 	str	r2, [fp, #-16]
    828c:	e50b3014 	str	r3, [fp, #-20]	; 0xffffffec
/home/silhavyj/School/ZeroMate/examples/15-DPP_01_external_peripherals/kernel/src/drivers/gpio.cpp:38
	if (pin > hal::GPIO_Pin_Count)
    8290:	e51b300c 	ldr	r3, [fp, #-12]
    8294:	e3530036 	cmp	r3, #54	; 0x36
    8298:	9a000001 	bls	82a4 <_ZNK13CGPIO_Handler18Get_GPCLR_LocationEjRjS0_+0x30>
/home/silhavyj/School/ZeroMate/examples/15-DPP_01_external_peripherals/kernel/src/drivers/gpio.cpp:39
		return false;
    829c:	e3a03000 	mov	r3, #0
    82a0:	ea00000c 	b	82d8 <_ZNK13CGPIO_Handler18Get_GPCLR_LocationEjRjS0_+0x64>
/home/silhavyj/School/ZeroMate/examples/15-DPP_01_external_peripherals/kernel/src/drivers/gpio.cpp:41
	
	reg = static_cast<uint32_t>((pin < 32) ? hal::GPIO_Reg::GPCLR0 : hal::GPIO_Reg::GPCLR1);
    82a4:	e51b300c 	ldr	r3, [fp, #-12]
    82a8:	e353001f 	cmp	r3, #31
    82ac:	8a000001 	bhi	82b8 <_ZNK13CGPIO_Handler18Get_GPCLR_LocationEjRjS0_+0x44>
/home/silhavyj/School/ZeroMate/examples/15-DPP_01_external_peripherals/kernel/src/drivers/gpio.cpp:41 (discriminator 1)
    82b0:	e3a0200a 	mov	r2, #10
    82b4:	ea000000 	b	82bc <_ZNK13CGPIO_Handler18Get_GPCLR_LocationEjRjS0_+0x48>
/home/silhavyj/School/ZeroMate/examples/15-DPP_01_external_peripherals/kernel/src/drivers/gpio.cpp:41 (discriminator 2)
    82b8:	e3a0200b 	mov	r2, #11
/home/silhavyj/School/ZeroMate/examples/15-DPP_01_external_peripherals/kernel/src/drivers/gpio.cpp:41 (discriminator 4)
    82bc:	e51b3010 	ldr	r3, [fp, #-16]
    82c0:	e5832000 	str	r2, [r3]
/home/silhavyj/School/ZeroMate/examples/15-DPP_01_external_peripherals/kernel/src/drivers/gpio.cpp:42 (discriminator 4)
	bit_idx = pin % 32;
    82c4:	e51b300c 	ldr	r3, [fp, #-12]
    82c8:	e203201f 	and	r2, r3, #31
    82cc:	e51b3014 	ldr	r3, [fp, #-20]	; 0xffffffec
    82d0:	e5832000 	str	r2, [r3]
/home/silhavyj/School/ZeroMate/examples/15-DPP_01_external_peripherals/kernel/src/drivers/gpio.cpp:44 (discriminator 4)
	
	return true;
    82d4:	e3a03001 	mov	r3, #1
/home/silhavyj/School/ZeroMate/examples/15-DPP_01_external_peripherals/kernel/src/drivers/gpio.cpp:45
}
    82d8:	e1a00003 	mov	r0, r3
    82dc:	e28bd000 	add	sp, fp, #0
    82e0:	e49db004 	pop	{fp}		; (ldr fp, [sp], #4)
    82e4:	e12fff1e 	bx	lr

000082e8 <_ZNK13CGPIO_Handler18Get_GPSET_LocationEjRjS0_>:
_ZNK13CGPIO_Handler18Get_GPSET_LocationEjRjS0_():
/home/silhavyj/School/ZeroMate/examples/15-DPP_01_external_peripherals/kernel/src/drivers/gpio.cpp:48

bool CGPIO_Handler::Get_GPSET_Location(uint32_t pin, uint32_t& reg, uint32_t& bit_idx) const
{
    82e8:	e52db004 	push	{fp}		; (str fp, [sp, #-4]!)
    82ec:	e28db000 	add	fp, sp, #0
    82f0:	e24dd014 	sub	sp, sp, #20
    82f4:	e50b0008 	str	r0, [fp, #-8]
    82f8:	e50b100c 	str	r1, [fp, #-12]
    82fc:	e50b2010 	str	r2, [fp, #-16]
    8300:	e50b3014 	str	r3, [fp, #-20]	; 0xffffffec
/home/silhavyj/School/ZeroMate/examples/15-DPP_01_external_peripherals/kernel/src/drivers/gpio.cpp:49
	if (pin > hal::GPIO_Pin_Count)
    8304:	e51b300c 	ldr	r3, [fp, #-12]
    8308:	e3530036 	cmp	r3, #54	; 0x36
    830c:	9a000001 	bls	8318 <_ZNK13CGPIO_Handler18Get_GPSET_LocationEjRjS0_+0x30>
/home/silhavyj/School/ZeroMate/examples/15-DPP_01_external_peripherals/kernel/src/drivers/gpio.cpp:50
		return false;
    8310:	e3a03000 	mov	r3, #0
    8314:	ea00000c 	b	834c <_ZNK13CGPIO_Handler18Get_GPSET_LocationEjRjS0_+0x64>
/home/silhavyj/School/ZeroMate/examples/15-DPP_01_external_peripherals/kernel/src/drivers/gpio.cpp:52
	
	reg = static_cast<uint32_t>((pin < 32) ? hal::GPIO_Reg::GPSET0 : hal::GPIO_Reg::GPSET1);
    8318:	e51b300c 	ldr	r3, [fp, #-12]
    831c:	e353001f 	cmp	r3, #31
    8320:	8a000001 	bhi	832c <_ZNK13CGPIO_Handler18Get_GPSET_LocationEjRjS0_+0x44>
/home/silhavyj/School/ZeroMate/examples/15-DPP_01_external_peripherals/kernel/src/drivers/gpio.cpp:52 (discriminator 1)
    8324:	e3a02007 	mov	r2, #7
    8328:	ea000000 	b	8330 <_ZNK13CGPIO_Handler18Get_GPSET_LocationEjRjS0_+0x48>
/home/silhavyj/School/ZeroMate/examples/15-DPP_01_external_peripherals/kernel/src/drivers/gpio.cpp:52 (discriminator 2)
    832c:	e3a02008 	mov	r2, #8
/home/silhavyj/School/ZeroMate/examples/15-DPP_01_external_peripherals/kernel/src/drivers/gpio.cpp:52 (discriminator 4)
    8330:	e51b3010 	ldr	r3, [fp, #-16]
    8334:	e5832000 	str	r2, [r3]
/home/silhavyj/School/ZeroMate/examples/15-DPP_01_external_peripherals/kernel/src/drivers/gpio.cpp:53 (discriminator 4)
	bit_idx = pin % 32;
    8338:	e51b300c 	ldr	r3, [fp, #-12]
    833c:	e203201f 	and	r2, r3, #31
    8340:	e51b3014 	ldr	r3, [fp, #-20]	; 0xffffffec
    8344:	e5832000 	str	r2, [r3]
/home/silhavyj/School/ZeroMate/examples/15-DPP_01_external_peripherals/kernel/src/drivers/gpio.cpp:55 (discriminator 4)
	
	return true;
    8348:	e3a03001 	mov	r3, #1
/home/silhavyj/School/ZeroMate/examples/15-DPP_01_external_peripherals/kernel/src/drivers/gpio.cpp:56
}
    834c:	e1a00003 	mov	r0, r3
    8350:	e28bd000 	add	sp, fp, #0
    8354:	e49db004 	pop	{fp}		; (ldr fp, [sp], #4)
    8358:	e12fff1e 	bx	lr

0000835c <_ZNK13CGPIO_Handler18Get_GPLEV_LocationEjRjS0_>:
_ZNK13CGPIO_Handler18Get_GPLEV_LocationEjRjS0_():
/home/silhavyj/School/ZeroMate/examples/15-DPP_01_external_peripherals/kernel/src/drivers/gpio.cpp:59

bool CGPIO_Handler::Get_GPLEV_Location(uint32_t pin, uint32_t& reg, uint32_t& bit_idx) const
{
    835c:	e52db004 	push	{fp}		; (str fp, [sp, #-4]!)
    8360:	e28db000 	add	fp, sp, #0
    8364:	e24dd014 	sub	sp, sp, #20
    8368:	e50b0008 	str	r0, [fp, #-8]
    836c:	e50b100c 	str	r1, [fp, #-12]
    8370:	e50b2010 	str	r2, [fp, #-16]
    8374:	e50b3014 	str	r3, [fp, #-20]	; 0xffffffec
/home/silhavyj/School/ZeroMate/examples/15-DPP_01_external_peripherals/kernel/src/drivers/gpio.cpp:60
	if (pin > hal::GPIO_Pin_Count)
    8378:	e51b300c 	ldr	r3, [fp, #-12]
    837c:	e3530036 	cmp	r3, #54	; 0x36
    8380:	9a000001 	bls	838c <_ZNK13CGPIO_Handler18Get_GPLEV_LocationEjRjS0_+0x30>
/home/silhavyj/School/ZeroMate/examples/15-DPP_01_external_peripherals/kernel/src/drivers/gpio.cpp:61
		return false;
    8384:	e3a03000 	mov	r3, #0
    8388:	ea00000c 	b	83c0 <_ZNK13CGPIO_Handler18Get_GPLEV_LocationEjRjS0_+0x64>
/home/silhavyj/School/ZeroMate/examples/15-DPP_01_external_peripherals/kernel/src/drivers/gpio.cpp:63
	
	reg = static_cast<uint32_t>((pin < 32) ? hal::GPIO_Reg::GPLEV0 : hal::GPIO_Reg::GPLEV1);
    838c:	e51b300c 	ldr	r3, [fp, #-12]
    8390:	e353001f 	cmp	r3, #31
    8394:	8a000001 	bhi	83a0 <_ZNK13CGPIO_Handler18Get_GPLEV_LocationEjRjS0_+0x44>
/home/silhavyj/School/ZeroMate/examples/15-DPP_01_external_peripherals/kernel/src/drivers/gpio.cpp:63 (discriminator 1)
    8398:	e3a0200d 	mov	r2, #13
    839c:	ea000000 	b	83a4 <_ZNK13CGPIO_Handler18Get_GPLEV_LocationEjRjS0_+0x48>
/home/silhavyj/School/ZeroMate/examples/15-DPP_01_external_peripherals/kernel/src/drivers/gpio.cpp:63 (discriminator 2)
    83a0:	e3a0200e 	mov	r2, #14
/home/silhavyj/School/ZeroMate/examples/15-DPP_01_external_peripherals/kernel/src/drivers/gpio.cpp:63 (discriminator 4)
    83a4:	e51b3010 	ldr	r3, [fp, #-16]
    83a8:	e5832000 	str	r2, [r3]
/home/silhavyj/School/ZeroMate/examples/15-DPP_01_external_peripherals/kernel/src/drivers/gpio.cpp:64 (discriminator 4)
	bit_idx = pin % 32;
    83ac:	e51b300c 	ldr	r3, [fp, #-12]
    83b0:	e203201f 	and	r2, r3, #31
    83b4:	e51b3014 	ldr	r3, [fp, #-20]	; 0xffffffec
    83b8:	e5832000 	str	r2, [r3]
/home/silhavyj/School/ZeroMate/examples/15-DPP_01_external_peripherals/kernel/src/drivers/gpio.cpp:66 (discriminator 4)
	
	return true;
    83bc:	e3a03001 	mov	r3, #1
/home/silhavyj/School/ZeroMate/examples/15-DPP_01_external_peripherals/kernel/src/drivers/gpio.cpp:67
}
    83c0:	e1a00003 	mov	r0, r3
    83c4:	e28bd000 	add	sp, fp, #0
    83c8:	e49db004 	pop	{fp}		; (ldr fp, [sp], #4)
    83cc:	e12fff1e 	bx	lr

000083d0 <_ZN13CGPIO_Handler17Set_GPIO_FunctionEj14NGPIO_Function>:
_ZN13CGPIO_Handler17Set_GPIO_FunctionEj14NGPIO_Function():
/home/silhavyj/School/ZeroMate/examples/15-DPP_01_external_peripherals/kernel/src/drivers/gpio.cpp:70
		
void CGPIO_Handler::Set_GPIO_Function(uint32_t pin, NGPIO_Function func)
{
    83d0:	e92d4800 	push	{fp, lr}
    83d4:	e28db004 	add	fp, sp, #4
    83d8:	e24dd020 	sub	sp, sp, #32
    83dc:	e50b0018 	str	r0, [fp, #-24]	; 0xffffffe8
    83e0:	e50b101c 	str	r1, [fp, #-28]	; 0xffffffe4
    83e4:	e50b2020 	str	r2, [fp, #-32]	; 0xffffffe0
/home/silhavyj/School/ZeroMate/examples/15-DPP_01_external_peripherals/kernel/src/drivers/gpio.cpp:72
	uint32_t reg, bit;
	if (!Get_GPFSEL_Location(pin, reg, bit))
    83e8:	e24b3014 	sub	r3, fp, #20
    83ec:	e24b2010 	sub	r2, fp, #16
    83f0:	e51b101c 	ldr	r1, [fp, #-28]	; 0xffffffe4
    83f4:	e51b0018 	ldr	r0, [fp, #-24]	; 0xffffffe8
    83f8:	ebffff77 	bl	81dc <_ZNK13CGPIO_Handler19Get_GPFSEL_LocationEjRjS0_>
    83fc:	e1a03000 	mov	r3, r0
    8400:	e2233001 	eor	r3, r3, #1
    8404:	e6ef3073 	uxtb	r3, r3
    8408:	e3530000 	cmp	r3, #0
    840c:	1a00001e 	bne	848c <_ZN13CGPIO_Handler17Set_GPIO_FunctionEj14NGPIO_Function+0xbc>
/home/silhavyj/School/ZeroMate/examples/15-DPP_01_external_peripherals/kernel/src/drivers/gpio.cpp:75
		return;

	unsigned int mode = static_cast<unsigned int>(func);
    8410:	e51b3020 	ldr	r3, [fp, #-32]	; 0xffffffe0
    8414:	e50b3008 	str	r3, [fp, #-8]
/home/silhavyj/School/ZeroMate/examples/15-DPP_01_external_peripherals/kernel/src/drivers/gpio.cpp:77

	unsigned int rd = mGPIO[reg];
    8418:	e51b3018 	ldr	r3, [fp, #-24]	; 0xffffffe8
    841c:	e5932000 	ldr	r2, [r3]
    8420:	e51b3010 	ldr	r3, [fp, #-16]
    8424:	e1a03103 	lsl	r3, r3, #2
    8428:	e0823003 	add	r3, r2, r3
    842c:	e5933000 	ldr	r3, [r3]
    8430:	e50b300c 	str	r3, [fp, #-12]
/home/silhavyj/School/ZeroMate/examples/15-DPP_01_external_peripherals/kernel/src/drivers/gpio.cpp:78
	rd &= ~(7 << bit);
    8434:	e51b3014 	ldr	r3, [fp, #-20]	; 0xffffffec
    8438:	e3a02007 	mov	r2, #7
    843c:	e1a03312 	lsl	r3, r2, r3
    8440:	e1e03003 	mvn	r3, r3
    8444:	e1a02003 	mov	r2, r3
    8448:	e51b300c 	ldr	r3, [fp, #-12]
    844c:	e0033002 	and	r3, r3, r2
    8450:	e50b300c 	str	r3, [fp, #-12]
/home/silhavyj/School/ZeroMate/examples/15-DPP_01_external_peripherals/kernel/src/drivers/gpio.cpp:79
	rd |= (mode << bit);
    8454:	e51b3014 	ldr	r3, [fp, #-20]	; 0xffffffec
    8458:	e51b2008 	ldr	r2, [fp, #-8]
    845c:	e1a03312 	lsl	r3, r2, r3
    8460:	e51b200c 	ldr	r2, [fp, #-12]
    8464:	e1823003 	orr	r3, r2, r3
    8468:	e50b300c 	str	r3, [fp, #-12]
/home/silhavyj/School/ZeroMate/examples/15-DPP_01_external_peripherals/kernel/src/drivers/gpio.cpp:81
	
	mGPIO[reg] = rd;
    846c:	e51b3018 	ldr	r3, [fp, #-24]	; 0xffffffe8
    8470:	e5932000 	ldr	r2, [r3]
    8474:	e51b3010 	ldr	r3, [fp, #-16]
    8478:	e1a03103 	lsl	r3, r3, #2
    847c:	e0823003 	add	r3, r2, r3
    8480:	e51b200c 	ldr	r2, [fp, #-12]
    8484:	e5832000 	str	r2, [r3]
    8488:	ea000000 	b	8490 <_ZN13CGPIO_Handler17Set_GPIO_FunctionEj14NGPIO_Function+0xc0>
/home/silhavyj/School/ZeroMate/examples/15-DPP_01_external_peripherals/kernel/src/drivers/gpio.cpp:73
		return;
    848c:	e320f000 	nop	{0}
/home/silhavyj/School/ZeroMate/examples/15-DPP_01_external_peripherals/kernel/src/drivers/gpio.cpp:82
}
    8490:	e24bd004 	sub	sp, fp, #4
    8494:	e8bd8800 	pop	{fp, pc}

00008498 <_ZNK13CGPIO_Handler17Get_GPIO_FunctionEj>:
_ZNK13CGPIO_Handler17Get_GPIO_FunctionEj():
/home/silhavyj/School/ZeroMate/examples/15-DPP_01_external_peripherals/kernel/src/drivers/gpio.cpp:85

NGPIO_Function CGPIO_Handler::Get_GPIO_Function(uint32_t pin) const
{
    8498:	e92d4800 	push	{fp, lr}
    849c:	e28db004 	add	fp, sp, #4
    84a0:	e24dd010 	sub	sp, sp, #16
    84a4:	e50b0010 	str	r0, [fp, #-16]
    84a8:	e50b1014 	str	r1, [fp, #-20]	; 0xffffffec
/home/silhavyj/School/ZeroMate/examples/15-DPP_01_external_peripherals/kernel/src/drivers/gpio.cpp:87
	uint32_t reg, bit;
	if (!Get_GPFSEL_Location(pin, reg, bit))
    84ac:	e24b300c 	sub	r3, fp, #12
    84b0:	e24b2008 	sub	r2, fp, #8
    84b4:	e51b1014 	ldr	r1, [fp, #-20]	; 0xffffffec
    84b8:	e51b0010 	ldr	r0, [fp, #-16]
    84bc:	ebffff46 	bl	81dc <_ZNK13CGPIO_Handler19Get_GPFSEL_LocationEjRjS0_>
    84c0:	e1a03000 	mov	r3, r0
    84c4:	e2233001 	eor	r3, r3, #1
    84c8:	e6ef3073 	uxtb	r3, r3
    84cc:	e3530000 	cmp	r3, #0
    84d0:	0a000001 	beq	84dc <_ZNK13CGPIO_Handler17Get_GPIO_FunctionEj+0x44>
/home/silhavyj/School/ZeroMate/examples/15-DPP_01_external_peripherals/kernel/src/drivers/gpio.cpp:88
		return NGPIO_Function::Unspecified;
    84d4:	e3a03008 	mov	r3, #8
    84d8:	ea000008 	b	8500 <_ZNK13CGPIO_Handler17Get_GPIO_FunctionEj+0x68>
/home/silhavyj/School/ZeroMate/examples/15-DPP_01_external_peripherals/kernel/src/drivers/gpio.cpp:90
	
	return static_cast<NGPIO_Function>((mGPIO[reg] >> bit) & 7);
    84dc:	e51b3010 	ldr	r3, [fp, #-16]
    84e0:	e5932000 	ldr	r2, [r3]
    84e4:	e51b3008 	ldr	r3, [fp, #-8]
    84e8:	e1a03103 	lsl	r3, r3, #2
    84ec:	e0823003 	add	r3, r2, r3
    84f0:	e5932000 	ldr	r2, [r3]
    84f4:	e51b300c 	ldr	r3, [fp, #-12]
    84f8:	e1a03332 	lsr	r3, r2, r3
    84fc:	e2033007 	and	r3, r3, #7
/home/silhavyj/School/ZeroMate/examples/15-DPP_01_external_peripherals/kernel/src/drivers/gpio.cpp:91 (discriminator 1)
}
    8500:	e1a00003 	mov	r0, r3
    8504:	e24bd004 	sub	sp, fp, #4
    8508:	e8bd8800 	pop	{fp, pc}

0000850c <_ZN13CGPIO_Handler10Set_OutputEjb>:
_ZN13CGPIO_Handler10Set_OutputEjb():
/home/silhavyj/School/ZeroMate/examples/15-DPP_01_external_peripherals/kernel/src/drivers/gpio.cpp:94

void CGPIO_Handler::Set_Output(uint32_t pin, bool set)
{
    850c:	e92d4800 	push	{fp, lr}
    8510:	e28db004 	add	fp, sp, #4
    8514:	e24dd018 	sub	sp, sp, #24
    8518:	e50b0010 	str	r0, [fp, #-16]
    851c:	e50b1014 	str	r1, [fp, #-20]	; 0xffffffec
    8520:	e1a03002 	mov	r3, r2
    8524:	e54b3015 	strb	r3, [fp, #-21]	; 0xffffffeb
/home/silhavyj/School/ZeroMate/examples/15-DPP_01_external_peripherals/kernel/src/drivers/gpio.cpp:96
	uint32_t reg, bit;
	if (!(set && Get_GPSET_Location(pin, reg, bit)) && !(!set && Get_GPCLR_Location(pin, reg, bit)))
    8528:	e55b3015 	ldrb	r3, [fp, #-21]	; 0xffffffeb
    852c:	e2233001 	eor	r3, r3, #1
    8530:	e6ef3073 	uxtb	r3, r3
    8534:	e3530000 	cmp	r3, #0
    8538:	1a000009 	bne	8564 <_ZN13CGPIO_Handler10Set_OutputEjb+0x58>
/home/silhavyj/School/ZeroMate/examples/15-DPP_01_external_peripherals/kernel/src/drivers/gpio.cpp:96 (discriminator 2)
    853c:	e24b300c 	sub	r3, fp, #12
    8540:	e24b2008 	sub	r2, fp, #8
    8544:	e51b1014 	ldr	r1, [fp, #-20]	; 0xffffffec
    8548:	e51b0010 	ldr	r0, [fp, #-16]
    854c:	ebffff65 	bl	82e8 <_ZNK13CGPIO_Handler18Get_GPSET_LocationEjRjS0_>
    8550:	e1a03000 	mov	r3, r0
    8554:	e2233001 	eor	r3, r3, #1
    8558:	e6ef3073 	uxtb	r3, r3
    855c:	e3530000 	cmp	r3, #0
    8560:	0a00000e 	beq	85a0 <_ZN13CGPIO_Handler10Set_OutputEjb+0x94>
/home/silhavyj/School/ZeroMate/examples/15-DPP_01_external_peripherals/kernel/src/drivers/gpio.cpp:96 (discriminator 3)
    8564:	e55b3015 	ldrb	r3, [fp, #-21]	; 0xffffffeb
    8568:	e3530000 	cmp	r3, #0
    856c:	1a000009 	bne	8598 <_ZN13CGPIO_Handler10Set_OutputEjb+0x8c>
/home/silhavyj/School/ZeroMate/examples/15-DPP_01_external_peripherals/kernel/src/drivers/gpio.cpp:96 (discriminator 6)
    8570:	e24b300c 	sub	r3, fp, #12
    8574:	e24b2008 	sub	r2, fp, #8
    8578:	e51b1014 	ldr	r1, [fp, #-20]	; 0xffffffec
    857c:	e51b0010 	ldr	r0, [fp, #-16]
    8580:	ebffff3b 	bl	8274 <_ZNK13CGPIO_Handler18Get_GPCLR_LocationEjRjS0_>
    8584:	e1a03000 	mov	r3, r0
    8588:	e2233001 	eor	r3, r3, #1
    858c:	e6ef3073 	uxtb	r3, r3
    8590:	e3530000 	cmp	r3, #0
    8594:	0a000001 	beq	85a0 <_ZN13CGPIO_Handler10Set_OutputEjb+0x94>
/home/silhavyj/School/ZeroMate/examples/15-DPP_01_external_peripherals/kernel/src/drivers/gpio.cpp:96 (discriminator 7)
    8598:	e3a03001 	mov	r3, #1
    859c:	ea000000 	b	85a4 <_ZN13CGPIO_Handler10Set_OutputEjb+0x98>
/home/silhavyj/School/ZeroMate/examples/15-DPP_01_external_peripherals/kernel/src/drivers/gpio.cpp:96 (discriminator 8)
    85a0:	e3a03000 	mov	r3, #0
/home/silhavyj/School/ZeroMate/examples/15-DPP_01_external_peripherals/kernel/src/drivers/gpio.cpp:96 (discriminator 10)
    85a4:	e3530000 	cmp	r3, #0
    85a8:	1a00000a 	bne	85d8 <_ZN13CGPIO_Handler10Set_OutputEjb+0xcc>
/home/silhavyj/School/ZeroMate/examples/15-DPP_01_external_peripherals/kernel/src/drivers/gpio.cpp:99
		return;
	
	mGPIO[reg] = (1 << bit);
    85ac:	e51b300c 	ldr	r3, [fp, #-12]
    85b0:	e3a02001 	mov	r2, #1
    85b4:	e1a01312 	lsl	r1, r2, r3
    85b8:	e51b3010 	ldr	r3, [fp, #-16]
    85bc:	e5932000 	ldr	r2, [r3]
    85c0:	e51b3008 	ldr	r3, [fp, #-8]
    85c4:	e1a03103 	lsl	r3, r3, #2
    85c8:	e0823003 	add	r3, r2, r3
    85cc:	e1a02001 	mov	r2, r1
    85d0:	e5832000 	str	r2, [r3]
    85d4:	ea000000 	b	85dc <_ZN13CGPIO_Handler10Set_OutputEjb+0xd0>
/home/silhavyj/School/ZeroMate/examples/15-DPP_01_external_peripherals/kernel/src/drivers/gpio.cpp:97
		return;
    85d8:	e320f000 	nop	{0}
/home/silhavyj/School/ZeroMate/examples/15-DPP_01_external_peripherals/kernel/src/drivers/gpio.cpp:100
}
    85dc:	e24bd004 	sub	sp, fp, #4
    85e0:	e8bd8800 	pop	{fp, pc}

000085e4 <_ZN13CGPIO_Handler9Get_InputEj>:
_ZN13CGPIO_Handler9Get_InputEj():
/home/silhavyj/School/ZeroMate/examples/15-DPP_01_external_peripherals/kernel/src/drivers/gpio.cpp:103

bool CGPIO_Handler::Get_Input(uint32_t pin)
{
    85e4:	e92d4800 	push	{fp, lr}
    85e8:	e28db004 	add	fp, sp, #4
    85ec:	e24dd010 	sub	sp, sp, #16
    85f0:	e50b0010 	str	r0, [fp, #-16]
    85f4:	e50b1014 	str	r1, [fp, #-20]	; 0xffffffec
/home/silhavyj/School/ZeroMate/examples/15-DPP_01_external_peripherals/kernel/src/drivers/gpio.cpp:105
	uint32_t reg, bit;
	if (!Get_GPLEV_Location(pin, reg, bit))
    85f8:	e24b300c 	sub	r3, fp, #12
    85fc:	e24b2008 	sub	r2, fp, #8
    8600:	e51b1014 	ldr	r1, [fp, #-20]	; 0xffffffec
    8604:	e51b0010 	ldr	r0, [fp, #-16]
    8608:	ebffff53 	bl	835c <_ZNK13CGPIO_Handler18Get_GPLEV_LocationEjRjS0_>
    860c:	e1a03000 	mov	r3, r0
    8610:	e2233001 	eor	r3, r3, #1
    8614:	e6ef3073 	uxtb	r3, r3
    8618:	e3530000 	cmp	r3, #0
    861c:	0a000001 	beq	8628 <_ZN13CGPIO_Handler9Get_InputEj+0x44>
/home/silhavyj/School/ZeroMate/examples/15-DPP_01_external_peripherals/kernel/src/drivers/gpio.cpp:106
		return false;
    8620:	e3a03000 	mov	r3, #0
    8624:	ea00000c 	b	865c <_ZN13CGPIO_Handler9Get_InputEj+0x78>
/home/silhavyj/School/ZeroMate/examples/15-DPP_01_external_peripherals/kernel/src/drivers/gpio.cpp:108
	
	return (mGPIO[reg] >> bit) & 0x1;
    8628:	e51b3010 	ldr	r3, [fp, #-16]
    862c:	e5932000 	ldr	r2, [r3]
    8630:	e51b3008 	ldr	r3, [fp, #-8]
    8634:	e1a03103 	lsl	r3, r3, #2
    8638:	e0823003 	add	r3, r2, r3
    863c:	e5932000 	ldr	r2, [r3]
    8640:	e51b300c 	ldr	r3, [fp, #-12]
    8644:	e1a03332 	lsr	r3, r2, r3
    8648:	e2033001 	and	r3, r3, #1
    864c:	e3530000 	cmp	r3, #0
    8650:	13a03001 	movne	r3, #1
    8654:	03a03000 	moveq	r3, #0
    8658:	e6ef3073 	uxtb	r3, r3
/home/silhavyj/School/ZeroMate/examples/15-DPP_01_external_peripherals/kernel/src/drivers/gpio.cpp:109 (discriminator 1)
}
    865c:	e1a00003 	mov	r0, r3
    8660:	e24bd004 	sub	sp, fp, #4
    8664:	e8bd8800 	pop	{fp, pc}

00008668 <_ZN13CGPIO_Handler11Reserve_PinEjbb>:
_ZN13CGPIO_Handler11Reserve_PinEjbb():
/home/silhavyj/School/ZeroMate/examples/15-DPP_01_external_peripherals/kernel/src/drivers/gpio.cpp:112

bool CGPIO_Handler::Reserve_Pin(uint32_t pin, bool read, bool write)
{
    8668:	e92d48f0 	push	{r4, r5, r6, r7, fp, lr}
    866c:	e28db014 	add	fp, sp, #20
    8670:	e24dd018 	sub	sp, sp, #24
    8674:	e50b0020 	str	r0, [fp, #-32]	; 0xffffffe0
    8678:	e50b1024 	str	r1, [fp, #-36]	; 0xffffffdc
    867c:	e1a01002 	mov	r1, r2
    8680:	e1a02003 	mov	r2, r3
    8684:	e1a03001 	mov	r3, r1
    8688:	e54b3025 	strb	r3, [fp, #-37]	; 0xffffffdb
    868c:	e1a03002 	mov	r3, r2
    8690:	e54b3026 	strb	r3, [fp, #-38]	; 0xffffffda
/home/silhavyj/School/ZeroMate/examples/15-DPP_01_external_peripherals/kernel/src/drivers/gpio.cpp:115
	// TODO: zamek, tady by se neco mohlo sejit

	uint32_t bank_idx = pin / 32;
    8694:	e51b3024 	ldr	r3, [fp, #-36]	; 0xffffffdc
    8698:	e1a032a3 	lsr	r3, r3, #5
    869c:	e50b3018 	str	r3, [fp, #-24]	; 0xffffffe8
/home/silhavyj/School/ZeroMate/examples/15-DPP_01_external_peripherals/kernel/src/drivers/gpio.cpp:116
	uint32_t bit_idx = pin % 32;
    86a0:	e51b3024 	ldr	r3, [fp, #-36]	; 0xffffffdc
    86a4:	e203301f 	and	r3, r3, #31
    86a8:	e50b301c 	str	r3, [fp, #-28]	; 0xffffffe4
/home/silhavyj/School/ZeroMate/examples/15-DPP_01_external_peripherals/kernel/src/drivers/gpio.cpp:118

	if (read && (mPin_Reservations_Read[bank_idx] >> bit_idx) & 0x1)
    86ac:	e55b3025 	ldrb	r3, [fp, #-37]	; 0xffffffdb
    86b0:	e3530000 	cmp	r3, #0
    86b4:	0a00000b 	beq	86e8 <_ZN13CGPIO_Handler11Reserve_PinEjbb+0x80>
/home/silhavyj/School/ZeroMate/examples/15-DPP_01_external_peripherals/kernel/src/drivers/gpio.cpp:118 (discriminator 1)
    86b8:	e51b2020 	ldr	r2, [fp, #-32]	; 0xffffffe0
    86bc:	e51b3018 	ldr	r3, [fp, #-24]	; 0xffffffe8
    86c0:	e1a03103 	lsl	r3, r3, #2
    86c4:	e0823003 	add	r3, r2, r3
    86c8:	e5932004 	ldr	r2, [r3, #4]
    86cc:	e51b301c 	ldr	r3, [fp, #-28]	; 0xffffffe4
    86d0:	e1a03332 	lsr	r3, r2, r3
    86d4:	e2033001 	and	r3, r3, #1
    86d8:	e3530000 	cmp	r3, #0
    86dc:	0a000001 	beq	86e8 <_ZN13CGPIO_Handler11Reserve_PinEjbb+0x80>
/home/silhavyj/School/ZeroMate/examples/15-DPP_01_external_peripherals/kernel/src/drivers/gpio.cpp:119
		return false;
    86e0:	e3a03000 	mov	r3, #0
    86e4:	ea000042 	b	87f4 <_ZN13CGPIO_Handler11Reserve_PinEjbb+0x18c>
/home/silhavyj/School/ZeroMate/examples/15-DPP_01_external_peripherals/kernel/src/drivers/gpio.cpp:121

	if (write && (mPin_Reservations_Write[bank_idx] >> bit_idx) & 0x1)
    86e8:	e55b3026 	ldrb	r3, [fp, #-38]	; 0xffffffda
    86ec:	e3530000 	cmp	r3, #0
    86f0:	0a00000c 	beq	8728 <_ZN13CGPIO_Handler11Reserve_PinEjbb+0xc0>
/home/silhavyj/School/ZeroMate/examples/15-DPP_01_external_peripherals/kernel/src/drivers/gpio.cpp:121 (discriminator 1)
    86f4:	e51b2020 	ldr	r2, [fp, #-32]	; 0xffffffe0
    86f8:	e51b3018 	ldr	r3, [fp, #-24]	; 0xffffffe8
    86fc:	e2833002 	add	r3, r3, #2
    8700:	e1a03103 	lsl	r3, r3, #2
    8704:	e0823003 	add	r3, r2, r3
    8708:	e5932004 	ldr	r2, [r3, #4]
    870c:	e51b301c 	ldr	r3, [fp, #-28]	; 0xffffffe4
    8710:	e1a03332 	lsr	r3, r2, r3
    8714:	e2033001 	and	r3, r3, #1
    8718:	e3530000 	cmp	r3, #0
    871c:	0a000001 	beq	8728 <_ZN13CGPIO_Handler11Reserve_PinEjbb+0xc0>
/home/silhavyj/School/ZeroMate/examples/15-DPP_01_external_peripherals/kernel/src/drivers/gpio.cpp:122
		return false;
    8720:	e3a03000 	mov	r3, #0
    8724:	ea000032 	b	87f4 <_ZN13CGPIO_Handler11Reserve_PinEjbb+0x18c>
/home/silhavyj/School/ZeroMate/examples/15-DPP_01_external_peripherals/kernel/src/drivers/gpio.cpp:124

	if (read)
    8728:	e55b3025 	ldrb	r3, [fp, #-37]	; 0xffffffdb
    872c:	e3530000 	cmp	r3, #0
    8730:	0a000014 	beq	8788 <_ZN13CGPIO_Handler11Reserve_PinEjbb+0x120>
/home/silhavyj/School/ZeroMate/examples/15-DPP_01_external_peripherals/kernel/src/drivers/gpio.cpp:125
		mPin_Reservations_Read[bank_idx] |= 1ULL << bit_idx;
    8734:	e51b2020 	ldr	r2, [fp, #-32]	; 0xffffffe0
    8738:	e51b3018 	ldr	r3, [fp, #-24]	; 0xffffffe8
    873c:	e1a03103 	lsl	r3, r3, #2
    8740:	e0823003 	add	r3, r2, r3
    8744:	e5930004 	ldr	r0, [r3, #4]
    8748:	e3a02001 	mov	r2, #1
    874c:	e3a03000 	mov	r3, #0
    8750:	e51b101c 	ldr	r1, [fp, #-28]	; 0xffffffe4
    8754:	e241e020 	sub	lr, r1, #32
    8758:	e261c020 	rsb	ip, r1, #32
    875c:	e1a07113 	lsl	r7, r3, r1
    8760:	e1877e12 	orr	r7, r7, r2, lsl lr
    8764:	e1877c32 	orr	r7, r7, r2, lsr ip
    8768:	e1a06112 	lsl	r6, r2, r1
    876c:	e1a03006 	mov	r3, r6
    8770:	e1802003 	orr	r2, r0, r3
    8774:	e51b1020 	ldr	r1, [fp, #-32]	; 0xffffffe0
    8778:	e51b3018 	ldr	r3, [fp, #-24]	; 0xffffffe8
    877c:	e1a03103 	lsl	r3, r3, #2
    8780:	e0813003 	add	r3, r1, r3
    8784:	e5832004 	str	r2, [r3, #4]
/home/silhavyj/School/ZeroMate/examples/15-DPP_01_external_peripherals/kernel/src/drivers/gpio.cpp:127

	if (write)
    8788:	e55b3026 	ldrb	r3, [fp, #-38]	; 0xffffffda
    878c:	e3530000 	cmp	r3, #0
    8790:	0a000016 	beq	87f0 <_ZN13CGPIO_Handler11Reserve_PinEjbb+0x188>
/home/silhavyj/School/ZeroMate/examples/15-DPP_01_external_peripherals/kernel/src/drivers/gpio.cpp:128
		mPin_Reservations_Write[bank_idx] |= 1ULL << bit_idx;
    8794:	e51b2020 	ldr	r2, [fp, #-32]	; 0xffffffe0
    8798:	e51b3018 	ldr	r3, [fp, #-24]	; 0xffffffe8
    879c:	e2833002 	add	r3, r3, #2
    87a0:	e1a03103 	lsl	r3, r3, #2
    87a4:	e0823003 	add	r3, r2, r3
    87a8:	e5930004 	ldr	r0, [r3, #4]
    87ac:	e3a02001 	mov	r2, #1
    87b0:	e3a03000 	mov	r3, #0
    87b4:	e51b101c 	ldr	r1, [fp, #-28]	; 0xffffffe4
    87b8:	e241e020 	sub	lr, r1, #32
    87bc:	e261c020 	rsb	ip, r1, #32
    87c0:	e1a05113 	lsl	r5, r3, r1
    87c4:	e1855e12 	orr	r5, r5, r2, lsl lr
    87c8:	e1855c32 	orr	r5, r5, r2, lsr ip
    87cc:	e1a04112 	lsl	r4, r2, r1
    87d0:	e1a03004 	mov	r3, r4
    87d4:	e1802003 	orr	r2, r0, r3
    87d8:	e51b1020 	ldr	r1, [fp, #-32]	; 0xffffffe0
    87dc:	e51b3018 	ldr	r3, [fp, #-24]	; 0xffffffe8
    87e0:	e2833002 	add	r3, r3, #2
    87e4:	e1a03103 	lsl	r3, r3, #2
    87e8:	e0813003 	add	r3, r1, r3
    87ec:	e5832004 	str	r2, [r3, #4]
/home/silhavyj/School/ZeroMate/examples/15-DPP_01_external_peripherals/kernel/src/drivers/gpio.cpp:130

	return true;
    87f0:	e3a03001 	mov	r3, #1
/home/silhavyj/School/ZeroMate/examples/15-DPP_01_external_peripherals/kernel/src/drivers/gpio.cpp:131
}
    87f4:	e1a00003 	mov	r0, r3
    87f8:	e24bd014 	sub	sp, fp, #20
    87fc:	e8bd88f0 	pop	{r4, r5, r6, r7, fp, pc}

00008800 <_ZN13CGPIO_Handler8Free_PinEjbb>:
_ZN13CGPIO_Handler8Free_PinEjbb():
/home/silhavyj/School/ZeroMate/examples/15-DPP_01_external_peripherals/kernel/src/drivers/gpio.cpp:134

bool CGPIO_Handler::Free_Pin(uint32_t pin, bool read, bool write)
{
    8800:	e92d48f0 	push	{r4, r5, r6, r7, fp, lr}
    8804:	e28db014 	add	fp, sp, #20
    8808:	e24dd018 	sub	sp, sp, #24
    880c:	e50b0020 	str	r0, [fp, #-32]	; 0xffffffe0
    8810:	e50b1024 	str	r1, [fp, #-36]	; 0xffffffdc
    8814:	e1a01002 	mov	r1, r2
    8818:	e1a02003 	mov	r2, r3
    881c:	e1a03001 	mov	r3, r1
    8820:	e54b3025 	strb	r3, [fp, #-37]	; 0xffffffdb
    8824:	e1a03002 	mov	r3, r2
    8828:	e54b3026 	strb	r3, [fp, #-38]	; 0xffffffda
/home/silhavyj/School/ZeroMate/examples/15-DPP_01_external_peripherals/kernel/src/drivers/gpio.cpp:135
	uint32_t bank_idx = pin / 32;
    882c:	e51b3024 	ldr	r3, [fp, #-36]	; 0xffffffdc
    8830:	e1a032a3 	lsr	r3, r3, #5
    8834:	e50b3018 	str	r3, [fp, #-24]	; 0xffffffe8
/home/silhavyj/School/ZeroMate/examples/15-DPP_01_external_peripherals/kernel/src/drivers/gpio.cpp:136
	uint32_t bit_idx = pin % 32;
    8838:	e51b3024 	ldr	r3, [fp, #-36]	; 0xffffffdc
    883c:	e203301f 	and	r3, r3, #31
    8840:	e50b301c 	str	r3, [fp, #-28]	; 0xffffffe4
/home/silhavyj/School/ZeroMate/examples/15-DPP_01_external_peripherals/kernel/src/drivers/gpio.cpp:138

	if (read && !((mPin_Reservations_Read[bank_idx] >> bit_idx) & 0x1))
    8844:	e55b3025 	ldrb	r3, [fp, #-37]	; 0xffffffdb
    8848:	e3530000 	cmp	r3, #0
    884c:	0a00000b 	beq	8880 <_ZN13CGPIO_Handler8Free_PinEjbb+0x80>
/home/silhavyj/School/ZeroMate/examples/15-DPP_01_external_peripherals/kernel/src/drivers/gpio.cpp:138 (discriminator 1)
    8850:	e51b2020 	ldr	r2, [fp, #-32]	; 0xffffffe0
    8854:	e51b3018 	ldr	r3, [fp, #-24]	; 0xffffffe8
    8858:	e1a03103 	lsl	r3, r3, #2
    885c:	e0823003 	add	r3, r2, r3
    8860:	e5932004 	ldr	r2, [r3, #4]
    8864:	e51b301c 	ldr	r3, [fp, #-28]	; 0xffffffe4
    8868:	e1a03332 	lsr	r3, r2, r3
    886c:	e2033001 	and	r3, r3, #1
    8870:	e3530000 	cmp	r3, #0
    8874:	1a000001 	bne	8880 <_ZN13CGPIO_Handler8Free_PinEjbb+0x80>
/home/silhavyj/School/ZeroMate/examples/15-DPP_01_external_peripherals/kernel/src/drivers/gpio.cpp:139
		return false;
    8878:	e3a03000 	mov	r3, #0
    887c:	ea000044 	b	8994 <_ZN13CGPIO_Handler8Free_PinEjbb+0x194>
/home/silhavyj/School/ZeroMate/examples/15-DPP_01_external_peripherals/kernel/src/drivers/gpio.cpp:141

	if (write && !((mPin_Reservations_Write[bank_idx] >> bit_idx) & 0x1))
    8880:	e55b3026 	ldrb	r3, [fp, #-38]	; 0xffffffda
    8884:	e3530000 	cmp	r3, #0
    8888:	0a00000c 	beq	88c0 <_ZN13CGPIO_Handler8Free_PinEjbb+0xc0>
/home/silhavyj/School/ZeroMate/examples/15-DPP_01_external_peripherals/kernel/src/drivers/gpio.cpp:141 (discriminator 1)
    888c:	e51b2020 	ldr	r2, [fp, #-32]	; 0xffffffe0
    8890:	e51b3018 	ldr	r3, [fp, #-24]	; 0xffffffe8
    8894:	e2833002 	add	r3, r3, #2
    8898:	e1a03103 	lsl	r3, r3, #2
    889c:	e0823003 	add	r3, r2, r3
    88a0:	e5932004 	ldr	r2, [r3, #4]
    88a4:	e51b301c 	ldr	r3, [fp, #-28]	; 0xffffffe4
    88a8:	e1a03332 	lsr	r3, r2, r3
    88ac:	e2033001 	and	r3, r3, #1
    88b0:	e3530000 	cmp	r3, #0
    88b4:	1a000001 	bne	88c0 <_ZN13CGPIO_Handler8Free_PinEjbb+0xc0>
/home/silhavyj/School/ZeroMate/examples/15-DPP_01_external_peripherals/kernel/src/drivers/gpio.cpp:142
		return false;
    88b8:	e3a03000 	mov	r3, #0
    88bc:	ea000034 	b	8994 <_ZN13CGPIO_Handler8Free_PinEjbb+0x194>
/home/silhavyj/School/ZeroMate/examples/15-DPP_01_external_peripherals/kernel/src/drivers/gpio.cpp:144

	if (read)
    88c0:	e55b3025 	ldrb	r3, [fp, #-37]	; 0xffffffdb
    88c4:	e3530000 	cmp	r3, #0
    88c8:	0a000015 	beq	8924 <_ZN13CGPIO_Handler8Free_PinEjbb+0x124>
/home/silhavyj/School/ZeroMate/examples/15-DPP_01_external_peripherals/kernel/src/drivers/gpio.cpp:145
		mPin_Reservations_Read[bank_idx] &= ~(1ULL << bit_idx);
    88cc:	e51b2020 	ldr	r2, [fp, #-32]	; 0xffffffe0
    88d0:	e51b3018 	ldr	r3, [fp, #-24]	; 0xffffffe8
    88d4:	e1a03103 	lsl	r3, r3, #2
    88d8:	e0823003 	add	r3, r2, r3
    88dc:	e5930004 	ldr	r0, [r3, #4]
    88e0:	e3a02001 	mov	r2, #1
    88e4:	e3a03000 	mov	r3, #0
    88e8:	e51b101c 	ldr	r1, [fp, #-28]	; 0xffffffe4
    88ec:	e241e020 	sub	lr, r1, #32
    88f0:	e261c020 	rsb	ip, r1, #32
    88f4:	e1a07113 	lsl	r7, r3, r1
    88f8:	e1877e12 	orr	r7, r7, r2, lsl lr
    88fc:	e1877c32 	orr	r7, r7, r2, lsr ip
    8900:	e1a06112 	lsl	r6, r2, r1
    8904:	e1a03006 	mov	r3, r6
    8908:	e1e03003 	mvn	r3, r3
    890c:	e0002003 	and	r2, r0, r3
    8910:	e51b1020 	ldr	r1, [fp, #-32]	; 0xffffffe0
    8914:	e51b3018 	ldr	r3, [fp, #-24]	; 0xffffffe8
    8918:	e1a03103 	lsl	r3, r3, #2
    891c:	e0813003 	add	r3, r1, r3
    8920:	e5832004 	str	r2, [r3, #4]
/home/silhavyj/School/ZeroMate/examples/15-DPP_01_external_peripherals/kernel/src/drivers/gpio.cpp:147

	if (write)
    8924:	e55b3026 	ldrb	r3, [fp, #-38]	; 0xffffffda
    8928:	e3530000 	cmp	r3, #0
    892c:	0a000017 	beq	8990 <_ZN13CGPIO_Handler8Free_PinEjbb+0x190>
/home/silhavyj/School/ZeroMate/examples/15-DPP_01_external_peripherals/kernel/src/drivers/gpio.cpp:148
		mPin_Reservations_Write[bank_idx] &= ~(1ULL << bit_idx);
    8930:	e51b2020 	ldr	r2, [fp, #-32]	; 0xffffffe0
    8934:	e51b3018 	ldr	r3, [fp, #-24]	; 0xffffffe8
    8938:	e2833002 	add	r3, r3, #2
    893c:	e1a03103 	lsl	r3, r3, #2
    8940:	e0823003 	add	r3, r2, r3
    8944:	e5930004 	ldr	r0, [r3, #4]
    8948:	e3a02001 	mov	r2, #1
    894c:	e3a03000 	mov	r3, #0
    8950:	e51b101c 	ldr	r1, [fp, #-28]	; 0xffffffe4
    8954:	e241e020 	sub	lr, r1, #32
    8958:	e261c020 	rsb	ip, r1, #32
    895c:	e1a05113 	lsl	r5, r3, r1
    8960:	e1855e12 	orr	r5, r5, r2, lsl lr
    8964:	e1855c32 	orr	r5, r5, r2, lsr ip
    8968:	e1a04112 	lsl	r4, r2, r1
    896c:	e1a03004 	mov	r3, r4
    8970:	e1e03003 	mvn	r3, r3
    8974:	e0002003 	and	r2, r0, r3
    8978:	e51b1020 	ldr	r1, [fp, #-32]	; 0xffffffe0
    897c:	e51b3018 	ldr	r3, [fp, #-24]	; 0xffffffe8
    8980:	e2833002 	add	r3, r3, #2
    8984:	e1a03103 	lsl	r3, r3, #2
    8988:	e0813003 	add	r3, r1, r3
    898c:	e5832004 	str	r2, [r3, #4]
/home/silhavyj/School/ZeroMate/examples/15-DPP_01_external_peripherals/kernel/src/drivers/gpio.cpp:150

	return true;
    8990:	e3a03001 	mov	r3, #1
/home/silhavyj/School/ZeroMate/examples/15-DPP_01_external_peripherals/kernel/src/drivers/gpio.cpp:151
}
    8994:	e1a00003 	mov	r0, r3
    8998:	e24bd014 	sub	sp, fp, #20
    899c:	e8bd88f0 	pop	{r4, r5, r6, r7, fp, pc}

000089a0 <_Z41__static_initialization_and_destruction_0ii>:
_Z41__static_initialization_and_destruction_0ii():
/home/silhavyj/School/ZeroMate/examples/15-DPP_01_external_peripherals/kernel/src/drivers/gpio.cpp:151
    89a0:	e92d4800 	push	{fp, lr}
    89a4:	e28db004 	add	fp, sp, #4
    89a8:	e24dd008 	sub	sp, sp, #8
    89ac:	e50b0008 	str	r0, [fp, #-8]
    89b0:	e50b100c 	str	r1, [fp, #-12]
    89b4:	e51b3008 	ldr	r3, [fp, #-8]
    89b8:	e3530001 	cmp	r3, #1
    89bc:	1a000006 	bne	89dc <_Z41__static_initialization_and_destruction_0ii+0x3c>
/home/silhavyj/School/ZeroMate/examples/15-DPP_01_external_peripherals/kernel/src/drivers/gpio.cpp:151 (discriminator 1)
    89c0:	e51b300c 	ldr	r3, [fp, #-12]
    89c4:	e59f201c 	ldr	r2, [pc, #28]	; 89e8 <_Z41__static_initialization_and_destruction_0ii+0x48>
    89c8:	e1530002 	cmp	r3, r2
    89cc:	1a000002 	bne	89dc <_Z41__static_initialization_and_destruction_0ii+0x3c>
/home/silhavyj/School/ZeroMate/examples/15-DPP_01_external_peripherals/kernel/src/drivers/gpio.cpp:6
CGPIO_Handler sGPIO(hal::GPIO_Base);
    89d0:	e59f1014 	ldr	r1, [pc, #20]	; 89ec <_Z41__static_initialization_and_destruction_0ii+0x4c>
    89d4:	e59f0014 	ldr	r0, [pc, #20]	; 89f0 <_Z41__static_initialization_and_destruction_0ii+0x50>
    89d8:	ebfffde9 	bl	8184 <_ZN13CGPIO_HandlerC1Ej>
/home/silhavyj/School/ZeroMate/examples/15-DPP_01_external_peripherals/kernel/src/drivers/gpio.cpp:151
}
    89dc:	e320f000 	nop	{0}
    89e0:	e24bd004 	sub	sp, fp, #4
    89e4:	e8bd8800 	pop	{fp, pc}
    89e8:	0000ffff 	strdeq	pc, [r0], -pc	; <UNPREDICTABLE>
    89ec:	20200000 	eorcs	r0, r0, r0
    89f0:	0000e3bc 			; <UNDEFINED> instruction: 0x0000e3bc

000089f4 <_GLOBAL__sub_I_sGPIO>:
_GLOBAL__sub_I_sGPIO():
/home/silhavyj/School/ZeroMate/examples/15-DPP_01_external_peripherals/kernel/src/drivers/gpio.cpp:151
    89f4:	e92d4800 	push	{fp, lr}
    89f8:	e28db004 	add	fp, sp, #4
    89fc:	e59f1008 	ldr	r1, [pc, #8]	; 8a0c <_GLOBAL__sub_I_sGPIO+0x18>
    8a00:	e3a00001 	mov	r0, #1
    8a04:	ebffffe5 	bl	89a0 <_Z41__static_initialization_and_destruction_0ii>
    8a08:	e8bd8800 	pop	{fp, pc}
    8a0c:	0000ffff 	strdeq	pc, [r0], -pc	; <UNPREDICTABLE>

00008a10 <_ZN8CMonitorC1Ejjj>:
_ZN8CMonitorC2Ejjj():
/home/silhavyj/School/ZeroMate/examples/15-DPP_01_external_peripherals/kernel/src/drivers/monitor.cpp:5
#include <drivers/monitor.h>

CMonitor sMonitor{ 0x30000000, 80, 25 };

CMonitor::CMonitor(unsigned int monitor_base_addr, unsigned int width, unsigned int height)
    8a10:	e52db004 	push	{fp}		; (str fp, [sp, #-4]!)
    8a14:	e28db000 	add	fp, sp, #0
    8a18:	e24dd014 	sub	sp, sp, #20
    8a1c:	e50b0008 	str	r0, [fp, #-8]
    8a20:	e50b100c 	str	r1, [fp, #-12]
    8a24:	e50b2010 	str	r2, [fp, #-16]
    8a28:	e50b3014 	str	r3, [fp, #-20]	; 0xffffffec
/home/silhavyj/School/ZeroMate/examples/15-DPP_01_external_peripherals/kernel/src/drivers/monitor.cpp:6
: m_monitor{ reinterpret_cast<unsigned char*>(monitor_base_addr) }
    8a2c:	e51b200c 	ldr	r2, [fp, #-12]
/home/silhavyj/School/ZeroMate/examples/15-DPP_01_external_peripherals/kernel/src/drivers/monitor.cpp:10
, m_width{ width }
, m_height{ height }
, m_cursor{ 0, 0 }
, m_number_base{ DEFAULT_NUMBER_BASE }
    8a30:	e51b3008 	ldr	r3, [fp, #-8]
    8a34:	e5832000 	str	r2, [r3]
    8a38:	e51b3008 	ldr	r3, [fp, #-8]
    8a3c:	e51b2010 	ldr	r2, [fp, #-16]
    8a40:	e5832004 	str	r2, [r3, #4]
    8a44:	e51b3008 	ldr	r3, [fp, #-8]
    8a48:	e51b2014 	ldr	r2, [fp, #-20]	; 0xffffffec
    8a4c:	e5832008 	str	r2, [r3, #8]
    8a50:	e51b3008 	ldr	r3, [fp, #-8]
    8a54:	e3a02000 	mov	r2, #0
    8a58:	e583200c 	str	r2, [r3, #12]
    8a5c:	e51b3008 	ldr	r3, [fp, #-8]
    8a60:	e3a02000 	mov	r2, #0
    8a64:	e5832010 	str	r2, [r3, #16]
    8a68:	e51b3008 	ldr	r3, [fp, #-8]
    8a6c:	e3a0200a 	mov	r2, #10
    8a70:	e5832014 	str	r2, [r3, #20]
/home/silhavyj/School/ZeroMate/examples/15-DPP_01_external_peripherals/kernel/src/drivers/monitor.cpp:12
{
}
    8a74:	e51b3008 	ldr	r3, [fp, #-8]
    8a78:	e1a00003 	mov	r0, r3
    8a7c:	e28bd000 	add	sp, fp, #0
    8a80:	e49db004 	pop	{fp}		; (ldr fp, [sp], #4)
    8a84:	e12fff1e 	bx	lr

00008a88 <_ZN8CMonitor5ClearEv>:
_ZN8CMonitor5ClearEv():
/home/silhavyj/School/ZeroMate/examples/15-DPP_01_external_peripherals/kernel/src/drivers/monitor.cpp:21
    m_cursor.y = 0;
    m_cursor.y = 0;
}

void CMonitor::Clear()
{
    8a88:	e92d4800 	push	{fp, lr}
    8a8c:	e28db004 	add	fp, sp, #4
    8a90:	e24dd010 	sub	sp, sp, #16
    8a94:	e50b0010 	str	r0, [fp, #-16]
/home/silhavyj/School/ZeroMate/examples/15-DPP_01_external_peripherals/kernel/src/drivers/monitor.cpp:22
    Reset_Cursor();
    8a98:	e51b0010 	ldr	r0, [fp, #-16]
    8a9c:	eb00016d 	bl	9058 <_ZN8CMonitor12Reset_CursorEv>
/home/silhavyj/School/ZeroMate/examples/15-DPP_01_external_peripherals/kernel/src/drivers/monitor.cpp:24

    for (unsigned int y = 0; y < m_height; ++y)
    8aa0:	e3a03000 	mov	r3, #0
    8aa4:	e50b3008 	str	r3, [fp, #-8]
/home/silhavyj/School/ZeroMate/examples/15-DPP_01_external_peripherals/kernel/src/drivers/monitor.cpp:24 (discriminator 1)
    8aa8:	e51b3010 	ldr	r3, [fp, #-16]
    8aac:	e5933008 	ldr	r3, [r3, #8]
    8ab0:	e51b2008 	ldr	r2, [fp, #-8]
    8ab4:	e1520003 	cmp	r2, r3
    8ab8:	2a000019 	bcs	8b24 <_ZN8CMonitor5ClearEv+0x9c>
/home/silhavyj/School/ZeroMate/examples/15-DPP_01_external_peripherals/kernel/src/drivers/monitor.cpp:26
    {
        for (unsigned int x = 0; x < m_width; ++x)
    8abc:	e3a03000 	mov	r3, #0
    8ac0:	e50b300c 	str	r3, [fp, #-12]
/home/silhavyj/School/ZeroMate/examples/15-DPP_01_external_peripherals/kernel/src/drivers/monitor.cpp:26 (discriminator 3)
    8ac4:	e51b3010 	ldr	r3, [fp, #-16]
    8ac8:	e5933004 	ldr	r3, [r3, #4]
    8acc:	e51b200c 	ldr	r2, [fp, #-12]
    8ad0:	e1520003 	cmp	r2, r3
    8ad4:	2a00000e 	bcs	8b14 <_ZN8CMonitor5ClearEv+0x8c>
/home/silhavyj/School/ZeroMate/examples/15-DPP_01_external_peripherals/kernel/src/drivers/monitor.cpp:28 (discriminator 2)
        {
            m_monitor[(y * m_width) + x] = ' ';
    8ad8:	e51b3010 	ldr	r3, [fp, #-16]
    8adc:	e5932000 	ldr	r2, [r3]
    8ae0:	e51b3010 	ldr	r3, [fp, #-16]
    8ae4:	e5933004 	ldr	r3, [r3, #4]
    8ae8:	e51b1008 	ldr	r1, [fp, #-8]
    8aec:	e0010391 	mul	r1, r1, r3
    8af0:	e51b300c 	ldr	r3, [fp, #-12]
    8af4:	e0813003 	add	r3, r1, r3
    8af8:	e0823003 	add	r3, r2, r3
    8afc:	e3a02020 	mov	r2, #32
    8b00:	e5c32000 	strb	r2, [r3]
/home/silhavyj/School/ZeroMate/examples/15-DPP_01_external_peripherals/kernel/src/drivers/monitor.cpp:26 (discriminator 2)
        for (unsigned int x = 0; x < m_width; ++x)
    8b04:	e51b300c 	ldr	r3, [fp, #-12]
    8b08:	e2833001 	add	r3, r3, #1
    8b0c:	e50b300c 	str	r3, [fp, #-12]
    8b10:	eaffffeb 	b	8ac4 <_ZN8CMonitor5ClearEv+0x3c>
/home/silhavyj/School/ZeroMate/examples/15-DPP_01_external_peripherals/kernel/src/drivers/monitor.cpp:24 (discriminator 2)
    for (unsigned int y = 0; y < m_height; ++y)
    8b14:	e51b3008 	ldr	r3, [fp, #-8]
    8b18:	e2833001 	add	r3, r3, #1
    8b1c:	e50b3008 	str	r3, [fp, #-8]
    8b20:	eaffffe0 	b	8aa8 <_ZN8CMonitor5ClearEv+0x20>
/home/silhavyj/School/ZeroMate/examples/15-DPP_01_external_peripherals/kernel/src/drivers/monitor.cpp:31
        }
    }
}
    8b24:	e320f000 	nop	{0}
    8b28:	e24bd004 	sub	sp, fp, #4
    8b2c:	e8bd8800 	pop	{fp, pc}

00008b30 <_ZN8CMonitor6ScrollEv>:
_ZN8CMonitor6ScrollEv():
/home/silhavyj/School/ZeroMate/examples/15-DPP_01_external_peripherals/kernel/src/drivers/monitor.cpp:49
        m_cursor.y = m_height - 1;
    }
}

void CMonitor::Scroll()
{
    8b30:	e52db004 	push	{fp}		; (str fp, [sp, #-4]!)
    8b34:	e28db000 	add	fp, sp, #0
    8b38:	e24dd01c 	sub	sp, sp, #28
    8b3c:	e50b0018 	str	r0, [fp, #-24]	; 0xffffffe8
/home/silhavyj/School/ZeroMate/examples/15-DPP_01_external_peripherals/kernel/src/drivers/monitor.cpp:50
    for (unsigned int y = 1; y < m_height; ++y)
    8b40:	e3a03001 	mov	r3, #1
    8b44:	e50b3008 	str	r3, [fp, #-8]
/home/silhavyj/School/ZeroMate/examples/15-DPP_01_external_peripherals/kernel/src/drivers/monitor.cpp:50 (discriminator 1)
    8b48:	e51b3018 	ldr	r3, [fp, #-24]	; 0xffffffe8
    8b4c:	e5933008 	ldr	r3, [r3, #8]
    8b50:	e51b2008 	ldr	r2, [fp, #-8]
    8b54:	e1520003 	cmp	r2, r3
    8b58:	2a000024 	bcs	8bf0 <_ZN8CMonitor6ScrollEv+0xc0>
/home/silhavyj/School/ZeroMate/examples/15-DPP_01_external_peripherals/kernel/src/drivers/monitor.cpp:52
    {
        for (unsigned int x = 0; x < m_width; ++x)
    8b5c:	e3a03000 	mov	r3, #0
    8b60:	e50b300c 	str	r3, [fp, #-12]
/home/silhavyj/School/ZeroMate/examples/15-DPP_01_external_peripherals/kernel/src/drivers/monitor.cpp:52 (discriminator 3)
    8b64:	e51b3018 	ldr	r3, [fp, #-24]	; 0xffffffe8
    8b68:	e5933004 	ldr	r3, [r3, #4]
    8b6c:	e51b200c 	ldr	r2, [fp, #-12]
    8b70:	e1520003 	cmp	r2, r3
    8b74:	2a000019 	bcs	8be0 <_ZN8CMonitor6ScrollEv+0xb0>
/home/silhavyj/School/ZeroMate/examples/15-DPP_01_external_peripherals/kernel/src/drivers/monitor.cpp:54 (discriminator 2)
        {
            m_monitor[((y - 1) * m_width) + x] = m_monitor[(y * m_width) + x];
    8b78:	e51b3018 	ldr	r3, [fp, #-24]	; 0xffffffe8
    8b7c:	e5932000 	ldr	r2, [r3]
    8b80:	e51b3018 	ldr	r3, [fp, #-24]	; 0xffffffe8
    8b84:	e5933004 	ldr	r3, [r3, #4]
    8b88:	e51b1008 	ldr	r1, [fp, #-8]
    8b8c:	e0010391 	mul	r1, r1, r3
    8b90:	e51b300c 	ldr	r3, [fp, #-12]
    8b94:	e0813003 	add	r3, r1, r3
    8b98:	e0822003 	add	r2, r2, r3
    8b9c:	e51b3018 	ldr	r3, [fp, #-24]	; 0xffffffe8
    8ba0:	e5931000 	ldr	r1, [r3]
    8ba4:	e51b3008 	ldr	r3, [fp, #-8]
    8ba8:	e2433001 	sub	r3, r3, #1
    8bac:	e51b0018 	ldr	r0, [fp, #-24]	; 0xffffffe8
    8bb0:	e5900004 	ldr	r0, [r0, #4]
    8bb4:	e0000390 	mul	r0, r0, r3
    8bb8:	e51b300c 	ldr	r3, [fp, #-12]
    8bbc:	e0803003 	add	r3, r0, r3
    8bc0:	e0813003 	add	r3, r1, r3
    8bc4:	e5d22000 	ldrb	r2, [r2]
    8bc8:	e6ef2072 	uxtb	r2, r2
    8bcc:	e5c32000 	strb	r2, [r3]
/home/silhavyj/School/ZeroMate/examples/15-DPP_01_external_peripherals/kernel/src/drivers/monitor.cpp:52 (discriminator 2)
        for (unsigned int x = 0; x < m_width; ++x)
    8bd0:	e51b300c 	ldr	r3, [fp, #-12]
    8bd4:	e2833001 	add	r3, r3, #1
    8bd8:	e50b300c 	str	r3, [fp, #-12]
    8bdc:	eaffffe0 	b	8b64 <_ZN8CMonitor6ScrollEv+0x34>
/home/silhavyj/School/ZeroMate/examples/15-DPP_01_external_peripherals/kernel/src/drivers/monitor.cpp:50 (discriminator 2)
    for (unsigned int y = 1; y < m_height; ++y)
    8be0:	e51b3008 	ldr	r3, [fp, #-8]
    8be4:	e2833001 	add	r3, r3, #1
    8be8:	e50b3008 	str	r3, [fp, #-8]
    8bec:	eaffffd5 	b	8b48 <_ZN8CMonitor6ScrollEv+0x18>
/home/silhavyj/School/ZeroMate/examples/15-DPP_01_external_peripherals/kernel/src/drivers/monitor.cpp:58
        }
    }

    for (unsigned int x = 0; x < m_width; ++x)
    8bf0:	e3a03000 	mov	r3, #0
    8bf4:	e50b3010 	str	r3, [fp, #-16]
/home/silhavyj/School/ZeroMate/examples/15-DPP_01_external_peripherals/kernel/src/drivers/monitor.cpp:58 (discriminator 3)
    8bf8:	e51b3018 	ldr	r3, [fp, #-24]	; 0xffffffe8
    8bfc:	e5933004 	ldr	r3, [r3, #4]
    8c00:	e51b2010 	ldr	r2, [fp, #-16]
    8c04:	e1520003 	cmp	r2, r3
    8c08:	2a000010 	bcs	8c50 <_ZN8CMonitor6ScrollEv+0x120>
/home/silhavyj/School/ZeroMate/examples/15-DPP_01_external_peripherals/kernel/src/drivers/monitor.cpp:60 (discriminator 2)
    {
        m_monitor[((m_height - 1) * m_width) + x] = ' ';
    8c0c:	e51b3018 	ldr	r3, [fp, #-24]	; 0xffffffe8
    8c10:	e5932000 	ldr	r2, [r3]
    8c14:	e51b3018 	ldr	r3, [fp, #-24]	; 0xffffffe8
    8c18:	e5933008 	ldr	r3, [r3, #8]
    8c1c:	e2433001 	sub	r3, r3, #1
    8c20:	e51b1018 	ldr	r1, [fp, #-24]	; 0xffffffe8
    8c24:	e5911004 	ldr	r1, [r1, #4]
    8c28:	e0010391 	mul	r1, r1, r3
    8c2c:	e51b3010 	ldr	r3, [fp, #-16]
    8c30:	e0813003 	add	r3, r1, r3
    8c34:	e0823003 	add	r3, r2, r3
    8c38:	e3a02020 	mov	r2, #32
    8c3c:	e5c32000 	strb	r2, [r3]
/home/silhavyj/School/ZeroMate/examples/15-DPP_01_external_peripherals/kernel/src/drivers/monitor.cpp:58 (discriminator 2)
    for (unsigned int x = 0; x < m_width; ++x)
    8c40:	e51b3010 	ldr	r3, [fp, #-16]
    8c44:	e2833001 	add	r3, r3, #1
    8c48:	e50b3010 	str	r3, [fp, #-16]
    8c4c:	eaffffe9 	b	8bf8 <_ZN8CMonitor6ScrollEv+0xc8>
/home/silhavyj/School/ZeroMate/examples/15-DPP_01_external_peripherals/kernel/src/drivers/monitor.cpp:62
    }
}
    8c50:	e320f000 	nop	{0}
    8c54:	e28bd000 	add	sp, fp, #0
    8c58:	e49db004 	pop	{fp}		; (ldr fp, [sp], #4)
    8c5c:	e12fff1e 	bx	lr

00008c60 <_ZN8CMonitorlsEc>:
_ZN8CMonitorlsEc():
/home/silhavyj/School/ZeroMate/examples/15-DPP_01_external_peripherals/kernel/src/drivers/monitor.cpp:70
{
    m_number_base = DEFAULT_NUMBER_BASE;
}

CMonitor& CMonitor::operator<<(char c)
{
    8c60:	e92d4800 	push	{fp, lr}
    8c64:	e28db004 	add	fp, sp, #4
    8c68:	e24dd008 	sub	sp, sp, #8
    8c6c:	e50b0008 	str	r0, [fp, #-8]
    8c70:	e1a03001 	mov	r3, r1
    8c74:	e54b3009 	strb	r3, [fp, #-9]
/home/silhavyj/School/ZeroMate/examples/15-DPP_01_external_peripherals/kernel/src/drivers/monitor.cpp:71
    if (c != '\n')
    8c78:	e55b3009 	ldrb	r3, [fp, #-9]
    8c7c:	e353000a 	cmp	r3, #10
    8c80:	0a000012 	beq	8cd0 <_ZN8CMonitorlsEc+0x70>
/home/silhavyj/School/ZeroMate/examples/15-DPP_01_external_peripherals/kernel/src/drivers/monitor.cpp:73
    {
        m_monitor[(m_cursor.y * m_width) + m_cursor.x] = static_cast<unsigned char>(c);
    8c84:	e51b3008 	ldr	r3, [fp, #-8]
    8c88:	e5932000 	ldr	r2, [r3]
    8c8c:	e51b3008 	ldr	r3, [fp, #-8]
    8c90:	e593300c 	ldr	r3, [r3, #12]
    8c94:	e51b1008 	ldr	r1, [fp, #-8]
    8c98:	e5911004 	ldr	r1, [r1, #4]
    8c9c:	e0010391 	mul	r1, r1, r3
    8ca0:	e51b3008 	ldr	r3, [fp, #-8]
    8ca4:	e5933010 	ldr	r3, [r3, #16]
    8ca8:	e0813003 	add	r3, r1, r3
    8cac:	e0823003 	add	r3, r2, r3
    8cb0:	e55b2009 	ldrb	r2, [fp, #-9]
    8cb4:	e5c32000 	strb	r2, [r3]
/home/silhavyj/School/ZeroMate/examples/15-DPP_01_external_peripherals/kernel/src/drivers/monitor.cpp:74
        ++m_cursor.x;
    8cb8:	e51b3008 	ldr	r3, [fp, #-8]
    8cbc:	e5933010 	ldr	r3, [r3, #16]
    8cc0:	e2832001 	add	r2, r3, #1
    8cc4:	e51b3008 	ldr	r3, [fp, #-8]
    8cc8:	e5832010 	str	r2, [r3, #16]
    8ccc:	ea000007 	b	8cf0 <_ZN8CMonitorlsEc+0x90>
/home/silhavyj/School/ZeroMate/examples/15-DPP_01_external_peripherals/kernel/src/drivers/monitor.cpp:78
    }
    else
    {
        m_cursor.x = 0;
    8cd0:	e51b3008 	ldr	r3, [fp, #-8]
    8cd4:	e3a02000 	mov	r2, #0
    8cd8:	e5832010 	str	r2, [r3, #16]
/home/silhavyj/School/ZeroMate/examples/15-DPP_01_external_peripherals/kernel/src/drivers/monitor.cpp:79
        ++m_cursor.y;
    8cdc:	e51b3008 	ldr	r3, [fp, #-8]
    8ce0:	e593300c 	ldr	r3, [r3, #12]
    8ce4:	e2832001 	add	r2, r3, #1
    8ce8:	e51b3008 	ldr	r3, [fp, #-8]
    8cec:	e583200c 	str	r2, [r3, #12]
/home/silhavyj/School/ZeroMate/examples/15-DPP_01_external_peripherals/kernel/src/drivers/monitor.cpp:82
    }

    Adjust_Cursor();
    8cf0:	e51b0008 	ldr	r0, [fp, #-8]
    8cf4:	eb0000e5 	bl	9090 <_ZN8CMonitor13Adjust_CursorEv>
/home/silhavyj/School/ZeroMate/examples/15-DPP_01_external_peripherals/kernel/src/drivers/monitor.cpp:84

    return *this;
    8cf8:	e51b3008 	ldr	r3, [fp, #-8]
/home/silhavyj/School/ZeroMate/examples/15-DPP_01_external_peripherals/kernel/src/drivers/monitor.cpp:85
}
    8cfc:	e1a00003 	mov	r0, r3
    8d00:	e24bd004 	sub	sp, fp, #4
    8d04:	e8bd8800 	pop	{fp, pc}

00008d08 <_ZN8CMonitorlsEPKc>:
_ZN8CMonitorlsEPKc():
/home/silhavyj/School/ZeroMate/examples/15-DPP_01_external_peripherals/kernel/src/drivers/monitor.cpp:88

CMonitor& CMonitor::operator<<(const char* str)
{
    8d08:	e92d4800 	push	{fp, lr}
    8d0c:	e28db004 	add	fp, sp, #4
    8d10:	e24dd010 	sub	sp, sp, #16
    8d14:	e50b0010 	str	r0, [fp, #-16]
    8d18:	e50b1014 	str	r1, [fp, #-20]	; 0xffffffec
/home/silhavyj/School/ZeroMate/examples/15-DPP_01_external_peripherals/kernel/src/drivers/monitor.cpp:89
    for (unsigned int i = 0; str[i] != '\0'; ++i)
    8d1c:	e3a03000 	mov	r3, #0
    8d20:	e50b3008 	str	r3, [fp, #-8]
/home/silhavyj/School/ZeroMate/examples/15-DPP_01_external_peripherals/kernel/src/drivers/monitor.cpp:89 (discriminator 3)
    8d24:	e51b2014 	ldr	r2, [fp, #-20]	; 0xffffffec
    8d28:	e51b3008 	ldr	r3, [fp, #-8]
    8d2c:	e0823003 	add	r3, r2, r3
    8d30:	e5d33000 	ldrb	r3, [r3]
    8d34:	e3530000 	cmp	r3, #0
    8d38:	0a00000a 	beq	8d68 <_ZN8CMonitorlsEPKc+0x60>
/home/silhavyj/School/ZeroMate/examples/15-DPP_01_external_peripherals/kernel/src/drivers/monitor.cpp:91 (discriminator 2)
    {
        *this << str[i];
    8d3c:	e51b2014 	ldr	r2, [fp, #-20]	; 0xffffffec
    8d40:	e51b3008 	ldr	r3, [fp, #-8]
    8d44:	e0823003 	add	r3, r2, r3
    8d48:	e5d33000 	ldrb	r3, [r3]
    8d4c:	e1a01003 	mov	r1, r3
    8d50:	e51b0010 	ldr	r0, [fp, #-16]
    8d54:	ebffffc1 	bl	8c60 <_ZN8CMonitorlsEc>
/home/silhavyj/School/ZeroMate/examples/15-DPP_01_external_peripherals/kernel/src/drivers/monitor.cpp:89 (discriminator 2)
    for (unsigned int i = 0; str[i] != '\0'; ++i)
    8d58:	e51b3008 	ldr	r3, [fp, #-8]
    8d5c:	e2833001 	add	r3, r3, #1
    8d60:	e50b3008 	str	r3, [fp, #-8]
    8d64:	eaffffee 	b	8d24 <_ZN8CMonitorlsEPKc+0x1c>
/home/silhavyj/School/ZeroMate/examples/15-DPP_01_external_peripherals/kernel/src/drivers/monitor.cpp:94
    }

    Reset_Number_Base();
    8d68:	e51b0010 	ldr	r0, [fp, #-16]
    8d6c:	eb0000e9 	bl	9118 <_ZN8CMonitor17Reset_Number_BaseEv>
/home/silhavyj/School/ZeroMate/examples/15-DPP_01_external_peripherals/kernel/src/drivers/monitor.cpp:96

    return *this;
    8d70:	e51b3010 	ldr	r3, [fp, #-16]
/home/silhavyj/School/ZeroMate/examples/15-DPP_01_external_peripherals/kernel/src/drivers/monitor.cpp:97
}
    8d74:	e1a00003 	mov	r0, r3
    8d78:	e24bd004 	sub	sp, fp, #4
    8d7c:	e8bd8800 	pop	{fp, pc}

00008d80 <_ZN8CMonitorlsENS_12NNumber_BaseE>:
_ZN8CMonitorlsENS_12NNumber_BaseE():
/home/silhavyj/School/ZeroMate/examples/15-DPP_01_external_peripherals/kernel/src/drivers/monitor.cpp:100

CMonitor& CMonitor::operator<<(CMonitor::NNumber_Base number_base)
{
    8d80:	e52db004 	push	{fp}		; (str fp, [sp, #-4]!)
    8d84:	e28db000 	add	fp, sp, #0
    8d88:	e24dd00c 	sub	sp, sp, #12
    8d8c:	e50b0008 	str	r0, [fp, #-8]
    8d90:	e50b100c 	str	r1, [fp, #-12]
/home/silhavyj/School/ZeroMate/examples/15-DPP_01_external_peripherals/kernel/src/drivers/monitor.cpp:101
    m_number_base = number_base;
    8d94:	e51b3008 	ldr	r3, [fp, #-8]
    8d98:	e51b200c 	ldr	r2, [fp, #-12]
    8d9c:	e5832014 	str	r2, [r3, #20]
/home/silhavyj/School/ZeroMate/examples/15-DPP_01_external_peripherals/kernel/src/drivers/monitor.cpp:103

    return *this;
    8da0:	e51b3008 	ldr	r3, [fp, #-8]
/home/silhavyj/School/ZeroMate/examples/15-DPP_01_external_peripherals/kernel/src/drivers/monitor.cpp:104
}
    8da4:	e1a00003 	mov	r0, r3
    8da8:	e28bd000 	add	sp, fp, #0
    8dac:	e49db004 	pop	{fp}		; (ldr fp, [sp], #4)
    8db0:	e12fff1e 	bx	lr

00008db4 <_ZN8CMonitorlsEj>:
_ZN8CMonitorlsEj():
/home/silhavyj/School/ZeroMate/examples/15-DPP_01_external_peripherals/kernel/src/drivers/monitor.cpp:107

CMonitor& CMonitor::operator<<(unsigned int num)
{
    8db4:	e92d4800 	push	{fp, lr}
    8db8:	e28db004 	add	fp, sp, #4
    8dbc:	e24dd008 	sub	sp, sp, #8
    8dc0:	e50b0008 	str	r0, [fp, #-8]
    8dc4:	e50b100c 	str	r1, [fp, #-12]
/home/silhavyj/School/ZeroMate/examples/15-DPP_01_external_peripherals/kernel/src/drivers/monitor.cpp:112
    static constexpr unsigned int BUFFER_SIZE = 16;

    static char s_buffer[BUFFER_SIZE];

    itoa(num, s_buffer, static_cast<unsigned int>(m_number_base));
    8dc8:	e51b3008 	ldr	r3, [fp, #-8]
    8dcc:	e5933014 	ldr	r3, [r3, #20]
    8dd0:	e59f202c 	ldr	r2, [pc, #44]	; 8e04 <_ZN8CMonitorlsEj+0x50>
    8dd4:	e51b100c 	ldr	r1, [fp, #-12]
    8dd8:	e51b0008 	ldr	r0, [fp, #-8]
    8ddc:	eb000021 	bl	8e68 <_ZN8CMonitor4itoaEjPcj>
/home/silhavyj/School/ZeroMate/examples/15-DPP_01_external_peripherals/kernel/src/drivers/monitor.cpp:113
    *this << s_buffer;
    8de0:	e59f101c 	ldr	r1, [pc, #28]	; 8e04 <_ZN8CMonitorlsEj+0x50>
    8de4:	e51b0008 	ldr	r0, [fp, #-8]
    8de8:	ebffffc6 	bl	8d08 <_ZN8CMonitorlsEPKc>
/home/silhavyj/School/ZeroMate/examples/15-DPP_01_external_peripherals/kernel/src/drivers/monitor.cpp:114
    Reset_Number_Base();
    8dec:	e51b0008 	ldr	r0, [fp, #-8]
    8df0:	eb0000c8 	bl	9118 <_ZN8CMonitor17Reset_Number_BaseEv>
/home/silhavyj/School/ZeroMate/examples/15-DPP_01_external_peripherals/kernel/src/drivers/monitor.cpp:116

    return *this;
    8df4:	e51b3008 	ldr	r3, [fp, #-8]
/home/silhavyj/School/ZeroMate/examples/15-DPP_01_external_peripherals/kernel/src/drivers/monitor.cpp:117
}
    8df8:	e1a00003 	mov	r0, r3
    8dfc:	e24bd004 	sub	sp, fp, #4
    8e00:	e8bd8800 	pop	{fp, pc}
    8e04:	0000e3e8 	andeq	lr, r0, r8, ror #7

00008e08 <_ZN8CMonitorlsEb>:
_ZN8CMonitorlsEb():
/home/silhavyj/School/ZeroMate/examples/15-DPP_01_external_peripherals/kernel/src/drivers/monitor.cpp:120

CMonitor& CMonitor::operator<<(bool value)
{
    8e08:	e92d4800 	push	{fp, lr}
    8e0c:	e28db004 	add	fp, sp, #4
    8e10:	e24dd008 	sub	sp, sp, #8
    8e14:	e50b0008 	str	r0, [fp, #-8]
    8e18:	e1a03001 	mov	r3, r1
    8e1c:	e54b3009 	strb	r3, [fp, #-9]
/home/silhavyj/School/ZeroMate/examples/15-DPP_01_external_peripherals/kernel/src/drivers/monitor.cpp:121
    if (value)
    8e20:	e55b3009 	ldrb	r3, [fp, #-9]
    8e24:	e3530000 	cmp	r3, #0
    8e28:	0a000003 	beq	8e3c <_ZN8CMonitorlsEb+0x34>
/home/silhavyj/School/ZeroMate/examples/15-DPP_01_external_peripherals/kernel/src/drivers/monitor.cpp:123
    {
        *this << "true";
    8e2c:	e59f102c 	ldr	r1, [pc, #44]	; 8e60 <_ZN8CMonitorlsEb+0x58>
    8e30:	e51b0008 	ldr	r0, [fp, #-8]
    8e34:	ebffffb3 	bl	8d08 <_ZN8CMonitorlsEPKc>
    8e38:	ea000002 	b	8e48 <_ZN8CMonitorlsEb+0x40>
/home/silhavyj/School/ZeroMate/examples/15-DPP_01_external_peripherals/kernel/src/drivers/monitor.cpp:127
    }
    else
    {
        *this << "false";
    8e3c:	e59f1020 	ldr	r1, [pc, #32]	; 8e64 <_ZN8CMonitorlsEb+0x5c>
    8e40:	e51b0008 	ldr	r0, [fp, #-8]
    8e44:	ebffffaf 	bl	8d08 <_ZN8CMonitorlsEPKc>
/home/silhavyj/School/ZeroMate/examples/15-DPP_01_external_peripherals/kernel/src/drivers/monitor.cpp:130
    }

    Reset_Number_Base();
    8e48:	e51b0008 	ldr	r0, [fp, #-8]
    8e4c:	eb0000b1 	bl	9118 <_ZN8CMonitor17Reset_Number_BaseEv>
/home/silhavyj/School/ZeroMate/examples/15-DPP_01_external_peripherals/kernel/src/drivers/monitor.cpp:132

    return *this;
    8e50:	e51b3008 	ldr	r3, [fp, #-8]
/home/silhavyj/School/ZeroMate/examples/15-DPP_01_external_peripherals/kernel/src/drivers/monitor.cpp:133
}
    8e54:	e1a00003 	mov	r0, r3
    8e58:	e24bd004 	sub	sp, fp, #4
    8e5c:	e8bd8800 	pop	{fp, pc}
    8e60:	0000dc6c 	andeq	sp, r0, ip, ror #24
    8e64:	0000dc74 	andeq	sp, r0, r4, ror ip

00008e68 <_ZN8CMonitor4itoaEjPcj>:
_ZN8CMonitor4itoaEjPcj():
/home/silhavyj/School/ZeroMate/examples/15-DPP_01_external_peripherals/kernel/src/drivers/monitor.cpp:136

void CMonitor::itoa(unsigned int input, char* output, unsigned int base)
{
    8e68:	e92d4800 	push	{fp, lr}
    8e6c:	e28db004 	add	fp, sp, #4
    8e70:	e24dd020 	sub	sp, sp, #32
    8e74:	e50b0018 	str	r0, [fp, #-24]	; 0xffffffe8
    8e78:	e50b101c 	str	r1, [fp, #-28]	; 0xffffffe4
    8e7c:	e50b2020 	str	r2, [fp, #-32]	; 0xffffffe0
    8e80:	e50b3024 	str	r3, [fp, #-36]	; 0xffffffdc
/home/silhavyj/School/ZeroMate/examples/15-DPP_01_external_peripherals/kernel/src/drivers/monitor.cpp:137
    int i = 0;
    8e84:	e3a03000 	mov	r3, #0
    8e88:	e50b3008 	str	r3, [fp, #-8]
/home/silhavyj/School/ZeroMate/examples/15-DPP_01_external_peripherals/kernel/src/drivers/monitor.cpp:139

    while (input > 0)
    8e8c:	e51b301c 	ldr	r3, [fp, #-28]	; 0xffffffe4
    8e90:	e3530000 	cmp	r3, #0
    8e94:	0a000015 	beq	8ef0 <_ZN8CMonitor4itoaEjPcj+0x88>
/home/silhavyj/School/ZeroMate/examples/15-DPP_01_external_peripherals/kernel/src/drivers/monitor.cpp:141
    {
        output[i] = CharConvArr[input % base];
    8e98:	e51b301c 	ldr	r3, [fp, #-28]	; 0xffffffe4
    8e9c:	e51b1024 	ldr	r1, [fp, #-36]	; 0xffffffdc
    8ea0:	e1a00003 	mov	r0, r3
    8ea4:	eb00135b 	bl	dc18 <__aeabi_uidivmod>
    8ea8:	e1a03001 	mov	r3, r1
    8eac:	e1a02003 	mov	r2, r3
    8eb0:	e59f3128 	ldr	r3, [pc, #296]	; 8fe0 <_ZN8CMonitor4itoaEjPcj+0x178>
    8eb4:	e0822003 	add	r2, r2, r3
    8eb8:	e51b3008 	ldr	r3, [fp, #-8]
    8ebc:	e51b1020 	ldr	r1, [fp, #-32]	; 0xffffffe0
    8ec0:	e0813003 	add	r3, r1, r3
    8ec4:	e5d22000 	ldrb	r2, [r2]
    8ec8:	e5c32000 	strb	r2, [r3]
/home/silhavyj/School/ZeroMate/examples/15-DPP_01_external_peripherals/kernel/src/drivers/monitor.cpp:142
        input /= base;
    8ecc:	e51b1024 	ldr	r1, [fp, #-36]	; 0xffffffdc
    8ed0:	e51b001c 	ldr	r0, [fp, #-28]	; 0xffffffe4
    8ed4:	eb0012d4 	bl	da2c <__udivsi3>
    8ed8:	e1a03000 	mov	r3, r0
    8edc:	e50b301c 	str	r3, [fp, #-28]	; 0xffffffe4
/home/silhavyj/School/ZeroMate/examples/15-DPP_01_external_peripherals/kernel/src/drivers/monitor.cpp:144

        i++;
    8ee0:	e51b3008 	ldr	r3, [fp, #-8]
    8ee4:	e2833001 	add	r3, r3, #1
    8ee8:	e50b3008 	str	r3, [fp, #-8]
/home/silhavyj/School/ZeroMate/examples/15-DPP_01_external_peripherals/kernel/src/drivers/monitor.cpp:139
    while (input > 0)
    8eec:	eaffffe6 	b	8e8c <_ZN8CMonitor4itoaEjPcj+0x24>
/home/silhavyj/School/ZeroMate/examples/15-DPP_01_external_peripherals/kernel/src/drivers/monitor.cpp:147
    }

    if (i == 0)
    8ef0:	e51b3008 	ldr	r3, [fp, #-8]
    8ef4:	e3530000 	cmp	r3, #0
    8ef8:	1a000007 	bne	8f1c <_ZN8CMonitor4itoaEjPcj+0xb4>
/home/silhavyj/School/ZeroMate/examples/15-DPP_01_external_peripherals/kernel/src/drivers/monitor.cpp:149
    {
        output[i] = CharConvArr[0];
    8efc:	e51b3008 	ldr	r3, [fp, #-8]
    8f00:	e51b2020 	ldr	r2, [fp, #-32]	; 0xffffffe0
    8f04:	e0823003 	add	r3, r2, r3
    8f08:	e3a02030 	mov	r2, #48	; 0x30
    8f0c:	e5c32000 	strb	r2, [r3]
/home/silhavyj/School/ZeroMate/examples/15-DPP_01_external_peripherals/kernel/src/drivers/monitor.cpp:150
        i++;
    8f10:	e51b3008 	ldr	r3, [fp, #-8]
    8f14:	e2833001 	add	r3, r3, #1
    8f18:	e50b3008 	str	r3, [fp, #-8]
/home/silhavyj/School/ZeroMate/examples/15-DPP_01_external_peripherals/kernel/src/drivers/monitor.cpp:153
    }

    output[i] = '\0';
    8f1c:	e51b3008 	ldr	r3, [fp, #-8]
    8f20:	e51b2020 	ldr	r2, [fp, #-32]	; 0xffffffe0
    8f24:	e0823003 	add	r3, r2, r3
    8f28:	e3a02000 	mov	r2, #0
    8f2c:	e5c32000 	strb	r2, [r3]
/home/silhavyj/School/ZeroMate/examples/15-DPP_01_external_peripherals/kernel/src/drivers/monitor.cpp:154
    i--;
    8f30:	e51b3008 	ldr	r3, [fp, #-8]
    8f34:	e2433001 	sub	r3, r3, #1
    8f38:	e50b3008 	str	r3, [fp, #-8]
/home/silhavyj/School/ZeroMate/examples/15-DPP_01_external_peripherals/kernel/src/drivers/monitor.cpp:156

    for (int j = 0; j <= (i / 2); j++)
    8f3c:	e3a03000 	mov	r3, #0
    8f40:	e50b300c 	str	r3, [fp, #-12]
/home/silhavyj/School/ZeroMate/examples/15-DPP_01_external_peripherals/kernel/src/drivers/monitor.cpp:156 (discriminator 3)
    8f44:	e51b3008 	ldr	r3, [fp, #-8]
    8f48:	e1a02fa3 	lsr	r2, r3, #31
    8f4c:	e0823003 	add	r3, r2, r3
    8f50:	e1a030c3 	asr	r3, r3, #1
    8f54:	e1a02003 	mov	r2, r3
    8f58:	e51b300c 	ldr	r3, [fp, #-12]
    8f5c:	e1530002 	cmp	r3, r2
    8f60:	ca00001b 	bgt	8fd4 <_ZN8CMonitor4itoaEjPcj+0x16c>
/home/silhavyj/School/ZeroMate/examples/15-DPP_01_external_peripherals/kernel/src/drivers/monitor.cpp:158 (discriminator 2)
    {
        char c = output[i - j];
    8f64:	e51b2008 	ldr	r2, [fp, #-8]
    8f68:	e51b300c 	ldr	r3, [fp, #-12]
    8f6c:	e0423003 	sub	r3, r2, r3
    8f70:	e1a02003 	mov	r2, r3
    8f74:	e51b3020 	ldr	r3, [fp, #-32]	; 0xffffffe0
    8f78:	e0833002 	add	r3, r3, r2
    8f7c:	e5d33000 	ldrb	r3, [r3]
    8f80:	e54b300d 	strb	r3, [fp, #-13]
/home/silhavyj/School/ZeroMate/examples/15-DPP_01_external_peripherals/kernel/src/drivers/monitor.cpp:159 (discriminator 2)
        output[i - j] = output[j];
    8f84:	e51b300c 	ldr	r3, [fp, #-12]
    8f88:	e51b2020 	ldr	r2, [fp, #-32]	; 0xffffffe0
    8f8c:	e0822003 	add	r2, r2, r3
    8f90:	e51b1008 	ldr	r1, [fp, #-8]
    8f94:	e51b300c 	ldr	r3, [fp, #-12]
    8f98:	e0413003 	sub	r3, r1, r3
    8f9c:	e1a01003 	mov	r1, r3
    8fa0:	e51b3020 	ldr	r3, [fp, #-32]	; 0xffffffe0
    8fa4:	e0833001 	add	r3, r3, r1
    8fa8:	e5d22000 	ldrb	r2, [r2]
    8fac:	e5c32000 	strb	r2, [r3]
/home/silhavyj/School/ZeroMate/examples/15-DPP_01_external_peripherals/kernel/src/drivers/monitor.cpp:160 (discriminator 2)
        output[j] = c;
    8fb0:	e51b300c 	ldr	r3, [fp, #-12]
    8fb4:	e51b2020 	ldr	r2, [fp, #-32]	; 0xffffffe0
    8fb8:	e0823003 	add	r3, r2, r3
    8fbc:	e55b200d 	ldrb	r2, [fp, #-13]
    8fc0:	e5c32000 	strb	r2, [r3]
/home/silhavyj/School/ZeroMate/examples/15-DPP_01_external_peripherals/kernel/src/drivers/monitor.cpp:156 (discriminator 2)
    for (int j = 0; j <= (i / 2); j++)
    8fc4:	e51b300c 	ldr	r3, [fp, #-12]
    8fc8:	e2833001 	add	r3, r3, #1
    8fcc:	e50b300c 	str	r3, [fp, #-12]
    8fd0:	eaffffdb 	b	8f44 <_ZN8CMonitor4itoaEjPcj+0xdc>
/home/silhavyj/School/ZeroMate/examples/15-DPP_01_external_peripherals/kernel/src/drivers/monitor.cpp:162
    }
}
    8fd4:	e320f000 	nop	{0}
    8fd8:	e24bd004 	sub	sp, fp, #4
    8fdc:	e8bd8800 	pop	{fp, pc}
    8fe0:	0000dc7c 	andeq	sp, r0, ip, ror ip

00008fe4 <_Z41__static_initialization_and_destruction_0ii>:
_Z41__static_initialization_and_destruction_0ii():
/home/silhavyj/School/ZeroMate/examples/15-DPP_01_external_peripherals/kernel/src/drivers/monitor.cpp:162
    8fe4:	e92d4800 	push	{fp, lr}
    8fe8:	e28db004 	add	fp, sp, #4
    8fec:	e24dd008 	sub	sp, sp, #8
    8ff0:	e50b0008 	str	r0, [fp, #-8]
    8ff4:	e50b100c 	str	r1, [fp, #-12]
    8ff8:	e51b3008 	ldr	r3, [fp, #-8]
    8ffc:	e3530001 	cmp	r3, #1
    9000:	1a000008 	bne	9028 <_Z41__static_initialization_and_destruction_0ii+0x44>
/home/silhavyj/School/ZeroMate/examples/15-DPP_01_external_peripherals/kernel/src/drivers/monitor.cpp:162 (discriminator 1)
    9004:	e51b300c 	ldr	r3, [fp, #-12]
    9008:	e59f2024 	ldr	r2, [pc, #36]	; 9034 <_Z41__static_initialization_and_destruction_0ii+0x50>
    900c:	e1530002 	cmp	r3, r2
    9010:	1a000004 	bne	9028 <_Z41__static_initialization_and_destruction_0ii+0x44>
/home/silhavyj/School/ZeroMate/examples/15-DPP_01_external_peripherals/kernel/src/drivers/monitor.cpp:3
CMonitor sMonitor{ 0x30000000, 80, 25 };
    9014:	e3a03019 	mov	r3, #25
    9018:	e3a02050 	mov	r2, #80	; 0x50
    901c:	e3a01203 	mov	r1, #805306368	; 0x30000000
    9020:	e59f0010 	ldr	r0, [pc, #16]	; 9038 <_Z41__static_initialization_and_destruction_0ii+0x54>
    9024:	ebfffe79 	bl	8a10 <_ZN8CMonitorC1Ejjj>
/home/silhavyj/School/ZeroMate/examples/15-DPP_01_external_peripherals/kernel/src/drivers/monitor.cpp:162
}
    9028:	e320f000 	nop	{0}
    902c:	e24bd004 	sub	sp, fp, #4
    9030:	e8bd8800 	pop	{fp, pc}
    9034:	0000ffff 	strdeq	pc, [r0], -pc	; <UNPREDICTABLE>
    9038:	0000e3d0 	ldrdeq	lr, [r0], -r0

0000903c <_GLOBAL__sub_I_sMonitor>:
_GLOBAL__sub_I_sMonitor():
/home/silhavyj/School/ZeroMate/examples/15-DPP_01_external_peripherals/kernel/src/drivers/monitor.cpp:162
    903c:	e92d4800 	push	{fp, lr}
    9040:	e28db004 	add	fp, sp, #4
    9044:	e59f1008 	ldr	r1, [pc, #8]	; 9054 <_GLOBAL__sub_I_sMonitor+0x18>
    9048:	e3a00001 	mov	r0, #1
    904c:	ebffffe4 	bl	8fe4 <_Z41__static_initialization_and_destruction_0ii>
    9050:	e8bd8800 	pop	{fp, pc}
    9054:	0000ffff 	strdeq	pc, [r0], -pc	; <UNPREDICTABLE>

00009058 <_ZN8CMonitor12Reset_CursorEv>:
_ZN8CMonitor12Reset_CursorEv():
/home/silhavyj/School/ZeroMate/examples/15-DPP_01_external_peripherals/kernel/src/drivers/monitor.cpp:15
{
    9058:	e52db004 	push	{fp}		; (str fp, [sp, #-4]!)
    905c:	e28db000 	add	fp, sp, #0
    9060:	e24dd00c 	sub	sp, sp, #12
    9064:	e50b0008 	str	r0, [fp, #-8]
/home/silhavyj/School/ZeroMate/examples/15-DPP_01_external_peripherals/kernel/src/drivers/monitor.cpp:16
    m_cursor.y = 0;
    9068:	e51b3008 	ldr	r3, [fp, #-8]
    906c:	e3a02000 	mov	r2, #0
    9070:	e583200c 	str	r2, [r3, #12]
/home/silhavyj/School/ZeroMate/examples/15-DPP_01_external_peripherals/kernel/src/drivers/monitor.cpp:17
    m_cursor.y = 0;
    9074:	e51b3008 	ldr	r3, [fp, #-8]
    9078:	e3a02000 	mov	r2, #0
    907c:	e583200c 	str	r2, [r3, #12]
/home/silhavyj/School/ZeroMate/examples/15-DPP_01_external_peripherals/kernel/src/drivers/monitor.cpp:18
}
    9080:	e320f000 	nop	{0}
    9084:	e28bd000 	add	sp, fp, #0
    9088:	e49db004 	pop	{fp}		; (ldr fp, [sp], #4)
    908c:	e12fff1e 	bx	lr

00009090 <_ZN8CMonitor13Adjust_CursorEv>:
_ZN8CMonitor13Adjust_CursorEv():
/home/silhavyj/School/ZeroMate/examples/15-DPP_01_external_peripherals/kernel/src/drivers/monitor.cpp:34
{
    9090:	e92d4800 	push	{fp, lr}
    9094:	e28db004 	add	fp, sp, #4
    9098:	e24dd008 	sub	sp, sp, #8
    909c:	e50b0008 	str	r0, [fp, #-8]
/home/silhavyj/School/ZeroMate/examples/15-DPP_01_external_peripherals/kernel/src/drivers/monitor.cpp:35
    if (m_cursor.x >= m_width)
    90a0:	e51b3008 	ldr	r3, [fp, #-8]
    90a4:	e5932010 	ldr	r2, [r3, #16]
    90a8:	e51b3008 	ldr	r3, [fp, #-8]
    90ac:	e5933004 	ldr	r3, [r3, #4]
    90b0:	e1520003 	cmp	r2, r3
    90b4:	3a000007 	bcc	90d8 <_ZN8CMonitor13Adjust_CursorEv+0x48>
/home/silhavyj/School/ZeroMate/examples/15-DPP_01_external_peripherals/kernel/src/drivers/monitor.cpp:37
        m_cursor.x = 0;
    90b8:	e51b3008 	ldr	r3, [fp, #-8]
    90bc:	e3a02000 	mov	r2, #0
    90c0:	e5832010 	str	r2, [r3, #16]
/home/silhavyj/School/ZeroMate/examples/15-DPP_01_external_peripherals/kernel/src/drivers/monitor.cpp:38
        ++m_cursor.y;
    90c4:	e51b3008 	ldr	r3, [fp, #-8]
    90c8:	e593300c 	ldr	r3, [r3, #12]
    90cc:	e2832001 	add	r2, r3, #1
    90d0:	e51b3008 	ldr	r3, [fp, #-8]
    90d4:	e583200c 	str	r2, [r3, #12]
/home/silhavyj/School/ZeroMate/examples/15-DPP_01_external_peripherals/kernel/src/drivers/monitor.cpp:41
    if (m_cursor.y >= m_height)
    90d8:	e51b3008 	ldr	r3, [fp, #-8]
    90dc:	e593200c 	ldr	r2, [r3, #12]
    90e0:	e51b3008 	ldr	r3, [fp, #-8]
    90e4:	e5933008 	ldr	r3, [r3, #8]
    90e8:	e1520003 	cmp	r2, r3
    90ec:	3a000006 	bcc	910c <_ZN8CMonitor13Adjust_CursorEv+0x7c>
/home/silhavyj/School/ZeroMate/examples/15-DPP_01_external_peripherals/kernel/src/drivers/monitor.cpp:43
        Scroll();
    90f0:	e51b0008 	ldr	r0, [fp, #-8]
    90f4:	ebfffe8d 	bl	8b30 <_ZN8CMonitor6ScrollEv>
/home/silhavyj/School/ZeroMate/examples/15-DPP_01_external_peripherals/kernel/src/drivers/monitor.cpp:44
        m_cursor.y = m_height - 1;
    90f8:	e51b3008 	ldr	r3, [fp, #-8]
    90fc:	e5933008 	ldr	r3, [r3, #8]
    9100:	e2432001 	sub	r2, r3, #1
    9104:	e51b3008 	ldr	r3, [fp, #-8]
    9108:	e583200c 	str	r2, [r3, #12]
/home/silhavyj/School/ZeroMate/examples/15-DPP_01_external_peripherals/kernel/src/drivers/monitor.cpp:46
}
    910c:	e320f000 	nop	{0}
    9110:	e24bd004 	sub	sp, fp, #4
    9114:	e8bd8800 	pop	{fp, pc}

00009118 <_ZN8CMonitor17Reset_Number_BaseEv>:
_ZN8CMonitor17Reset_Number_BaseEv():
/home/silhavyj/School/ZeroMate/examples/15-DPP_01_external_peripherals/kernel/src/drivers/monitor.cpp:65
{
    9118:	e52db004 	push	{fp}		; (str fp, [sp, #-4]!)
    911c:	e28db000 	add	fp, sp, #0
    9120:	e24dd00c 	sub	sp, sp, #12
    9124:	e50b0008 	str	r0, [fp, #-8]
/home/silhavyj/School/ZeroMate/examples/15-DPP_01_external_peripherals/kernel/src/drivers/monitor.cpp:66
    m_number_base = DEFAULT_NUMBER_BASE;
    9128:	e51b3008 	ldr	r3, [fp, #-8]
    912c:	e3a0200a 	mov	r2, #10
    9130:	e5832014 	str	r2, [r3, #20]
/home/silhavyj/School/ZeroMate/examples/15-DPP_01_external_peripherals/kernel/src/drivers/monitor.cpp:67
}
    9134:	e320f000 	nop	{0}
    9138:	e28bd000 	add	sp, fp, #0
    913c:	e49db004 	pop	{fp}		; (ldr fp, [sp], #4)
    9140:	e12fff1e 	bx	lr

00009144 <_ZN16CSegment_DisplayC1Ev>:
_ZN16CSegment_DisplayC2Ev():
/home/silhavyj/School/ZeroMate/examples/15-DPP_01_external_peripherals/kernel/src/drivers/segmentdisplay.cpp:123
    0, // }
    0, // ~
    0, // DEL
};

CSegment_Display::CSegment_Display()
    9144:	e52db004 	push	{fp}		; (str fp, [sp, #-4]!)
    9148:	e28db000 	add	fp, sp, #0
    914c:	e24dd00c 	sub	sp, sp, #12
    9150:	e50b0008 	str	r0, [fp, #-8]
/home/silhavyj/School/ZeroMate/examples/15-DPP_01_external_peripherals/kernel/src/drivers/segmentdisplay.cpp:124
    : mOpened(false), mOutput('\0')
    9154:	e51b3008 	ldr	r3, [fp, #-8]
    9158:	e3a02000 	mov	r2, #0
    915c:	e5c32000 	strb	r2, [r3]
    9160:	e51b3008 	ldr	r3, [fp, #-8]
    9164:	e3a02000 	mov	r2, #0
    9168:	e5c32001 	strb	r2, [r3, #1]
/home/silhavyj/School/ZeroMate/examples/15-DPP_01_external_peripherals/kernel/src/drivers/segmentdisplay.cpp:127
{
    //
}
    916c:	e51b3008 	ldr	r3, [fp, #-8]
    9170:	e1a00003 	mov	r0, r3
    9174:	e28bd000 	add	sp, fp, #0
    9178:	e49db004 	pop	{fp}		; (ldr fp, [sp], #4)
    917c:	e12fff1e 	bx	lr

00009180 <_ZN16CSegment_Display4OpenEv>:
_ZN16CSegment_Display4OpenEv():
/home/silhavyj/School/ZeroMate/examples/15-DPP_01_external_peripherals/kernel/src/drivers/segmentdisplay.cpp:130

bool CSegment_Display::Open()
{
    9180:	e92d4800 	push	{fp, lr}
    9184:	e28db004 	add	fp, sp, #4
    9188:	e24dd008 	sub	sp, sp, #8
    918c:	e50b0008 	str	r0, [fp, #-8]
/home/silhavyj/School/ZeroMate/examples/15-DPP_01_external_peripherals/kernel/src/drivers/segmentdisplay.cpp:131
    if (mOpened)
    9190:	e51b3008 	ldr	r3, [fp, #-8]
    9194:	e5d33000 	ldrb	r3, [r3]
    9198:	e3530000 	cmp	r3, #0
    919c:	0a000001 	beq	91a8 <_ZN16CSegment_Display4OpenEv+0x28>
/home/silhavyj/School/ZeroMate/examples/15-DPP_01_external_peripherals/kernel/src/drivers/segmentdisplay.cpp:132
        return false;
    91a0:	e3a03000 	mov	r3, #0
    91a4:	ea00000c 	b	91dc <_ZN16CSegment_Display4OpenEv+0x5c>
/home/silhavyj/School/ZeroMate/examples/15-DPP_01_external_peripherals/kernel/src/drivers/segmentdisplay.cpp:134

    if (!sShift_Register.Open())
    91a8:	e59f0038 	ldr	r0, [pc, #56]	; 91e8 <_ZN16CSegment_Display4OpenEv+0x68>
    91ac:	eb000092 	bl	93fc <_ZN15CShift_Register4OpenEv>
    91b0:	e1a03000 	mov	r3, r0
    91b4:	e2233001 	eor	r3, r3, #1
    91b8:	e6ef3073 	uxtb	r3, r3
    91bc:	e3530000 	cmp	r3, #0
    91c0:	0a000001 	beq	91cc <_ZN16CSegment_Display4OpenEv+0x4c>
/home/silhavyj/School/ZeroMate/examples/15-DPP_01_external_peripherals/kernel/src/drivers/segmentdisplay.cpp:135
        return false;
    91c4:	e3a03000 	mov	r3, #0
    91c8:	ea000003 	b	91dc <_ZN16CSegment_Display4OpenEv+0x5c>
/home/silhavyj/School/ZeroMate/examples/15-DPP_01_external_peripherals/kernel/src/drivers/segmentdisplay.cpp:137

    mOpened = true;
    91cc:	e51b3008 	ldr	r3, [fp, #-8]
    91d0:	e3a02001 	mov	r2, #1
    91d4:	e5c32000 	strb	r2, [r3]
/home/silhavyj/School/ZeroMate/examples/15-DPP_01_external_peripherals/kernel/src/drivers/segmentdisplay.cpp:139

    return true;
    91d8:	e3a03001 	mov	r3, #1
/home/silhavyj/School/ZeroMate/examples/15-DPP_01_external_peripherals/kernel/src/drivers/segmentdisplay.cpp:140
}
    91dc:	e1a00003 	mov	r0, r3
    91e0:	e24bd004 	sub	sp, fp, #4
    91e4:	e8bd8800 	pop	{fp, pc}
    91e8:	0000e3fc 	strdeq	lr, [r0], -ip

000091ec <_ZN16CSegment_Display5CloseEv>:
_ZN16CSegment_Display5CloseEv():
/home/silhavyj/School/ZeroMate/examples/15-DPP_01_external_peripherals/kernel/src/drivers/segmentdisplay.cpp:143

void CSegment_Display::Close()
{
    91ec:	e92d4800 	push	{fp, lr}
    91f0:	e28db004 	add	fp, sp, #4
    91f4:	e24dd008 	sub	sp, sp, #8
    91f8:	e50b0008 	str	r0, [fp, #-8]
/home/silhavyj/School/ZeroMate/examples/15-DPP_01_external_peripherals/kernel/src/drivers/segmentdisplay.cpp:144
    if (!mOpened)
    91fc:	e51b3008 	ldr	r3, [fp, #-8]
    9200:	e5d33000 	ldrb	r3, [r3]
    9204:	e2233001 	eor	r3, r3, #1
    9208:	e6ef3073 	uxtb	r3, r3
    920c:	e3530000 	cmp	r3, #0
    9210:	1a000005 	bne	922c <_ZN16CSegment_Display5CloseEv+0x40>
/home/silhavyj/School/ZeroMate/examples/15-DPP_01_external_peripherals/kernel/src/drivers/segmentdisplay.cpp:147
        return;

    sShift_Register.Close();
    9214:	e59f001c 	ldr	r0, [pc, #28]	; 9238 <_ZN16CSegment_Display5CloseEv+0x4c>
    9218:	eb0000d4 	bl	9570 <_ZN15CShift_Register5CloseEv>
/home/silhavyj/School/ZeroMate/examples/15-DPP_01_external_peripherals/kernel/src/drivers/segmentdisplay.cpp:149

    mOpened = false;
    921c:	e51b3008 	ldr	r3, [fp, #-8]
    9220:	e3a02000 	mov	r2, #0
    9224:	e5c32000 	strb	r2, [r3]
    9228:	ea000000 	b	9230 <_ZN16CSegment_Display5CloseEv+0x44>
/home/silhavyj/School/ZeroMate/examples/15-DPP_01_external_peripherals/kernel/src/drivers/segmentdisplay.cpp:145
        return;
    922c:	e320f000 	nop	{0}
/home/silhavyj/School/ZeroMate/examples/15-DPP_01_external_peripherals/kernel/src/drivers/segmentdisplay.cpp:150
}
    9230:	e24bd004 	sub	sp, fp, #4
    9234:	e8bd8800 	pop	{fp, pc}
    9238:	0000e3fc 	strdeq	lr, [r0], -ip

0000923c <_ZNK16CSegment_Display9Is_OpenedEv>:
_ZNK16CSegment_Display9Is_OpenedEv():
/home/silhavyj/School/ZeroMate/examples/15-DPP_01_external_peripherals/kernel/src/drivers/segmentdisplay.cpp:153

bool CSegment_Display::Is_Opened() const
{
    923c:	e52db004 	push	{fp}		; (str fp, [sp, #-4]!)
    9240:	e28db000 	add	fp, sp, #0
    9244:	e24dd00c 	sub	sp, sp, #12
    9248:	e50b0008 	str	r0, [fp, #-8]
/home/silhavyj/School/ZeroMate/examples/15-DPP_01_external_peripherals/kernel/src/drivers/segmentdisplay.cpp:154
    return mOpened;
    924c:	e51b3008 	ldr	r3, [fp, #-8]
    9250:	e5d33000 	ldrb	r3, [r3]
/home/silhavyj/School/ZeroMate/examples/15-DPP_01_external_peripherals/kernel/src/drivers/segmentdisplay.cpp:155
}
    9254:	e1a00003 	mov	r0, r3
    9258:	e28bd000 	add	sp, fp, #0
    925c:	e49db004 	pop	{fp}		; (ldr fp, [sp], #4)
    9260:	e12fff1e 	bx	lr

00009264 <_ZN16CSegment_Display5WriteEc>:
_ZN16CSegment_Display5WriteEc():
/home/silhavyj/School/ZeroMate/examples/15-DPP_01_external_peripherals/kernel/src/drivers/segmentdisplay.cpp:158

void CSegment_Display::Write(char c)
{
    9264:	e92d4800 	push	{fp, lr}
    9268:	e28db004 	add	fp, sp, #4
    926c:	e24dd010 	sub	sp, sp, #16
    9270:	e50b0010 	str	r0, [fp, #-16]
    9274:	e1a03001 	mov	r3, r1
    9278:	e54b3011 	strb	r3, [fp, #-17]	; 0xffffffef
/home/silhavyj/School/ZeroMate/examples/15-DPP_01_external_peripherals/kernel/src/drivers/segmentdisplay.cpp:159
    if (!mOpened)
    927c:	e51b3010 	ldr	r3, [fp, #-16]
    9280:	e5d33000 	ldrb	r3, [r3]
    9284:	e2233001 	eor	r3, r3, #1
    9288:	e6ef3073 	uxtb	r3, r3
    928c:	e3530000 	cmp	r3, #0
    9290:	1a000011 	bne	92dc <_ZN16CSegment_Display5WriteEc+0x78>
/home/silhavyj/School/ZeroMate/examples/15-DPP_01_external_peripherals/kernel/src/drivers/segmentdisplay.cpp:162
        return;

    uint8_t idx = static_cast<uint8_t>(c);
    9294:	e55b3011 	ldrb	r3, [fp, #-17]	; 0xffffffef
    9298:	e54b3005 	strb	r3, [fp, #-5]
/home/silhavyj/School/ZeroMate/examples/15-DPP_01_external_peripherals/kernel/src/drivers/segmentdisplay.cpp:165

    // jen tisknutelne zakladni znaky
    if (idx < 32 || idx >= 128)
    929c:	e55b3005 	ldrb	r3, [fp, #-5]
    92a0:	e353001f 	cmp	r3, #31
    92a4:	9a00000e 	bls	92e4 <_ZN16CSegment_Display5WriteEc+0x80>
/home/silhavyj/School/ZeroMate/examples/15-DPP_01_external_peripherals/kernel/src/drivers/segmentdisplay.cpp:165 (discriminator 1)
    92a8:	e15b30d5 	ldrsb	r3, [fp, #-5]
    92ac:	e3530000 	cmp	r3, #0
    92b0:	ba00000b 	blt	92e4 <_ZN16CSegment_Display5WriteEc+0x80>
/home/silhavyj/School/ZeroMate/examples/15-DPP_01_external_peripherals/kernel/src/drivers/segmentdisplay.cpp:169
        return;

    // segmenty jsou invertovane (spolecna katoda), takze tam kde je 0 bude segment svitit
    sShift_Register.Shift_In(static_cast<uint8_t>(~(mCharacter_Map[idx - 32])));
    92b4:	e55b3005 	ldrb	r3, [fp, #-5]
    92b8:	e2433020 	sub	r3, r3, #32
    92bc:	e59f202c 	ldr	r2, [pc, #44]	; 92f0 <_ZN16CSegment_Display5WriteEc+0x8c>
    92c0:	e7d23003 	ldrb	r3, [r2, r3]
    92c4:	e1e03003 	mvn	r3, r3
    92c8:	e6ef3073 	uxtb	r3, r3
    92cc:	e1a01003 	mov	r1, r3
    92d0:	e59f001c 	ldr	r0, [pc, #28]	; 92f4 <_ZN16CSegment_Display5WriteEc+0x90>
    92d4:	eb00012e 	bl	9794 <_ZN15CShift_Register8Shift_InEh>
    92d8:	ea000002 	b	92e8 <_ZN16CSegment_Display5WriteEc+0x84>
/home/silhavyj/School/ZeroMate/examples/15-DPP_01_external_peripherals/kernel/src/drivers/segmentdisplay.cpp:160
        return;
    92dc:	e320f000 	nop	{0}
    92e0:	ea000000 	b	92e8 <_ZN16CSegment_Display5WriteEc+0x84>
/home/silhavyj/School/ZeroMate/examples/15-DPP_01_external_peripherals/kernel/src/drivers/segmentdisplay.cpp:166
        return;
    92e4:	e320f000 	nop	{0}
/home/silhavyj/School/ZeroMate/examples/15-DPP_01_external_peripherals/kernel/src/drivers/segmentdisplay.cpp:170
}
    92e8:	e24bd004 	sub	sp, fp, #4
    92ec:	e8bd8800 	pop	{fp, pc}
    92f0:	0000dcbc 			; <UNDEFINED> instruction: 0x0000dcbc
    92f4:	0000e3fc 	strdeq	lr, [r0], -ip

000092f8 <_ZNK16CSegment_Display4ReadEv>:
_ZNK16CSegment_Display4ReadEv():
/home/silhavyj/School/ZeroMate/examples/15-DPP_01_external_peripherals/kernel/src/drivers/segmentdisplay.cpp:173

char CSegment_Display::Read() const
{
    92f8:	e52db004 	push	{fp}		; (str fp, [sp, #-4]!)
    92fc:	e28db000 	add	fp, sp, #0
    9300:	e24dd00c 	sub	sp, sp, #12
    9304:	e50b0008 	str	r0, [fp, #-8]
/home/silhavyj/School/ZeroMate/examples/15-DPP_01_external_peripherals/kernel/src/drivers/segmentdisplay.cpp:174
    if (!mOpened)
    9308:	e51b3008 	ldr	r3, [fp, #-8]
    930c:	e5d33000 	ldrb	r3, [r3]
    9310:	e2233001 	eor	r3, r3, #1
    9314:	e6ef3073 	uxtb	r3, r3
    9318:	e3530000 	cmp	r3, #0
    931c:	0a000001 	beq	9328 <_ZNK16CSegment_Display4ReadEv+0x30>
/home/silhavyj/School/ZeroMate/examples/15-DPP_01_external_peripherals/kernel/src/drivers/segmentdisplay.cpp:175
        return '\0';
    9320:	e3a03000 	mov	r3, #0
    9324:	ea000001 	b	9330 <_ZNK16CSegment_Display4ReadEv+0x38>
/home/silhavyj/School/ZeroMate/examples/15-DPP_01_external_peripherals/kernel/src/drivers/segmentdisplay.cpp:177

    return mOutput;
    9328:	e51b3008 	ldr	r3, [fp, #-8]
    932c:	e5d33001 	ldrb	r3, [r3, #1]
/home/silhavyj/School/ZeroMate/examples/15-DPP_01_external_peripherals/kernel/src/drivers/segmentdisplay.cpp:178
    9330:	e1a00003 	mov	r0, r3
    9334:	e28bd000 	add	sp, fp, #0
    9338:	e49db004 	pop	{fp}		; (ldr fp, [sp], #4)
    933c:	e12fff1e 	bx	lr

00009340 <_Z41__static_initialization_and_destruction_0ii>:
_Z41__static_initialization_and_destruction_0ii():
/home/silhavyj/School/ZeroMate/examples/15-DPP_01_external_peripherals/kernel/src/drivers/segmentdisplay.cpp:178
    9340:	e92d4800 	push	{fp, lr}
    9344:	e28db004 	add	fp, sp, #4
    9348:	e24dd008 	sub	sp, sp, #8
    934c:	e50b0008 	str	r0, [fp, #-8]
    9350:	e50b100c 	str	r1, [fp, #-12]
    9354:	e51b3008 	ldr	r3, [fp, #-8]
    9358:	e3530001 	cmp	r3, #1
    935c:	1a000005 	bne	9378 <_Z41__static_initialization_and_destruction_0ii+0x38>
/home/silhavyj/School/ZeroMate/examples/15-DPP_01_external_peripherals/kernel/src/drivers/segmentdisplay.cpp:178 (discriminator 1)
    9360:	e51b300c 	ldr	r3, [fp, #-12]
    9364:	e59f2018 	ldr	r2, [pc, #24]	; 9384 <_Z41__static_initialization_and_destruction_0ii+0x44>
    9368:	e1530002 	cmp	r3, r2
    936c:	1a000001 	bne	9378 <_Z41__static_initialization_and_destruction_0ii+0x38>
/home/silhavyj/School/ZeroMate/examples/15-DPP_01_external_peripherals/kernel/src/drivers/segmentdisplay.cpp:3
CSegment_Display sSegment_Display;
    9370:	e59f0010 	ldr	r0, [pc, #16]	; 9388 <_Z41__static_initialization_and_destruction_0ii+0x48>
    9374:	ebffff72 	bl	9144 <_ZN16CSegment_DisplayC1Ev>
/home/silhavyj/School/ZeroMate/examples/15-DPP_01_external_peripherals/kernel/src/drivers/segmentdisplay.cpp:178
    9378:	e320f000 	nop	{0}
    937c:	e24bd004 	sub	sp, fp, #4
    9380:	e8bd8800 	pop	{fp, pc}
    9384:	0000ffff 	strdeq	pc, [r0], -pc	; <UNPREDICTABLE>
    9388:	0000e3f8 	strdeq	lr, [r0], -r8

0000938c <_GLOBAL__sub_I_sSegment_Display>:
_GLOBAL__sub_I_sSegment_Display():
/home/silhavyj/School/ZeroMate/examples/15-DPP_01_external_peripherals/kernel/src/drivers/segmentdisplay.cpp:178
    938c:	e92d4800 	push	{fp, lr}
    9390:	e28db004 	add	fp, sp, #4
    9394:	e59f1008 	ldr	r1, [pc, #8]	; 93a4 <_GLOBAL__sub_I_sSegment_Display+0x18>
    9398:	e3a00001 	mov	r0, #1
    939c:	ebffffe7 	bl	9340 <_Z41__static_initialization_and_destruction_0ii>
    93a0:	e8bd8800 	pop	{fp, pc}
    93a4:	0000ffff 	strdeq	pc, [r0], -pc	; <UNPREDICTABLE>

000093a8 <_ZN15CShift_RegisterC1Ejjj>:
_ZN15CShift_RegisterC2Ejjj():
/home/silhavyj/School/ZeroMate/examples/15-DPP_01_external_peripherals/kernel/src/drivers/shiftregister.cpp:6
#include <drivers/shiftregister.h>

// na tvrdo definujeme, ze jsme shift registr pripojili sem - volitelne muzeme pak oddelit do nejake HAL vrstvy pro dany header
CShift_Register sShift_Register(2, 3, 4);

CShift_Register::CShift_Register(uint32_t latchPin, uint32_t dataPin, uint32_t clockPin)
    93a8:	e52db004 	push	{fp}		; (str fp, [sp, #-4]!)
    93ac:	e28db000 	add	fp, sp, #0
    93b0:	e24dd014 	sub	sp, sp, #20
    93b4:	e50b0008 	str	r0, [fp, #-8]
    93b8:	e50b100c 	str	r1, [fp, #-12]
    93bc:	e50b2010 	str	r2, [fp, #-16]
    93c0:	e50b3014 	str	r3, [fp, #-20]	; 0xffffffec
/home/silhavyj/School/ZeroMate/examples/15-DPP_01_external_peripherals/kernel/src/drivers/shiftregister.cpp:7
    : mLatch_Pin(latchPin), mData_Pin(dataPin), mClock_Pin(clockPin)
    93c4:	e51b3008 	ldr	r3, [fp, #-8]
    93c8:	e51b200c 	ldr	r2, [fp, #-12]
    93cc:	e5832000 	str	r2, [r3]
    93d0:	e51b3008 	ldr	r3, [fp, #-8]
    93d4:	e51b2010 	ldr	r2, [fp, #-16]
    93d8:	e5832004 	str	r2, [r3, #4]
    93dc:	e51b3008 	ldr	r3, [fp, #-8]
    93e0:	e51b2014 	ldr	r2, [fp, #-20]	; 0xffffffec
    93e4:	e5832008 	str	r2, [r3, #8]
/home/silhavyj/School/ZeroMate/examples/15-DPP_01_external_peripherals/kernel/src/drivers/shiftregister.cpp:10
{
    //
}
    93e8:	e51b3008 	ldr	r3, [fp, #-8]
    93ec:	e1a00003 	mov	r0, r3
    93f0:	e28bd000 	add	sp, fp, #0
    93f4:	e49db004 	pop	{fp}		; (ldr fp, [sp], #4)
    93f8:	e12fff1e 	bx	lr

000093fc <_ZN15CShift_Register4OpenEv>:
_ZN15CShift_Register4OpenEv():
/home/silhavyj/School/ZeroMate/examples/15-DPP_01_external_peripherals/kernel/src/drivers/shiftregister.cpp:13

bool CShift_Register::Open()
{
    93fc:	e92d4800 	push	{fp, lr}
    9400:	e28db004 	add	fp, sp, #4
    9404:	e24dd008 	sub	sp, sp, #8
    9408:	e50b0008 	str	r0, [fp, #-8]
/home/silhavyj/School/ZeroMate/examples/15-DPP_01_external_peripherals/kernel/src/drivers/shiftregister.cpp:14
    if (mOpened)
    940c:	e51b3008 	ldr	r3, [fp, #-8]
    9410:	e5d3300c 	ldrb	r3, [r3, #12]
    9414:	e3530000 	cmp	r3, #0
    9418:	0a000001 	beq	9424 <_ZN15CShift_Register4OpenEv+0x28>
/home/silhavyj/School/ZeroMate/examples/15-DPP_01_external_peripherals/kernel/src/drivers/shiftregister.cpp:15
        return false;
    941c:	e3a03000 	mov	r3, #0
    9420:	ea00004e 	b	9560 <_ZN15CShift_Register4OpenEv+0x164>
/home/silhavyj/School/ZeroMate/examples/15-DPP_01_external_peripherals/kernel/src/drivers/shiftregister.cpp:19

    // rezervujeme vsechny piny pro shift registr

    if (!sGPIO.Reserve_Pin(mLatch_Pin, true, true))
    9424:	e51b3008 	ldr	r3, [fp, #-8]
    9428:	e5931000 	ldr	r1, [r3]
    942c:	e3a03001 	mov	r3, #1
    9430:	e3a02001 	mov	r2, #1
    9434:	e59f0130 	ldr	r0, [pc, #304]	; 956c <_ZN15CShift_Register4OpenEv+0x170>
    9438:	ebfffc8a 	bl	8668 <_ZN13CGPIO_Handler11Reserve_PinEjbb>
    943c:	e1a03000 	mov	r3, r0
    9440:	e2233001 	eor	r3, r3, #1
    9444:	e6ef3073 	uxtb	r3, r3
    9448:	e3530000 	cmp	r3, #0
    944c:	0a000001 	beq	9458 <_ZN15CShift_Register4OpenEv+0x5c>
/home/silhavyj/School/ZeroMate/examples/15-DPP_01_external_peripherals/kernel/src/drivers/shiftregister.cpp:20
        return false;
    9450:	e3a03000 	mov	r3, #0
    9454:	ea000041 	b	9560 <_ZN15CShift_Register4OpenEv+0x164>
/home/silhavyj/School/ZeroMate/examples/15-DPP_01_external_peripherals/kernel/src/drivers/shiftregister.cpp:22

    if (!sGPIO.Reserve_Pin(mData_Pin, true, true))
    9458:	e51b3008 	ldr	r3, [fp, #-8]
    945c:	e5931004 	ldr	r1, [r3, #4]
    9460:	e3a03001 	mov	r3, #1
    9464:	e3a02001 	mov	r2, #1
    9468:	e59f00fc 	ldr	r0, [pc, #252]	; 956c <_ZN15CShift_Register4OpenEv+0x170>
    946c:	ebfffc7d 	bl	8668 <_ZN13CGPIO_Handler11Reserve_PinEjbb>
    9470:	e1a03000 	mov	r3, r0
    9474:	e2233001 	eor	r3, r3, #1
    9478:	e6ef3073 	uxtb	r3, r3
    947c:	e3530000 	cmp	r3, #0
    9480:	0a000007 	beq	94a4 <_ZN15CShift_Register4OpenEv+0xa8>
/home/silhavyj/School/ZeroMate/examples/15-DPP_01_external_peripherals/kernel/src/drivers/shiftregister.cpp:24
    {
        sGPIO.Free_Pin(mLatch_Pin, true, true);
    9484:	e51b3008 	ldr	r3, [fp, #-8]
    9488:	e5931000 	ldr	r1, [r3]
    948c:	e3a03001 	mov	r3, #1
    9490:	e3a02001 	mov	r2, #1
    9494:	e59f00d0 	ldr	r0, [pc, #208]	; 956c <_ZN15CShift_Register4OpenEv+0x170>
    9498:	ebfffcd8 	bl	8800 <_ZN13CGPIO_Handler8Free_PinEjbb>
/home/silhavyj/School/ZeroMate/examples/15-DPP_01_external_peripherals/kernel/src/drivers/shiftregister.cpp:25
        return false;
    949c:	e3a03000 	mov	r3, #0
    94a0:	ea00002e 	b	9560 <_ZN15CShift_Register4OpenEv+0x164>
/home/silhavyj/School/ZeroMate/examples/15-DPP_01_external_peripherals/kernel/src/drivers/shiftregister.cpp:28
    }

    if (!sGPIO.Reserve_Pin(mClock_Pin, true, true))
    94a4:	e51b3008 	ldr	r3, [fp, #-8]
    94a8:	e5931008 	ldr	r1, [r3, #8]
    94ac:	e3a03001 	mov	r3, #1
    94b0:	e3a02001 	mov	r2, #1
    94b4:	e59f00b0 	ldr	r0, [pc, #176]	; 956c <_ZN15CShift_Register4OpenEv+0x170>
    94b8:	ebfffc6a 	bl	8668 <_ZN13CGPIO_Handler11Reserve_PinEjbb>
    94bc:	e1a03000 	mov	r3, r0
    94c0:	e2233001 	eor	r3, r3, #1
    94c4:	e6ef3073 	uxtb	r3, r3
    94c8:	e3530000 	cmp	r3, #0
    94cc:	0a00000d 	beq	9508 <_ZN15CShift_Register4OpenEv+0x10c>
/home/silhavyj/School/ZeroMate/examples/15-DPP_01_external_peripherals/kernel/src/drivers/shiftregister.cpp:30
    {
        sGPIO.Free_Pin(mLatch_Pin, true, true);
    94d0:	e51b3008 	ldr	r3, [fp, #-8]
    94d4:	e5931000 	ldr	r1, [r3]
    94d8:	e3a03001 	mov	r3, #1
    94dc:	e3a02001 	mov	r2, #1
    94e0:	e59f0084 	ldr	r0, [pc, #132]	; 956c <_ZN15CShift_Register4OpenEv+0x170>
    94e4:	ebfffcc5 	bl	8800 <_ZN13CGPIO_Handler8Free_PinEjbb>
/home/silhavyj/School/ZeroMate/examples/15-DPP_01_external_peripherals/kernel/src/drivers/shiftregister.cpp:31
        sGPIO.Free_Pin(mData_Pin, true, true);
    94e8:	e51b3008 	ldr	r3, [fp, #-8]
    94ec:	e5931004 	ldr	r1, [r3, #4]
    94f0:	e3a03001 	mov	r3, #1
    94f4:	e3a02001 	mov	r2, #1
    94f8:	e59f006c 	ldr	r0, [pc, #108]	; 956c <_ZN15CShift_Register4OpenEv+0x170>
    94fc:	ebfffcbf 	bl	8800 <_ZN13CGPIO_Handler8Free_PinEjbb>
/home/silhavyj/School/ZeroMate/examples/15-DPP_01_external_peripherals/kernel/src/drivers/shiftregister.cpp:32
        return false;
    9500:	e3a03000 	mov	r3, #0
    9504:	ea000015 	b	9560 <_ZN15CShift_Register4OpenEv+0x164>
/home/silhavyj/School/ZeroMate/examples/15-DPP_01_external_peripherals/kernel/src/drivers/shiftregister.cpp:36
    }

    // vsechny jsou vystupni
    sGPIO.Set_GPIO_Function(mLatch_Pin, NGPIO_Function::Output);
    9508:	e51b3008 	ldr	r3, [fp, #-8]
    950c:	e5933000 	ldr	r3, [r3]
    9510:	e3a02001 	mov	r2, #1
    9514:	e1a01003 	mov	r1, r3
    9518:	e59f004c 	ldr	r0, [pc, #76]	; 956c <_ZN15CShift_Register4OpenEv+0x170>
    951c:	ebfffbab 	bl	83d0 <_ZN13CGPIO_Handler17Set_GPIO_FunctionEj14NGPIO_Function>
/home/silhavyj/School/ZeroMate/examples/15-DPP_01_external_peripherals/kernel/src/drivers/shiftregister.cpp:37
    sGPIO.Set_GPIO_Function(mData_Pin, NGPIO_Function::Output);
    9520:	e51b3008 	ldr	r3, [fp, #-8]
    9524:	e5933004 	ldr	r3, [r3, #4]
    9528:	e3a02001 	mov	r2, #1
    952c:	e1a01003 	mov	r1, r3
    9530:	e59f0034 	ldr	r0, [pc, #52]	; 956c <_ZN15CShift_Register4OpenEv+0x170>
    9534:	ebfffba5 	bl	83d0 <_ZN13CGPIO_Handler17Set_GPIO_FunctionEj14NGPIO_Function>
/home/silhavyj/School/ZeroMate/examples/15-DPP_01_external_peripherals/kernel/src/drivers/shiftregister.cpp:38
    sGPIO.Set_GPIO_Function(mClock_Pin, NGPIO_Function::Output);
    9538:	e51b3008 	ldr	r3, [fp, #-8]
    953c:	e5933008 	ldr	r3, [r3, #8]
    9540:	e3a02001 	mov	r2, #1
    9544:	e1a01003 	mov	r1, r3
    9548:	e59f001c 	ldr	r0, [pc, #28]	; 956c <_ZN15CShift_Register4OpenEv+0x170>
    954c:	ebfffb9f 	bl	83d0 <_ZN13CGPIO_Handler17Set_GPIO_FunctionEj14NGPIO_Function>
/home/silhavyj/School/ZeroMate/examples/15-DPP_01_external_peripherals/kernel/src/drivers/shiftregister.cpp:40

    mOpened = true;
    9550:	e51b3008 	ldr	r3, [fp, #-8]
    9554:	e3a02001 	mov	r2, #1
    9558:	e5c3200c 	strb	r2, [r3, #12]
/home/silhavyj/School/ZeroMate/examples/15-DPP_01_external_peripherals/kernel/src/drivers/shiftregister.cpp:42

    return true;
    955c:	e3a03001 	mov	r3, #1
/home/silhavyj/School/ZeroMate/examples/15-DPP_01_external_peripherals/kernel/src/drivers/shiftregister.cpp:43
}
    9560:	e1a00003 	mov	r0, r3
    9564:	e24bd004 	sub	sp, fp, #4
    9568:	e8bd8800 	pop	{fp, pc}
    956c:	0000e3bc 			; <UNDEFINED> instruction: 0x0000e3bc

00009570 <_ZN15CShift_Register5CloseEv>:
_ZN15CShift_Register5CloseEv():
/home/silhavyj/School/ZeroMate/examples/15-DPP_01_external_peripherals/kernel/src/drivers/shiftregister.cpp:46

void CShift_Register::Close()
{
    9570:	e92d4800 	push	{fp, lr}
    9574:	e28db004 	add	fp, sp, #4
    9578:	e24dd008 	sub	sp, sp, #8
    957c:	e50b0008 	str	r0, [fp, #-8]
/home/silhavyj/School/ZeroMate/examples/15-DPP_01_external_peripherals/kernel/src/drivers/shiftregister.cpp:47
    if (!mOpened)
    9580:	e51b3008 	ldr	r3, [fp, #-8]
    9584:	e5d3300c 	ldrb	r3, [r3, #12]
    9588:	e2233001 	eor	r3, r3, #1
    958c:	e6ef3073 	uxtb	r3, r3
    9590:	e3530000 	cmp	r3, #0
    9594:	1a000027 	bne	9638 <_ZN15CShift_Register5CloseEv+0xc8>
/home/silhavyj/School/ZeroMate/examples/15-DPP_01_external_peripherals/kernel/src/drivers/shiftregister.cpp:51
        return;

    // prepneme piny na vstupni (setreni energii)
    sGPIO.Set_GPIO_Function(mLatch_Pin, NGPIO_Function::Input);
    9598:	e51b3008 	ldr	r3, [fp, #-8]
    959c:	e5933000 	ldr	r3, [r3]
    95a0:	e3a02000 	mov	r2, #0
    95a4:	e1a01003 	mov	r1, r3
    95a8:	e59f0094 	ldr	r0, [pc, #148]	; 9644 <_ZN15CShift_Register5CloseEv+0xd4>
    95ac:	ebfffb87 	bl	83d0 <_ZN13CGPIO_Handler17Set_GPIO_FunctionEj14NGPIO_Function>
/home/silhavyj/School/ZeroMate/examples/15-DPP_01_external_peripherals/kernel/src/drivers/shiftregister.cpp:52
    sGPIO.Set_GPIO_Function(mData_Pin, NGPIO_Function::Input);
    95b0:	e51b3008 	ldr	r3, [fp, #-8]
    95b4:	e5933004 	ldr	r3, [r3, #4]
    95b8:	e3a02000 	mov	r2, #0
    95bc:	e1a01003 	mov	r1, r3
    95c0:	e59f007c 	ldr	r0, [pc, #124]	; 9644 <_ZN15CShift_Register5CloseEv+0xd4>
    95c4:	ebfffb81 	bl	83d0 <_ZN13CGPIO_Handler17Set_GPIO_FunctionEj14NGPIO_Function>
/home/silhavyj/School/ZeroMate/examples/15-DPP_01_external_peripherals/kernel/src/drivers/shiftregister.cpp:53
    sGPIO.Set_GPIO_Function(mClock_Pin, NGPIO_Function::Input);
    95c8:	e51b3008 	ldr	r3, [fp, #-8]
    95cc:	e5933008 	ldr	r3, [r3, #8]
    95d0:	e3a02000 	mov	r2, #0
    95d4:	e1a01003 	mov	r1, r3
    95d8:	e59f0064 	ldr	r0, [pc, #100]	; 9644 <_ZN15CShift_Register5CloseEv+0xd4>
    95dc:	ebfffb7b 	bl	83d0 <_ZN13CGPIO_Handler17Set_GPIO_FunctionEj14NGPIO_Function>
/home/silhavyj/School/ZeroMate/examples/15-DPP_01_external_peripherals/kernel/src/drivers/shiftregister.cpp:56

    // a vratime je
    sGPIO.Free_Pin(mLatch_Pin, true, true);
    95e0:	e51b3008 	ldr	r3, [fp, #-8]
    95e4:	e5931000 	ldr	r1, [r3]
    95e8:	e3a03001 	mov	r3, #1
    95ec:	e3a02001 	mov	r2, #1
    95f0:	e59f004c 	ldr	r0, [pc, #76]	; 9644 <_ZN15CShift_Register5CloseEv+0xd4>
    95f4:	ebfffc81 	bl	8800 <_ZN13CGPIO_Handler8Free_PinEjbb>
/home/silhavyj/School/ZeroMate/examples/15-DPP_01_external_peripherals/kernel/src/drivers/shiftregister.cpp:57
    sGPIO.Free_Pin(mData_Pin, true, true);
    95f8:	e51b3008 	ldr	r3, [fp, #-8]
    95fc:	e5931004 	ldr	r1, [r3, #4]
    9600:	e3a03001 	mov	r3, #1
    9604:	e3a02001 	mov	r2, #1
    9608:	e59f0034 	ldr	r0, [pc, #52]	; 9644 <_ZN15CShift_Register5CloseEv+0xd4>
    960c:	ebfffc7b 	bl	8800 <_ZN13CGPIO_Handler8Free_PinEjbb>
/home/silhavyj/School/ZeroMate/examples/15-DPP_01_external_peripherals/kernel/src/drivers/shiftregister.cpp:58
    sGPIO.Free_Pin(mClock_Pin, true, true);
    9610:	e51b3008 	ldr	r3, [fp, #-8]
    9614:	e5931008 	ldr	r1, [r3, #8]
    9618:	e3a03001 	mov	r3, #1
    961c:	e3a02001 	mov	r2, #1
    9620:	e59f001c 	ldr	r0, [pc, #28]	; 9644 <_ZN15CShift_Register5CloseEv+0xd4>
    9624:	ebfffc75 	bl	8800 <_ZN13CGPIO_Handler8Free_PinEjbb>
/home/silhavyj/School/ZeroMate/examples/15-DPP_01_external_peripherals/kernel/src/drivers/shiftregister.cpp:60

    mOpened = false;
    9628:	e51b3008 	ldr	r3, [fp, #-8]
    962c:	e3a02000 	mov	r2, #0
    9630:	e5c3200c 	strb	r2, [r3, #12]
    9634:	ea000000 	b	963c <_ZN15CShift_Register5CloseEv+0xcc>
/home/silhavyj/School/ZeroMate/examples/15-DPP_01_external_peripherals/kernel/src/drivers/shiftregister.cpp:48
        return;
    9638:	e320f000 	nop	{0}
/home/silhavyj/School/ZeroMate/examples/15-DPP_01_external_peripherals/kernel/src/drivers/shiftregister.cpp:61
}
    963c:	e24bd004 	sub	sp, fp, #4
    9640:	e8bd8800 	pop	{fp, pc}
    9644:	0000e3bc 			; <UNDEFINED> instruction: 0x0000e3bc

00009648 <_ZNK15CShift_Register9Is_OpenedEv>:
_ZNK15CShift_Register9Is_OpenedEv():
/home/silhavyj/School/ZeroMate/examples/15-DPP_01_external_peripherals/kernel/src/drivers/shiftregister.cpp:64

bool CShift_Register::Is_Opened() const
{
    9648:	e52db004 	push	{fp}		; (str fp, [sp, #-4]!)
    964c:	e28db000 	add	fp, sp, #0
    9650:	e24dd00c 	sub	sp, sp, #12
    9654:	e50b0008 	str	r0, [fp, #-8]
/home/silhavyj/School/ZeroMate/examples/15-DPP_01_external_peripherals/kernel/src/drivers/shiftregister.cpp:65
    return mOpened;
    9658:	e51b3008 	ldr	r3, [fp, #-8]
    965c:	e5d3300c 	ldrb	r3, [r3, #12]
/home/silhavyj/School/ZeroMate/examples/15-DPP_01_external_peripherals/kernel/src/drivers/shiftregister.cpp:66
}
    9660:	e1a00003 	mov	r0, r3
    9664:	e28bd000 	add	sp, fp, #0
    9668:	e49db004 	pop	{fp}		; (ldr fp, [sp], #4)
    966c:	e12fff1e 	bx	lr

00009670 <_ZN15CShift_Register8Shift_InEb>:
_ZN15CShift_Register8Shift_InEb():
/home/silhavyj/School/ZeroMate/examples/15-DPP_01_external_peripherals/kernel/src/drivers/shiftregister.cpp:69

void CShift_Register::Shift_In(bool bit)
{
    9670:	e92d4800 	push	{fp, lr}
    9674:	e28db004 	add	fp, sp, #4
    9678:	e24dd010 	sub	sp, sp, #16
    967c:	e50b0010 	str	r0, [fp, #-16]
    9680:	e1a03001 	mov	r3, r1
    9684:	e54b3011 	strb	r3, [fp, #-17]	; 0xffffffef
/home/silhavyj/School/ZeroMate/examples/15-DPP_01_external_peripherals/kernel/src/drivers/shiftregister.cpp:70
    if (!mOpened)
    9688:	e51b3010 	ldr	r3, [fp, #-16]
    968c:	e5d3300c 	ldrb	r3, [r3, #12]
    9690:	e2233001 	eor	r3, r3, #1
    9694:	e6ef3073 	uxtb	r3, r3
    9698:	e3530000 	cmp	r3, #0
    969c:	1a000038 	bne	9784 <_ZN15CShift_Register8Shift_InEb+0x114>
/home/silhavyj/School/ZeroMate/examples/15-DPP_01_external_peripherals/kernel/src/drivers/shiftregister.cpp:76
        return;

    volatile int i;

    // budeme nahravat bity do banku
    sGPIO.Set_Output(mLatch_Pin, false);
    96a0:	e51b3010 	ldr	r3, [fp, #-16]
    96a4:	e5933000 	ldr	r3, [r3]
    96a8:	e3a02000 	mov	r2, #0
    96ac:	e1a01003 	mov	r1, r3
    96b0:	e59f00d8 	ldr	r0, [pc, #216]	; 9790 <_ZN15CShift_Register8Shift_InEb+0x120>
    96b4:	ebfffb94 	bl	850c <_ZN13CGPIO_Handler10Set_OutputEjb>
/home/silhavyj/School/ZeroMate/examples/15-DPP_01_external_peripherals/kernel/src/drivers/shiftregister.cpp:79

    // nastavime bit
    sGPIO.Set_Output(mData_Pin, bit);
    96b8:	e51b3010 	ldr	r3, [fp, #-16]
    96bc:	e5933004 	ldr	r3, [r3, #4]
    96c0:	e55b2011 	ldrb	r2, [fp, #-17]	; 0xffffffef
    96c4:	e1a01003 	mov	r1, r3
    96c8:	e59f00c0 	ldr	r0, [pc, #192]	; 9790 <_ZN15CShift_Register8Shift_InEb+0x120>
    96cc:	ebfffb8e 	bl	850c <_ZN13CGPIO_Handler10Set_OutputEjb>
/home/silhavyj/School/ZeroMate/examples/15-DPP_01_external_peripherals/kernel/src/drivers/shiftregister.cpp:81
    // clock -> shift registr nasune bit ze vstupu do banku
    sGPIO.Set_Output(mClock_Pin, true);
    96d0:	e51b3010 	ldr	r3, [fp, #-16]
    96d4:	e5933008 	ldr	r3, [r3, #8]
    96d8:	e3a02001 	mov	r2, #1
    96dc:	e1a01003 	mov	r1, r3
    96e0:	e59f00a8 	ldr	r0, [pc, #168]	; 9790 <_ZN15CShift_Register8Shift_InEb+0x120>
    96e4:	ebfffb88 	bl	850c <_ZN13CGPIO_Handler10Set_OutputEjb>
/home/silhavyj/School/ZeroMate/examples/15-DPP_01_external_peripherals/kernel/src/drivers/shiftregister.cpp:84

    // pockat par milisekund
    for (i = 0; i < 0x10; i++)
    96e8:	e3a03000 	mov	r3, #0
    96ec:	e50b3008 	str	r3, [fp, #-8]
/home/silhavyj/School/ZeroMate/examples/15-DPP_01_external_peripherals/kernel/src/drivers/shiftregister.cpp:84 (discriminator 3)
    96f0:	e51b3008 	ldr	r3, [fp, #-8]
    96f4:	e353000f 	cmp	r3, #15
    96f8:	d3a03001 	movle	r3, #1
    96fc:	c3a03000 	movgt	r3, #0
    9700:	e6ef3073 	uxtb	r3, r3
    9704:	e3530000 	cmp	r3, #0
    9708:	0a000003 	beq	971c <_ZN15CShift_Register8Shift_InEb+0xac>
/home/silhavyj/School/ZeroMate/examples/15-DPP_01_external_peripherals/kernel/src/drivers/shiftregister.cpp:84 (discriminator 2)
    970c:	e51b3008 	ldr	r3, [fp, #-8]
    9710:	e2833001 	add	r3, r3, #1
    9714:	e50b3008 	str	r3, [fp, #-8]
    9718:	eafffff4 	b	96f0 <_ZN15CShift_Register8Shift_InEb+0x80>
/home/silhavyj/School/ZeroMate/examples/15-DPP_01_external_peripherals/kernel/src/drivers/shiftregister.cpp:88
        ;

    // vratit clock zpatky
    sGPIO.Set_Output(mClock_Pin, false);
    971c:	e51b3010 	ldr	r3, [fp, #-16]
    9720:	e5933008 	ldr	r3, [r3, #8]
    9724:	e3a02000 	mov	r2, #0
    9728:	e1a01003 	mov	r1, r3
    972c:	e59f005c 	ldr	r0, [pc, #92]	; 9790 <_ZN15CShift_Register8Shift_InEb+0x120>
    9730:	ebfffb75 	bl	850c <_ZN13CGPIO_Handler10Set_OutputEjb>
/home/silhavyj/School/ZeroMate/examples/15-DPP_01_external_peripherals/kernel/src/drivers/shiftregister.cpp:91

    // pockat par milisekund
    for (i = 0; i < 0x10; i++)
    9734:	e3a03000 	mov	r3, #0
    9738:	e50b3008 	str	r3, [fp, #-8]
/home/silhavyj/School/ZeroMate/examples/15-DPP_01_external_peripherals/kernel/src/drivers/shiftregister.cpp:91 (discriminator 3)
    973c:	e51b3008 	ldr	r3, [fp, #-8]
    9740:	e353000f 	cmp	r3, #15
    9744:	d3a03001 	movle	r3, #1
    9748:	c3a03000 	movgt	r3, #0
    974c:	e6ef3073 	uxtb	r3, r3
    9750:	e3530000 	cmp	r3, #0
    9754:	0a000003 	beq	9768 <_ZN15CShift_Register8Shift_InEb+0xf8>
/home/silhavyj/School/ZeroMate/examples/15-DPP_01_external_peripherals/kernel/src/drivers/shiftregister.cpp:91 (discriminator 2)
    9758:	e51b3008 	ldr	r3, [fp, #-8]
    975c:	e2833001 	add	r3, r3, #1
    9760:	e50b3008 	str	r3, [fp, #-8]
    9764:	eafffff4 	b	973c <_ZN15CShift_Register8Shift_InEb+0xcc>
/home/silhavyj/School/ZeroMate/examples/15-DPP_01_external_peripherals/kernel/src/drivers/shiftregister.cpp:95
        ;

    // propiseme bank do vystupu
    sGPIO.Set_Output(mLatch_Pin, true);
    9768:	e51b3010 	ldr	r3, [fp, #-16]
    976c:	e5933000 	ldr	r3, [r3]
    9770:	e3a02001 	mov	r2, #1
    9774:	e1a01003 	mov	r1, r3
    9778:	e59f0010 	ldr	r0, [pc, #16]	; 9790 <_ZN15CShift_Register8Shift_InEb+0x120>
    977c:	ebfffb62 	bl	850c <_ZN13CGPIO_Handler10Set_OutputEjb>
    9780:	ea000000 	b	9788 <_ZN15CShift_Register8Shift_InEb+0x118>
/home/silhavyj/School/ZeroMate/examples/15-DPP_01_external_peripherals/kernel/src/drivers/shiftregister.cpp:71
        return;
    9784:	e320f000 	nop	{0}
/home/silhavyj/School/ZeroMate/examples/15-DPP_01_external_peripherals/kernel/src/drivers/shiftregister.cpp:96
}
    9788:	e24bd004 	sub	sp, fp, #4
    978c:	e8bd8800 	pop	{fp, pc}
    9790:	0000e3bc 			; <UNDEFINED> instruction: 0x0000e3bc

00009794 <_ZN15CShift_Register8Shift_InEh>:
_ZN15CShift_Register8Shift_InEh():
/home/silhavyj/School/ZeroMate/examples/15-DPP_01_external_peripherals/kernel/src/drivers/shiftregister.cpp:99

void CShift_Register::Shift_In(uint8_t byte)
{
    9794:	e92d4800 	push	{fp, lr}
    9798:	e28db004 	add	fp, sp, #4
    979c:	e24dd010 	sub	sp, sp, #16
    97a0:	e50b0010 	str	r0, [fp, #-16]
    97a4:	e1a03001 	mov	r3, r1
    97a8:	e54b3011 	strb	r3, [fp, #-17]	; 0xffffffef
/home/silhavyj/School/ZeroMate/examples/15-DPP_01_external_peripherals/kernel/src/drivers/shiftregister.cpp:100
    if (!mOpened)
    97ac:	e51b3010 	ldr	r3, [fp, #-16]
    97b0:	e5d3300c 	ldrb	r3, [r3, #12]
    97b4:	e2233001 	eor	r3, r3, #1
    97b8:	e6ef3073 	uxtb	r3, r3
    97bc:	e3530000 	cmp	r3, #0
    97c0:	1a000048 	bne	98e8 <_ZN15CShift_Register8Shift_InEh+0x154>
/home/silhavyj/School/ZeroMate/examples/15-DPP_01_external_peripherals/kernel/src/drivers/shiftregister.cpp:106
        return;

    volatile int i;

    // zapisovat do banku
    sGPIO.Set_Output(mLatch_Pin, false);
    97c4:	e51b3010 	ldr	r3, [fp, #-16]
    97c8:	e5933000 	ldr	r3, [r3]
    97cc:	e3a02000 	mov	r2, #0
    97d0:	e1a01003 	mov	r1, r3
    97d4:	e59f0118 	ldr	r0, [pc, #280]	; 98f4 <_ZN15CShift_Register8Shift_InEh+0x160>
    97d8:	ebfffb4b 	bl	850c <_ZN13CGPIO_Handler10Set_OutputEjb>
/home/silhavyj/School/ZeroMate/examples/15-DPP_01_external_peripherals/kernel/src/drivers/shiftregister.cpp:109

    // nasuneme bity od nejvyssiho po nejnizsi (aby na vystupu byly v poradi)
    for (int j = 7; j >= 0; j--)
    97dc:	e3a03007 	mov	r3, #7
    97e0:	e50b3008 	str	r3, [fp, #-8]
/home/silhavyj/School/ZeroMate/examples/15-DPP_01_external_peripherals/kernel/src/drivers/shiftregister.cpp:109 (discriminator 1)
    97e4:	e51b3008 	ldr	r3, [fp, #-8]
    97e8:	e3530000 	cmp	r3, #0
    97ec:	ba000036 	blt	98cc <_ZN15CShift_Register8Shift_InEh+0x138>
/home/silhavyj/School/ZeroMate/examples/15-DPP_01_external_peripherals/kernel/src/drivers/shiftregister.cpp:111
    {
        sGPIO.Set_Output(mData_Pin, ((byte >> j) & 0x1) );
    97f0:	e51b3010 	ldr	r3, [fp, #-16]
    97f4:	e5931004 	ldr	r1, [r3, #4]
    97f8:	e55b2011 	ldrb	r2, [fp, #-17]	; 0xffffffef
    97fc:	e51b3008 	ldr	r3, [fp, #-8]
    9800:	e1a03352 	asr	r3, r2, r3
    9804:	e2033001 	and	r3, r3, #1
    9808:	e3530000 	cmp	r3, #0
    980c:	13a03001 	movne	r3, #1
    9810:	03a03000 	moveq	r3, #0
    9814:	e6ef3073 	uxtb	r3, r3
    9818:	e1a02003 	mov	r2, r3
    981c:	e59f00d0 	ldr	r0, [pc, #208]	; 98f4 <_ZN15CShift_Register8Shift_InEh+0x160>
    9820:	ebfffb39 	bl	850c <_ZN13CGPIO_Handler10Set_OutputEjb>
/home/silhavyj/School/ZeroMate/examples/15-DPP_01_external_peripherals/kernel/src/drivers/shiftregister.cpp:112
        sGPIO.Set_Output(mClock_Pin, true);
    9824:	e51b3010 	ldr	r3, [fp, #-16]
    9828:	e5933008 	ldr	r3, [r3, #8]
    982c:	e3a02001 	mov	r2, #1
    9830:	e1a01003 	mov	r1, r3
    9834:	e59f00b8 	ldr	r0, [pc, #184]	; 98f4 <_ZN15CShift_Register8Shift_InEh+0x160>
    9838:	ebfffb33 	bl	850c <_ZN13CGPIO_Handler10Set_OutputEjb>
/home/silhavyj/School/ZeroMate/examples/15-DPP_01_external_peripherals/kernel/src/drivers/shiftregister.cpp:114
        
        for (i = 0; i < 0x10; i++)
    983c:	e3a03000 	mov	r3, #0
    9840:	e50b300c 	str	r3, [fp, #-12]
/home/silhavyj/School/ZeroMate/examples/15-DPP_01_external_peripherals/kernel/src/drivers/shiftregister.cpp:114 (discriminator 3)
    9844:	e51b300c 	ldr	r3, [fp, #-12]
    9848:	e353000f 	cmp	r3, #15
    984c:	d3a03001 	movle	r3, #1
    9850:	c3a03000 	movgt	r3, #0
    9854:	e6ef3073 	uxtb	r3, r3
    9858:	e3530000 	cmp	r3, #0
    985c:	0a000003 	beq	9870 <_ZN15CShift_Register8Shift_InEh+0xdc>
/home/silhavyj/School/ZeroMate/examples/15-DPP_01_external_peripherals/kernel/src/drivers/shiftregister.cpp:114 (discriminator 2)
    9860:	e51b300c 	ldr	r3, [fp, #-12]
    9864:	e2833001 	add	r3, r3, #1
    9868:	e50b300c 	str	r3, [fp, #-12]
    986c:	eafffff4 	b	9844 <_ZN15CShift_Register8Shift_InEh+0xb0>
/home/silhavyj/School/ZeroMate/examples/15-DPP_01_external_peripherals/kernel/src/drivers/shiftregister.cpp:117
            ;

        sGPIO.Set_Output(mClock_Pin, false);
    9870:	e51b3010 	ldr	r3, [fp, #-16]
    9874:	e5933008 	ldr	r3, [r3, #8]
    9878:	e3a02000 	mov	r2, #0
    987c:	e1a01003 	mov	r1, r3
    9880:	e59f006c 	ldr	r0, [pc, #108]	; 98f4 <_ZN15CShift_Register8Shift_InEh+0x160>
    9884:	ebfffb20 	bl	850c <_ZN13CGPIO_Handler10Set_OutputEjb>
/home/silhavyj/School/ZeroMate/examples/15-DPP_01_external_peripherals/kernel/src/drivers/shiftregister.cpp:119

        for (i = 0; i < 0x10; i++)
    9888:	e3a03000 	mov	r3, #0
    988c:	e50b300c 	str	r3, [fp, #-12]
/home/silhavyj/School/ZeroMate/examples/15-DPP_01_external_peripherals/kernel/src/drivers/shiftregister.cpp:119 (discriminator 3)
    9890:	e51b300c 	ldr	r3, [fp, #-12]
    9894:	e353000f 	cmp	r3, #15
    9898:	d3a03001 	movle	r3, #1
    989c:	c3a03000 	movgt	r3, #0
    98a0:	e6ef3073 	uxtb	r3, r3
    98a4:	e3530000 	cmp	r3, #0
    98a8:	0a000003 	beq	98bc <_ZN15CShift_Register8Shift_InEh+0x128>
/home/silhavyj/School/ZeroMate/examples/15-DPP_01_external_peripherals/kernel/src/drivers/shiftregister.cpp:119 (discriminator 2)
    98ac:	e51b300c 	ldr	r3, [fp, #-12]
    98b0:	e2833001 	add	r3, r3, #1
    98b4:	e50b300c 	str	r3, [fp, #-12]
    98b8:	eafffff4 	b	9890 <_ZN15CShift_Register8Shift_InEh+0xfc>
/home/silhavyj/School/ZeroMate/examples/15-DPP_01_external_peripherals/kernel/src/drivers/shiftregister.cpp:109 (discriminator 2)
    for (int j = 7; j >= 0; j--)
    98bc:	e51b3008 	ldr	r3, [fp, #-8]
    98c0:	e2433001 	sub	r3, r3, #1
    98c4:	e50b3008 	str	r3, [fp, #-8]
    98c8:	eaffffc5 	b	97e4 <_ZN15CShift_Register8Shift_InEh+0x50>
/home/silhavyj/School/ZeroMate/examples/15-DPP_01_external_peripherals/kernel/src/drivers/shiftregister.cpp:124
            ;
    }

    // propiseme bank na vystup
    sGPIO.Set_Output(mLatch_Pin, true);
    98cc:	e51b3010 	ldr	r3, [fp, #-16]
    98d0:	e5933000 	ldr	r3, [r3]
    98d4:	e3a02001 	mov	r2, #1
    98d8:	e1a01003 	mov	r1, r3
    98dc:	e59f0010 	ldr	r0, [pc, #16]	; 98f4 <_ZN15CShift_Register8Shift_InEh+0x160>
    98e0:	ebfffb09 	bl	850c <_ZN13CGPIO_Handler10Set_OutputEjb>
    98e4:	ea000000 	b	98ec <_ZN15CShift_Register8Shift_InEh+0x158>
/home/silhavyj/School/ZeroMate/examples/15-DPP_01_external_peripherals/kernel/src/drivers/shiftregister.cpp:101
        return;
    98e8:	e320f000 	nop	{0}
/home/silhavyj/School/ZeroMate/examples/15-DPP_01_external_peripherals/kernel/src/drivers/shiftregister.cpp:125
}
    98ec:	e24bd004 	sub	sp, fp, #4
    98f0:	e8bd8800 	pop	{fp, pc}
    98f4:	0000e3bc 			; <UNDEFINED> instruction: 0x0000e3bc

000098f8 <_Z41__static_initialization_and_destruction_0ii>:
_Z41__static_initialization_and_destruction_0ii():
/home/silhavyj/School/ZeroMate/examples/15-DPP_01_external_peripherals/kernel/src/drivers/shiftregister.cpp:125
    98f8:	e92d4800 	push	{fp, lr}
    98fc:	e28db004 	add	fp, sp, #4
    9900:	e24dd008 	sub	sp, sp, #8
    9904:	e50b0008 	str	r0, [fp, #-8]
    9908:	e50b100c 	str	r1, [fp, #-12]
    990c:	e51b3008 	ldr	r3, [fp, #-8]
    9910:	e3530001 	cmp	r3, #1
    9914:	1a000008 	bne	993c <_Z41__static_initialization_and_destruction_0ii+0x44>
/home/silhavyj/School/ZeroMate/examples/15-DPP_01_external_peripherals/kernel/src/drivers/shiftregister.cpp:125 (discriminator 1)
    9918:	e51b300c 	ldr	r3, [fp, #-12]
    991c:	e59f2024 	ldr	r2, [pc, #36]	; 9948 <_Z41__static_initialization_and_destruction_0ii+0x50>
    9920:	e1530002 	cmp	r3, r2
    9924:	1a000004 	bne	993c <_Z41__static_initialization_and_destruction_0ii+0x44>
/home/silhavyj/School/ZeroMate/examples/15-DPP_01_external_peripherals/kernel/src/drivers/shiftregister.cpp:4
CShift_Register sShift_Register(2, 3, 4);
    9928:	e3a03004 	mov	r3, #4
    992c:	e3a02003 	mov	r2, #3
    9930:	e3a01002 	mov	r1, #2
    9934:	e59f0010 	ldr	r0, [pc, #16]	; 994c <_Z41__static_initialization_and_destruction_0ii+0x54>
    9938:	ebfffe9a 	bl	93a8 <_ZN15CShift_RegisterC1Ejjj>
/home/silhavyj/School/ZeroMate/examples/15-DPP_01_external_peripherals/kernel/src/drivers/shiftregister.cpp:125
}
    993c:	e320f000 	nop	{0}
    9940:	e24bd004 	sub	sp, fp, #4
    9944:	e8bd8800 	pop	{fp, pc}
    9948:	0000ffff 	strdeq	pc, [r0], -pc	; <UNPREDICTABLE>
    994c:	0000e3fc 	strdeq	lr, [r0], -ip

00009950 <_GLOBAL__sub_I_sShift_Register>:
_GLOBAL__sub_I_sShift_Register():
/home/silhavyj/School/ZeroMate/examples/15-DPP_01_external_peripherals/kernel/src/drivers/shiftregister.cpp:125
    9950:	e92d4800 	push	{fp, lr}
    9954:	e28db004 	add	fp, sp, #4
    9958:	e59f1008 	ldr	r1, [pc, #8]	; 9968 <_GLOBAL__sub_I_sShift_Register+0x18>
    995c:	e3a00001 	mov	r0, #1
    9960:	ebffffe4 	bl	98f8 <_Z41__static_initialization_and_destruction_0ii>
    9964:	e8bd8800 	pop	{fp, pc}
    9968:	0000ffff 	strdeq	pc, [r0], -pc	; <UNPREDICTABLE>

0000996c <_ZN6CTimerC1Em>:
_ZN6CTimerC2Em():
/home/silhavyj/School/ZeroMate/examples/15-DPP_01_external_peripherals/kernel/src/drivers/timer.cpp:26
    uint16_t unused_4 : 10;
};

#pragma pack(pop)

CTimer::CTimer(unsigned long timer_reg_base)
    996c:	e52db004 	push	{fp}		; (str fp, [sp, #-4]!)
    9970:	e28db000 	add	fp, sp, #0
    9974:	e24dd00c 	sub	sp, sp, #12
    9978:	e50b0008 	str	r0, [fp, #-8]
    997c:	e50b100c 	str	r1, [fp, #-12]
/home/silhavyj/School/ZeroMate/examples/15-DPP_01_external_peripherals/kernel/src/drivers/timer.cpp:27
    : mTimer_Regs(reinterpret_cast<unsigned int*>(timer_reg_base)), mCallback(nullptr)
    9980:	e51b200c 	ldr	r2, [fp, #-12]
    9984:	e51b3008 	ldr	r3, [fp, #-8]
    9988:	e5832000 	str	r2, [r3]
    998c:	e51b3008 	ldr	r3, [fp, #-8]
    9990:	e3a02000 	mov	r2, #0
    9994:	e5832004 	str	r2, [r3, #4]
/home/silhavyj/School/ZeroMate/examples/15-DPP_01_external_peripherals/kernel/src/drivers/timer.cpp:30
{
    //
}
    9998:	e51b3008 	ldr	r3, [fp, #-8]
    999c:	e1a00003 	mov	r0, r3
    99a0:	e28bd000 	add	sp, fp, #0
    99a4:	e49db004 	pop	{fp}		; (ldr fp, [sp], #4)
    99a8:	e12fff1e 	bx	lr

000099ac <_ZN6CTimer4RegsEN3hal9Timer_RegE>:
_ZN6CTimer4RegsEN3hal9Timer_RegE():
/home/silhavyj/School/ZeroMate/examples/15-DPP_01_external_peripherals/kernel/src/drivers/timer.cpp:33

volatile unsigned int& CTimer::Regs(hal::Timer_Reg reg)
{
    99ac:	e52db004 	push	{fp}		; (str fp, [sp, #-4]!)
    99b0:	e28db000 	add	fp, sp, #0
    99b4:	e24dd00c 	sub	sp, sp, #12
    99b8:	e50b0008 	str	r0, [fp, #-8]
    99bc:	e50b100c 	str	r1, [fp, #-12]
/home/silhavyj/School/ZeroMate/examples/15-DPP_01_external_peripherals/kernel/src/drivers/timer.cpp:34
    return mTimer_Regs[static_cast<unsigned int>(reg)];
    99c0:	e51b3008 	ldr	r3, [fp, #-8]
    99c4:	e5932000 	ldr	r2, [r3]
    99c8:	e51b300c 	ldr	r3, [fp, #-12]
    99cc:	e1a03103 	lsl	r3, r3, #2
    99d0:	e0823003 	add	r3, r2, r3
/home/silhavyj/School/ZeroMate/examples/15-DPP_01_external_peripherals/kernel/src/drivers/timer.cpp:35
}
    99d4:	e1a00003 	mov	r0, r3
    99d8:	e28bd000 	add	sp, fp, #0
    99dc:	e49db004 	pop	{fp}		; (ldr fp, [sp], #4)
    99e0:	e12fff1e 	bx	lr

000099e4 <_ZN6CTimer6EnableEPFvvEj16NTimer_Prescaler>:
_ZN6CTimer6EnableEPFvvEj16NTimer_Prescaler():
/home/silhavyj/School/ZeroMate/examples/15-DPP_01_external_peripherals/kernel/src/drivers/timer.cpp:38

void CTimer::Enable(TTimer_Callback callback, unsigned int delay, NTimer_Prescaler prescaler)
{
    99e4:	e92d4810 	push	{r4, fp, lr}
    99e8:	e28db008 	add	fp, sp, #8
    99ec:	e24dd01c 	sub	sp, sp, #28
    99f0:	e50b0018 	str	r0, [fp, #-24]	; 0xffffffe8
    99f4:	e50b101c 	str	r1, [fp, #-28]	; 0xffffffe4
    99f8:	e50b2020 	str	r2, [fp, #-32]	; 0xffffffe0
    99fc:	e54b3021 	strb	r3, [fp, #-33]	; 0xffffffdf
/home/silhavyj/School/ZeroMate/examples/15-DPP_01_external_peripherals/kernel/src/drivers/timer.cpp:39
    Regs(hal::Timer_Reg::Load) = delay;
    9a00:	e3a01000 	mov	r1, #0
    9a04:	e51b0018 	ldr	r0, [fp, #-24]	; 0xffffffe8
    9a08:	ebffffe7 	bl	99ac <_ZN6CTimer4RegsEN3hal9Timer_RegE>
    9a0c:	e1a02000 	mov	r2, r0
    9a10:	e51b3020 	ldr	r3, [fp, #-32]	; 0xffffffe0
    9a14:	e5823000 	str	r3, [r2]
/home/silhavyj/School/ZeroMate/examples/15-DPP_01_external_peripherals/kernel/src/drivers/timer.cpp:42

    TTimer_Ctl_Flags reg;
    reg.counter_32b = 1;
    9a18:	e55b3014 	ldrb	r3, [fp, #-20]	; 0xffffffec
    9a1c:	e3833002 	orr	r3, r3, #2
    9a20:	e54b3014 	strb	r3, [fp, #-20]	; 0xffffffec
/home/silhavyj/School/ZeroMate/examples/15-DPP_01_external_peripherals/kernel/src/drivers/timer.cpp:43
    reg.interrupt_enabled = 1;
    9a24:	e55b3014 	ldrb	r3, [fp, #-20]	; 0xffffffec
    9a28:	e3833020 	orr	r3, r3, #32
    9a2c:	e54b3014 	strb	r3, [fp, #-20]	; 0xffffffec
/home/silhavyj/School/ZeroMate/examples/15-DPP_01_external_peripherals/kernel/src/drivers/timer.cpp:44
    reg.timer_enabled = 1;
    9a30:	e55b3014 	ldrb	r3, [fp, #-20]	; 0xffffffec
    9a34:	e3833080 	orr	r3, r3, #128	; 0x80
    9a38:	e54b3014 	strb	r3, [fp, #-20]	; 0xffffffec
/home/silhavyj/School/ZeroMate/examples/15-DPP_01_external_peripherals/kernel/src/drivers/timer.cpp:45
    reg.prescaler = static_cast<uint8_t>(prescaler);
    9a3c:	e55b3021 	ldrb	r3, [fp, #-33]	; 0xffffffdf
    9a40:	e2033003 	and	r3, r3, #3
    9a44:	e6ef3073 	uxtb	r3, r3
    9a48:	e55b2014 	ldrb	r2, [fp, #-20]	; 0xffffffec
    9a4c:	e2033003 	and	r3, r3, #3
    9a50:	e3c2200c 	bic	r2, r2, #12
    9a54:	e1a03103 	lsl	r3, r3, #2
    9a58:	e1833002 	orr	r3, r3, r2
    9a5c:	e1a02003 	mov	r2, r3
    9a60:	e54b2014 	strb	r2, [fp, #-20]	; 0xffffffec
/home/silhavyj/School/ZeroMate/examples/15-DPP_01_external_peripherals/kernel/src/drivers/timer.cpp:47

    Regs(hal::Timer_Reg::Control) = *reinterpret_cast<unsigned int*>(&reg);
    9a64:	e24b4014 	sub	r4, fp, #20
    9a68:	e3a01002 	mov	r1, #2
    9a6c:	e51b0018 	ldr	r0, [fp, #-24]	; 0xffffffe8
    9a70:	ebffffcd 	bl	99ac <_ZN6CTimer4RegsEN3hal9Timer_RegE>
    9a74:	e1a02000 	mov	r2, r0
    9a78:	e5943000 	ldr	r3, [r4]
    9a7c:	e5823000 	str	r3, [r2]
/home/silhavyj/School/ZeroMate/examples/15-DPP_01_external_peripherals/kernel/src/drivers/timer.cpp:49
   
    Regs(hal::Timer_Reg::IRQ_Clear) = 1;
    9a80:	e3a01003 	mov	r1, #3
    9a84:	e51b0018 	ldr	r0, [fp, #-24]	; 0xffffffe8
    9a88:	ebffffc7 	bl	99ac <_ZN6CTimer4RegsEN3hal9Timer_RegE>
    9a8c:	e1a03000 	mov	r3, r0
    9a90:	e3a02001 	mov	r2, #1
    9a94:	e5832000 	str	r2, [r3]
/home/silhavyj/School/ZeroMate/examples/15-DPP_01_external_peripherals/kernel/src/drivers/timer.cpp:51

    mCallback = callback;
    9a98:	e51b3018 	ldr	r3, [fp, #-24]	; 0xffffffe8
    9a9c:	e51b201c 	ldr	r2, [fp, #-28]	; 0xffffffe4
    9aa0:	e5832004 	str	r2, [r3, #4]
/home/silhavyj/School/ZeroMate/examples/15-DPP_01_external_peripherals/kernel/src/drivers/timer.cpp:52
}
    9aa4:	e320f000 	nop	{0}
    9aa8:	e24bd008 	sub	sp, fp, #8
    9aac:	e8bd8810 	pop	{r4, fp, pc}

00009ab0 <_ZN6CTimer7DisableEv>:
_ZN6CTimer7DisableEv():
/home/silhavyj/School/ZeroMate/examples/15-DPP_01_external_peripherals/kernel/src/drivers/timer.cpp:55

void CTimer::Disable()
{
    9ab0:	e92d4800 	push	{fp, lr}
    9ab4:	e28db004 	add	fp, sp, #4
    9ab8:	e24dd010 	sub	sp, sp, #16
    9abc:	e50b0010 	str	r0, [fp, #-16]
/home/silhavyj/School/ZeroMate/examples/15-DPP_01_external_peripherals/kernel/src/drivers/timer.cpp:56
    volatile TTimer_Ctl_Flags& reg = reinterpret_cast<volatile TTimer_Ctl_Flags&>(Regs(hal::Timer_Reg::Control));
    9ac0:	e3a01002 	mov	r1, #2
    9ac4:	e51b0010 	ldr	r0, [fp, #-16]
    9ac8:	ebffffb7 	bl	99ac <_ZN6CTimer4RegsEN3hal9Timer_RegE>
    9acc:	e50b0008 	str	r0, [fp, #-8]
/home/silhavyj/School/ZeroMate/examples/15-DPP_01_external_peripherals/kernel/src/drivers/timer.cpp:58

    reg.interrupt_enabled = 0;
    9ad0:	e51b2008 	ldr	r2, [fp, #-8]
    9ad4:	e5d23000 	ldrb	r3, [r2]
    9ad8:	e3c33020 	bic	r3, r3, #32
    9adc:	e5c23000 	strb	r3, [r2]
/home/silhavyj/School/ZeroMate/examples/15-DPP_01_external_peripherals/kernel/src/drivers/timer.cpp:59
    reg.timer_enabled = 0;
    9ae0:	e51b2008 	ldr	r2, [fp, #-8]
    9ae4:	e5d23000 	ldrb	r3, [r2]
    9ae8:	e3c33080 	bic	r3, r3, #128	; 0x80
    9aec:	e5c23000 	strb	r3, [r2]
/home/silhavyj/School/ZeroMate/examples/15-DPP_01_external_peripherals/kernel/src/drivers/timer.cpp:60
}
    9af0:	e320f000 	nop	{0}
    9af4:	e24bd004 	sub	sp, fp, #4
    9af8:	e8bd8800 	pop	{fp, pc}

00009afc <_ZN6CTimer12IRQ_CallbackEv>:
_ZN6CTimer12IRQ_CallbackEv():
/home/silhavyj/School/ZeroMate/examples/15-DPP_01_external_peripherals/kernel/src/drivers/timer.cpp:63

void CTimer::IRQ_Callback()
{
    9afc:	e92d4800 	push	{fp, lr}
    9b00:	e28db004 	add	fp, sp, #4
    9b04:	e24dd008 	sub	sp, sp, #8
    9b08:	e50b0008 	str	r0, [fp, #-8]
/home/silhavyj/School/ZeroMate/examples/15-DPP_01_external_peripherals/kernel/src/drivers/timer.cpp:64
    Regs(hal::Timer_Reg::IRQ_Clear) = 1;
    9b0c:	e3a01003 	mov	r1, #3
    9b10:	e51b0008 	ldr	r0, [fp, #-8]
    9b14:	ebffffa4 	bl	99ac <_ZN6CTimer4RegsEN3hal9Timer_RegE>
    9b18:	e1a03000 	mov	r3, r0
    9b1c:	e3a02001 	mov	r2, #1
    9b20:	e5832000 	str	r2, [r3]
/home/silhavyj/School/ZeroMate/examples/15-DPP_01_external_peripherals/kernel/src/drivers/timer.cpp:66

    if (mCallback)
    9b24:	e51b3008 	ldr	r3, [fp, #-8]
    9b28:	e5933004 	ldr	r3, [r3, #4]
    9b2c:	e3530000 	cmp	r3, #0
    9b30:	0a000002 	beq	9b40 <_ZN6CTimer12IRQ_CallbackEv+0x44>
/home/silhavyj/School/ZeroMate/examples/15-DPP_01_external_peripherals/kernel/src/drivers/timer.cpp:67
        mCallback();
    9b34:	e51b3008 	ldr	r3, [fp, #-8]
    9b38:	e5933004 	ldr	r3, [r3, #4]
    9b3c:	e12fff33 	blx	r3
/home/silhavyj/School/ZeroMate/examples/15-DPP_01_external_peripherals/kernel/src/drivers/timer.cpp:68
}
    9b40:	e320f000 	nop	{0}
    9b44:	e24bd004 	sub	sp, fp, #4
    9b48:	e8bd8800 	pop	{fp, pc}

00009b4c <_ZN6CTimer20Is_Timer_IRQ_PendingEv>:
_ZN6CTimer20Is_Timer_IRQ_PendingEv():
/home/silhavyj/School/ZeroMate/examples/15-DPP_01_external_peripherals/kernel/src/drivers/timer.cpp:71

bool CTimer::Is_Timer_IRQ_Pending()
{
    9b4c:	e92d4800 	push	{fp, lr}
    9b50:	e28db004 	add	fp, sp, #4
    9b54:	e24dd008 	sub	sp, sp, #8
    9b58:	e50b0008 	str	r0, [fp, #-8]
/home/silhavyj/School/ZeroMate/examples/15-DPP_01_external_peripherals/kernel/src/drivers/timer.cpp:72
    return Regs(hal::Timer_Reg::IRQ_Masked);
    9b5c:	e3a01005 	mov	r1, #5
    9b60:	e51b0008 	ldr	r0, [fp, #-8]
    9b64:	ebffff90 	bl	99ac <_ZN6CTimer4RegsEN3hal9Timer_RegE>
    9b68:	e1a03000 	mov	r3, r0
    9b6c:	e5933000 	ldr	r3, [r3]
    9b70:	e3530000 	cmp	r3, #0
    9b74:	13a03001 	movne	r3, #1
    9b78:	03a03000 	moveq	r3, #0
    9b7c:	e6ef3073 	uxtb	r3, r3
/home/silhavyj/School/ZeroMate/examples/15-DPP_01_external_peripherals/kernel/src/drivers/timer.cpp:73
}
    9b80:	e1a00003 	mov	r0, r3
    9b84:	e24bd004 	sub	sp, fp, #4
    9b88:	e8bd8800 	pop	{fp, pc}

00009b8c <_Z41__static_initialization_and_destruction_0ii>:
_Z41__static_initialization_and_destruction_0ii():
/home/silhavyj/School/ZeroMate/examples/15-DPP_01_external_peripherals/kernel/src/drivers/timer.cpp:73
    9b8c:	e92d4800 	push	{fp, lr}
    9b90:	e28db004 	add	fp, sp, #4
    9b94:	e24dd008 	sub	sp, sp, #8
    9b98:	e50b0008 	str	r0, [fp, #-8]
    9b9c:	e50b100c 	str	r1, [fp, #-12]
    9ba0:	e51b3008 	ldr	r3, [fp, #-8]
    9ba4:	e3530001 	cmp	r3, #1
    9ba8:	1a000006 	bne	9bc8 <_Z41__static_initialization_and_destruction_0ii+0x3c>
/home/silhavyj/School/ZeroMate/examples/15-DPP_01_external_peripherals/kernel/src/drivers/timer.cpp:73 (discriminator 1)
    9bac:	e51b300c 	ldr	r3, [fp, #-12]
    9bb0:	e59f201c 	ldr	r2, [pc, #28]	; 9bd4 <_Z41__static_initialization_and_destruction_0ii+0x48>
    9bb4:	e1530002 	cmp	r3, r2
    9bb8:	1a000002 	bne	9bc8 <_Z41__static_initialization_and_destruction_0ii+0x3c>
/home/silhavyj/School/ZeroMate/examples/15-DPP_01_external_peripherals/kernel/src/drivers/timer.cpp:4
CTimer sTimer(hal::Timer_Base);
    9bbc:	e59f1014 	ldr	r1, [pc, #20]	; 9bd8 <_Z41__static_initialization_and_destruction_0ii+0x4c>
    9bc0:	e59f0014 	ldr	r0, [pc, #20]	; 9bdc <_Z41__static_initialization_and_destruction_0ii+0x50>
    9bc4:	ebffff68 	bl	996c <_ZN6CTimerC1Em>
/home/silhavyj/School/ZeroMate/examples/15-DPP_01_external_peripherals/kernel/src/drivers/timer.cpp:73
}
    9bc8:	e320f000 	nop	{0}
    9bcc:	e24bd004 	sub	sp, fp, #4
    9bd0:	e8bd8800 	pop	{fp, pc}
    9bd4:	0000ffff 	strdeq	pc, [r0], -pc	; <UNPREDICTABLE>
    9bd8:	2000b400 	andcs	fp, r0, r0, lsl #8
    9bdc:	0000e40c 	andeq	lr, r0, ip, lsl #8

00009be0 <_GLOBAL__sub_I_sTimer>:
_GLOBAL__sub_I_sTimer():
/home/silhavyj/School/ZeroMate/examples/15-DPP_01_external_peripherals/kernel/src/drivers/timer.cpp:73
    9be0:	e92d4800 	push	{fp, lr}
    9be4:	e28db004 	add	fp, sp, #4
    9be8:	e59f1008 	ldr	r1, [pc, #8]	; 9bf8 <_GLOBAL__sub_I_sTimer+0x18>
    9bec:	e3a00001 	mov	r0, #1
    9bf0:	ebffffe5 	bl	9b8c <_Z41__static_initialization_and_destruction_0ii>
    9bf4:	e8bd8800 	pop	{fp, pc}
    9bf8:	0000ffff 	strdeq	pc, [r0], -pc	; <UNPREDICTABLE>

00009bfc <_ZN5CTRNGC1Ej>:
_ZN5CTRNGC2Ej():
/home/silhavyj/School/ZeroMate/examples/15-DPP_01_external_peripherals/kernel/src/drivers/trng.cpp:8
CTRNG sTRNG(hal::TRNG_Base);

// tolik cisel ze zacatku generovani bude zahozeno - jsou "mene nahodna"
constexpr uint32_t TRNG_Warmup_Count = 0x40000;

CTRNG::CTRNG(uint32_t trng_reg_base)
    9bfc:	e52db004 	push	{fp}		; (str fp, [sp, #-4]!)
    9c00:	e28db000 	add	fp, sp, #0
    9c04:	e24dd00c 	sub	sp, sp, #12
    9c08:	e50b0008 	str	r0, [fp, #-8]
    9c0c:	e50b100c 	str	r1, [fp, #-12]
/home/silhavyj/School/ZeroMate/examples/15-DPP_01_external_peripherals/kernel/src/drivers/trng.cpp:9
    : mTrng_Regs(reinterpret_cast<volatile unsigned int* const>(trng_reg_base)), mOpened(0)
    9c10:	e51b200c 	ldr	r2, [fp, #-12]
    9c14:	e51b3008 	ldr	r3, [fp, #-8]
    9c18:	e5832000 	str	r2, [r3]
    9c1c:	e51b3008 	ldr	r3, [fp, #-8]
    9c20:	e3a02000 	mov	r2, #0
    9c24:	e5832004 	str	r2, [r3, #4]
/home/silhavyj/School/ZeroMate/examples/15-DPP_01_external_peripherals/kernel/src/drivers/trng.cpp:12
{
    //
}
    9c28:	e51b3008 	ldr	r3, [fp, #-8]
    9c2c:	e1a00003 	mov	r0, r3
    9c30:	e28bd000 	add	sp, fp, #0
    9c34:	e49db004 	pop	{fp}		; (ldr fp, [sp], #4)
    9c38:	e12fff1e 	bx	lr

00009c3c <_ZN5CTRNG4OpenEb>:
_ZN5CTRNG4OpenEb():
/home/silhavyj/School/ZeroMate/examples/15-DPP_01_external_peripherals/kernel/src/drivers/trng.cpp:15

bool CTRNG::Open(bool exclusive)
{
    9c3c:	e52db004 	push	{fp}		; (str fp, [sp, #-4]!)
    9c40:	e28db000 	add	fp, sp, #0
    9c44:	e24dd00c 	sub	sp, sp, #12
    9c48:	e50b0008 	str	r0, [fp, #-8]
    9c4c:	e1a03001 	mov	r3, r1
    9c50:	e54b3009 	strb	r3, [fp, #-9]
/home/silhavyj/School/ZeroMate/examples/15-DPP_01_external_peripherals/kernel/src/drivers/trng.cpp:18
    // TODO: zamek

    if (mOpened && exclusive)
    9c54:	e51b3008 	ldr	r3, [fp, #-8]
    9c58:	e5933004 	ldr	r3, [r3, #4]
    9c5c:	e3530000 	cmp	r3, #0
    9c60:	0a000004 	beq	9c78 <_ZN5CTRNG4OpenEb+0x3c>
/home/silhavyj/School/ZeroMate/examples/15-DPP_01_external_peripherals/kernel/src/drivers/trng.cpp:18 (discriminator 1)
    9c64:	e55b3009 	ldrb	r3, [fp, #-9]
    9c68:	e3530000 	cmp	r3, #0
    9c6c:	0a000001 	beq	9c78 <_ZN5CTRNG4OpenEb+0x3c>
/home/silhavyj/School/ZeroMate/examples/15-DPP_01_external_peripherals/kernel/src/drivers/trng.cpp:19
        return false;
    9c70:	e3a03000 	mov	r3, #0
    9c74:	ea000026 	b	9d14 <_ZN5CTRNG4OpenEb+0xd8>
/home/silhavyj/School/ZeroMate/examples/15-DPP_01_external_peripherals/kernel/src/drivers/trng.cpp:21

    mOpened++;
    9c78:	e51b3008 	ldr	r3, [fp, #-8]
    9c7c:	e5933004 	ldr	r3, [r3, #4]
    9c80:	e2832001 	add	r2, r3, #1
    9c84:	e51b3008 	ldr	r3, [fp, #-8]
    9c88:	e5832004 	str	r2, [r3, #4]
/home/silhavyj/School/ZeroMate/examples/15-DPP_01_external_peripherals/kernel/src/drivers/trng.cpp:23

    mTrng_Regs[static_cast<uint32_t>(hal::TRNG_Reg::Status)] = TRNG_Warmup_Count;
    9c8c:	e51b3008 	ldr	r3, [fp, #-8]
    9c90:	e5933000 	ldr	r3, [r3]
    9c94:	e2833004 	add	r3, r3, #4
    9c98:	e3a02701 	mov	r2, #262144	; 0x40000
    9c9c:	e5832000 	str	r2, [r3]
/home/silhavyj/School/ZeroMate/examples/15-DPP_01_external_peripherals/kernel/src/drivers/trng.cpp:24
    mTrng_Regs[static_cast<uint32_t>(hal::TRNG_Reg::Int_Mask)] |= 1;    // vypneme preruseni pro TRNG (tak ho pouzivat nechceme)
    9ca0:	e51b3008 	ldr	r3, [fp, #-8]
    9ca4:	e5933000 	ldr	r3, [r3]
    9ca8:	e2833010 	add	r3, r3, #16
    9cac:	e5932000 	ldr	r2, [r3]
    9cb0:	e51b3008 	ldr	r3, [fp, #-8]
    9cb4:	e5933000 	ldr	r3, [r3]
    9cb8:	e2833010 	add	r3, r3, #16
    9cbc:	e3822001 	orr	r2, r2, #1
    9cc0:	e5832000 	str	r2, [r3]
/home/silhavyj/School/ZeroMate/examples/15-DPP_01_external_peripherals/kernel/src/drivers/trng.cpp:25
    mTrng_Regs[static_cast<uint32_t>(hal::TRNG_Reg::Control)] |= 1;     // zapneme TRNG
    9cc4:	e51b3008 	ldr	r3, [fp, #-8]
    9cc8:	e5933000 	ldr	r3, [r3]
    9ccc:	e5932000 	ldr	r2, [r3]
    9cd0:	e51b3008 	ldr	r3, [fp, #-8]
    9cd4:	e5933000 	ldr	r3, [r3]
    9cd8:	e3822001 	orr	r2, r2, #1
    9cdc:	e5832000 	str	r2, [r3]
/home/silhavyj/School/ZeroMate/examples/15-DPP_01_external_peripherals/kernel/src/drivers/trng.cpp:28

    // pockame, dokud TRNG nenageneruje warmup cisla (ty co zahazujeme)
    while (!(mTrng_Regs[static_cast<uint32_t>(hal::TRNG_Reg::Status)] >> 24))
    9ce0:	e51b3008 	ldr	r3, [fp, #-8]
    9ce4:	e5933000 	ldr	r3, [r3]
    9ce8:	e2833004 	add	r3, r3, #4
    9cec:	e5933000 	ldr	r3, [r3]
    9cf0:	e1a03c23 	lsr	r3, r3, #24
    9cf4:	e3530000 	cmp	r3, #0
    9cf8:	03a03001 	moveq	r3, #1
    9cfc:	13a03000 	movne	r3, #0
    9d00:	e6ef3073 	uxtb	r3, r3
    9d04:	e3530000 	cmp	r3, #0
    9d08:	0a000000 	beq	9d10 <_ZN5CTRNG4OpenEb+0xd4>
    9d0c:	eafffff3 	b	9ce0 <_ZN5CTRNG4OpenEb+0xa4>
/home/silhavyj/School/ZeroMate/examples/15-DPP_01_external_peripherals/kernel/src/drivers/trng.cpp:31
        ;

    return true;
    9d10:	e3a03001 	mov	r3, #1
/home/silhavyj/School/ZeroMate/examples/15-DPP_01_external_peripherals/kernel/src/drivers/trng.cpp:32
}
    9d14:	e1a00003 	mov	r0, r3
    9d18:	e28bd000 	add	sp, fp, #0
    9d1c:	e49db004 	pop	{fp}		; (ldr fp, [sp], #4)
    9d20:	e12fff1e 	bx	lr

00009d24 <_ZN5CTRNG5CloseEv>:
_ZN5CTRNG5CloseEv():
/home/silhavyj/School/ZeroMate/examples/15-DPP_01_external_peripherals/kernel/src/drivers/trng.cpp:35

void CTRNG::Close()
{
    9d24:	e52db004 	push	{fp}		; (str fp, [sp, #-4]!)
    9d28:	e28db000 	add	fp, sp, #0
    9d2c:	e24dd00c 	sub	sp, sp, #12
    9d30:	e50b0008 	str	r0, [fp, #-8]
/home/silhavyj/School/ZeroMate/examples/15-DPP_01_external_peripherals/kernel/src/drivers/trng.cpp:36
    if (!mOpened)
    9d34:	e51b3008 	ldr	r3, [fp, #-8]
    9d38:	e5933004 	ldr	r3, [r3, #4]
    9d3c:	e3530000 	cmp	r3, #0
    9d40:	0a00000d 	beq	9d7c <_ZN5CTRNG5CloseEv+0x58>
/home/silhavyj/School/ZeroMate/examples/15-DPP_01_external_peripherals/kernel/src/drivers/trng.cpp:39
        return;

    mOpened--;
    9d44:	e51b3008 	ldr	r3, [fp, #-8]
    9d48:	e5933004 	ldr	r3, [r3, #4]
    9d4c:	e2432001 	sub	r2, r3, #1
    9d50:	e51b3008 	ldr	r3, [fp, #-8]
    9d54:	e5832004 	str	r2, [r3, #4]
/home/silhavyj/School/ZeroMate/examples/15-DPP_01_external_peripherals/kernel/src/drivers/trng.cpp:41

    if (mOpened == 0)
    9d58:	e51b3008 	ldr	r3, [fp, #-8]
    9d5c:	e5933004 	ldr	r3, [r3, #4]
    9d60:	e3530000 	cmp	r3, #0
    9d64:	1a000005 	bne	9d80 <_ZN5CTRNG5CloseEv+0x5c>
/home/silhavyj/School/ZeroMate/examples/15-DPP_01_external_peripherals/kernel/src/drivers/trng.cpp:42
        mTrng_Regs[static_cast<uint32_t>(hal::TRNG_Reg::Control)] = 0;
    9d68:	e51b3008 	ldr	r3, [fp, #-8]
    9d6c:	e5933000 	ldr	r3, [r3]
    9d70:	e3a02000 	mov	r2, #0
    9d74:	e5832000 	str	r2, [r3]
    9d78:	ea000000 	b	9d80 <_ZN5CTRNG5CloseEv+0x5c>
/home/silhavyj/School/ZeroMate/examples/15-DPP_01_external_peripherals/kernel/src/drivers/trng.cpp:37
        return;
    9d7c:	e320f000 	nop	{0}
/home/silhavyj/School/ZeroMate/examples/15-DPP_01_external_peripherals/kernel/src/drivers/trng.cpp:43
}
    9d80:	e28bd000 	add	sp, fp, #0
    9d84:	e49db004 	pop	{fp}		; (ldr fp, [sp], #4)
    9d88:	e12fff1e 	bx	lr

00009d8c <_ZNK5CTRNG9Is_OpenedEv>:
_ZNK5CTRNG9Is_OpenedEv():
/home/silhavyj/School/ZeroMate/examples/15-DPP_01_external_peripherals/kernel/src/drivers/trng.cpp:46

bool CTRNG::Is_Opened() const
{
    9d8c:	e52db004 	push	{fp}		; (str fp, [sp, #-4]!)
    9d90:	e28db000 	add	fp, sp, #0
    9d94:	e24dd00c 	sub	sp, sp, #12
    9d98:	e50b0008 	str	r0, [fp, #-8]
/home/silhavyj/School/ZeroMate/examples/15-DPP_01_external_peripherals/kernel/src/drivers/trng.cpp:47
    return (mOpened > 0);
    9d9c:	e51b3008 	ldr	r3, [fp, #-8]
    9da0:	e5933004 	ldr	r3, [r3, #4]
    9da4:	e3530000 	cmp	r3, #0
    9da8:	13a03001 	movne	r3, #1
    9dac:	03a03000 	moveq	r3, #0
    9db0:	e6ef3073 	uxtb	r3, r3
/home/silhavyj/School/ZeroMate/examples/15-DPP_01_external_peripherals/kernel/src/drivers/trng.cpp:48
}
    9db4:	e1a00003 	mov	r0, r3
    9db8:	e28bd000 	add	sp, fp, #0
    9dbc:	e49db004 	pop	{fp}		; (ldr fp, [sp], #4)
    9dc0:	e12fff1e 	bx	lr

00009dc4 <_ZN5CTRNG17Get_Random_NumberEv>:
_ZN5CTRNG17Get_Random_NumberEv():
/home/silhavyj/School/ZeroMate/examples/15-DPP_01_external_peripherals/kernel/src/drivers/trng.cpp:51

uint32_t CTRNG::Get_Random_Number()
{
    9dc4:	e52db004 	push	{fp}		; (str fp, [sp, #-4]!)
    9dc8:	e28db000 	add	fp, sp, #0
    9dcc:	e24dd00c 	sub	sp, sp, #12
    9dd0:	e50b0008 	str	r0, [fp, #-8]
/home/silhavyj/School/ZeroMate/examples/15-DPP_01_external_peripherals/kernel/src/drivers/trng.cpp:52
    if (mOpened == 0)
    9dd4:	e51b3008 	ldr	r3, [fp, #-8]
    9dd8:	e5933004 	ldr	r3, [r3, #4]
    9ddc:	e3530000 	cmp	r3, #0
    9de0:	1a000001 	bne	9dec <_ZN5CTRNG17Get_Random_NumberEv+0x28>
/home/silhavyj/School/ZeroMate/examples/15-DPP_01_external_peripherals/kernel/src/drivers/trng.cpp:53
        return 4; // https://xkcd.com/221/
    9de4:	e3a03004 	mov	r3, #4
    9de8:	ea000003 	b	9dfc <_ZN5CTRNG17Get_Random_NumberEv+0x38>
/home/silhavyj/School/ZeroMate/examples/15-DPP_01_external_peripherals/kernel/src/drivers/trng.cpp:59

    // az budeme umet blokovat procesy, tak tady by melo byt opet cekani na entropii:
    //while (!(mTrng_Regs[static_cast<uint32_t>(hal::TRNG_Reg::Status)] >> 24))
    //    ;

    return mTrng_Regs[static_cast<uint32_t>(hal::TRNG_Reg::Data)];
    9dec:	e51b3008 	ldr	r3, [fp, #-8]
    9df0:	e5933000 	ldr	r3, [r3]
    9df4:	e2833008 	add	r3, r3, #8
    9df8:	e5933000 	ldr	r3, [r3]
/home/silhavyj/School/ZeroMate/examples/15-DPP_01_external_peripherals/kernel/src/drivers/trng.cpp:60
}
    9dfc:	e1a00003 	mov	r0, r3
    9e00:	e28bd000 	add	sp, fp, #0
    9e04:	e49db004 	pop	{fp}		; (ldr fp, [sp], #4)
    9e08:	e12fff1e 	bx	lr

00009e0c <_Z41__static_initialization_and_destruction_0ii>:
_Z41__static_initialization_and_destruction_0ii():
/home/silhavyj/School/ZeroMate/examples/15-DPP_01_external_peripherals/kernel/src/drivers/trng.cpp:60
    9e0c:	e92d4800 	push	{fp, lr}
    9e10:	e28db004 	add	fp, sp, #4
    9e14:	e24dd008 	sub	sp, sp, #8
    9e18:	e50b0008 	str	r0, [fp, #-8]
    9e1c:	e50b100c 	str	r1, [fp, #-12]
    9e20:	e51b3008 	ldr	r3, [fp, #-8]
    9e24:	e3530001 	cmp	r3, #1
    9e28:	1a000006 	bne	9e48 <_Z41__static_initialization_and_destruction_0ii+0x3c>
/home/silhavyj/School/ZeroMate/examples/15-DPP_01_external_peripherals/kernel/src/drivers/trng.cpp:60 (discriminator 1)
    9e2c:	e51b300c 	ldr	r3, [fp, #-12]
    9e30:	e59f201c 	ldr	r2, [pc, #28]	; 9e54 <_Z41__static_initialization_and_destruction_0ii+0x48>
    9e34:	e1530002 	cmp	r3, r2
    9e38:	1a000002 	bne	9e48 <_Z41__static_initialization_and_destruction_0ii+0x3c>
/home/silhavyj/School/ZeroMate/examples/15-DPP_01_external_peripherals/kernel/src/drivers/trng.cpp:3
CTRNG sTRNG(hal::TRNG_Base);
    9e3c:	e59f1014 	ldr	r1, [pc, #20]	; 9e58 <_Z41__static_initialization_and_destruction_0ii+0x4c>
    9e40:	e59f0014 	ldr	r0, [pc, #20]	; 9e5c <_Z41__static_initialization_and_destruction_0ii+0x50>
    9e44:	ebffff6c 	bl	9bfc <_ZN5CTRNGC1Ej>
/home/silhavyj/School/ZeroMate/examples/15-DPP_01_external_peripherals/kernel/src/drivers/trng.cpp:60
}
    9e48:	e320f000 	nop	{0}
    9e4c:	e24bd004 	sub	sp, fp, #4
    9e50:	e8bd8800 	pop	{fp, pc}
    9e54:	0000ffff 	strdeq	pc, [r0], -pc	; <UNPREDICTABLE>
    9e58:	20104000 	andscs	r4, r0, r0
    9e5c:	0000e414 	andeq	lr, r0, r4, lsl r4

00009e60 <_GLOBAL__sub_I_sTRNG>:
_GLOBAL__sub_I_sTRNG():
/home/silhavyj/School/ZeroMate/examples/15-DPP_01_external_peripherals/kernel/src/drivers/trng.cpp:60
    9e60:	e92d4800 	push	{fp, lr}
    9e64:	e28db004 	add	fp, sp, #4
    9e68:	e59f1008 	ldr	r1, [pc, #8]	; 9e78 <_GLOBAL__sub_I_sTRNG+0x18>
    9e6c:	e3a00001 	mov	r0, #1
    9e70:	ebffffe5 	bl	9e0c <_Z41__static_initialization_and_destruction_0ii>
    9e74:	e8bd8800 	pop	{fp, pc}
    9e78:	0000ffff 	strdeq	pc, [r0], -pc	; <UNPREDICTABLE>

00009e7c <_ZN11CFilesystemC1Ev>:
_ZN11CFilesystemC2Ev():
/home/silhavyj/School/ZeroMate/examples/15-DPP_01_external_peripherals/kernel/src/fs/filesystem.cpp:10

#include <stdstring.h>

CFilesystem sFilesystem;

CFilesystem::CFilesystem()
    9e7c:	e92d4800 	push	{fp, lr}
    9e80:	e28db004 	add	fp, sp, #4
    9e84:	e24dd008 	sub	sp, sp, #8
    9e88:	e50b0008 	str	r0, [fp, #-8]
    9e8c:	e51b3008 	ldr	r3, [fp, #-8]
    9e90:	e1a00003 	mov	r0, r3
    9e94:	eb000213 	bl	a6e8 <_ZN11CFilesystem13TFS_Tree_NodeC1Ev>
    9e98:	e51b3008 	ldr	r3, [fp, #-8]
    9e9c:	e2833024 	add	r3, r3, #36	; 0x24
    9ea0:	e1a00003 	mov	r0, r3
    9ea4:	eb00020f 	bl	a6e8 <_ZN11CFilesystem13TFS_Tree_NodeC1Ev>
    9ea8:	e51b3008 	ldr	r3, [fp, #-8]
    9eac:	e2833048 	add	r3, r3, #72	; 0x48
    9eb0:	e1a00003 	mov	r0, r3
    9eb4:	eb00020b 	bl	a6e8 <_ZN11CFilesystem13TFS_Tree_NodeC1Ev>
    9eb8:	e51b3008 	ldr	r3, [fp, #-8]
    9ebc:	e283306c 	add	r3, r3, #108	; 0x6c
    9ec0:	e1a00003 	mov	r0, r3
    9ec4:	eb000207 	bl	a6e8 <_ZN11CFilesystem13TFS_Tree_NodeC1Ev>
/home/silhavyj/School/ZeroMate/examples/15-DPP_01_external_peripherals/kernel/src/fs/filesystem.cpp:14
{
    // inicializujeme zakladni strukturu (tedy vlastne obsah root adresare)

    mRoot.parent = nullptr;
    9ec8:	e51b3008 	ldr	r3, [fp, #-8]
    9ecc:	e3a02000 	mov	r2, #0
    9ed0:	e5832018 	str	r2, [r3, #24]
/home/silhavyj/School/ZeroMate/examples/15-DPP_01_external_peripherals/kernel/src/fs/filesystem.cpp:15
    mRoot.next = nullptr;
    9ed4:	e51b3008 	ldr	r3, [fp, #-8]
    9ed8:	e3a02000 	mov	r2, #0
    9edc:	e5832020 	str	r2, [r3, #32]
/home/silhavyj/School/ZeroMate/examples/15-DPP_01_external_peripherals/kernel/src/fs/filesystem.cpp:16
    mRoot.children = &mRoot_Dev;
    9ee0:	e51b3008 	ldr	r3, [fp, #-8]
    9ee4:	e2832024 	add	r2, r3, #36	; 0x24
    9ee8:	e51b3008 	ldr	r3, [fp, #-8]
    9eec:	e583201c 	str	r2, [r3, #28]
/home/silhavyj/School/ZeroMate/examples/15-DPP_01_external_peripherals/kernel/src/fs/filesystem.cpp:17
    mRoot.isDirectory = true;
    9ef0:	e51b3008 	ldr	r3, [fp, #-8]
    9ef4:	e3a02001 	mov	r2, #1
    9ef8:	e5c32010 	strb	r2, [r3, #16]
/home/silhavyj/School/ZeroMate/examples/15-DPP_01_external_peripherals/kernel/src/fs/filesystem.cpp:18
    mRoot.driver_idx = NoFilesystemDriver;
    9efc:	e51b3008 	ldr	r3, [fp, #-8]
    9f00:	e3e02000 	mvn	r2, #0
    9f04:	e5832014 	str	r2, [r3, #20]
/home/silhavyj/School/ZeroMate/examples/15-DPP_01_external_peripherals/kernel/src/fs/filesystem.cpp:19
    mRoot.name[0] = '\0';
    9f08:	e51b3008 	ldr	r3, [fp, #-8]
    9f0c:	e3a02000 	mov	r2, #0
    9f10:	e5c32000 	strb	r2, [r3]
/home/silhavyj/School/ZeroMate/examples/15-DPP_01_external_peripherals/kernel/src/fs/filesystem.cpp:21

    mRoot_Dev.parent = &mRoot;
    9f14:	e51b2008 	ldr	r2, [fp, #-8]
    9f18:	e51b3008 	ldr	r3, [fp, #-8]
    9f1c:	e583203c 	str	r2, [r3, #60]	; 0x3c
/home/silhavyj/School/ZeroMate/examples/15-DPP_01_external_peripherals/kernel/src/fs/filesystem.cpp:22
    mRoot_Dev.children = nullptr;
    9f20:	e51b3008 	ldr	r3, [fp, #-8]
    9f24:	e3a02000 	mov	r2, #0
    9f28:	e5832040 	str	r2, [r3, #64]	; 0x40
/home/silhavyj/School/ZeroMate/examples/15-DPP_01_external_peripherals/kernel/src/fs/filesystem.cpp:23
    mRoot_Dev.next = &mRoot_Sys;
    9f2c:	e51b3008 	ldr	r3, [fp, #-8]
    9f30:	e2832048 	add	r2, r3, #72	; 0x48
    9f34:	e51b3008 	ldr	r3, [fp, #-8]
    9f38:	e5832044 	str	r2, [r3, #68]	; 0x44
/home/silhavyj/School/ZeroMate/examples/15-DPP_01_external_peripherals/kernel/src/fs/filesystem.cpp:24
    mRoot_Dev.isDirectory = true;
    9f3c:	e51b3008 	ldr	r3, [fp, #-8]
    9f40:	e3a02001 	mov	r2, #1
    9f44:	e5c32034 	strb	r2, [r3, #52]	; 0x34
/home/silhavyj/School/ZeroMate/examples/15-DPP_01_external_peripherals/kernel/src/fs/filesystem.cpp:25
    mRoot_Dev.driver_idx = NoFilesystemDriver;
    9f48:	e51b3008 	ldr	r3, [fp, #-8]
    9f4c:	e3e02000 	mvn	r2, #0
    9f50:	e5832038 	str	r2, [r3, #56]	; 0x38
/home/silhavyj/School/ZeroMate/examples/15-DPP_01_external_peripherals/kernel/src/fs/filesystem.cpp:26
    strncpy(mRoot_Dev.name, "DEV", 4);
    9f54:	e51b3008 	ldr	r3, [fp, #-8]
    9f58:	e2833024 	add	r3, r3, #36	; 0x24
    9f5c:	e3a02004 	mov	r2, #4
    9f60:	e59f10c0 	ldr	r1, [pc, #192]	; a028 <_ZN11CFilesystemC1Ev+0x1ac>
    9f64:	e1a00003 	mov	r0, r3
    9f68:	eb000e25 	bl	d804 <_Z7strncpyPcPKci>
/home/silhavyj/School/ZeroMate/examples/15-DPP_01_external_peripherals/kernel/src/fs/filesystem.cpp:28

    mRoot_Sys.parent = &mRoot;
    9f6c:	e51b2008 	ldr	r2, [fp, #-8]
    9f70:	e51b3008 	ldr	r3, [fp, #-8]
    9f74:	e5832060 	str	r2, [r3, #96]	; 0x60
/home/silhavyj/School/ZeroMate/examples/15-DPP_01_external_peripherals/kernel/src/fs/filesystem.cpp:29
    mRoot_Sys.children = nullptr;
    9f78:	e51b3008 	ldr	r3, [fp, #-8]
    9f7c:	e3a02000 	mov	r2, #0
    9f80:	e5832064 	str	r2, [r3, #100]	; 0x64
/home/silhavyj/School/ZeroMate/examples/15-DPP_01_external_peripherals/kernel/src/fs/filesystem.cpp:30
    mRoot_Sys.next = &mRoot_Mnt;
    9f84:	e51b3008 	ldr	r3, [fp, #-8]
    9f88:	e283206c 	add	r2, r3, #108	; 0x6c
    9f8c:	e51b3008 	ldr	r3, [fp, #-8]
    9f90:	e5832068 	str	r2, [r3, #104]	; 0x68
/home/silhavyj/School/ZeroMate/examples/15-DPP_01_external_peripherals/kernel/src/fs/filesystem.cpp:31
    mRoot_Sys.isDirectory = true;
    9f94:	e51b3008 	ldr	r3, [fp, #-8]
    9f98:	e3a02001 	mov	r2, #1
    9f9c:	e5c32058 	strb	r2, [r3, #88]	; 0x58
/home/silhavyj/School/ZeroMate/examples/15-DPP_01_external_peripherals/kernel/src/fs/filesystem.cpp:32
    mRoot_Sys.driver_idx = NoFilesystemDriver;
    9fa0:	e51b3008 	ldr	r3, [fp, #-8]
    9fa4:	e3e02000 	mvn	r2, #0
    9fa8:	e583205c 	str	r2, [r3, #92]	; 0x5c
/home/silhavyj/School/ZeroMate/examples/15-DPP_01_external_peripherals/kernel/src/fs/filesystem.cpp:33
    strncpy(mRoot_Sys.name, "SYS", 4);
    9fac:	e51b3008 	ldr	r3, [fp, #-8]
    9fb0:	e2833048 	add	r3, r3, #72	; 0x48
    9fb4:	e3a02004 	mov	r2, #4
    9fb8:	e59f106c 	ldr	r1, [pc, #108]	; a02c <_ZN11CFilesystemC1Ev+0x1b0>
    9fbc:	e1a00003 	mov	r0, r3
    9fc0:	eb000e0f 	bl	d804 <_Z7strncpyPcPKci>
/home/silhavyj/School/ZeroMate/examples/15-DPP_01_external_peripherals/kernel/src/fs/filesystem.cpp:35

    mRoot_Mnt.parent = &mRoot;
    9fc4:	e51b2008 	ldr	r2, [fp, #-8]
    9fc8:	e51b3008 	ldr	r3, [fp, #-8]
    9fcc:	e5832084 	str	r2, [r3, #132]	; 0x84
/home/silhavyj/School/ZeroMate/examples/15-DPP_01_external_peripherals/kernel/src/fs/filesystem.cpp:36
    mRoot_Mnt.children = nullptr;
    9fd0:	e51b3008 	ldr	r3, [fp, #-8]
    9fd4:	e3a02000 	mov	r2, #0
    9fd8:	e5832088 	str	r2, [r3, #136]	; 0x88
/home/silhavyj/School/ZeroMate/examples/15-DPP_01_external_peripherals/kernel/src/fs/filesystem.cpp:37
    mRoot_Mnt.next = nullptr;
    9fdc:	e51b3008 	ldr	r3, [fp, #-8]
    9fe0:	e3a02000 	mov	r2, #0
    9fe4:	e583208c 	str	r2, [r3, #140]	; 0x8c
/home/silhavyj/School/ZeroMate/examples/15-DPP_01_external_peripherals/kernel/src/fs/filesystem.cpp:38
    mRoot_Mnt.isDirectory = true;
    9fe8:	e51b3008 	ldr	r3, [fp, #-8]
    9fec:	e3a02001 	mov	r2, #1
    9ff0:	e5c3207c 	strb	r2, [r3, #124]	; 0x7c
/home/silhavyj/School/ZeroMate/examples/15-DPP_01_external_peripherals/kernel/src/fs/filesystem.cpp:39
    mRoot_Mnt.driver_idx = NoFilesystemDriver;
    9ff4:	e51b3008 	ldr	r3, [fp, #-8]
    9ff8:	e3e02000 	mvn	r2, #0
    9ffc:	e5832080 	str	r2, [r3, #128]	; 0x80
/home/silhavyj/School/ZeroMate/examples/15-DPP_01_external_peripherals/kernel/src/fs/filesystem.cpp:40
    strncpy(mRoot_Mnt.name, "MNT", 4);
    a000:	e51b3008 	ldr	r3, [fp, #-8]
    a004:	e283306c 	add	r3, r3, #108	; 0x6c
    a008:	e3a02004 	mov	r2, #4
    a00c:	e59f101c 	ldr	r1, [pc, #28]	; a030 <_ZN11CFilesystemC1Ev+0x1b4>
    a010:	e1a00003 	mov	r0, r3
    a014:	eb000dfa 	bl	d804 <_Z7strncpyPcPKci>
/home/silhavyj/School/ZeroMate/examples/15-DPP_01_external_peripherals/kernel/src/fs/filesystem.cpp:41
}
    a018:	e51b3008 	ldr	r3, [fp, #-8]
    a01c:	e1a00003 	mov	r0, r3
    a020:	e24bd004 	sub	sp, fp, #4
    a024:	e8bd8800 	pop	{fp, pc}
    a028:	0000ddb4 			; <UNDEFINED> instruction: 0x0000ddb4
    a02c:	0000ddb8 			; <UNDEFINED> instruction: 0x0000ddb8
    a030:	0000ddbc 			; <UNDEFINED> instruction: 0x0000ddbc

0000a034 <_ZN11CFilesystem13TFS_Tree_Node10Find_ChildEPKc>:
_ZN11CFilesystem13TFS_Tree_Node10Find_ChildEPKc():
/home/silhavyj/School/ZeroMate/examples/15-DPP_01_external_peripherals/kernel/src/fs/filesystem.cpp:44

CFilesystem::TFS_Tree_Node* CFilesystem::TFS_Tree_Node::Find_Child(const char* name)
{
    a034:	e92d4800 	push	{fp, lr}
    a038:	e28db004 	add	fp, sp, #4
    a03c:	e24dd010 	sub	sp, sp, #16
    a040:	e50b0010 	str	r0, [fp, #-16]
    a044:	e50b1014 	str	r1, [fp, #-20]	; 0xffffffec
/home/silhavyj/School/ZeroMate/examples/15-DPP_01_external_peripherals/kernel/src/fs/filesystem.cpp:45
    TFS_Tree_Node* child = children;
    a048:	e51b3010 	ldr	r3, [fp, #-16]
    a04c:	e593301c 	ldr	r3, [r3, #28]
    a050:	e50b3008 	str	r3, [fp, #-8]
/home/silhavyj/School/ZeroMate/examples/15-DPP_01_external_peripherals/kernel/src/fs/filesystem.cpp:47

    while (child != nullptr)
    a054:	e51b3008 	ldr	r3, [fp, #-8]
    a058:	e3530000 	cmp	r3, #0
    a05c:	0a000011 	beq	a0a8 <_ZN11CFilesystem13TFS_Tree_Node10Find_ChildEPKc+0x74>
/home/silhavyj/School/ZeroMate/examples/15-DPP_01_external_peripherals/kernel/src/fs/filesystem.cpp:49
    {
        if (strncmp(child->name, name, MaxFilenameLength) == 0)
    a060:	e51b3008 	ldr	r3, [fp, #-8]
    a064:	e3a02010 	mov	r2, #16
    a068:	e51b1014 	ldr	r1, [fp, #-20]	; 0xffffffec
    a06c:	e1a00003 	mov	r0, r3
    a070:	eb000e13 	bl	d8c4 <_Z7strncmpPKcS0_i>
    a074:	e1a03000 	mov	r3, r0
    a078:	e3530000 	cmp	r3, #0
    a07c:	03a03001 	moveq	r3, #1
    a080:	13a03000 	movne	r3, #0
    a084:	e6ef3073 	uxtb	r3, r3
    a088:	e3530000 	cmp	r3, #0
    a08c:	0a000001 	beq	a098 <_ZN11CFilesystem13TFS_Tree_Node10Find_ChildEPKc+0x64>
/home/silhavyj/School/ZeroMate/examples/15-DPP_01_external_peripherals/kernel/src/fs/filesystem.cpp:50
            return child;
    a090:	e51b3008 	ldr	r3, [fp, #-8]
    a094:	ea000004 	b	a0ac <_ZN11CFilesystem13TFS_Tree_Node10Find_ChildEPKc+0x78>
/home/silhavyj/School/ZeroMate/examples/15-DPP_01_external_peripherals/kernel/src/fs/filesystem.cpp:52

        child = child->next;
    a098:	e51b3008 	ldr	r3, [fp, #-8]
    a09c:	e5933020 	ldr	r3, [r3, #32]
    a0a0:	e50b3008 	str	r3, [fp, #-8]
/home/silhavyj/School/ZeroMate/examples/15-DPP_01_external_peripherals/kernel/src/fs/filesystem.cpp:47
    while (child != nullptr)
    a0a4:	eaffffea 	b	a054 <_ZN11CFilesystem13TFS_Tree_Node10Find_ChildEPKc+0x20>
/home/silhavyj/School/ZeroMate/examples/15-DPP_01_external_peripherals/kernel/src/fs/filesystem.cpp:55
    }

    return nullptr;
    a0a8:	e3a03000 	mov	r3, #0
/home/silhavyj/School/ZeroMate/examples/15-DPP_01_external_peripherals/kernel/src/fs/filesystem.cpp:56
}
    a0ac:	e1a00003 	mov	r0, r3
    a0b0:	e24bd004 	sub	sp, fp, #4
    a0b4:	e8bd8800 	pop	{fp, pc}

0000a0b8 <_ZN11CFilesystem10InitializeEv>:
_ZN11CFilesystem10InitializeEv():
/home/silhavyj/School/ZeroMate/examples/15-DPP_01_external_peripherals/kernel/src/fs/filesystem.cpp:59

void CFilesystem::Initialize()
{
    a0b8:	e92d4800 	push	{fp, lr}
    a0bc:	e28db004 	add	fp, sp, #4
    a0c0:	e24dd030 	sub	sp, sp, #48	; 0x30
    a0c4:	e50b0030 	str	r0, [fp, #-48]	; 0xffffffd0
/home/silhavyj/School/ZeroMate/examples/15-DPP_01_external_peripherals/kernel/src/fs/filesystem.cpp:60
    sMonitor << "Initializing the FS\n";
    a0c8:	e59f1310 	ldr	r1, [pc, #784]	; a3e0 <_ZN11CFilesystem10InitializeEv+0x328>
    a0cc:	e59f0310 	ldr	r0, [pc, #784]	; a3e4 <_ZN11CFilesystem10InitializeEv+0x32c>
    a0d0:	ebfffb0c 	bl	8d08 <_ZN8CMonitorlsEPKc>
/home/silhavyj/School/ZeroMate/examples/15-DPP_01_external_peripherals/kernel/src/fs/filesystem.cpp:67
    char tmpName[MaxFilenameLength];
    const char* mpPtr;

    int i, j;

    for (i = 0; i < gFS_Drivers_Count; i++)
    a0d4:	e3a03000 	mov	r3, #0
    a0d8:	e50b300c 	str	r3, [fp, #-12]
/home/silhavyj/School/ZeroMate/examples/15-DPP_01_external_peripherals/kernel/src/fs/filesystem.cpp:67 (discriminator 1)
    a0dc:	e51b200c 	ldr	r2, [fp, #-12]
    a0e0:	e59f3300 	ldr	r3, [pc, #768]	; a3e8 <_ZN11CFilesystem10InitializeEv+0x330>
    a0e4:	e5933000 	ldr	r3, [r3]
    a0e8:	e1520003 	cmp	r2, r3
    a0ec:	2a0000b4 	bcs	a3c4 <_ZN11CFilesystem10InitializeEv+0x30c>
/home/silhavyj/School/ZeroMate/examples/15-DPP_01_external_peripherals/kernel/src/fs/filesystem.cpp:69
    {
        const TFS_Driver* ptr = &gFS_Drivers[i];
    a0f0:	e51b200c 	ldr	r2, [fp, #-12]
    a0f4:	e1a03002 	mov	r3, r2
    a0f8:	e1a03083 	lsl	r3, r3, #1
    a0fc:	e0833002 	add	r3, r3, r2
    a100:	e1a03183 	lsl	r3, r3, #3
    a104:	e59f22e0 	ldr	r2, [pc, #736]	; a3ec <_ZN11CFilesystem10InitializeEv+0x334>
    a108:	e0833002 	add	r3, r3, r2
    a10c:	e50b3018 	str	r3, [fp, #-24]	; 0xffffffe8
/home/silhavyj/School/ZeroMate/examples/15-DPP_01_external_peripherals/kernel/src/fs/filesystem.cpp:71

        mpPtr = ptr->mountPoint;
    a110:	e51b3018 	ldr	r3, [fp, #-24]	; 0xffffffe8
    a114:	e5933010 	ldr	r3, [r3, #16]
    a118:	e50b3008 	str	r3, [fp, #-8]
/home/silhavyj/School/ZeroMate/examples/15-DPP_01_external_peripherals/kernel/src/fs/filesystem.cpp:73

        sMonitor << "mount point = " << mpPtr << "\n";
    a11c:	e59f12cc 	ldr	r1, [pc, #716]	; a3f0 <_ZN11CFilesystem10InitializeEv+0x338>
    a120:	e59f02bc 	ldr	r0, [pc, #700]	; a3e4 <_ZN11CFilesystem10InitializeEv+0x32c>
    a124:	ebfffaf7 	bl	8d08 <_ZN8CMonitorlsEPKc>
    a128:	e1a03000 	mov	r3, r0
    a12c:	e51b1008 	ldr	r1, [fp, #-8]
    a130:	e1a00003 	mov	r0, r3
    a134:	ebfffaf3 	bl	8d08 <_ZN8CMonitorlsEPKc>
    a138:	e1a03000 	mov	r3, r0
    a13c:	e59f12b0 	ldr	r1, [pc, #688]	; a3f4 <_ZN11CFilesystem10InitializeEv+0x33c>
    a140:	e1a00003 	mov	r0, r3
    a144:	ebfffaef 	bl	8d08 <_ZN8CMonitorlsEPKc>
/home/silhavyj/School/ZeroMate/examples/15-DPP_01_external_peripherals/kernel/src/fs/filesystem.cpp:75

        TFS_Tree_Node* node = &mRoot, *tmpNode = nullptr;
    a148:	e51b3030 	ldr	r3, [fp, #-48]	; 0xffffffd0
    a14c:	e50b3014 	str	r3, [fp, #-20]	; 0xffffffec
    a150:	e3a03000 	mov	r3, #0
    a154:	e50b301c 	str	r3, [fp, #-28]	; 0xffffffe4
/home/silhavyj/School/ZeroMate/examples/15-DPP_01_external_peripherals/kernel/src/fs/filesystem.cpp:77

        while (mpPtr[0] != '\0')
    a158:	e51b3008 	ldr	r3, [fp, #-8]
    a15c:	e5d33000 	ldrb	r3, [r3]
    a160:	e3530000 	cmp	r3, #0
    a164:	0a000083 	beq	a378 <_ZN11CFilesystem10InitializeEv+0x2c0>
/home/silhavyj/School/ZeroMate/examples/15-DPP_01_external_peripherals/kernel/src/fs/filesystem.cpp:79
        {
            for (j = 0; j < MaxPathLength && mpPtr[j] != '\0'; j++)
    a168:	e3a03000 	mov	r3, #0
    a16c:	e50b3010 	str	r3, [fp, #-16]
/home/silhavyj/School/ZeroMate/examples/15-DPP_01_external_peripherals/kernel/src/fs/filesystem.cpp:79 (discriminator 1)
    a170:	e51b3010 	ldr	r3, [fp, #-16]
    a174:	e353007f 	cmp	r3, #127	; 0x7f
    a178:	8a00001e 	bhi	a1f8 <_ZN11CFilesystem10InitializeEv+0x140>
/home/silhavyj/School/ZeroMate/examples/15-DPP_01_external_peripherals/kernel/src/fs/filesystem.cpp:79 (discriminator 2)
    a17c:	e51b3010 	ldr	r3, [fp, #-16]
    a180:	e51b2008 	ldr	r2, [fp, #-8]
    a184:	e0823003 	add	r3, r2, r3
    a188:	e5d33000 	ldrb	r3, [r3]
    a18c:	e3530000 	cmp	r3, #0
    a190:	0a000018 	beq	a1f8 <_ZN11CFilesystem10InitializeEv+0x140>
/home/silhavyj/School/ZeroMate/examples/15-DPP_01_external_peripherals/kernel/src/fs/filesystem.cpp:81
            {
                if (mpPtr[j] == ':' || mpPtr[j] == '/')
    a194:	e51b3010 	ldr	r3, [fp, #-16]
    a198:	e51b2008 	ldr	r2, [fp, #-8]
    a19c:	e0823003 	add	r3, r2, r3
    a1a0:	e5d33000 	ldrb	r3, [r3]
    a1a4:	e353003a 	cmp	r3, #58	; 0x3a
    a1a8:	0a000012 	beq	a1f8 <_ZN11CFilesystem10InitializeEv+0x140>
/home/silhavyj/School/ZeroMate/examples/15-DPP_01_external_peripherals/kernel/src/fs/filesystem.cpp:81 (discriminator 1)
    a1ac:	e51b3010 	ldr	r3, [fp, #-16]
    a1b0:	e51b2008 	ldr	r2, [fp, #-8]
    a1b4:	e0823003 	add	r3, r2, r3
    a1b8:	e5d33000 	ldrb	r3, [r3]
    a1bc:	e353002f 	cmp	r3, #47	; 0x2f
    a1c0:	0a00000c 	beq	a1f8 <_ZN11CFilesystem10InitializeEv+0x140>
/home/silhavyj/School/ZeroMate/examples/15-DPP_01_external_peripherals/kernel/src/fs/filesystem.cpp:84 (discriminator 3)
                    break;

                tmpName[j] = mpPtr[j];
    a1c4:	e51b3010 	ldr	r3, [fp, #-16]
    a1c8:	e51b2008 	ldr	r2, [fp, #-8]
    a1cc:	e0823003 	add	r3, r2, r3
    a1d0:	e5d31000 	ldrb	r1, [r3]
    a1d4:	e24b202c 	sub	r2, fp, #44	; 0x2c
    a1d8:	e51b3010 	ldr	r3, [fp, #-16]
    a1dc:	e0823003 	add	r3, r2, r3
    a1e0:	e1a02001 	mov	r2, r1
    a1e4:	e5c32000 	strb	r2, [r3]
/home/silhavyj/School/ZeroMate/examples/15-DPP_01_external_peripherals/kernel/src/fs/filesystem.cpp:79 (discriminator 3)
            for (j = 0; j < MaxPathLength && mpPtr[j] != '\0'; j++)
    a1e8:	e51b3010 	ldr	r3, [fp, #-16]
    a1ec:	e2833001 	add	r3, r3, #1
    a1f0:	e50b3010 	str	r3, [fp, #-16]
    a1f4:	eaffffdd 	b	a170 <_ZN11CFilesystem10InitializeEv+0xb8>
/home/silhavyj/School/ZeroMate/examples/15-DPP_01_external_peripherals/kernel/src/fs/filesystem.cpp:87
            }

            tmpName[j] = '\0';
    a1f8:	e24b202c 	sub	r2, fp, #44	; 0x2c
    a1fc:	e51b3010 	ldr	r3, [fp, #-16]
    a200:	e0823003 	add	r3, r2, r3
    a204:	e3a02000 	mov	r2, #0
    a208:	e5c32000 	strb	r2, [r3]
/home/silhavyj/School/ZeroMate/examples/15-DPP_01_external_peripherals/kernel/src/fs/filesystem.cpp:89

            mpPtr += j;
    a20c:	e51b3010 	ldr	r3, [fp, #-16]
    a210:	e51b2008 	ldr	r2, [fp, #-8]
    a214:	e0823003 	add	r3, r2, r3
    a218:	e50b3008 	str	r3, [fp, #-8]
/home/silhavyj/School/ZeroMate/examples/15-DPP_01_external_peripherals/kernel/src/fs/filesystem.cpp:90
            if (mpPtr[0] != '\0')
    a21c:	e51b3008 	ldr	r3, [fp, #-8]
    a220:	e5d33000 	ldrb	r3, [r3]
    a224:	e3530000 	cmp	r3, #0
    a228:	0a000002 	beq	a238 <_ZN11CFilesystem10InitializeEv+0x180>
/home/silhavyj/School/ZeroMate/examples/15-DPP_01_external_peripherals/kernel/src/fs/filesystem.cpp:92
            {
                mpPtr += 1;
    a22c:	e51b3008 	ldr	r3, [fp, #-8]
    a230:	e2833001 	add	r3, r3, #1
    a234:	e50b3008 	str	r3, [fp, #-8]
/home/silhavyj/School/ZeroMate/examples/15-DPP_01_external_peripherals/kernel/src/fs/filesystem.cpp:95
            }

            sMonitor << "finding child = " << tmpName << '\n'; 
    a238:	e59f11b8 	ldr	r1, [pc, #440]	; a3f8 <_ZN11CFilesystem10InitializeEv+0x340>
    a23c:	e59f01a0 	ldr	r0, [pc, #416]	; a3e4 <_ZN11CFilesystem10InitializeEv+0x32c>
    a240:	ebfffab0 	bl	8d08 <_ZN8CMonitorlsEPKc>
    a244:	e1a02000 	mov	r2, r0
    a248:	e24b302c 	sub	r3, fp, #44	; 0x2c
    a24c:	e1a01003 	mov	r1, r3
    a250:	e1a00002 	mov	r0, r2
    a254:	ebfffaab 	bl	8d08 <_ZN8CMonitorlsEPKc>
    a258:	e1a03000 	mov	r3, r0
    a25c:	e3a0100a 	mov	r1, #10
    a260:	e1a00003 	mov	r0, r3
    a264:	ebfffa7d 	bl	8c60 <_ZN8CMonitorlsEc>
/home/silhavyj/School/ZeroMate/examples/15-DPP_01_external_peripherals/kernel/src/fs/filesystem.cpp:97

            tmpNode = node->Find_Child(tmpName);
    a268:	e24b302c 	sub	r3, fp, #44	; 0x2c
    a26c:	e1a01003 	mov	r1, r3
    a270:	e51b0014 	ldr	r0, [fp, #-20]	; 0xffffffec
    a274:	ebffff6e 	bl	a034 <_ZN11CFilesystem13TFS_Tree_Node10Find_ChildEPKc>
    a278:	e50b001c 	str	r0, [fp, #-28]	; 0xffffffe4
/home/silhavyj/School/ZeroMate/examples/15-DPP_01_external_peripherals/kernel/src/fs/filesystem.cpp:99
            // uzel jsme nasli - pouzijeme ho pro dalsi prohledavani
            if (tmpNode) 
    a27c:	e51b301c 	ldr	r3, [fp, #-28]	; 0xffffffe4
    a280:	e3530000 	cmp	r3, #0
    a284:	0a00000e 	beq	a2c4 <_ZN11CFilesystem10InitializeEv+0x20c>
/home/silhavyj/School/ZeroMate/examples/15-DPP_01_external_peripherals/kernel/src/fs/filesystem.cpp:101
            {
                node = tmpNode;
    a288:	e51b301c 	ldr	r3, [fp, #-28]	; 0xffffffe4
    a28c:	e50b3014 	str	r3, [fp, #-20]	; 0xffffffec
/home/silhavyj/School/ZeroMate/examples/15-DPP_01_external_peripherals/kernel/src/fs/filesystem.cpp:102
                sMonitor << "child " << tmpName << " was found\n";
    a290:	e59f1164 	ldr	r1, [pc, #356]	; a3fc <_ZN11CFilesystem10InitializeEv+0x344>
    a294:	e59f0148 	ldr	r0, [pc, #328]	; a3e4 <_ZN11CFilesystem10InitializeEv+0x32c>
    a298:	ebfffa9a 	bl	8d08 <_ZN8CMonitorlsEPKc>
    a29c:	e1a02000 	mov	r2, r0
    a2a0:	e24b302c 	sub	r3, fp, #44	; 0x2c
    a2a4:	e1a01003 	mov	r1, r3
    a2a8:	e1a00002 	mov	r0, r2
    a2ac:	ebfffa95 	bl	8d08 <_ZN8CMonitorlsEPKc>
    a2b0:	e1a03000 	mov	r3, r0
    a2b4:	e59f1144 	ldr	r1, [pc, #324]	; a400 <_ZN11CFilesystem10InitializeEv+0x348>
    a2b8:	e1a00003 	mov	r0, r3
    a2bc:	ebfffa91 	bl	8d08 <_ZN8CMonitorlsEPKc>
    a2c0:	eaffffa4 	b	a158 <_ZN11CFilesystem10InitializeEv+0xa0>
/home/silhavyj/School/ZeroMate/examples/15-DPP_01_external_peripherals/kernel/src/fs/filesystem.cpp:107
            }
            // uzel jsme nenasli - vytvorime ho a pouzijeme ho pro dalsi prohledavani
            else
            {
                tmpNode = sKernelMem.Alloc<TFS_Tree_Node>();
    a2c4:	e59f0138 	ldr	r0, [pc, #312]	; a404 <_ZN11CFilesystem10InitializeEv+0x34c>
    a2c8:	eb000115 	bl	a724 <_ZN20CKernel_Heap_Manager5AllocIN11CFilesystem13TFS_Tree_NodeEEEPT_v>
    a2cc:	e50b001c 	str	r0, [fp, #-28]	; 0xffffffe4
/home/silhavyj/School/ZeroMate/examples/15-DPP_01_external_peripherals/kernel/src/fs/filesystem.cpp:108
                strncpy(tmpNode->name, tmpName, MaxFilenameLength);
    a2d0:	e51b301c 	ldr	r3, [fp, #-28]	; 0xffffffe4
    a2d4:	e24b102c 	sub	r1, fp, #44	; 0x2c
    a2d8:	e3a02010 	mov	r2, #16
    a2dc:	e1a00003 	mov	r0, r3
    a2e0:	eb000d47 	bl	d804 <_Z7strncpyPcPKci>
/home/silhavyj/School/ZeroMate/examples/15-DPP_01_external_peripherals/kernel/src/fs/filesystem.cpp:109
                tmpNode->parent = node;
    a2e4:	e51b301c 	ldr	r3, [fp, #-28]	; 0xffffffe4
    a2e8:	e51b2014 	ldr	r2, [fp, #-20]	; 0xffffffec
    a2ec:	e5832018 	str	r2, [r3, #24]
/home/silhavyj/School/ZeroMate/examples/15-DPP_01_external_peripherals/kernel/src/fs/filesystem.cpp:110
                tmpNode->children = nullptr;
    a2f0:	e51b301c 	ldr	r3, [fp, #-28]	; 0xffffffe4
    a2f4:	e3a02000 	mov	r2, #0
    a2f8:	e583201c 	str	r2, [r3, #28]
/home/silhavyj/School/ZeroMate/examples/15-DPP_01_external_peripherals/kernel/src/fs/filesystem.cpp:111
                tmpNode->driver_idx = NoFilesystemDriver; // zatim - mozna se neco dole zmeni
    a2fc:	e51b301c 	ldr	r3, [fp, #-28]	; 0xffffffe4
    a300:	e3e02000 	mvn	r2, #0
    a304:	e5832014 	str	r2, [r3, #20]
/home/silhavyj/School/ZeroMate/examples/15-DPP_01_external_peripherals/kernel/src/fs/filesystem.cpp:112
                tmpNode->isDirectory = true;
    a308:	e51b301c 	ldr	r3, [fp, #-28]	; 0xffffffe4
    a30c:	e3a02001 	mov	r2, #1
    a310:	e5c32010 	strb	r2, [r3, #16]
/home/silhavyj/School/ZeroMate/examples/15-DPP_01_external_peripherals/kernel/src/fs/filesystem.cpp:113
                tmpNode->next = node->children;
    a314:	e51b3014 	ldr	r3, [fp, #-20]	; 0xffffffec
    a318:	e593201c 	ldr	r2, [r3, #28]
    a31c:	e51b301c 	ldr	r3, [fp, #-28]	; 0xffffffe4
    a320:	e5832020 	str	r2, [r3, #32]
/home/silhavyj/School/ZeroMate/examples/15-DPP_01_external_peripherals/kernel/src/fs/filesystem.cpp:114
                node->children = tmpNode;
    a324:	e51b3014 	ldr	r3, [fp, #-20]	; 0xffffffec
    a328:	e51b201c 	ldr	r2, [fp, #-28]	; 0xffffffe4
    a32c:	e583201c 	str	r2, [r3, #28]
/home/silhavyj/School/ZeroMate/examples/15-DPP_01_external_peripherals/kernel/src/fs/filesystem.cpp:116

                node = tmpNode;
    a330:	e51b301c 	ldr	r3, [fp, #-28]	; 0xffffffe4
    a334:	e50b3014 	str	r3, [fp, #-20]	; 0xffffffec
/home/silhavyj/School/ZeroMate/examples/15-DPP_01_external_peripherals/kernel/src/fs/filesystem.cpp:118

                sMonitor << "child was not found\n";
    a338:	e59f10c8 	ldr	r1, [pc, #200]	; a408 <_ZN11CFilesystem10InitializeEv+0x350>
    a33c:	e59f00a0 	ldr	r0, [pc, #160]	; a3e4 <_ZN11CFilesystem10InitializeEv+0x32c>
    a340:	ebfffa70 	bl	8d08 <_ZN8CMonitorlsEPKc>
/home/silhavyj/School/ZeroMate/examples/15-DPP_01_external_peripherals/kernel/src/fs/filesystem.cpp:119
                sMonitor << "creating: " << node->name << "\n";
    a344:	e59f10c0 	ldr	r1, [pc, #192]	; a40c <_ZN11CFilesystem10InitializeEv+0x354>
    a348:	e59f0094 	ldr	r0, [pc, #148]	; a3e4 <_ZN11CFilesystem10InitializeEv+0x32c>
    a34c:	ebfffa6d 	bl	8d08 <_ZN8CMonitorlsEPKc>
    a350:	e1a02000 	mov	r2, r0
    a354:	e51b3014 	ldr	r3, [fp, #-20]	; 0xffffffec
    a358:	e1a01003 	mov	r1, r3
    a35c:	e1a00002 	mov	r0, r2
    a360:	ebfffa68 	bl	8d08 <_ZN8CMonitorlsEPKc>
    a364:	e1a03000 	mov	r3, r0
    a368:	e59f1084 	ldr	r1, [pc, #132]	; a3f4 <_ZN11CFilesystem10InitializeEv+0x33c>
    a36c:	e1a00003 	mov	r0, r3
    a370:	ebfffa64 	bl	8d08 <_ZN8CMonitorlsEPKc>
/home/silhavyj/School/ZeroMate/examples/15-DPP_01_external_peripherals/kernel/src/fs/filesystem.cpp:77
        while (mpPtr[0] != '\0')
    a374:	eaffff77 	b	a158 <_ZN11CFilesystem10InitializeEv+0xa0>
/home/silhavyj/School/ZeroMate/examples/15-DPP_01_external_peripherals/kernel/src/fs/filesystem.cpp:126
        }

        // 'node' obsahuje uzel posledniho clanku mountpointu - tedy vlastni mountpoint

        // mountpoint nesmi byt uz zabrany
        if (node->driver_idx != NoFilesystemDriver)
    a378:	e51b3014 	ldr	r3, [fp, #-20]	; 0xffffffec
    a37c:	e5933014 	ldr	r3, [r3, #20]
    a380:	e3730001 	cmn	r3, #1
    a384:	1a000012 	bne	a3d4 <_ZN11CFilesystem10InitializeEv+0x31c>
/home/silhavyj/School/ZeroMate/examples/15-DPP_01_external_peripherals/kernel/src/fs/filesystem.cpp:129 (discriminator 2)
            return;

        node->driver_idx = i; // timto predavame veskere manipulace driveru
    a388:	e51b200c 	ldr	r2, [fp, #-12]
    a38c:	e51b3014 	ldr	r3, [fp, #-20]	; 0xffffffec
    a390:	e5832014 	str	r2, [r3, #20]
/home/silhavyj/School/ZeroMate/examples/15-DPP_01_external_peripherals/kernel/src/fs/filesystem.cpp:132 (discriminator 2)

        // dame driveru vedet, ze jsme ho zaregistrovali
        ptr->driver->On_Register();
    a394:	e51b3018 	ldr	r3, [fp, #-24]	; 0xffffffe8
    a398:	e5932014 	ldr	r2, [r3, #20]
    a39c:	e51b3018 	ldr	r3, [fp, #-24]	; 0xffffffe8
    a3a0:	e5933014 	ldr	r3, [r3, #20]
    a3a4:	e5933000 	ldr	r3, [r3]
    a3a8:	e5933000 	ldr	r3, [r3]
    a3ac:	e1a00002 	mov	r0, r2
    a3b0:	e12fff33 	blx	r3
/home/silhavyj/School/ZeroMate/examples/15-DPP_01_external_peripherals/kernel/src/fs/filesystem.cpp:67 (discriminator 2)
    for (i = 0; i < gFS_Drivers_Count; i++)
    a3b4:	e51b300c 	ldr	r3, [fp, #-12]
    a3b8:	e2833001 	add	r3, r3, #1
    a3bc:	e50b300c 	str	r3, [fp, #-12]
    a3c0:	eaffff45 	b	a0dc <_ZN11CFilesystem10InitializeEv+0x24>
/home/silhavyj/School/ZeroMate/examples/15-DPP_01_external_peripherals/kernel/src/fs/filesystem.cpp:135
    }

    sMonitor << "Finished FS initialization\n\n";
    a3c4:	e59f1044 	ldr	r1, [pc, #68]	; a410 <_ZN11CFilesystem10InitializeEv+0x358>
    a3c8:	e59f0014 	ldr	r0, [pc, #20]	; a3e4 <_ZN11CFilesystem10InitializeEv+0x32c>
    a3cc:	ebfffa4d 	bl	8d08 <_ZN8CMonitorlsEPKc>
    a3d0:	ea000000 	b	a3d8 <_ZN11CFilesystem10InitializeEv+0x320>
/home/silhavyj/School/ZeroMate/examples/15-DPP_01_external_peripherals/kernel/src/fs/filesystem.cpp:127
            return;
    a3d4:	e320f000 	nop	{0}
/home/silhavyj/School/ZeroMate/examples/15-DPP_01_external_peripherals/kernel/src/fs/filesystem.cpp:136
}
    a3d8:	e24bd004 	sub	sp, fp, #4
    a3dc:	e8bd8800 	pop	{fp, pc}
    a3e0:	0000ddc0 	andeq	sp, r0, r0, asr #27
    a3e4:	0000e3d0 	ldrdeq	lr, [r0], -r0
    a3e8:	0000df68 	andeq	sp, r0, r8, ror #30
    a3ec:	0000def0 	strdeq	sp, [r0], -r0
    a3f0:	0000ddd8 	ldrdeq	sp, [r0], -r8
    a3f4:	0000dde8 	andeq	sp, r0, r8, ror #27
    a3f8:	0000ddec 	andeq	sp, r0, ip, ror #27
    a3fc:	0000de00 	andeq	sp, r0, r0, lsl #28
    a400:	0000de08 	andeq	sp, r0, r8, lsl #28
    a404:	0000e4b8 			; <UNDEFINED> instruction: 0x0000e4b8
    a408:	0000de14 	andeq	sp, r0, r4, lsl lr
    a40c:	0000de2c 	andeq	sp, r0, ip, lsr #28
    a410:	0000de38 	andeq	sp, r0, r8, lsr lr

0000a414 <_ZN11CFilesystem4OpenEPKc15NFile_Open_Mode>:
_ZN11CFilesystem4OpenEPKc15NFile_Open_Mode():
/home/silhavyj/School/ZeroMate/examples/15-DPP_01_external_peripherals/kernel/src/fs/filesystem.cpp:139

IFile* CFilesystem::Open(const char* path, NFile_Open_Mode mode)
{
    a414:	e92d4800 	push	{fp, lr}
    a418:	e28db004 	add	fp, sp, #4
    a41c:	e24dd030 	sub	sp, sp, #48	; 0x30
    a420:	e50b0028 	str	r0, [fp, #-40]	; 0xffffffd8
    a424:	e50b102c 	str	r1, [fp, #-44]	; 0xffffffd4
    a428:	e50b2030 	str	r2, [fp, #-48]	; 0xffffffd0
/home/silhavyj/School/ZeroMate/examples/15-DPP_01_external_peripherals/kernel/src/fs/filesystem.cpp:142
    char tmpName[MaxFilenameLength];
    const char* mpPtr;
    sMonitor << "opening file: " << path << "\n";
    a42c:	e59f1238 	ldr	r1, [pc, #568]	; a66c <_ZN11CFilesystem4OpenEPKc15NFile_Open_Mode+0x258>
    a430:	e59f0238 	ldr	r0, [pc, #568]	; a670 <_ZN11CFilesystem4OpenEPKc15NFile_Open_Mode+0x25c>
    a434:	ebfffa33 	bl	8d08 <_ZN8CMonitorlsEPKc>
    a438:	e1a03000 	mov	r3, r0
    a43c:	e51b102c 	ldr	r1, [fp, #-44]	; 0xffffffd4
    a440:	e1a00003 	mov	r0, r3
    a444:	ebfffa2f 	bl	8d08 <_ZN8CMonitorlsEPKc>
    a448:	e1a03000 	mov	r3, r0
    a44c:	e59f1220 	ldr	r1, [pc, #544]	; a674 <_ZN11CFilesystem4OpenEPKc15NFile_Open_Mode+0x260>
    a450:	e1a00003 	mov	r0, r3
    a454:	ebfffa2b 	bl	8d08 <_ZN8CMonitorlsEPKc>
/home/silhavyj/School/ZeroMate/examples/15-DPP_01_external_peripherals/kernel/src/fs/filesystem.cpp:146

    int j;

    mpPtr = path;
    a458:	e51b302c 	ldr	r3, [fp, #-44]	; 0xffffffd4
    a45c:	e50b3008 	str	r3, [fp, #-8]
/home/silhavyj/School/ZeroMate/examples/15-DPP_01_external_peripherals/kernel/src/fs/filesystem.cpp:148

    TFS_Tree_Node* node = &mRoot, *tmpNode = nullptr;
    a460:	e51b3028 	ldr	r3, [fp, #-40]	; 0xffffffd8
    a464:	e50b3010 	str	r3, [fp, #-16]
    a468:	e3a03000 	mov	r3, #0
    a46c:	e50b3014 	str	r3, [fp, #-20]	; 0xffffffec
/home/silhavyj/School/ZeroMate/examples/15-DPP_01_external_peripherals/kernel/src/fs/filesystem.cpp:150

    while (mpPtr[0] != '\0')
    a470:	e51b3008 	ldr	r3, [fp, #-8]
    a474:	e5d33000 	ldrb	r3, [r3]
    a478:	e3530000 	cmp	r3, #0
    a47c:	0a00006b 	beq	a630 <_ZN11CFilesystem4OpenEPKc15NFile_Open_Mode+0x21c>
/home/silhavyj/School/ZeroMate/examples/15-DPP_01_external_peripherals/kernel/src/fs/filesystem.cpp:152
    {
        for (j = 0; j < MaxPathLength && mpPtr[j] != '\0'; j++)
    a480:	e3a03000 	mov	r3, #0
    a484:	e50b300c 	str	r3, [fp, #-12]
/home/silhavyj/School/ZeroMate/examples/15-DPP_01_external_peripherals/kernel/src/fs/filesystem.cpp:152 (discriminator 1)
    a488:	e51b300c 	ldr	r3, [fp, #-12]
    a48c:	e353007f 	cmp	r3, #127	; 0x7f
    a490:	8a00001e 	bhi	a510 <_ZN11CFilesystem4OpenEPKc15NFile_Open_Mode+0xfc>
/home/silhavyj/School/ZeroMate/examples/15-DPP_01_external_peripherals/kernel/src/fs/filesystem.cpp:152 (discriminator 2)
    a494:	e51b300c 	ldr	r3, [fp, #-12]
    a498:	e51b2008 	ldr	r2, [fp, #-8]
    a49c:	e0823003 	add	r3, r2, r3
    a4a0:	e5d33000 	ldrb	r3, [r3]
    a4a4:	e3530000 	cmp	r3, #0
    a4a8:	0a000018 	beq	a510 <_ZN11CFilesystem4OpenEPKc15NFile_Open_Mode+0xfc>
/home/silhavyj/School/ZeroMate/examples/15-DPP_01_external_peripherals/kernel/src/fs/filesystem.cpp:154
        {
            if (mpPtr[j] == ':' || mpPtr[j] == '/')
    a4ac:	e51b300c 	ldr	r3, [fp, #-12]
    a4b0:	e51b2008 	ldr	r2, [fp, #-8]
    a4b4:	e0823003 	add	r3, r2, r3
    a4b8:	e5d33000 	ldrb	r3, [r3]
    a4bc:	e353003a 	cmp	r3, #58	; 0x3a
    a4c0:	0a000012 	beq	a510 <_ZN11CFilesystem4OpenEPKc15NFile_Open_Mode+0xfc>
/home/silhavyj/School/ZeroMate/examples/15-DPP_01_external_peripherals/kernel/src/fs/filesystem.cpp:154 (discriminator 1)
    a4c4:	e51b300c 	ldr	r3, [fp, #-12]
    a4c8:	e51b2008 	ldr	r2, [fp, #-8]
    a4cc:	e0823003 	add	r3, r2, r3
    a4d0:	e5d33000 	ldrb	r3, [r3]
    a4d4:	e353002f 	cmp	r3, #47	; 0x2f
    a4d8:	0a00000c 	beq	a510 <_ZN11CFilesystem4OpenEPKc15NFile_Open_Mode+0xfc>
/home/silhavyj/School/ZeroMate/examples/15-DPP_01_external_peripherals/kernel/src/fs/filesystem.cpp:157 (discriminator 3)
                break;

            tmpName[j] = mpPtr[j];
    a4dc:	e51b300c 	ldr	r3, [fp, #-12]
    a4e0:	e51b2008 	ldr	r2, [fp, #-8]
    a4e4:	e0823003 	add	r3, r2, r3
    a4e8:	e5d31000 	ldrb	r1, [r3]
    a4ec:	e24b2024 	sub	r2, fp, #36	; 0x24
    a4f0:	e51b300c 	ldr	r3, [fp, #-12]
    a4f4:	e0823003 	add	r3, r2, r3
    a4f8:	e1a02001 	mov	r2, r1
    a4fc:	e5c32000 	strb	r2, [r3]
/home/silhavyj/School/ZeroMate/examples/15-DPP_01_external_peripherals/kernel/src/fs/filesystem.cpp:152 (discriminator 3)
        for (j = 0; j < MaxPathLength && mpPtr[j] != '\0'; j++)
    a500:	e51b300c 	ldr	r3, [fp, #-12]
    a504:	e2833001 	add	r3, r3, #1
    a508:	e50b300c 	str	r3, [fp, #-12]
    a50c:	eaffffdd 	b	a488 <_ZN11CFilesystem4OpenEPKc15NFile_Open_Mode+0x74>
/home/silhavyj/School/ZeroMate/examples/15-DPP_01_external_peripherals/kernel/src/fs/filesystem.cpp:160
        }

        tmpName[j] = '\0';
    a510:	e24b2024 	sub	r2, fp, #36	; 0x24
    a514:	e51b300c 	ldr	r3, [fp, #-12]
    a518:	e0823003 	add	r3, r2, r3
    a51c:	e3a02000 	mov	r2, #0
    a520:	e5c32000 	strb	r2, [r3]
/home/silhavyj/School/ZeroMate/examples/15-DPP_01_external_peripherals/kernel/src/fs/filesystem.cpp:162

        mpPtr += j;
    a524:	e51b300c 	ldr	r3, [fp, #-12]
    a528:	e51b2008 	ldr	r2, [fp, #-8]
    a52c:	e0823003 	add	r3, r2, r3
    a530:	e50b3008 	str	r3, [fp, #-8]
/home/silhavyj/School/ZeroMate/examples/15-DPP_01_external_peripherals/kernel/src/fs/filesystem.cpp:163
        if (mpPtr[0] != '\0')
    a534:	e51b3008 	ldr	r3, [fp, #-8]
    a538:	e5d33000 	ldrb	r3, [r3]
    a53c:	e3530000 	cmp	r3, #0
    a540:	0a000002 	beq	a550 <_ZN11CFilesystem4OpenEPKc15NFile_Open_Mode+0x13c>
/home/silhavyj/School/ZeroMate/examples/15-DPP_01_external_peripherals/kernel/src/fs/filesystem.cpp:165
        {
            mpPtr += 1;
    a544:	e51b3008 	ldr	r3, [fp, #-8]
    a548:	e2833001 	add	r3, r3, #1
    a54c:	e50b3008 	str	r3, [fp, #-8]
/home/silhavyj/School/ZeroMate/examples/15-DPP_01_external_peripherals/kernel/src/fs/filesystem.cpp:168
        }

        tmpNode = node->Find_Child(tmpName);
    a550:	e24b3024 	sub	r3, fp, #36	; 0x24
    a554:	e1a01003 	mov	r1, r3
    a558:	e51b0010 	ldr	r0, [fp, #-16]
    a55c:	ebfffeb4 	bl	a034 <_ZN11CFilesystem13TFS_Tree_Node10Find_ChildEPKc>
    a560:	e50b0014 	str	r0, [fp, #-20]	; 0xffffffec
/home/silhavyj/School/ZeroMate/examples/15-DPP_01_external_peripherals/kernel/src/fs/filesystem.cpp:169
        if (tmpNode)
    a564:	e51b3014 	ldr	r3, [fp, #-20]	; 0xffffffec
    a568:	e3530000 	cmp	r3, #0
    a56c:	0a000001 	beq	a578 <_ZN11CFilesystem4OpenEPKc15NFile_Open_Mode+0x164>
/home/silhavyj/School/ZeroMate/examples/15-DPP_01_external_peripherals/kernel/src/fs/filesystem.cpp:170
            node = tmpNode;
    a570:	e51b3014 	ldr	r3, [fp, #-20]	; 0xffffffec
    a574:	e50b3010 	str	r3, [fp, #-16]
/home/silhavyj/School/ZeroMate/examples/15-DPP_01_external_peripherals/kernel/src/fs/filesystem.cpp:172

        if (tmpNode->driver_idx != NoFilesystemDriver)
    a578:	e51b3014 	ldr	r3, [fp, #-20]	; 0xffffffec
    a57c:	e5933014 	ldr	r3, [r3, #20]
    a580:	e3730001 	cmn	r3, #1
    a584:	0a000021 	beq	a610 <_ZN11CFilesystem4OpenEPKc15NFile_Open_Mode+0x1fc>
/home/silhavyj/School/ZeroMate/examples/15-DPP_01_external_peripherals/kernel/src/fs/filesystem.cpp:174
        {
            return gFS_Drivers[tmpNode->driver_idx].driver->Open_File(mpPtr, mode);
    a588:	e51b3014 	ldr	r3, [fp, #-20]	; 0xffffffec
    a58c:	e5932014 	ldr	r2, [r3, #20]
    a590:	e59f10e0 	ldr	r1, [pc, #224]	; a678 <_ZN11CFilesystem4OpenEPKc15NFile_Open_Mode+0x264>
    a594:	e1a03002 	mov	r3, r2
    a598:	e1a03083 	lsl	r3, r3, #1
    a59c:	e0833002 	add	r3, r3, r2
    a5a0:	e1a03183 	lsl	r3, r3, #3
    a5a4:	e0813003 	add	r3, r1, r3
    a5a8:	e2833014 	add	r3, r3, #20
    a5ac:	e5930000 	ldr	r0, [r3]
    a5b0:	e51b3014 	ldr	r3, [fp, #-20]	; 0xffffffec
    a5b4:	e5932014 	ldr	r2, [r3, #20]
    a5b8:	e1a03002 	mov	r3, r2
    a5bc:	e1a03083 	lsl	r3, r3, #1
    a5c0:	e0833002 	add	r3, r3, r2
    a5c4:	e1a03183 	lsl	r3, r3, #3
    a5c8:	e51b3014 	ldr	r3, [fp, #-20]	; 0xffffffec
    a5cc:	e5932014 	ldr	r2, [r3, #20]
    a5d0:	e59f10a0 	ldr	r1, [pc, #160]	; a678 <_ZN11CFilesystem4OpenEPKc15NFile_Open_Mode+0x264>
    a5d4:	e1a03002 	mov	r3, r2
    a5d8:	e1a03083 	lsl	r3, r3, #1
    a5dc:	e0833002 	add	r3, r3, r2
    a5e0:	e1a03183 	lsl	r3, r3, #3
    a5e4:	e0813003 	add	r3, r1, r3
    a5e8:	e2833014 	add	r3, r3, #20
    a5ec:	e5933000 	ldr	r3, [r3]
    a5f0:	e5933000 	ldr	r3, [r3]
    a5f4:	e2833004 	add	r3, r3, #4
    a5f8:	e5933000 	ldr	r3, [r3]
    a5fc:	e51b2030 	ldr	r2, [fp, #-48]	; 0xffffffd0
    a600:	e51b1008 	ldr	r1, [fp, #-8]
    a604:	e12fff33 	blx	r3
    a608:	e1a03000 	mov	r3, r0
    a60c:	ea000013 	b	a660 <_ZN11CFilesystem4OpenEPKc15NFile_Open_Mode+0x24c>
/home/silhavyj/School/ZeroMate/examples/15-DPP_01_external_peripherals/kernel/src/fs/filesystem.cpp:176
        }
        else if (!tmpNode->isDirectory)
    a610:	e51b3014 	ldr	r3, [fp, #-20]	; 0xffffffec
    a614:	e5d33010 	ldrb	r3, [r3, #16]
    a618:	e2233001 	eor	r3, r3, #1
    a61c:	e6ef3073 	uxtb	r3, r3
    a620:	e3530000 	cmp	r3, #0
    a624:	1a000000 	bne	a62c <_ZN11CFilesystem4OpenEPKc15NFile_Open_Mode+0x218>
/home/silhavyj/School/ZeroMate/examples/15-DPP_01_external_peripherals/kernel/src/fs/filesystem.cpp:150
    while (mpPtr[0] != '\0')
    a628:	eaffff90 	b	a470 <_ZN11CFilesystem4OpenEPKc15NFile_Open_Mode+0x5c>
/home/silhavyj/School/ZeroMate/examples/15-DPP_01_external_peripherals/kernel/src/fs/filesystem.cpp:177
            break;
    a62c:	e320f000 	nop	{0}
/home/silhavyj/School/ZeroMate/examples/15-DPP_01_external_peripherals/kernel/src/fs/filesystem.cpp:180
    }

    sMonitor << "failed to open: " << path << "\n";
    a630:	e59f1044 	ldr	r1, [pc, #68]	; a67c <_ZN11CFilesystem4OpenEPKc15NFile_Open_Mode+0x268>
    a634:	e59f0034 	ldr	r0, [pc, #52]	; a670 <_ZN11CFilesystem4OpenEPKc15NFile_Open_Mode+0x25c>
    a638:	ebfff9b2 	bl	8d08 <_ZN8CMonitorlsEPKc>
    a63c:	e1a03000 	mov	r3, r0
    a640:	e51b102c 	ldr	r1, [fp, #-44]	; 0xffffffd4
    a644:	e1a00003 	mov	r0, r3
    a648:	ebfff9ae 	bl	8d08 <_ZN8CMonitorlsEPKc>
    a64c:	e1a03000 	mov	r3, r0
    a650:	e59f101c 	ldr	r1, [pc, #28]	; a674 <_ZN11CFilesystem4OpenEPKc15NFile_Open_Mode+0x260>
    a654:	e1a00003 	mov	r0, r3
    a658:	ebfff9aa 	bl	8d08 <_ZN8CMonitorlsEPKc>
/home/silhavyj/School/ZeroMate/examples/15-DPP_01_external_peripherals/kernel/src/fs/filesystem.cpp:183

    // zadny filesystem se tohoto uzlu "neujal" -> soubor neexistuje
    return nullptr;
    a65c:	e3a03000 	mov	r3, #0
/home/silhavyj/School/ZeroMate/examples/15-DPP_01_external_peripherals/kernel/src/fs/filesystem.cpp:184 (discriminator 1)
}
    a660:	e1a00003 	mov	r0, r3
    a664:	e24bd004 	sub	sp, fp, #4
    a668:	e8bd8800 	pop	{fp, pc}
    a66c:	0000de58 	andeq	sp, r0, r8, asr lr
    a670:	0000e3d0 	ldrdeq	lr, [r0], -r0
    a674:	0000dde8 	andeq	sp, r0, r8, ror #27
    a678:	0000def0 	strdeq	sp, [r0], -r0
    a67c:	0000de68 	andeq	sp, r0, r8, ror #28

0000a680 <_Z41__static_initialization_and_destruction_0ii>:
_Z41__static_initialization_and_destruction_0ii():
/home/silhavyj/School/ZeroMate/examples/15-DPP_01_external_peripherals/kernel/src/fs/filesystem.cpp:184
    a680:	e92d4800 	push	{fp, lr}
    a684:	e28db004 	add	fp, sp, #4
    a688:	e24dd008 	sub	sp, sp, #8
    a68c:	e50b0008 	str	r0, [fp, #-8]
    a690:	e50b100c 	str	r1, [fp, #-12]
    a694:	e51b3008 	ldr	r3, [fp, #-8]
    a698:	e3530001 	cmp	r3, #1
    a69c:	1a000005 	bne	a6b8 <_Z41__static_initialization_and_destruction_0ii+0x38>
/home/silhavyj/School/ZeroMate/examples/15-DPP_01_external_peripherals/kernel/src/fs/filesystem.cpp:184 (discriminator 1)
    a6a0:	e51b300c 	ldr	r3, [fp, #-12]
    a6a4:	e59f2018 	ldr	r2, [pc, #24]	; a6c4 <_Z41__static_initialization_and_destruction_0ii+0x44>
    a6a8:	e1530002 	cmp	r3, r2
    a6ac:	1a000001 	bne	a6b8 <_Z41__static_initialization_and_destruction_0ii+0x38>
/home/silhavyj/School/ZeroMate/examples/15-DPP_01_external_peripherals/kernel/src/fs/filesystem.cpp:8
CFilesystem sFilesystem;
    a6b0:	e59f0010 	ldr	r0, [pc, #16]	; a6c8 <_Z41__static_initialization_and_destruction_0ii+0x48>
    a6b4:	ebfffdf0 	bl	9e7c <_ZN11CFilesystemC1Ev>
/home/silhavyj/School/ZeroMate/examples/15-DPP_01_external_peripherals/kernel/src/fs/filesystem.cpp:184
}
    a6b8:	e320f000 	nop	{0}
    a6bc:	e24bd004 	sub	sp, fp, #4
    a6c0:	e8bd8800 	pop	{fp, pc}
    a6c4:	0000ffff 	strdeq	pc, [r0], -pc	; <UNPREDICTABLE>
    a6c8:	0000e41c 	andeq	lr, r0, ip, lsl r4

0000a6cc <_GLOBAL__sub_I_sFilesystem>:
_GLOBAL__sub_I_sFilesystem():
/home/silhavyj/School/ZeroMate/examples/15-DPP_01_external_peripherals/kernel/src/fs/filesystem.cpp:184
    a6cc:	e92d4800 	push	{fp, lr}
    a6d0:	e28db004 	add	fp, sp, #4
    a6d4:	e59f1008 	ldr	r1, [pc, #8]	; a6e4 <_GLOBAL__sub_I_sFilesystem+0x18>
    a6d8:	e3a00001 	mov	r0, #1
    a6dc:	ebffffe7 	bl	a680 <_Z41__static_initialization_and_destruction_0ii>
    a6e0:	e8bd8800 	pop	{fp, pc}
    a6e4:	0000ffff 	strdeq	pc, [r0], -pc	; <UNPREDICTABLE>

0000a6e8 <_ZN11CFilesystem13TFS_Tree_NodeC1Ev>:
_ZN11CFilesystem13TFS_Tree_NodeC2Ev():
/home/silhavyj/School/ZeroMate/examples/15-DPP_01_external_peripherals/kernel/include/fs/filesystem.h:64

class CFilesystem
{
    private:
        // uzel filesystemu, ktery neni spravovan zadnym FS driverem
        struct TFS_Tree_Node
    a6e8:	e52db004 	push	{fp}		; (str fp, [sp, #-4]!)
    a6ec:	e28db000 	add	fp, sp, #0
    a6f0:	e24dd00c 	sub	sp, sp, #12
    a6f4:	e50b0008 	str	r0, [fp, #-8]
    a6f8:	e51b3008 	ldr	r3, [fp, #-8]
    a6fc:	e3a02000 	mov	r2, #0
    a700:	e5c32010 	strb	r2, [r3, #16]
    a704:	e51b3008 	ldr	r3, [fp, #-8]
    a708:	e3e02000 	mvn	r2, #0
    a70c:	e5832014 	str	r2, [r3, #20]
    a710:	e51b3008 	ldr	r3, [fp, #-8]
    a714:	e1a00003 	mov	r0, r3
    a718:	e28bd000 	add	sp, fp, #0
    a71c:	e49db004 	pop	{fp}		; (ldr fp, [sp], #4)
    a720:	e12fff1e 	bx	lr

0000a724 <_ZN20CKernel_Heap_Manager5AllocIN11CFilesystem13TFS_Tree_NodeEEEPT_v>:
_ZN20CKernel_Heap_Manager5AllocIN11CFilesystem13TFS_Tree_NodeEEEPT_v():
/home/silhavyj/School/ZeroMate/examples/15-DPP_01_external_peripherals/kernel/include/memory/kernel_heap.h:30

        void* Alloc(uint32_t size);
        void Free(void* mem);

        template<class T>
        T* Alloc()
    a724:	e92d4800 	push	{fp, lr}
    a728:	e28db004 	add	fp, sp, #4
    a72c:	e24dd008 	sub	sp, sp, #8
    a730:	e50b0008 	str	r0, [fp, #-8]
/home/silhavyj/School/ZeroMate/examples/15-DPP_01_external_peripherals/kernel/include/memory/kernel_heap.h:32
        {
            return reinterpret_cast<T*>(Alloc(sizeof(T)));
    a734:	e3a01024 	mov	r1, #36	; 0x24
    a738:	e51b0008 	ldr	r0, [fp, #-8]
    a73c:	eb000529 	bl	bbe8 <_ZN20CKernel_Heap_Manager5AllocEj>
    a740:	e1a03000 	mov	r3, r0
/home/silhavyj/School/ZeroMate/examples/15-DPP_01_external_peripherals/kernel/include/memory/kernel_heap.h:33
        }
    a744:	e1a00003 	mov	r0, r3
    a748:	e24bd004 	sub	sp, fp, #4
    a74c:	e8bd8800 	pop	{fp, pc}

0000a750 <_ZN5IFile4ReadEPcj>:
_ZN5IFile4ReadEPcj():
/home/silhavyj/School/ZeroMate/examples/15-DPP_01_external_peripherals/kernel/include/fs/filesystem.h:40
        virtual uint32_t Read(char* buffer, uint32_t num) { return 0; };
    a750:	e52db004 	push	{fp}		; (str fp, [sp, #-4]!)
    a754:	e28db000 	add	fp, sp, #0
    a758:	e24dd014 	sub	sp, sp, #20
    a75c:	e50b0008 	str	r0, [fp, #-8]
    a760:	e50b100c 	str	r1, [fp, #-12]
    a764:	e50b2010 	str	r2, [fp, #-16]
    a768:	e3a03000 	mov	r3, #0
    a76c:	e1a00003 	mov	r0, r3
    a770:	e28bd000 	add	sp, fp, #0
    a774:	e49db004 	pop	{fp}		; (ldr fp, [sp], #4)
    a778:	e12fff1e 	bx	lr

0000a77c <_ZN5IFile5WriteEPKcj>:
_ZN5IFile5WriteEPKcj():
/home/silhavyj/School/ZeroMate/examples/15-DPP_01_external_peripherals/kernel/include/fs/filesystem.h:42
        virtual uint32_t Write(const char* buffer, uint32_t num) { return 0; };
    a77c:	e52db004 	push	{fp}		; (str fp, [sp, #-4]!)
    a780:	e28db000 	add	fp, sp, #0
    a784:	e24dd014 	sub	sp, sp, #20
    a788:	e50b0008 	str	r0, [fp, #-8]
    a78c:	e50b100c 	str	r1, [fp, #-12]
    a790:	e50b2010 	str	r2, [fp, #-16]
    a794:	e3a03000 	mov	r3, #0
    a798:	e1a00003 	mov	r0, r3
    a79c:	e28bd000 	add	sp, fp, #0
    a7a0:	e49db004 	pop	{fp}		; (ldr fp, [sp], #4)
    a7a4:	e12fff1e 	bx	lr

0000a7a8 <_ZN5IFile5CloseEv>:
_ZN5IFile5CloseEv():
/home/silhavyj/School/ZeroMate/examples/15-DPP_01_external_peripherals/kernel/include/fs/filesystem.h:44
        virtual bool Close() { return true; };
    a7a8:	e52db004 	push	{fp}		; (str fp, [sp, #-4]!)
    a7ac:	e28db000 	add	fp, sp, #0
    a7b0:	e24dd00c 	sub	sp, sp, #12
    a7b4:	e50b0008 	str	r0, [fp, #-8]
    a7b8:	e3a03001 	mov	r3, #1
    a7bc:	e1a00003 	mov	r0, r3
    a7c0:	e28bd000 	add	sp, fp, #0
    a7c4:	e49db004 	pop	{fp}		; (ldr fp, [sp], #4)
    a7c8:	e12fff1e 	bx	lr

0000a7cc <_ZN5IFile5IOCtlE16NIOCtl_OperationPv>:
_ZN5IFile5IOCtlE16NIOCtl_OperationPv():
/home/silhavyj/School/ZeroMate/examples/15-DPP_01_external_peripherals/kernel/include/fs/filesystem.h:46
        virtual bool IOCtl(NIOCtl_Operation dir, void* ctlptr) { return false; };
    a7cc:	e52db004 	push	{fp}		; (str fp, [sp, #-4]!)
    a7d0:	e28db000 	add	fp, sp, #0
    a7d4:	e24dd014 	sub	sp, sp, #20
    a7d8:	e50b0008 	str	r0, [fp, #-8]
    a7dc:	e50b100c 	str	r1, [fp, #-12]
    a7e0:	e50b2010 	str	r2, [fp, #-16]
    a7e4:	e3a03000 	mov	r3, #0
    a7e8:	e1a00003 	mov	r0, r3
    a7ec:	e28bd000 	add	sp, fp, #0
    a7f0:	e49db004 	pop	{fp}		; (ldr fp, [sp], #4)
    a7f4:	e12fff1e 	bx	lr

0000a7f8 <_Znwj>:
_Znwj():
/home/silhavyj/School/ZeroMate/examples/15-DPP_01_external_peripherals/kernel/include/memory/kernel_heap.h:42

// pomocne implementace pro kernel heap - tento soubor je includovat vyhradne z kernel-only implementaci, a tak proste jen presmerujeme
// vsechna volani new/delete na tyto implementace, ktere alokuji a uvolnuji pamet z haldy jadra

inline void* operator new(uint32_t size)
{
    a7f8:	e92d4800 	push	{fp, lr}
    a7fc:	e28db004 	add	fp, sp, #4
    a800:	e24dd008 	sub	sp, sp, #8
    a804:	e50b0008 	str	r0, [fp, #-8]
/home/silhavyj/School/ZeroMate/examples/15-DPP_01_external_peripherals/kernel/include/memory/kernel_heap.h:43
    return sKernelMem.Alloc(size);
    a808:	e51b1008 	ldr	r1, [fp, #-8]
    a80c:	e59f0010 	ldr	r0, [pc, #16]	; a824 <_Znwj+0x2c>
    a810:	eb0004f4 	bl	bbe8 <_ZN20CKernel_Heap_Manager5AllocEj>
    a814:	e1a03000 	mov	r3, r0
/home/silhavyj/School/ZeroMate/examples/15-DPP_01_external_peripherals/kernel/include/memory/kernel_heap.h:44
}
    a818:	e1a00003 	mov	r0, r3
    a81c:	e24bd004 	sub	sp, fp, #4
    a820:	e8bd8800 	pop	{fp, pc}
    a824:	0000e4b8 			; <UNDEFINED> instruction: 0x0000e4b8

0000a828 <_ZdlPvj>:
_ZdlPvj():
/home/silhavyj/School/ZeroMate/examples/15-DPP_01_external_peripherals/kernel/include/memory/kernel_heap.h:62
{
    sKernelMem.Free(p);
}

inline void operator delete(void* p, uint32_t)
{
    a828:	e92d4800 	push	{fp, lr}
    a82c:	e28db004 	add	fp, sp, #4
    a830:	e24dd008 	sub	sp, sp, #8
    a834:	e50b0008 	str	r0, [fp, #-8]
    a838:	e50b100c 	str	r1, [fp, #-12]
/home/silhavyj/School/ZeroMate/examples/15-DPP_01_external_peripherals/kernel/include/memory/kernel_heap.h:63
    sKernelMem.Free(p);
    a83c:	e51b1008 	ldr	r1, [fp, #-8]
    a840:	e59f000c 	ldr	r0, [pc, #12]	; a854 <_ZdlPvj+0x2c>
    a844:	eb00053a 	bl	bd34 <_ZN20CKernel_Heap_Manager4FreeEPv>
/home/silhavyj/School/ZeroMate/examples/15-DPP_01_external_peripherals/kernel/include/memory/kernel_heap.h:64
}
    a848:	e320f000 	nop	{0}
    a84c:	e24bd004 	sub	sp, fp, #4
    a850:	e8bd8800 	pop	{fp, pc}
    a854:	0000e4b8 			; <UNDEFINED> instruction: 0x0000e4b8

0000a858 <_ZN5IFileC1Ev>:
_ZN5IFileC2Ev():
/home/silhavyj/School/ZeroMate/examples/15-DPP_01_external_peripherals/kernel/include/fs/filesystem.h:34
class IFile
    a858:	e52db004 	push	{fp}		; (str fp, [sp, #-4]!)
    a85c:	e28db000 	add	fp, sp, #0
    a860:	e24dd00c 	sub	sp, sp, #12
    a864:	e50b0008 	str	r0, [fp, #-8]
    a868:	e59f2018 	ldr	r2, [pc, #24]	; a888 <_ZN5IFileC1Ev+0x30>
    a86c:	e51b3008 	ldr	r3, [fp, #-8]
    a870:	e5832000 	str	r2, [r3]
    a874:	e51b3008 	ldr	r3, [fp, #-8]
    a878:	e1a00003 	mov	r0, r3
    a87c:	e28bd000 	add	sp, fp, #0
    a880:	e49db004 	pop	{fp}		; (ldr fp, [sp], #4)
    a884:	e12fff1e 	bx	lr
    a888:	0000e364 	andeq	lr, r0, r4, ror #6

0000a88c <_ZN5IFileD1Ev>:
_ZN5IFileD2Ev():
/home/silhavyj/School/ZeroMate/examples/15-DPP_01_external_peripherals/kernel/include/fs/filesystem.h:37
        virtual ~IFile() = default;
    a88c:	e52db004 	push	{fp}		; (str fp, [sp, #-4]!)
    a890:	e28db000 	add	fp, sp, #0
    a894:	e24dd00c 	sub	sp, sp, #12
    a898:	e50b0008 	str	r0, [fp, #-8]
    a89c:	e59f2018 	ldr	r2, [pc, #24]	; a8bc <_ZN5IFileD1Ev+0x30>
    a8a0:	e51b3008 	ldr	r3, [fp, #-8]
    a8a4:	e5832000 	str	r2, [r3]
    a8a8:	e51b3008 	ldr	r3, [fp, #-8]
    a8ac:	e1a00003 	mov	r0, r3
    a8b0:	e28bd000 	add	sp, fp, #0
    a8b4:	e49db004 	pop	{fp}		; (ldr fp, [sp], #4)
    a8b8:	e12fff1e 	bx	lr
    a8bc:	0000e364 	andeq	lr, r0, r4, ror #6

0000a8c0 <_ZN5IFileD0Ev>:
_ZN5IFileD0Ev():
/home/silhavyj/School/ZeroMate/examples/15-DPP_01_external_peripherals/kernel/include/fs/filesystem.h:37
    a8c0:	e92d4800 	push	{fp, lr}
    a8c4:	e28db004 	add	fp, sp, #4
    a8c8:	e24dd008 	sub	sp, sp, #8
    a8cc:	e50b0008 	str	r0, [fp, #-8]
    a8d0:	e51b0008 	ldr	r0, [fp, #-8]
    a8d4:	ebffffec 	bl	a88c <_ZN5IFileD1Ev>
    a8d8:	e3a01004 	mov	r1, #4
    a8dc:	e51b0008 	ldr	r0, [fp, #-8]
    a8e0:	ebffffd0 	bl	a828 <_ZdlPvj>
    a8e4:	e51b3008 	ldr	r3, [fp, #-8]
    a8e8:	e1a00003 	mov	r0, r3
    a8ec:	e24bd004 	sub	sp, fp, #4
    a8f0:	e8bd8800 	pop	{fp, pc}

0000a8f4 <_ZN10CGPIO_FileC1Eibb>:
_ZN10CGPIO_FileC2Eibb():
/home/silhavyj/School/ZeroMate/examples/15-DPP_01_external_peripherals/kernel/include/fs/drivers/gpio_fs.h:21
        bool mRead;
        // byl pin rezervovan pro zapis?
        bool mWrite;

    public:
        CGPIO_File(int pinNo, bool read, bool write)
    a8f4:	e92d4800 	push	{fp, lr}
    a8f8:	e28db004 	add	fp, sp, #4
    a8fc:	e24dd010 	sub	sp, sp, #16
    a900:	e50b0008 	str	r0, [fp, #-8]
    a904:	e50b100c 	str	r1, [fp, #-12]
    a908:	e1a01002 	mov	r1, r2
    a90c:	e1a02003 	mov	r2, r3
    a910:	e1a03001 	mov	r3, r1
    a914:	e54b300d 	strb	r3, [fp, #-13]
    a918:	e1a03002 	mov	r3, r2
    a91c:	e54b300e 	strb	r3, [fp, #-14]
/home/silhavyj/School/ZeroMate/examples/15-DPP_01_external_peripherals/kernel/include/fs/drivers/gpio_fs.h:22
            : mPinNo(pinNo), mRead(read), mWrite(write)
    a920:	e51b3008 	ldr	r3, [fp, #-8]
    a924:	e1a00003 	mov	r0, r3
    a928:	ebffffca 	bl	a858 <_ZN5IFileC1Ev>
    a92c:	e59f2038 	ldr	r2, [pc, #56]	; a96c <_ZN10CGPIO_FileC1Eibb+0x78>
    a930:	e51b3008 	ldr	r3, [fp, #-8]
    a934:	e5832000 	str	r2, [r3]
    a938:	e51b3008 	ldr	r3, [fp, #-8]
    a93c:	e51b200c 	ldr	r2, [fp, #-12]
    a940:	e5832004 	str	r2, [r3, #4]
    a944:	e51b3008 	ldr	r3, [fp, #-8]
    a948:	e55b200d 	ldrb	r2, [fp, #-13]
    a94c:	e5c32008 	strb	r2, [r3, #8]
    a950:	e51b3008 	ldr	r3, [fp, #-8]
    a954:	e55b200e 	ldrb	r2, [fp, #-14]
    a958:	e5c32009 	strb	r2, [r3, #9]
/home/silhavyj/School/ZeroMate/examples/15-DPP_01_external_peripherals/kernel/include/fs/drivers/gpio_fs.h:25
        {
            //
        }
    a95c:	e51b3008 	ldr	r3, [fp, #-8]
    a960:	e1a00003 	mov	r0, r3
    a964:	e24bd004 	sub	sp, fp, #4
    a968:	e8bd8800 	pop	{fp, pc}
    a96c:	0000e344 	andeq	lr, r0, r4, asr #6

0000a970 <_ZN10CGPIO_FileD1Ev>:
_ZN10CGPIO_FileD2Ev():
/home/silhavyj/School/ZeroMate/examples/15-DPP_01_external_peripherals/kernel/include/fs/drivers/gpio_fs.h:27

        ~CGPIO_File()
    a970:	e92d4800 	push	{fp, lr}
    a974:	e28db004 	add	fp, sp, #4
    a978:	e24dd008 	sub	sp, sp, #8
    a97c:	e50b0008 	str	r0, [fp, #-8]
/home/silhavyj/School/ZeroMate/examples/15-DPP_01_external_peripherals/kernel/include/fs/drivers/gpio_fs.h:28
        {
    a980:	e59f2028 	ldr	r2, [pc, #40]	; a9b0 <_ZN10CGPIO_FileD1Ev+0x40>
    a984:	e51b3008 	ldr	r3, [fp, #-8]
    a988:	e5832000 	str	r2, [r3]
/home/silhavyj/School/ZeroMate/examples/15-DPP_01_external_peripherals/kernel/include/fs/drivers/gpio_fs.h:30
            // pokud jeste je otevreny, zavreme
            Close();
    a98c:	e51b0008 	ldr	r0, [fp, #-8]
    a990:	eb000053 	bl	aae4 <_ZN10CGPIO_File5CloseEv>
/home/silhavyj/School/ZeroMate/examples/15-DPP_01_external_peripherals/kernel/include/fs/drivers/gpio_fs.h:28
        {
    a994:	e51b3008 	ldr	r3, [fp, #-8]
    a998:	e1a00003 	mov	r0, r3
    a99c:	ebffffba 	bl	a88c <_ZN5IFileD1Ev>
/home/silhavyj/School/ZeroMate/examples/15-DPP_01_external_peripherals/kernel/include/fs/drivers/gpio_fs.h:31
        }
    a9a0:	e51b3008 	ldr	r3, [fp, #-8]
    a9a4:	e1a00003 	mov	r0, r3
    a9a8:	e24bd004 	sub	sp, fp, #4
    a9ac:	e8bd8800 	pop	{fp, pc}
    a9b0:	0000e344 	andeq	lr, r0, r4, asr #6

0000a9b4 <_ZN10CGPIO_FileD0Ev>:
_ZN10CGPIO_FileD0Ev():
/home/silhavyj/School/ZeroMate/examples/15-DPP_01_external_peripherals/kernel/include/fs/drivers/gpio_fs.h:27
        ~CGPIO_File()
    a9b4:	e92d4800 	push	{fp, lr}
    a9b8:	e28db004 	add	fp, sp, #4
    a9bc:	e24dd008 	sub	sp, sp, #8
    a9c0:	e50b0008 	str	r0, [fp, #-8]
/home/silhavyj/School/ZeroMate/examples/15-DPP_01_external_peripherals/kernel/include/fs/drivers/gpio_fs.h:31
        }
    a9c4:	e51b0008 	ldr	r0, [fp, #-8]
    a9c8:	ebffffe8 	bl	a970 <_ZN10CGPIO_FileD1Ev>
    a9cc:	e3a0100c 	mov	r1, #12
    a9d0:	e51b0008 	ldr	r0, [fp, #-8]
    a9d4:	ebffff93 	bl	a828 <_ZdlPvj>
    a9d8:	e51b3008 	ldr	r3, [fp, #-8]
    a9dc:	e1a00003 	mov	r0, r3
    a9e0:	e24bd004 	sub	sp, fp, #4
    a9e4:	e8bd8800 	pop	{fp, pc}

0000a9e8 <_ZN10CGPIO_File4ReadEPcj>:
_ZN10CGPIO_File4ReadEPcj():
/home/silhavyj/School/ZeroMate/examples/15-DPP_01_external_peripherals/kernel/include/fs/drivers/gpio_fs.h:33

        virtual uint32_t Read(char* buffer, uint32_t num) override
    a9e8:	e92d4800 	push	{fp, lr}
    a9ec:	e28db004 	add	fp, sp, #4
    a9f0:	e24dd010 	sub	sp, sp, #16
    a9f4:	e50b0008 	str	r0, [fp, #-8]
    a9f8:	e50b100c 	str	r1, [fp, #-12]
    a9fc:	e50b2010 	str	r2, [fp, #-16]
/home/silhavyj/School/ZeroMate/examples/15-DPP_01_external_peripherals/kernel/include/fs/drivers/gpio_fs.h:35
        {
            if (num > 0 && buffer != nullptr)
    aa00:	e51b3010 	ldr	r3, [fp, #-16]
    aa04:	e3530000 	cmp	r3, #0
    aa08:	0a000011 	beq	aa54 <_ZN10CGPIO_File4ReadEPcj+0x6c>
/home/silhavyj/School/ZeroMate/examples/15-DPP_01_external_peripherals/kernel/include/fs/drivers/gpio_fs.h:35 (discriminator 1)
    aa0c:	e51b300c 	ldr	r3, [fp, #-12]
    aa10:	e3530000 	cmp	r3, #0
    aa14:	0a00000e 	beq	aa54 <_ZN10CGPIO_File4ReadEPcj+0x6c>
/home/silhavyj/School/ZeroMate/examples/15-DPP_01_external_peripherals/kernel/include/fs/drivers/gpio_fs.h:38
            {
                // na prvni pozici v bufferu precteme bud znak 1 nebo 0 podle stavu digitalniho pinu
                buffer[0] = sGPIO.Get_Input(mPinNo) ? '1' : '0';
    aa18:	e51b3008 	ldr	r3, [fp, #-8]
    aa1c:	e5933004 	ldr	r3, [r3, #4]
    aa20:	e1a01003 	mov	r1, r3
    aa24:	e59f0038 	ldr	r0, [pc, #56]	; aa64 <_ZN10CGPIO_File4ReadEPcj+0x7c>
    aa28:	ebfff6ed 	bl	85e4 <_ZN13CGPIO_Handler9Get_InputEj>
    aa2c:	e1a03000 	mov	r3, r0
    aa30:	e3530000 	cmp	r3, #0
    aa34:	0a000001 	beq	aa40 <_ZN10CGPIO_File4ReadEPcj+0x58>
/home/silhavyj/School/ZeroMate/examples/15-DPP_01_external_peripherals/kernel/include/fs/drivers/gpio_fs.h:38 (discriminator 1)
    aa38:	e3a02031 	mov	r2, #49	; 0x31
    aa3c:	ea000000 	b	aa44 <_ZN10CGPIO_File4ReadEPcj+0x5c>
/home/silhavyj/School/ZeroMate/examples/15-DPP_01_external_peripherals/kernel/include/fs/drivers/gpio_fs.h:38 (discriminator 2)
    aa40:	e3a02030 	mov	r2, #48	; 0x30
/home/silhavyj/School/ZeroMate/examples/15-DPP_01_external_peripherals/kernel/include/fs/drivers/gpio_fs.h:38 (discriminator 4)
    aa44:	e51b300c 	ldr	r3, [fp, #-12]
    aa48:	e5c32000 	strb	r2, [r3]
/home/silhavyj/School/ZeroMate/examples/15-DPP_01_external_peripherals/kernel/include/fs/drivers/gpio_fs.h:39 (discriminator 4)
                return 1;
    aa4c:	e3a03001 	mov	r3, #1
    aa50:	ea000000 	b	aa58 <_ZN10CGPIO_File4ReadEPcj+0x70>
/home/silhavyj/School/ZeroMate/examples/15-DPP_01_external_peripherals/kernel/include/fs/drivers/gpio_fs.h:42
            }

            return 0;
    aa54:	e3a03000 	mov	r3, #0
/home/silhavyj/School/ZeroMate/examples/15-DPP_01_external_peripherals/kernel/include/fs/drivers/gpio_fs.h:43
        }
    aa58:	e1a00003 	mov	r0, r3
    aa5c:	e24bd004 	sub	sp, fp, #4
    aa60:	e8bd8800 	pop	{fp, pc}
    aa64:	0000e3bc 			; <UNDEFINED> instruction: 0x0000e3bc

0000aa68 <_ZN10CGPIO_File5WriteEPKcj>:
_ZN10CGPIO_File5WriteEPKcj():
/home/silhavyj/School/ZeroMate/examples/15-DPP_01_external_peripherals/kernel/include/fs/drivers/gpio_fs.h:45

        virtual uint32_t Write(const char* buffer, uint32_t num) override
    aa68:	e92d4800 	push	{fp, lr}
    aa6c:	e28db004 	add	fp, sp, #4
    aa70:	e24dd010 	sub	sp, sp, #16
    aa74:	e50b0008 	str	r0, [fp, #-8]
    aa78:	e50b100c 	str	r1, [fp, #-12]
    aa7c:	e50b2010 	str	r2, [fp, #-16]
/home/silhavyj/School/ZeroMate/examples/15-DPP_01_external_peripherals/kernel/include/fs/drivers/gpio_fs.h:47
        {
            if (num > 0 && buffer != nullptr)
    aa80:	e51b3010 	ldr	r3, [fp, #-16]
    aa84:	e3530000 	cmp	r3, #0
    aa88:	0a000010 	beq	aad0 <_ZN10CGPIO_File5WriteEPKcj+0x68>
/home/silhavyj/School/ZeroMate/examples/15-DPP_01_external_peripherals/kernel/include/fs/drivers/gpio_fs.h:47 (discriminator 1)
    aa8c:	e51b300c 	ldr	r3, [fp, #-12]
    aa90:	e3530000 	cmp	r3, #0
    aa94:	0a00000d 	beq	aad0 <_ZN10CGPIO_File5WriteEPKcj+0x68>
/home/silhavyj/School/ZeroMate/examples/15-DPP_01_external_peripherals/kernel/include/fs/drivers/gpio_fs.h:50
            {
                // podle prvniho znaku zapiseme bud hodnotu HIGH (true) nebo LOW (false)
                sGPIO.Set_Output(mPinNo, (buffer[0] != '0') );
    aa98:	e51b3008 	ldr	r3, [fp, #-8]
    aa9c:	e5933004 	ldr	r3, [r3, #4]
    aaa0:	e1a01003 	mov	r1, r3
    aaa4:	e51b300c 	ldr	r3, [fp, #-12]
    aaa8:	e5d33000 	ldrb	r3, [r3]
    aaac:	e3530030 	cmp	r3, #48	; 0x30
    aab0:	13a03001 	movne	r3, #1
    aab4:	03a03000 	moveq	r3, #0
    aab8:	e6ef3073 	uxtb	r3, r3
    aabc:	e1a02003 	mov	r2, r3
    aac0:	e59f0018 	ldr	r0, [pc, #24]	; aae0 <_ZN10CGPIO_File5WriteEPKcj+0x78>
    aac4:	ebfff690 	bl	850c <_ZN13CGPIO_Handler10Set_OutputEjb>
/home/silhavyj/School/ZeroMate/examples/15-DPP_01_external_peripherals/kernel/include/fs/drivers/gpio_fs.h:51
                return 1;
    aac8:	e3a03001 	mov	r3, #1
    aacc:	ea000000 	b	aad4 <_ZN10CGPIO_File5WriteEPKcj+0x6c>
/home/silhavyj/School/ZeroMate/examples/15-DPP_01_external_peripherals/kernel/include/fs/drivers/gpio_fs.h:54
            }

            return 0;
    aad0:	e3a03000 	mov	r3, #0
/home/silhavyj/School/ZeroMate/examples/15-DPP_01_external_peripherals/kernel/include/fs/drivers/gpio_fs.h:55
        }
    aad4:	e1a00003 	mov	r0, r3
    aad8:	e24bd004 	sub	sp, fp, #4
    aadc:	e8bd8800 	pop	{fp, pc}
    aae0:	0000e3bc 			; <UNDEFINED> instruction: 0x0000e3bc

0000aae4 <_ZN10CGPIO_File5CloseEv>:
_ZN10CGPIO_File5CloseEv():
/home/silhavyj/School/ZeroMate/examples/15-DPP_01_external_peripherals/kernel/include/fs/drivers/gpio_fs.h:57

        virtual bool Close() override
    aae4:	e92d4800 	push	{fp, lr}
    aae8:	e28db004 	add	fp, sp, #4
    aaec:	e24dd008 	sub	sp, sp, #8
    aaf0:	e50b0008 	str	r0, [fp, #-8]
/home/silhavyj/School/ZeroMate/examples/15-DPP_01_external_peripherals/kernel/include/fs/drivers/gpio_fs.h:59
        {
            if (!mRead && !mWrite)
    aaf4:	e51b3008 	ldr	r3, [fp, #-8]
    aaf8:	e5d33008 	ldrb	r3, [r3, #8]
    aafc:	e2233001 	eor	r3, r3, #1
    ab00:	e6ef3073 	uxtb	r3, r3
    ab04:	e3530000 	cmp	r3, #0
    ab08:	0a000007 	beq	ab2c <_ZN10CGPIO_File5CloseEv+0x48>
/home/silhavyj/School/ZeroMate/examples/15-DPP_01_external_peripherals/kernel/include/fs/drivers/gpio_fs.h:59 (discriminator 1)
    ab0c:	e51b3008 	ldr	r3, [fp, #-8]
    ab10:	e5d33009 	ldrb	r3, [r3, #9]
    ab14:	e2233001 	eor	r3, r3, #1
    ab18:	e6ef3073 	uxtb	r3, r3
    ab1c:	e3530000 	cmp	r3, #0
    ab20:	0a000001 	beq	ab2c <_ZN10CGPIO_File5CloseEv+0x48>
/home/silhavyj/School/ZeroMate/examples/15-DPP_01_external_peripherals/kernel/include/fs/drivers/gpio_fs.h:60
                return false;
    ab24:	e3a03000 	mov	r3, #0
    ab28:	ea000010 	b	ab70 <_ZN10CGPIO_File5CloseEv+0x8c>
/home/silhavyj/School/ZeroMate/examples/15-DPP_01_external_peripherals/kernel/include/fs/drivers/gpio_fs.h:63

            // uvolnime pin
            sGPIO.Free_Pin(mPinNo, mRead, mWrite);
    ab2c:	e51b3008 	ldr	r3, [fp, #-8]
    ab30:	e5933004 	ldr	r3, [r3, #4]
    ab34:	e1a01003 	mov	r1, r3
    ab38:	e51b3008 	ldr	r3, [fp, #-8]
    ab3c:	e5d32008 	ldrb	r2, [r3, #8]
    ab40:	e51b3008 	ldr	r3, [fp, #-8]
    ab44:	e5d33009 	ldrb	r3, [r3, #9]
    ab48:	e59f002c 	ldr	r0, [pc, #44]	; ab7c <_ZN10CGPIO_File5CloseEv+0x98>
    ab4c:	ebfff72b 	bl	8800 <_ZN13CGPIO_Handler8Free_PinEjbb>
/home/silhavyj/School/ZeroMate/examples/15-DPP_01_external_peripherals/kernel/include/fs/drivers/gpio_fs.h:64
            mRead = mWrite = false;
    ab50:	e51b3008 	ldr	r3, [fp, #-8]
    ab54:	e3a02000 	mov	r2, #0
    ab58:	e5c32009 	strb	r2, [r3, #9]
    ab5c:	e51b3008 	ldr	r3, [fp, #-8]
    ab60:	e5d32009 	ldrb	r2, [r3, #9]
    ab64:	e51b3008 	ldr	r3, [fp, #-8]
    ab68:	e5c32008 	strb	r2, [r3, #8]
/home/silhavyj/School/ZeroMate/examples/15-DPP_01_external_peripherals/kernel/include/fs/drivers/gpio_fs.h:66

            return true;
    ab6c:	e3a03001 	mov	r3, #1
/home/silhavyj/School/ZeroMate/examples/15-DPP_01_external_peripherals/kernel/include/fs/drivers/gpio_fs.h:67
        }
    ab70:	e1a00003 	mov	r0, r3
    ab74:	e24bd004 	sub	sp, fp, #4
    ab78:	e8bd8800 	pop	{fp, pc}
    ab7c:	0000e3bc 			; <UNDEFINED> instruction: 0x0000e3bc

0000ab80 <_ZN10CGPIO_File5IOCtlE16NIOCtl_OperationPv>:
_ZN10CGPIO_File5IOCtlE16NIOCtl_OperationPv():
/home/silhavyj/School/ZeroMate/examples/15-DPP_01_external_peripherals/kernel/include/fs/drivers/gpio_fs.h:69

        virtual bool IOCtl(NIOCtl_Operation dir, void* ctlptr) override
    ab80:	e52db004 	push	{fp}		; (str fp, [sp, #-4]!)
    ab84:	e28db000 	add	fp, sp, #0
    ab88:	e24dd014 	sub	sp, sp, #20
    ab8c:	e50b0008 	str	r0, [fp, #-8]
    ab90:	e50b100c 	str	r1, [fp, #-12]
    ab94:	e50b2010 	str	r2, [fp, #-16]
/home/silhavyj/School/ZeroMate/examples/15-DPP_01_external_peripherals/kernel/include/fs/drivers/gpio_fs.h:72
        {
            // GPIO (zatim?) neumime nijak nastavovat
            return false;
    ab98:	e3a03000 	mov	r3, #0
/home/silhavyj/School/ZeroMate/examples/15-DPP_01_external_peripherals/kernel/include/fs/drivers/gpio_fs.h:73
        }
    ab9c:	e1a00003 	mov	r0, r3
    aba0:	e28bd000 	add	sp, fp, #0
    aba4:	e49db004 	pop	{fp}		; (ldr fp, [sp], #4)
    aba8:	e12fff1e 	bx	lr

0000abac <_ZN15CGPIO_FS_Driver11On_RegisterEv>:
_ZN15CGPIO_FS_Driver11On_RegisterEv():
/home/silhavyj/School/ZeroMate/examples/15-DPP_01_external_peripherals/kernel/include/fs/drivers/gpio_fs.h:80

// driver pro filesystem pro GPIO piny
class CGPIO_FS_Driver : public IFilesystem_Driver
{
	public:
		virtual void On_Register() override
    abac:	e52db004 	push	{fp}		; (str fp, [sp, #-4]!)
    abb0:	e28db000 	add	fp, sp, #0
    abb4:	e24dd00c 	sub	sp, sp, #12
    abb8:	e50b0008 	str	r0, [fp, #-8]
/home/silhavyj/School/ZeroMate/examples/15-DPP_01_external_peripherals/kernel/include/fs/drivers/gpio_fs.h:83
        {
            //
        }
    abbc:	e320f000 	nop	{0}
    abc0:	e28bd000 	add	sp, fp, #0
    abc4:	e49db004 	pop	{fp}		; (ldr fp, [sp], #4)
    abc8:	e12fff1e 	bx	lr

0000abcc <_ZN15CGPIO_FS_Driver9Open_FileEPKc15NFile_Open_Mode>:
_ZN15CGPIO_FS_Driver9Open_FileEPKc15NFile_Open_Mode():
/home/silhavyj/School/ZeroMate/examples/15-DPP_01_external_peripherals/kernel/include/fs/drivers/gpio_fs.h:85

        virtual IFile* Open_File(const char* path, NFile_Open_Mode mode) override
    abcc:	e92d4810 	push	{r4, fp, lr}
    abd0:	e28db008 	add	fp, sp, #8
    abd4:	e24dd01c 	sub	sp, sp, #28
    abd8:	e50b0018 	str	r0, [fp, #-24]	; 0xffffffe8
    abdc:	e50b101c 	str	r1, [fp, #-28]	; 0xffffffe4
    abe0:	e50b2020 	str	r2, [fp, #-32]	; 0xffffffe0
/home/silhavyj/School/ZeroMate/examples/15-DPP_01_external_peripherals/kernel/include/fs/drivers/gpio_fs.h:87
        {
            if (mode != NFile_Open_Mode::Read_Only && mode != NFile_Open_Mode::Write_Only)
    abe4:	e51b3020 	ldr	r3, [fp, #-32]	; 0xffffffe0
    abe8:	e3530000 	cmp	r3, #0
    abec:	0a000004 	beq	ac04 <_ZN15CGPIO_FS_Driver9Open_FileEPKc15NFile_Open_Mode+0x38>
/home/silhavyj/School/ZeroMate/examples/15-DPP_01_external_peripherals/kernel/include/fs/drivers/gpio_fs.h:87 (discriminator 1)
    abf0:	e51b3020 	ldr	r3, [fp, #-32]	; 0xffffffe0
    abf4:	e3530001 	cmp	r3, #1
    abf8:	0a000001 	beq	ac04 <_ZN15CGPIO_FS_Driver9Open_FileEPKc15NFile_Open_Mode+0x38>
/home/silhavyj/School/ZeroMate/examples/15-DPP_01_external_peripherals/kernel/include/fs/drivers/gpio_fs.h:88
                return nullptr;
    abfc:	e3a03000 	mov	r3, #0
    ac00:	ea000043 	b	ad14 <_ZN15CGPIO_FS_Driver9Open_FileEPKc15NFile_Open_Mode+0x148>
/home/silhavyj/School/ZeroMate/examples/15-DPP_01_external_peripherals/kernel/include/fs/drivers/gpio_fs.h:92

            // tento driver ocekava na vstupu jen jednu jedinou uroven v 'path', a tou je cislo, tedy index GPIO pinu

            int gpionum = atoi(path);
    ac04:	e51b001c 	ldr	r0, [fp, #-28]	; 0xffffffe4
    ac08:	eb000ad6 	bl	d768 <_Z4atoiPKc>
    ac0c:	e50b0010 	str	r0, [fp, #-16]
/home/silhavyj/School/ZeroMate/examples/15-DPP_01_external_peripherals/kernel/include/fs/drivers/gpio_fs.h:93
            if (gpionum < 0 || gpionum >= hal::GPIO_Pin_Count)
    ac10:	e51b3010 	ldr	r3, [fp, #-16]
    ac14:	e3530000 	cmp	r3, #0
    ac18:	ba000002 	blt	ac28 <_ZN15CGPIO_FS_Driver9Open_FileEPKc15NFile_Open_Mode+0x5c>
/home/silhavyj/School/ZeroMate/examples/15-DPP_01_external_peripherals/kernel/include/fs/drivers/gpio_fs.h:93 (discriminator 1)
    ac1c:	e51b3010 	ldr	r3, [fp, #-16]
    ac20:	e3530035 	cmp	r3, #53	; 0x35
    ac24:	9a000001 	bls	ac30 <_ZN15CGPIO_FS_Driver9Open_FileEPKc15NFile_Open_Mode+0x64>
/home/silhavyj/School/ZeroMate/examples/15-DPP_01_external_peripherals/kernel/include/fs/drivers/gpio_fs.h:94
                return nullptr;
    ac28:	e3a03000 	mov	r3, #0
    ac2c:	ea000038 	b	ad14 <_ZN15CGPIO_FS_Driver9Open_FileEPKc15NFile_Open_Mode+0x148>
/home/silhavyj/School/ZeroMate/examples/15-DPP_01_external_peripherals/kernel/include/fs/drivers/gpio_fs.h:96
            
            if (mode == NFile_Open_Mode::Read_Only)
    ac30:	e51b3020 	ldr	r3, [fp, #-32]	; 0xffffffe0
    ac34:	e3530000 	cmp	r3, #0
    ac38:	1a000011 	bne	ac84 <_ZN15CGPIO_FS_Driver9Open_FileEPKc15NFile_Open_Mode+0xb8>
/home/silhavyj/School/ZeroMate/examples/15-DPP_01_external_peripherals/kernel/include/fs/drivers/gpio_fs.h:98
            {
                if (!sGPIO.Reserve_Pin(gpionum, true, false))
    ac3c:	e51b1010 	ldr	r1, [fp, #-16]
    ac40:	e3a03000 	mov	r3, #0
    ac44:	e3a02001 	mov	r2, #1
    ac48:	e59f00d0 	ldr	r0, [pc, #208]	; ad20 <_ZN15CGPIO_FS_Driver9Open_FileEPKc15NFile_Open_Mode+0x154>
    ac4c:	ebfff685 	bl	8668 <_ZN13CGPIO_Handler11Reserve_PinEjbb>
    ac50:	e1a03000 	mov	r3, r0
    ac54:	e2233001 	eor	r3, r3, #1
    ac58:	e6ef3073 	uxtb	r3, r3
    ac5c:	e3530000 	cmp	r3, #0
    ac60:	0a000001 	beq	ac6c <_ZN15CGPIO_FS_Driver9Open_FileEPKc15NFile_Open_Mode+0xa0>
/home/silhavyj/School/ZeroMate/examples/15-DPP_01_external_peripherals/kernel/include/fs/drivers/gpio_fs.h:99
                    return nullptr;
    ac64:	e3a03000 	mov	r3, #0
    ac68:	ea000029 	b	ad14 <_ZN15CGPIO_FS_Driver9Open_FileEPKc15NFile_Open_Mode+0x148>
/home/silhavyj/School/ZeroMate/examples/15-DPP_01_external_peripherals/kernel/include/fs/drivers/gpio_fs.h:101

                sGPIO.Set_GPIO_Function(gpionum, NGPIO_Function::Input);
    ac6c:	e51b3010 	ldr	r3, [fp, #-16]
    ac70:	e3a02000 	mov	r2, #0
    ac74:	e1a01003 	mov	r1, r3
    ac78:	e59f00a0 	ldr	r0, [pc, #160]	; ad20 <_ZN15CGPIO_FS_Driver9Open_FileEPKc15NFile_Open_Mode+0x154>
    ac7c:	ebfff5d3 	bl	83d0 <_ZN13CGPIO_Handler17Set_GPIO_FunctionEj14NGPIO_Function>
    ac80:	ea000010 	b	acc8 <_ZN15CGPIO_FS_Driver9Open_FileEPKc15NFile_Open_Mode+0xfc>
/home/silhavyj/School/ZeroMate/examples/15-DPP_01_external_peripherals/kernel/include/fs/drivers/gpio_fs.h:105
            }
            else
            {
                if (!sGPIO.Reserve_Pin(gpionum, false, true))
    ac84:	e51b1010 	ldr	r1, [fp, #-16]
    ac88:	e3a03001 	mov	r3, #1
    ac8c:	e3a02000 	mov	r2, #0
    ac90:	e59f0088 	ldr	r0, [pc, #136]	; ad20 <_ZN15CGPIO_FS_Driver9Open_FileEPKc15NFile_Open_Mode+0x154>
    ac94:	ebfff673 	bl	8668 <_ZN13CGPIO_Handler11Reserve_PinEjbb>
    ac98:	e1a03000 	mov	r3, r0
    ac9c:	e2233001 	eor	r3, r3, #1
    aca0:	e6ef3073 	uxtb	r3, r3
    aca4:	e3530000 	cmp	r3, #0
    aca8:	0a000001 	beq	acb4 <_ZN15CGPIO_FS_Driver9Open_FileEPKc15NFile_Open_Mode+0xe8>
/home/silhavyj/School/ZeroMate/examples/15-DPP_01_external_peripherals/kernel/include/fs/drivers/gpio_fs.h:106
                    return nullptr;
    acac:	e3a03000 	mov	r3, #0
    acb0:	ea000017 	b	ad14 <_ZN15CGPIO_FS_Driver9Open_FileEPKc15NFile_Open_Mode+0x148>
/home/silhavyj/School/ZeroMate/examples/15-DPP_01_external_peripherals/kernel/include/fs/drivers/gpio_fs.h:108

                sGPIO.Set_GPIO_Function(gpionum, NGPIO_Function::Output);
    acb4:	e51b3010 	ldr	r3, [fp, #-16]
    acb8:	e3a02001 	mov	r2, #1
    acbc:	e1a01003 	mov	r1, r3
    acc0:	e59f0058 	ldr	r0, [pc, #88]	; ad20 <_ZN15CGPIO_FS_Driver9Open_FileEPKc15NFile_Open_Mode+0x154>
    acc4:	ebfff5c1 	bl	83d0 <_ZN13CGPIO_Handler17Set_GPIO_FunctionEj14NGPIO_Function>
/home/silhavyj/School/ZeroMate/examples/15-DPP_01_external_peripherals/kernel/include/fs/drivers/gpio_fs.h:111
            }

            CGPIO_File* f = new CGPIO_File(gpionum, mode == NFile_Open_Mode::Read_Only, mode == NFile_Open_Mode::Write_Only);
    acc8:	e3a0000c 	mov	r0, #12
    accc:	ebfffec9 	bl	a7f8 <_Znwj>
    acd0:	e1a03000 	mov	r3, r0
    acd4:	e1a04003 	mov	r4, r3
    acd8:	e51b3020 	ldr	r3, [fp, #-32]	; 0xffffffe0
    acdc:	e3530000 	cmp	r3, #0
    ace0:	03a03001 	moveq	r3, #1
    ace4:	13a03000 	movne	r3, #0
    ace8:	e6ef2073 	uxtb	r2, r3
    acec:	e51b3020 	ldr	r3, [fp, #-32]	; 0xffffffe0
    acf0:	e3530001 	cmp	r3, #1
    acf4:	03a03001 	moveq	r3, #1
    acf8:	13a03000 	movne	r3, #0
    acfc:	e6ef3073 	uxtb	r3, r3
    ad00:	e51b1010 	ldr	r1, [fp, #-16]
    ad04:	e1a00004 	mov	r0, r4
    ad08:	ebfffef9 	bl	a8f4 <_ZN10CGPIO_FileC1Eibb>
    ad0c:	e50b4014 	str	r4, [fp, #-20]	; 0xffffffec
/home/silhavyj/School/ZeroMate/examples/15-DPP_01_external_peripherals/kernel/include/fs/drivers/gpio_fs.h:113

            return f;
    ad10:	e51b3014 	ldr	r3, [fp, #-20]	; 0xffffffec
/home/silhavyj/School/ZeroMate/examples/15-DPP_01_external_peripherals/kernel/include/fs/drivers/gpio_fs.h:114
        }
    ad14:	e1a00003 	mov	r0, r3
    ad18:	e24bd008 	sub	sp, fp, #8
    ad1c:	e8bd8810 	pop	{r4, fp, pc}
    ad20:	0000e3bc 			; <UNDEFINED> instruction: 0x0000e3bc

0000ad24 <_ZN13CMonitor_FileC1Ei>:
_ZN13CMonitor_FileC2Ei():
/home/silhavyj/School/ZeroMate/examples/15-DPP_01_external_peripherals/kernel/include/fs/drivers/monitor_fs.h:15
{
    private:
        int mChannel;

    public:
        CMonitor_File(int channel)
    ad24:	e92d4800 	push	{fp, lr}
    ad28:	e28db004 	add	fp, sp, #4
    ad2c:	e24dd008 	sub	sp, sp, #8
    ad30:	e50b0008 	str	r0, [fp, #-8]
    ad34:	e50b100c 	str	r1, [fp, #-12]
/home/silhavyj/School/ZeroMate/examples/15-DPP_01_external_peripherals/kernel/include/fs/drivers/monitor_fs.h:16
            : mChannel(channel)
    ad38:	e51b3008 	ldr	r3, [fp, #-8]
    ad3c:	e1a00003 	mov	r0, r3
    ad40:	ebfffec4 	bl	a858 <_ZN5IFileC1Ev>
    ad44:	e59f2020 	ldr	r2, [pc, #32]	; ad6c <_ZN13CMonitor_FileC1Ei+0x48>
    ad48:	e51b3008 	ldr	r3, [fp, #-8]
    ad4c:	e5832000 	str	r2, [r3]
    ad50:	e51b3008 	ldr	r3, [fp, #-8]
    ad54:	e51b200c 	ldr	r2, [fp, #-12]
    ad58:	e5832004 	str	r2, [r3, #4]
/home/silhavyj/School/ZeroMate/examples/15-DPP_01_external_peripherals/kernel/include/fs/drivers/monitor_fs.h:18
        {
        }
    ad5c:	e51b3008 	ldr	r3, [fp, #-8]
    ad60:	e1a00003 	mov	r0, r3
    ad64:	e24bd004 	sub	sp, fp, #4
    ad68:	e8bd8800 	pop	{fp, pc}
    ad6c:	0000e314 	andeq	lr, r0, r4, lsl r3

0000ad70 <_ZN13CMonitor_FileD1Ev>:
_ZN13CMonitor_FileD2Ev():
/home/silhavyj/School/ZeroMate/examples/15-DPP_01_external_peripherals/kernel/include/fs/drivers/monitor_fs.h:20

        ~CMonitor_File()
    ad70:	e92d4800 	push	{fp, lr}
    ad74:	e28db004 	add	fp, sp, #4
    ad78:	e24dd008 	sub	sp, sp, #8
    ad7c:	e50b0008 	str	r0, [fp, #-8]
/home/silhavyj/School/ZeroMate/examples/15-DPP_01_external_peripherals/kernel/include/fs/drivers/monitor_fs.h:21
        {
    ad80:	e59f2028 	ldr	r2, [pc, #40]	; adb0 <_ZN13CMonitor_FileD1Ev+0x40>
    ad84:	e51b3008 	ldr	r3, [fp, #-8]
    ad88:	e5832000 	str	r2, [r3]
/home/silhavyj/School/ZeroMate/examples/15-DPP_01_external_peripherals/kernel/include/fs/drivers/monitor_fs.h:22
            Close();
    ad8c:	e51b0008 	ldr	r0, [fp, #-8]
    ad90:	eb000039 	bl	ae7c <_ZN13CMonitor_File5CloseEv>
/home/silhavyj/School/ZeroMate/examples/15-DPP_01_external_peripherals/kernel/include/fs/drivers/monitor_fs.h:21
        {
    ad94:	e51b3008 	ldr	r3, [fp, #-8]
    ad98:	e1a00003 	mov	r0, r3
    ad9c:	ebfffeba 	bl	a88c <_ZN5IFileD1Ev>
/home/silhavyj/School/ZeroMate/examples/15-DPP_01_external_peripherals/kernel/include/fs/drivers/monitor_fs.h:23
        }
    ada0:	e51b3008 	ldr	r3, [fp, #-8]
    ada4:	e1a00003 	mov	r0, r3
    ada8:	e24bd004 	sub	sp, fp, #4
    adac:	e8bd8800 	pop	{fp, pc}
    adb0:	0000e314 	andeq	lr, r0, r4, lsl r3

0000adb4 <_ZN13CMonitor_FileD0Ev>:
_ZN13CMonitor_FileD0Ev():
/home/silhavyj/School/ZeroMate/examples/15-DPP_01_external_peripherals/kernel/include/fs/drivers/monitor_fs.h:20
        ~CMonitor_File()
    adb4:	e92d4800 	push	{fp, lr}
    adb8:	e28db004 	add	fp, sp, #4
    adbc:	e24dd008 	sub	sp, sp, #8
    adc0:	e50b0008 	str	r0, [fp, #-8]
/home/silhavyj/School/ZeroMate/examples/15-DPP_01_external_peripherals/kernel/include/fs/drivers/monitor_fs.h:23
        }
    adc4:	e51b0008 	ldr	r0, [fp, #-8]
    adc8:	ebffffe8 	bl	ad70 <_ZN13CMonitor_FileD1Ev>
    adcc:	e3a01008 	mov	r1, #8
    add0:	e51b0008 	ldr	r0, [fp, #-8]
    add4:	ebfffe93 	bl	a828 <_ZdlPvj>
    add8:	e51b3008 	ldr	r3, [fp, #-8]
    addc:	e1a00003 	mov	r0, r3
    ade0:	e24bd004 	sub	sp, fp, #4
    ade4:	e8bd8800 	pop	{fp, pc}

0000ade8 <_ZN13CMonitor_File4ReadEPcj>:
_ZN13CMonitor_File4ReadEPcj():
/home/silhavyj/School/ZeroMate/examples/15-DPP_01_external_peripherals/kernel/include/fs/drivers/monitor_fs.h:25

        virtual uint32_t Read(char* buffer, uint32_t num) override
    ade8:	e52db004 	push	{fp}		; (str fp, [sp, #-4]!)
    adec:	e28db000 	add	fp, sp, #0
    adf0:	e24dd014 	sub	sp, sp, #20
    adf4:	e50b0008 	str	r0, [fp, #-8]
    adf8:	e50b100c 	str	r1, [fp, #-12]
    adfc:	e50b2010 	str	r2, [fp, #-16]
/home/silhavyj/School/ZeroMate/examples/15-DPP_01_external_peripherals/kernel/include/fs/drivers/monitor_fs.h:27
        {
            return 0;
    ae00:	e3a03000 	mov	r3, #0
/home/silhavyj/School/ZeroMate/examples/15-DPP_01_external_peripherals/kernel/include/fs/drivers/monitor_fs.h:28
        }
    ae04:	e1a00003 	mov	r0, r3
    ae08:	e28bd000 	add	sp, fp, #0
    ae0c:	e49db004 	pop	{fp}		; (ldr fp, [sp], #4)
    ae10:	e12fff1e 	bx	lr

0000ae14 <_ZN13CMonitor_File5WriteEPKcj>:
_ZN13CMonitor_File5WriteEPKcj():
/home/silhavyj/School/ZeroMate/examples/15-DPP_01_external_peripherals/kernel/include/fs/drivers/monitor_fs.h:30

        virtual uint32_t Write(const char* buffer, uint32_t num) override
    ae14:	e92d4800 	push	{fp, lr}
    ae18:	e28db004 	add	fp, sp, #4
    ae1c:	e24dd010 	sub	sp, sp, #16
    ae20:	e50b0008 	str	r0, [fp, #-8]
    ae24:	e50b100c 	str	r1, [fp, #-12]
    ae28:	e50b2010 	str	r2, [fp, #-16]
/home/silhavyj/School/ZeroMate/examples/15-DPP_01_external_peripherals/kernel/include/fs/drivers/monitor_fs.h:32
        {
            if (num > 0 && buffer != nullptr)
    ae2c:	e51b3010 	ldr	r3, [fp, #-16]
    ae30:	e3530000 	cmp	r3, #0
    ae34:	0a00000b 	beq	ae68 <_ZN13CMonitor_File5WriteEPKcj+0x54>
/home/silhavyj/School/ZeroMate/examples/15-DPP_01_external_peripherals/kernel/include/fs/drivers/monitor_fs.h:32 (discriminator 1)
    ae38:	e51b300c 	ldr	r3, [fp, #-12]
    ae3c:	e3530000 	cmp	r3, #0
    ae40:	0a000008 	beq	ae68 <_ZN13CMonitor_File5WriteEPKcj+0x54>
/home/silhavyj/School/ZeroMate/examples/15-DPP_01_external_peripherals/kernel/include/fs/drivers/monitor_fs.h:34
            {
                if (mChannel == 0)
    ae44:	e51b3008 	ldr	r3, [fp, #-8]
    ae48:	e5933004 	ldr	r3, [r3, #4]
    ae4c:	e3530000 	cmp	r3, #0
    ae50:	1a000004 	bne	ae68 <_ZN13CMonitor_File5WriteEPKcj+0x54>
/home/silhavyj/School/ZeroMate/examples/15-DPP_01_external_peripherals/kernel/include/fs/drivers/monitor_fs.h:36
                {
                    sMonitor << buffer;
    ae54:	e51b100c 	ldr	r1, [fp, #-12]
    ae58:	e59f0018 	ldr	r0, [pc, #24]	; ae78 <_ZN13CMonitor_File5WriteEPKcj+0x64>
    ae5c:	ebfff7a9 	bl	8d08 <_ZN8CMonitorlsEPKc>
/home/silhavyj/School/ZeroMate/examples/15-DPP_01_external_peripherals/kernel/include/fs/drivers/monitor_fs.h:37
                    return num;
    ae60:	e51b3010 	ldr	r3, [fp, #-16]
    ae64:	ea000000 	b	ae6c <_ZN13CMonitor_File5WriteEPKcj+0x58>
/home/silhavyj/School/ZeroMate/examples/15-DPP_01_external_peripherals/kernel/include/fs/drivers/monitor_fs.h:41
                }
            }

            return 0;
    ae68:	e3a03000 	mov	r3, #0
/home/silhavyj/School/ZeroMate/examples/15-DPP_01_external_peripherals/kernel/include/fs/drivers/monitor_fs.h:42
        }
    ae6c:	e1a00003 	mov	r0, r3
    ae70:	e24bd004 	sub	sp, fp, #4
    ae74:	e8bd8800 	pop	{fp, pc}
    ae78:	0000e3d0 	ldrdeq	lr, [r0], -r0

0000ae7c <_ZN13CMonitor_File5CloseEv>:
_ZN13CMonitor_File5CloseEv():
/home/silhavyj/School/ZeroMate/examples/15-DPP_01_external_peripherals/kernel/include/fs/drivers/monitor_fs.h:44

        virtual bool Close() override
    ae7c:	e52db004 	push	{fp}		; (str fp, [sp, #-4]!)
    ae80:	e28db000 	add	fp, sp, #0
    ae84:	e24dd00c 	sub	sp, sp, #12
    ae88:	e50b0008 	str	r0, [fp, #-8]
/home/silhavyj/School/ZeroMate/examples/15-DPP_01_external_peripherals/kernel/include/fs/drivers/monitor_fs.h:46
        {
            if (mChannel < 0)
    ae8c:	e51b3008 	ldr	r3, [fp, #-8]
    ae90:	e5933004 	ldr	r3, [r3, #4]
    ae94:	e3530000 	cmp	r3, #0
    ae98:	aa000001 	bge	aea4 <_ZN13CMonitor_File5CloseEv+0x28>
/home/silhavyj/School/ZeroMate/examples/15-DPP_01_external_peripherals/kernel/include/fs/drivers/monitor_fs.h:47
                return false;
    ae9c:	e3a03000 	mov	r3, #0
    aea0:	ea000003 	b	aeb4 <_ZN13CMonitor_File5CloseEv+0x38>
/home/silhavyj/School/ZeroMate/examples/15-DPP_01_external_peripherals/kernel/include/fs/drivers/monitor_fs.h:54
            if (mChannel == 0)
            {

            }
        
            mChannel = -1;
    aea4:	e51b3008 	ldr	r3, [fp, #-8]
    aea8:	e3e02000 	mvn	r2, #0
    aeac:	e5832004 	str	r2, [r3, #4]
/home/silhavyj/School/ZeroMate/examples/15-DPP_01_external_peripherals/kernel/include/fs/drivers/monitor_fs.h:56

            return true;
    aeb0:	e3a03001 	mov	r3, #1
/home/silhavyj/School/ZeroMate/examples/15-DPP_01_external_peripherals/kernel/include/fs/drivers/monitor_fs.h:57
        }
    aeb4:	e1a00003 	mov	r0, r3
    aeb8:	e28bd000 	add	sp, fp, #0
    aebc:	e49db004 	pop	{fp}		; (ldr fp, [sp], #4)
    aec0:	e12fff1e 	bx	lr

0000aec4 <_ZN13CMonitor_File5IOCtlE16NIOCtl_OperationPv>:
_ZN13CMonitor_File5IOCtlE16NIOCtl_OperationPv():
/home/silhavyj/School/ZeroMate/examples/15-DPP_01_external_peripherals/kernel/include/fs/drivers/monitor_fs.h:59

        virtual bool IOCtl(NIOCtl_Operation dir, void* ctlptr) override
    aec4:	e52db004 	push	{fp}		; (str fp, [sp, #-4]!)
    aec8:	e28db000 	add	fp, sp, #0
    aecc:	e24dd014 	sub	sp, sp, #20
    aed0:	e50b0008 	str	r0, [fp, #-8]
    aed4:	e50b100c 	str	r1, [fp, #-12]
    aed8:	e50b2010 	str	r2, [fp, #-16]
/home/silhavyj/School/ZeroMate/examples/15-DPP_01_external_peripherals/kernel/include/fs/drivers/monitor_fs.h:61
        {
            if (mChannel == 0)
    aedc:	e51b3008 	ldr	r3, [fp, #-8]
    aee0:	e5933004 	ldr	r3, [r3, #4]
    aee4:	e3530000 	cmp	r3, #0
    aee8:	1a000001 	bne	aef4 <_ZN13CMonitor_File5IOCtlE16NIOCtl_OperationPv+0x30>
/home/silhavyj/School/ZeroMate/examples/15-DPP_01_external_peripherals/kernel/include/fs/drivers/monitor_fs.h:63
            {
                return true;
    aeec:	e3a03001 	mov	r3, #1
    aef0:	ea000000 	b	aef8 <_ZN13CMonitor_File5IOCtlE16NIOCtl_OperationPv+0x34>
/home/silhavyj/School/ZeroMate/examples/15-DPP_01_external_peripherals/kernel/include/fs/drivers/monitor_fs.h:66
            }

            return false;
    aef4:	e3a03000 	mov	r3, #0
/home/silhavyj/School/ZeroMate/examples/15-DPP_01_external_peripherals/kernel/include/fs/drivers/monitor_fs.h:67
        }
    aef8:	e1a00003 	mov	r0, r3
    aefc:	e28bd000 	add	sp, fp, #0
    af00:	e49db004 	pop	{fp}		; (ldr fp, [sp], #4)
    af04:	e12fff1e 	bx	lr

0000af08 <_ZN18CMonitor_FS_Driver11On_RegisterEv>:
_ZN18CMonitor_FS_Driver11On_RegisterEv():
/home/silhavyj/School/ZeroMate/examples/15-DPP_01_external_peripherals/kernel/include/fs/drivers/monitor_fs.h:73
};

class CMonitor_FS_Driver : public IFilesystem_Driver
{
	public:
		virtual void On_Register() override
    af08:	e52db004 	push	{fp}		; (str fp, [sp, #-4]!)
    af0c:	e28db000 	add	fp, sp, #0
    af10:	e24dd00c 	sub	sp, sp, #12
    af14:	e50b0008 	str	r0, [fp, #-8]
/home/silhavyj/School/ZeroMate/examples/15-DPP_01_external_peripherals/kernel/include/fs/drivers/monitor_fs.h:75
        {
        }
    af18:	e320f000 	nop	{0}
    af1c:	e28bd000 	add	sp, fp, #0
    af20:	e49db004 	pop	{fp}		; (ldr fp, [sp], #4)
    af24:	e12fff1e 	bx	lr

0000af28 <_ZN18CMonitor_FS_Driver9Open_FileEPKc15NFile_Open_Mode>:
_ZN18CMonitor_FS_Driver9Open_FileEPKc15NFile_Open_Mode():
/home/silhavyj/School/ZeroMate/examples/15-DPP_01_external_peripherals/kernel/include/fs/drivers/monitor_fs.h:77

        virtual IFile* Open_File(const char* path, NFile_Open_Mode mode) override
    af28:	e92d4810 	push	{r4, fp, lr}
    af2c:	e28db008 	add	fp, sp, #8
    af30:	e24dd01c 	sub	sp, sp, #28
    af34:	e50b0018 	str	r0, [fp, #-24]	; 0xffffffe8
    af38:	e50b101c 	str	r1, [fp, #-28]	; 0xffffffe4
    af3c:	e50b2020 	str	r2, [fp, #-32]	; 0xffffffe0
/home/silhavyj/School/ZeroMate/examples/15-DPP_01_external_peripherals/kernel/include/fs/drivers/monitor_fs.h:79
        {
            int channel = atoi(path);
    af40:	e51b001c 	ldr	r0, [fp, #-28]	; 0xffffffe4
    af44:	eb000a07 	bl	d768 <_Z4atoiPKc>
    af48:	e50b0010 	str	r0, [fp, #-16]
/home/silhavyj/School/ZeroMate/examples/15-DPP_01_external_peripherals/kernel/include/fs/drivers/monitor_fs.h:80
            if (channel != 0)
    af4c:	e51b3010 	ldr	r3, [fp, #-16]
    af50:	e3530000 	cmp	r3, #0
    af54:	0a000001 	beq	af60 <_ZN18CMonitor_FS_Driver9Open_FileEPKc15NFile_Open_Mode+0x38>
/home/silhavyj/School/ZeroMate/examples/15-DPP_01_external_peripherals/kernel/include/fs/drivers/monitor_fs.h:81
                return nullptr;
    af58:	e3a03000 	mov	r3, #0
    af5c:	ea000008 	b	af84 <_ZN18CMonitor_FS_Driver9Open_FileEPKc15NFile_Open_Mode+0x5c>
/home/silhavyj/School/ZeroMate/examples/15-DPP_01_external_peripherals/kernel/include/fs/drivers/monitor_fs.h:83

            CMonitor_File* f = new CMonitor_File(channel);
    af60:	e3a00008 	mov	r0, #8
    af64:	ebfffe23 	bl	a7f8 <_Znwj>
    af68:	e1a03000 	mov	r3, r0
    af6c:	e1a04003 	mov	r4, r3
    af70:	e51b1010 	ldr	r1, [fp, #-16]
    af74:	e1a00004 	mov	r0, r4
    af78:	ebffff69 	bl	ad24 <_ZN13CMonitor_FileC1Ei>
    af7c:	e50b4014 	str	r4, [fp, #-20]	; 0xffffffec
/home/silhavyj/School/ZeroMate/examples/15-DPP_01_external_peripherals/kernel/include/fs/drivers/monitor_fs.h:85

            return f;
    af80:	e51b3014 	ldr	r3, [fp, #-20]	; 0xffffffec
/home/silhavyj/School/ZeroMate/examples/15-DPP_01_external_peripherals/kernel/include/fs/drivers/monitor_fs.h:86
        }
    af84:	e1a00003 	mov	r0, r3
    af88:	e24bd008 	sub	sp, fp, #8
    af8c:	e8bd8810 	pop	{r4, fp, pc}

0000af90 <_ZN21CSegment_Display_FileC1Ev>:
_ZN21CSegment_Display_FileC2Ev():
/home/silhavyj/School/ZeroMate/examples/15-DPP_01_external_peripherals/kernel/include/fs/drivers/segmentdisplay_fs.h:16
{
    private:
        bool mOpened;

    public:
        CSegment_Display_File()
    af90:	e92d4800 	push	{fp, lr}
    af94:	e28db004 	add	fp, sp, #4
    af98:	e24dd008 	sub	sp, sp, #8
    af9c:	e50b0008 	str	r0, [fp, #-8]
/home/silhavyj/School/ZeroMate/examples/15-DPP_01_external_peripherals/kernel/include/fs/drivers/segmentdisplay_fs.h:17
            : mOpened(true)
    afa0:	e51b3008 	ldr	r3, [fp, #-8]
    afa4:	e1a00003 	mov	r0, r3
    afa8:	ebfffe2a 	bl	a858 <_ZN5IFileC1Ev>
    afac:	e59f2020 	ldr	r2, [pc, #32]	; afd4 <_ZN21CSegment_Display_FileC1Ev+0x44>
    afb0:	e51b3008 	ldr	r3, [fp, #-8]
    afb4:	e5832000 	str	r2, [r3]
    afb8:	e51b3008 	ldr	r3, [fp, #-8]
    afbc:	e3a02001 	mov	r2, #1
    afc0:	e5c32004 	strb	r2, [r3, #4]
/home/silhavyj/School/ZeroMate/examples/15-DPP_01_external_peripherals/kernel/include/fs/drivers/segmentdisplay_fs.h:20
        {
            //
        }
    afc4:	e51b3008 	ldr	r3, [fp, #-8]
    afc8:	e1a00003 	mov	r0, r3
    afcc:	e24bd004 	sub	sp, fp, #4
    afd0:	e8bd8800 	pop	{fp, pc}
    afd4:	0000e2e4 	andeq	lr, r0, r4, ror #5

0000afd8 <_ZN21CSegment_Display_FileD1Ev>:
_ZN21CSegment_Display_FileD2Ev():
/home/silhavyj/School/ZeroMate/examples/15-DPP_01_external_peripherals/kernel/include/fs/drivers/segmentdisplay_fs.h:22

        ~CSegment_Display_File()
    afd8:	e92d4800 	push	{fp, lr}
    afdc:	e28db004 	add	fp, sp, #4
    afe0:	e24dd008 	sub	sp, sp, #8
    afe4:	e50b0008 	str	r0, [fp, #-8]
/home/silhavyj/School/ZeroMate/examples/15-DPP_01_external_peripherals/kernel/include/fs/drivers/segmentdisplay_fs.h:23
        {
    afe8:	e59f2028 	ldr	r2, [pc, #40]	; b018 <_ZN21CSegment_Display_FileD1Ev+0x40>
    afec:	e51b3008 	ldr	r3, [fp, #-8]
    aff0:	e5832000 	str	r2, [r3]
/home/silhavyj/School/ZeroMate/examples/15-DPP_01_external_peripherals/kernel/include/fs/drivers/segmentdisplay_fs.h:24
            Close();
    aff4:	e51b0008 	ldr	r0, [fp, #-8]
    aff8:	eb000046 	bl	b118 <_ZN21CSegment_Display_File5CloseEv>
/home/silhavyj/School/ZeroMate/examples/15-DPP_01_external_peripherals/kernel/include/fs/drivers/segmentdisplay_fs.h:23
        {
    affc:	e51b3008 	ldr	r3, [fp, #-8]
    b000:	e1a00003 	mov	r0, r3
    b004:	ebfffe20 	bl	a88c <_ZN5IFileD1Ev>
/home/silhavyj/School/ZeroMate/examples/15-DPP_01_external_peripherals/kernel/include/fs/drivers/segmentdisplay_fs.h:25
        }
    b008:	e51b3008 	ldr	r3, [fp, #-8]
    b00c:	e1a00003 	mov	r0, r3
    b010:	e24bd004 	sub	sp, fp, #4
    b014:	e8bd8800 	pop	{fp, pc}
    b018:	0000e2e4 	andeq	lr, r0, r4, ror #5

0000b01c <_ZN21CSegment_Display_FileD0Ev>:
_ZN21CSegment_Display_FileD0Ev():
/home/silhavyj/School/ZeroMate/examples/15-DPP_01_external_peripherals/kernel/include/fs/drivers/segmentdisplay_fs.h:22
        ~CSegment_Display_File()
    b01c:	e92d4800 	push	{fp, lr}
    b020:	e28db004 	add	fp, sp, #4
    b024:	e24dd008 	sub	sp, sp, #8
    b028:	e50b0008 	str	r0, [fp, #-8]
/home/silhavyj/School/ZeroMate/examples/15-DPP_01_external_peripherals/kernel/include/fs/drivers/segmentdisplay_fs.h:25
        }
    b02c:	e51b0008 	ldr	r0, [fp, #-8]
    b030:	ebffffe8 	bl	afd8 <_ZN21CSegment_Display_FileD1Ev>
    b034:	e3a01008 	mov	r1, #8
    b038:	e51b0008 	ldr	r0, [fp, #-8]
    b03c:	ebfffdf9 	bl	a828 <_ZdlPvj>
    b040:	e51b3008 	ldr	r3, [fp, #-8]
    b044:	e1a00003 	mov	r0, r3
    b048:	e24bd004 	sub	sp, fp, #4
    b04c:	e8bd8800 	pop	{fp, pc}

0000b050 <_ZN21CSegment_Display_File4ReadEPcj>:
_ZN21CSegment_Display_File4ReadEPcj():
/home/silhavyj/School/ZeroMate/examples/15-DPP_01_external_peripherals/kernel/include/fs/drivers/segmentdisplay_fs.h:27

        virtual uint32_t Read(char* buffer, uint32_t num) override
    b050:	e92d4800 	push	{fp, lr}
    b054:	e28db004 	add	fp, sp, #4
    b058:	e24dd010 	sub	sp, sp, #16
    b05c:	e50b0008 	str	r0, [fp, #-8]
    b060:	e50b100c 	str	r1, [fp, #-12]
    b064:	e50b2010 	str	r2, [fp, #-16]
/home/silhavyj/School/ZeroMate/examples/15-DPP_01_external_peripherals/kernel/include/fs/drivers/segmentdisplay_fs.h:30
        {
            // jen precteme posledni zapsany znak
            if (num > 0)
    b068:	e51b3010 	ldr	r3, [fp, #-16]
    b06c:	e3530000 	cmp	r3, #0
    b070:	0a000007 	beq	b094 <_ZN21CSegment_Display_File4ReadEPcj+0x44>
/home/silhavyj/School/ZeroMate/examples/15-DPP_01_external_peripherals/kernel/include/fs/drivers/segmentdisplay_fs.h:32
            {
                buffer[0] = sSegment_Display.Read();
    b074:	e59f0028 	ldr	r0, [pc, #40]	; b0a4 <_ZN21CSegment_Display_File4ReadEPcj+0x54>
    b078:	ebfff89e 	bl	92f8 <_ZNK16CSegment_Display4ReadEv>
    b07c:	e1a03000 	mov	r3, r0
    b080:	e1a02003 	mov	r2, r3
    b084:	e51b300c 	ldr	r3, [fp, #-12]
    b088:	e5c32000 	strb	r2, [r3]
/home/silhavyj/School/ZeroMate/examples/15-DPP_01_external_peripherals/kernel/include/fs/drivers/segmentdisplay_fs.h:33
                return 1;
    b08c:	e3a03001 	mov	r3, #1
    b090:	ea000000 	b	b098 <_ZN21CSegment_Display_File4ReadEPcj+0x48>
/home/silhavyj/School/ZeroMate/examples/15-DPP_01_external_peripherals/kernel/include/fs/drivers/segmentdisplay_fs.h:36
            }

            return 0;
    b094:	e3a03000 	mov	r3, #0
/home/silhavyj/School/ZeroMate/examples/15-DPP_01_external_peripherals/kernel/include/fs/drivers/segmentdisplay_fs.h:37
        }
    b098:	e1a00003 	mov	r0, r3
    b09c:	e24bd004 	sub	sp, fp, #4
    b0a0:	e8bd8800 	pop	{fp, pc}
    b0a4:	0000e3f8 	strdeq	lr, [r0], -r8

0000b0a8 <_ZN21CSegment_Display_File5WriteEPKcj>:
_ZN21CSegment_Display_File5WriteEPKcj():
/home/silhavyj/School/ZeroMate/examples/15-DPP_01_external_peripherals/kernel/include/fs/drivers/segmentdisplay_fs.h:39

        virtual uint32_t Write(const char* buffer, uint32_t num) override
    b0a8:	e92d4800 	push	{fp, lr}
    b0ac:	e28db004 	add	fp, sp, #4
    b0b0:	e24dd018 	sub	sp, sp, #24
    b0b4:	e50b0010 	str	r0, [fp, #-16]
    b0b8:	e50b1014 	str	r1, [fp, #-20]	; 0xffffffec
    b0bc:	e50b2018 	str	r2, [fp, #-24]	; 0xffffffe8
/home/silhavyj/School/ZeroMate/examples/15-DPP_01_external_peripherals/kernel/include/fs/drivers/segmentdisplay_fs.h:42
        {
            // zapiseme vsechny znaky ze vstupu
            for (uint32_t i = 0; i < num; i++)
    b0c0:	e3a03000 	mov	r3, #0
    b0c4:	e50b3008 	str	r3, [fp, #-8]
/home/silhavyj/School/ZeroMate/examples/15-DPP_01_external_peripherals/kernel/include/fs/drivers/segmentdisplay_fs.h:42 (discriminator 3)
    b0c8:	e51b2008 	ldr	r2, [fp, #-8]
    b0cc:	e51b3018 	ldr	r3, [fp, #-24]	; 0xffffffe8
    b0d0:	e1520003 	cmp	r2, r3
    b0d4:	2a00000a 	bcs	b104 <_ZN21CSegment_Display_File5WriteEPKcj+0x5c>
/home/silhavyj/School/ZeroMate/examples/15-DPP_01_external_peripherals/kernel/include/fs/drivers/segmentdisplay_fs.h:43 (discriminator 2)
                sSegment_Display.Write(buffer[i]);
    b0d8:	e51b2014 	ldr	r2, [fp, #-20]	; 0xffffffec
    b0dc:	e51b3008 	ldr	r3, [fp, #-8]
    b0e0:	e0823003 	add	r3, r2, r3
    b0e4:	e5d33000 	ldrb	r3, [r3]
    b0e8:	e1a01003 	mov	r1, r3
    b0ec:	e59f0020 	ldr	r0, [pc, #32]	; b114 <_ZN21CSegment_Display_File5WriteEPKcj+0x6c>
    b0f0:	ebfff85b 	bl	9264 <_ZN16CSegment_Display5WriteEc>
/home/silhavyj/School/ZeroMate/examples/15-DPP_01_external_peripherals/kernel/include/fs/drivers/segmentdisplay_fs.h:42 (discriminator 2)
            for (uint32_t i = 0; i < num; i++)
    b0f4:	e51b3008 	ldr	r3, [fp, #-8]
    b0f8:	e2833001 	add	r3, r3, #1
    b0fc:	e50b3008 	str	r3, [fp, #-8]
    b100:	eafffff0 	b	b0c8 <_ZN21CSegment_Display_File5WriteEPKcj+0x20>
/home/silhavyj/School/ZeroMate/examples/15-DPP_01_external_peripherals/kernel/include/fs/drivers/segmentdisplay_fs.h:45

            return num;
    b104:	e51b3018 	ldr	r3, [fp, #-24]	; 0xffffffe8
/home/silhavyj/School/ZeroMate/examples/15-DPP_01_external_peripherals/kernel/include/fs/drivers/segmentdisplay_fs.h:46
        }
    b108:	e1a00003 	mov	r0, r3
    b10c:	e24bd004 	sub	sp, fp, #4
    b110:	e8bd8800 	pop	{fp, pc}
    b114:	0000e3f8 	strdeq	lr, [r0], -r8

0000b118 <_ZN21CSegment_Display_File5CloseEv>:
_ZN21CSegment_Display_File5CloseEv():
/home/silhavyj/School/ZeroMate/examples/15-DPP_01_external_peripherals/kernel/include/fs/drivers/segmentdisplay_fs.h:48

        virtual bool Close() override
    b118:	e92d4800 	push	{fp, lr}
    b11c:	e28db004 	add	fp, sp, #4
    b120:	e24dd008 	sub	sp, sp, #8
    b124:	e50b0008 	str	r0, [fp, #-8]
/home/silhavyj/School/ZeroMate/examples/15-DPP_01_external_peripherals/kernel/include/fs/drivers/segmentdisplay_fs.h:50
        {
            if (!mOpened)
    b128:	e51b3008 	ldr	r3, [fp, #-8]
    b12c:	e5d33004 	ldrb	r3, [r3, #4]
    b130:	e2233001 	eor	r3, r3, #1
    b134:	e6ef3073 	uxtb	r3, r3
    b138:	e3530000 	cmp	r3, #0
    b13c:	0a000001 	beq	b148 <_ZN21CSegment_Display_File5CloseEv+0x30>
/home/silhavyj/School/ZeroMate/examples/15-DPP_01_external_peripherals/kernel/include/fs/drivers/segmentdisplay_fs.h:51
                return false;
    b140:	e3a03000 	mov	r3, #0
    b144:	ea000005 	b	b160 <_ZN21CSegment_Display_File5CloseEv+0x48>
/home/silhavyj/School/ZeroMate/examples/15-DPP_01_external_peripherals/kernel/include/fs/drivers/segmentdisplay_fs.h:53

            sSegment_Display.Close();
    b148:	e59f001c 	ldr	r0, [pc, #28]	; b16c <_ZN21CSegment_Display_File5CloseEv+0x54>
    b14c:	ebfff826 	bl	91ec <_ZN16CSegment_Display5CloseEv>
/home/silhavyj/School/ZeroMate/examples/15-DPP_01_external_peripherals/kernel/include/fs/drivers/segmentdisplay_fs.h:54
            mOpened = false;
    b150:	e51b3008 	ldr	r3, [fp, #-8]
    b154:	e3a02000 	mov	r2, #0
    b158:	e5c32004 	strb	r2, [r3, #4]
/home/silhavyj/School/ZeroMate/examples/15-DPP_01_external_peripherals/kernel/include/fs/drivers/segmentdisplay_fs.h:56

            return true;
    b15c:	e3a03001 	mov	r3, #1
/home/silhavyj/School/ZeroMate/examples/15-DPP_01_external_peripherals/kernel/include/fs/drivers/segmentdisplay_fs.h:57
        }
    b160:	e1a00003 	mov	r0, r3
    b164:	e24bd004 	sub	sp, fp, #4
    b168:	e8bd8800 	pop	{fp, pc}
    b16c:	0000e3f8 	strdeq	lr, [r0], -r8

0000b170 <_ZN21CSegment_Display_File5IOCtlE16NIOCtl_OperationPv>:
_ZN21CSegment_Display_File5IOCtlE16NIOCtl_OperationPv():
/home/silhavyj/School/ZeroMate/examples/15-DPP_01_external_peripherals/kernel/include/fs/drivers/segmentdisplay_fs.h:59

        virtual bool IOCtl(NIOCtl_Operation dir, void* ctlptr) override
    b170:	e52db004 	push	{fp}		; (str fp, [sp, #-4]!)
    b174:	e28db000 	add	fp, sp, #0
    b178:	e24dd014 	sub	sp, sp, #20
    b17c:	e50b0008 	str	r0, [fp, #-8]
    b180:	e50b100c 	str	r1, [fp, #-12]
    b184:	e50b2010 	str	r2, [fp, #-16]
/home/silhavyj/School/ZeroMate/examples/15-DPP_01_external_peripherals/kernel/include/fs/drivers/segmentdisplay_fs.h:61
        {
            return false;
    b188:	e3a03000 	mov	r3, #0
/home/silhavyj/School/ZeroMate/examples/15-DPP_01_external_peripherals/kernel/include/fs/drivers/segmentdisplay_fs.h:62
        }
    b18c:	e1a00003 	mov	r0, r3
    b190:	e28bd000 	add	sp, fp, #0
    b194:	e49db004 	pop	{fp}		; (ldr fp, [sp], #4)
    b198:	e12fff1e 	bx	lr

0000b19c <_ZN26CSegment_Display_FS_Driver11On_RegisterEv>:
_ZN26CSegment_Display_FS_Driver11On_RegisterEv():
/home/silhavyj/School/ZeroMate/examples/15-DPP_01_external_peripherals/kernel/include/fs/drivers/segmentdisplay_fs.h:68
};

class CSegment_Display_FS_Driver : public IFilesystem_Driver
{
	public:
		virtual void On_Register() override
    b19c:	e52db004 	push	{fp}		; (str fp, [sp, #-4]!)
    b1a0:	e28db000 	add	fp, sp, #0
    b1a4:	e24dd00c 	sub	sp, sp, #12
    b1a8:	e50b0008 	str	r0, [fp, #-8]
/home/silhavyj/School/ZeroMate/examples/15-DPP_01_external_peripherals/kernel/include/fs/drivers/segmentdisplay_fs.h:71
        {
            //
        }
    b1ac:	e320f000 	nop	{0}
    b1b0:	e28bd000 	add	sp, fp, #0
    b1b4:	e49db004 	pop	{fp}		; (ldr fp, [sp], #4)
    b1b8:	e12fff1e 	bx	lr

0000b1bc <_ZN26CSegment_Display_FS_Driver9Open_FileEPKc15NFile_Open_Mode>:
_ZN26CSegment_Display_FS_Driver9Open_FileEPKc15NFile_Open_Mode():
/home/silhavyj/School/ZeroMate/examples/15-DPP_01_external_peripherals/kernel/include/fs/drivers/segmentdisplay_fs.h:73

        virtual IFile* Open_File(const char* path, NFile_Open_Mode mode) override
    b1bc:	e92d4810 	push	{r4, fp, lr}
    b1c0:	e28db008 	add	fp, sp, #8
    b1c4:	e24dd01c 	sub	sp, sp, #28
    b1c8:	e50b0018 	str	r0, [fp, #-24]	; 0xffffffe8
    b1cc:	e50b101c 	str	r1, [fp, #-28]	; 0xffffffe4
    b1d0:	e50b2020 	str	r2, [fp, #-32]	; 0xffffffe0
/home/silhavyj/School/ZeroMate/examples/15-DPP_01_external_peripherals/kernel/include/fs/drivers/segmentdisplay_fs.h:77
        {
            // segmentovy displej je jen jeden a vyhrazeny, takze je jedno co je v ceste

            if (!sSegment_Display.Open())
    b1d4:	e59f0048 	ldr	r0, [pc, #72]	; b224 <_ZN26CSegment_Display_FS_Driver9Open_FileEPKc15NFile_Open_Mode+0x68>
    b1d8:	ebfff7e8 	bl	9180 <_ZN16CSegment_Display4OpenEv>
    b1dc:	e1a03000 	mov	r3, r0
