
./kernel:     file format elf32-littlearm


Disassembly of section .text:

00008000 <_start>:
_start():
/mnt/c/Users/Kuba/Documents/ZeroMate/examples/18-UART/kernel/src/start.s:8
;@ tady budou symboly, ktere chceme na zacatek kodove sekce
.section .text.start

;@ vstupni bod do kernelu - nechame ho vlozit na zacatek kodu
_start:
    mov sp,#0x8000			;@ nastavime stack pointer na spodek zasobniku
    8000:	e3a0d902 	mov	sp, #32768	; 0x8000
/mnt/c/Users/Kuba/Documents/ZeroMate/examples/18-UART/kernel/src/start.s:9
	bl _c_startup			;@ C startup kod (inicializace prostredi)
    8004:	eb000492 	bl	9254 <_c_startup>
/mnt/c/Users/Kuba/Documents/ZeroMate/examples/18-UART/kernel/src/start.s:10
	bl _cpp_startup			;@ C++ startup kod (volani globalnich konstruktoru, ...)
    8008:	eb0004ab 	bl	92bc <_cpp_startup>
/mnt/c/Users/Kuba/Documents/ZeroMate/examples/18-UART/kernel/src/start.s:11
    bl _kernel_main			;@ skocime do hlavniho kodu jadra (v C)
    800c:	eb000475 	bl	91e8 <_kernel_main>
/mnt/c/Users/Kuba/Documents/ZeroMate/examples/18-UART/kernel/src/start.s:12
	bl _cpp_shutdown		;@ C++ shutdown kod (volani globalnich destruktoru, ...)
    8010:	eb0004bf 	bl	9314 <_cpp_shutdown>

00008014 <hang>:
hang():
/mnt/c/Users/Kuba/Documents/ZeroMate/examples/18-UART/kernel/src/start.s:14
hang:
    b hang
    8014:	eafffffe 	b	8014 <hang>

00008018 <__cxa_guard_acquire>:
__cxa_guard_acquire():
/mnt/c/Users/Kuba/Documents/ZeroMate/examples/18-UART/kernel/src/cxx.cpp:11
    extern "C" int __cxa_guard_acquire(__guard*);
    extern "C" void __cxa_guard_release(__guard*);
    extern "C" void __cxa_guard_abort(__guard*);

    extern "C" int __cxa_guard_acquire(__guard* g)
    {
    8018:	e52db004 	push	{fp}		; (str fp, [sp, #-4]!)
    801c:	e28db000 	add	fp, sp, #0
    8020:	e24dd00c 	sub	sp, sp, #12
    8024:	e50b0008 	str	r0, [fp, #-8]
/mnt/c/Users/Kuba/Documents/ZeroMate/examples/18-UART/kernel/src/cxx.cpp:12
        return !*(char*)(g);
    8028:	e51b3008 	ldr	r3, [fp, #-8]
    802c:	e5d33000 	ldrb	r3, [r3]
    8030:	e3530000 	cmp	r3, #0
    8034:	03a03001 	moveq	r3, #1
    8038:	13a03000 	movne	r3, #0
    803c:	e6ef3073 	uxtb	r3, r3
/mnt/c/Users/Kuba/Documents/ZeroMate/examples/18-UART/kernel/src/cxx.cpp:13
    }
    8040:	e1a00003 	mov	r0, r3
    8044:	e28bd000 	add	sp, fp, #0
    8048:	e49db004 	pop	{fp}		; (ldr fp, [sp], #4)
    804c:	e12fff1e 	bx	lr

00008050 <__cxa_guard_release>:
__cxa_guard_release():
/mnt/c/Users/Kuba/Documents/ZeroMate/examples/18-UART/kernel/src/cxx.cpp:16

    extern "C" void __cxa_guard_release(__guard* g)
    {
    8050:	e52db004 	push	{fp}		; (str fp, [sp, #-4]!)
    8054:	e28db000 	add	fp, sp, #0
    8058:	e24dd00c 	sub	sp, sp, #12
    805c:	e50b0008 	str	r0, [fp, #-8]
/mnt/c/Users/Kuba/Documents/ZeroMate/examples/18-UART/kernel/src/cxx.cpp:17
        *(char*)g = 1;
    8060:	e51b3008 	ldr	r3, [fp, #-8]
    8064:	e3a02001 	mov	r2, #1
    8068:	e5c32000 	strb	r2, [r3]
/mnt/c/Users/Kuba/Documents/ZeroMate/examples/18-UART/kernel/src/cxx.cpp:18
    }
    806c:	e320f000 	nop	{0}
    8070:	e28bd000 	add	sp, fp, #0
    8074:	e49db004 	pop	{fp}		; (ldr fp, [sp], #4)
    8078:	e12fff1e 	bx	lr

0000807c <__cxa_guard_abort>:
__cxa_guard_abort():
/mnt/c/Users/Kuba/Documents/ZeroMate/examples/18-UART/kernel/src/cxx.cpp:21

    extern "C" void __cxa_guard_abort(__guard*)
    {
    807c:	e52db004 	push	{fp}		; (str fp, [sp, #-4]!)
    8080:	e28db000 	add	fp, sp, #0
    8084:	e24dd00c 	sub	sp, sp, #12
    8088:	e50b0008 	str	r0, [fp, #-8]
/mnt/c/Users/Kuba/Documents/ZeroMate/examples/18-UART/kernel/src/cxx.cpp:22
    }
    808c:	e320f000 	nop	{0}
    8090:	e28bd000 	add	sp, fp, #0
    8094:	e49db004 	pop	{fp}		; (ldr fp, [sp], #4)
    8098:	e12fff1e 	bx	lr

0000809c <__dso_handle>:
__dso_handle():
/mnt/c/Users/Kuba/Documents/ZeroMate/examples/18-UART/kernel/src/cxx.cpp:26
}

extern "C" void __dso_handle()
{
    809c:	e52db004 	push	{fp}		; (str fp, [sp, #-4]!)
    80a0:	e28db000 	add	fp, sp, #0
/mnt/c/Users/Kuba/Documents/ZeroMate/examples/18-UART/kernel/src/cxx.cpp:28
    // ignore dtors for now
}
    80a4:	e320f000 	nop	{0}
    80a8:	e28bd000 	add	sp, fp, #0
    80ac:	e49db004 	pop	{fp}		; (ldr fp, [sp], #4)
    80b0:	e12fff1e 	bx	lr

000080b4 <__cxa_atexit>:
__cxa_atexit():
/mnt/c/Users/Kuba/Documents/ZeroMate/examples/18-UART/kernel/src/cxx.cpp:31

extern "C" void __cxa_atexit()
{
    80b4:	e52db004 	push	{fp}		; (str fp, [sp, #-4]!)
    80b8:	e28db000 	add	fp, sp, #0
/mnt/c/Users/Kuba/Documents/ZeroMate/examples/18-UART/kernel/src/cxx.cpp:33
    // ignore dtors for now
}
    80bc:	e320f000 	nop	{0}
    80c0:	e28bd000 	add	sp, fp, #0
    80c4:	e49db004 	pop	{fp}		; (ldr fp, [sp], #4)
    80c8:	e12fff1e 	bx	lr

000080cc <__cxa_pure_virtual>:
__cxa_pure_virtual():
/mnt/c/Users/Kuba/Documents/ZeroMate/examples/18-UART/kernel/src/cxx.cpp:36

extern "C" void __cxa_pure_virtual()
{
    80cc:	e52db004 	push	{fp}		; (str fp, [sp, #-4]!)
    80d0:	e28db000 	add	fp, sp, #0
/mnt/c/Users/Kuba/Documents/ZeroMate/examples/18-UART/kernel/src/cxx.cpp:38
    // pure virtual method called
}
    80d4:	e320f000 	nop	{0}
    80d8:	e28bd000 	add	sp, fp, #0
    80dc:	e49db004 	pop	{fp}		; (ldr fp, [sp], #4)
    80e0:	e12fff1e 	bx	lr

000080e4 <__aeabi_unwind_cpp_pr1>:
__aeabi_unwind_cpp_pr1():
/mnt/c/Users/Kuba/Documents/ZeroMate/examples/18-UART/kernel/src/cxx.cpp:41

extern "C" void __aeabi_unwind_cpp_pr1()
{
    80e4:	e52db004 	push	{fp}		; (str fp, [sp, #-4]!)
    80e8:	e28db000 	add	fp, sp, #0
/mnt/c/Users/Kuba/Documents/ZeroMate/examples/18-UART/kernel/src/cxx.cpp:42 (discriminator 1)
    while (true)
    80ec:	eafffffe 	b	80ec <__aeabi_unwind_cpp_pr1+0x8>

000080f0 <_ZN4CAUXC1Ej>:
_ZN4CAUXC2Ej():
/mnt/c/Users/Kuba/Documents/ZeroMate/examples/18-UART/kernel/src/drivers/bcm_aux.cpp:5
#include <drivers/bcm_aux.h>

CAUX sAUX(hal::AUX_Base);

CAUX::CAUX(unsigned int aux_base)
    80f0:	e52db004 	push	{fp}		; (str fp, [sp, #-4]!)
    80f4:	e28db000 	add	fp, sp, #0
    80f8:	e24dd00c 	sub	sp, sp, #12
    80fc:	e50b0008 	str	r0, [fp, #-8]
    8100:	e50b100c 	str	r1, [fp, #-12]
/mnt/c/Users/Kuba/Documents/ZeroMate/examples/18-UART/kernel/src/drivers/bcm_aux.cpp:6
: mAUX_Reg(reinterpret_cast<unsigned int*>(aux_base))
    8104:	e51b200c 	ldr	r2, [fp, #-12]
    8108:	e51b3008 	ldr	r3, [fp, #-8]
    810c:	e5832000 	str	r2, [r3]
/mnt/c/Users/Kuba/Documents/ZeroMate/examples/18-UART/kernel/src/drivers/bcm_aux.cpp:9
{
    //
}
    8110:	e51b3008 	ldr	r3, [fp, #-8]
    8114:	e1a00003 	mov	r0, r3
    8118:	e28bd000 	add	sp, fp, #0
    811c:	e49db004 	pop	{fp}		; (ldr fp, [sp], #4)
    8120:	e12fff1e 	bx	lr

00008124 <_ZN4CAUX6EnableEN3hal15AUX_PeripheralsE>:
_ZN4CAUX6EnableEN3hal15AUX_PeripheralsE():
/mnt/c/Users/Kuba/Documents/ZeroMate/examples/18-UART/kernel/src/drivers/bcm_aux.cpp:12

void CAUX::Enable(hal::AUX_Peripherals aux_peripheral)
{
    8124:	e92d4800 	push	{fp, lr}
    8128:	e28db004 	add	fp, sp, #4
    812c:	e24dd008 	sub	sp, sp, #8
    8130:	e50b0008 	str	r0, [fp, #-8]
    8134:	e50b100c 	str	r1, [fp, #-12]
/mnt/c/Users/Kuba/Documents/ZeroMate/examples/18-UART/kernel/src/drivers/bcm_aux.cpp:14
    Set_Register(hal::AUX_Reg::ENABLES,
                 Get_Register(hal::AUX_Reg::ENABLES) | (1 << static_cast<uint32_t>(aux_peripheral)));
    8138:	e3a01001 	mov	r1, #1
    813c:	e51b0008 	ldr	r0, [fp, #-8]
    8140:	eb000031 	bl	820c <_ZN4CAUX12Get_RegisterEN3hal7AUX_RegE>
    8144:	e1a02000 	mov	r2, r0
    8148:	e51b300c 	ldr	r3, [fp, #-12]
    814c:	e3a01001 	mov	r1, #1
    8150:	e1a03311 	lsl	r3, r1, r3
/mnt/c/Users/Kuba/Documents/ZeroMate/examples/18-UART/kernel/src/drivers/bcm_aux.cpp:13
    Set_Register(hal::AUX_Reg::ENABLES,
    8154:	e1823003 	orr	r3, r2, r3
    8158:	e1a02003 	mov	r2, r3
    815c:	e3a01001 	mov	r1, #1
    8160:	e51b0008 	ldr	r0, [fp, #-8]
    8164:	eb000017 	bl	81c8 <_ZN4CAUX12Set_RegisterEN3hal7AUX_RegEj>
/mnt/c/Users/Kuba/Documents/ZeroMate/examples/18-UART/kernel/src/drivers/bcm_aux.cpp:15
}
    8168:	e320f000 	nop	{0}
    816c:	e24bd004 	sub	sp, fp, #4
    8170:	e8bd8800 	pop	{fp, pc}

00008174 <_ZN4CAUX7DisableEN3hal15AUX_PeripheralsE>:
_ZN4CAUX7DisableEN3hal15AUX_PeripheralsE():
/mnt/c/Users/Kuba/Documents/ZeroMate/examples/18-UART/kernel/src/drivers/bcm_aux.cpp:18

void CAUX::Disable(hal::AUX_Peripherals aux_peripheral)
{
    8174:	e92d4800 	push	{fp, lr}
    8178:	e28db004 	add	fp, sp, #4
    817c:	e24dd008 	sub	sp, sp, #8
    8180:	e50b0008 	str	r0, [fp, #-8]
    8184:	e50b100c 	str	r1, [fp, #-12]
/mnt/c/Users/Kuba/Documents/ZeroMate/examples/18-UART/kernel/src/drivers/bcm_aux.cpp:20
    Set_Register(hal::AUX_Reg::ENABLES,
                 Get_Register(hal::AUX_Reg::ENABLES) & ~(1 << static_cast<uint32_t>(aux_peripheral)));
    8188:	e3a01001 	mov	r1, #1
    818c:	e51b0008 	ldr	r0, [fp, #-8]
    8190:	eb00001d 	bl	820c <_ZN4CAUX12Get_RegisterEN3hal7AUX_RegE>
    8194:	e1a02000 	mov	r2, r0
    8198:	e51b300c 	ldr	r3, [fp, #-12]
    819c:	e3a01001 	mov	r1, #1
    81a0:	e1a03311 	lsl	r3, r1, r3
    81a4:	e1e03003 	mvn	r3, r3
/mnt/c/Users/Kuba/Documents/ZeroMate/examples/18-UART/kernel/src/drivers/bcm_aux.cpp:19
    Set_Register(hal::AUX_Reg::ENABLES,
    81a8:	e0033002 	and	r3, r3, r2
    81ac:	e1a02003 	mov	r2, r3
    81b0:	e3a01001 	mov	r1, #1
    81b4:	e51b0008 	ldr	r0, [fp, #-8]
    81b8:	eb000002 	bl	81c8 <_ZN4CAUX12Set_RegisterEN3hal7AUX_RegEj>
/mnt/c/Users/Kuba/Documents/ZeroMate/examples/18-UART/kernel/src/drivers/bcm_aux.cpp:21
}
    81bc:	e320f000 	nop	{0}
    81c0:	e24bd004 	sub	sp, fp, #4
    81c4:	e8bd8800 	pop	{fp, pc}

000081c8 <_ZN4CAUX12Set_RegisterEN3hal7AUX_RegEj>:
_ZN4CAUX12Set_RegisterEN3hal7AUX_RegEj():
/mnt/c/Users/Kuba/Documents/ZeroMate/examples/18-UART/kernel/src/drivers/bcm_aux.cpp:24

void CAUX::Set_Register(hal::AUX_Reg reg_idx, uint32_t value)
{
    81c8:	e52db004 	push	{fp}		; (str fp, [sp, #-4]!)
    81cc:	e28db000 	add	fp, sp, #0
    81d0:	e24dd014 	sub	sp, sp, #20
    81d4:	e50b0008 	str	r0, [fp, #-8]
    81d8:	e50b100c 	str	r1, [fp, #-12]
    81dc:	e50b2010 	str	r2, [fp, #-16]
/mnt/c/Users/Kuba/Documents/ZeroMate/examples/18-UART/kernel/src/drivers/bcm_aux.cpp:25
    mAUX_Reg[static_cast<unsigned int>(reg_idx)] = value;
    81e0:	e51b3008 	ldr	r3, [fp, #-8]
    81e4:	e5932000 	ldr	r2, [r3]
    81e8:	e51b300c 	ldr	r3, [fp, #-12]
    81ec:	e1a03103 	lsl	r3, r3, #2
    81f0:	e0823003 	add	r3, r2, r3
    81f4:	e51b2010 	ldr	r2, [fp, #-16]
    81f8:	e5832000 	str	r2, [r3]
/mnt/c/Users/Kuba/Documents/ZeroMate/examples/18-UART/kernel/src/drivers/bcm_aux.cpp:26
}
    81fc:	e320f000 	nop	{0}
    8200:	e28bd000 	add	sp, fp, #0
    8204:	e49db004 	pop	{fp}		; (ldr fp, [sp], #4)
    8208:	e12fff1e 	bx	lr

0000820c <_ZN4CAUX12Get_RegisterEN3hal7AUX_RegE>:
_ZN4CAUX12Get_RegisterEN3hal7AUX_RegE():
/mnt/c/Users/Kuba/Documents/ZeroMate/examples/18-UART/kernel/src/drivers/bcm_aux.cpp:29

uint32_t CAUX::Get_Register(hal::AUX_Reg reg_idx)
{
    820c:	e52db004 	push	{fp}		; (str fp, [sp, #-4]!)
    8210:	e28db000 	add	fp, sp, #0
    8214:	e24dd00c 	sub	sp, sp, #12
    8218:	e50b0008 	str	r0, [fp, #-8]
    821c:	e50b100c 	str	r1, [fp, #-12]
/mnt/c/Users/Kuba/Documents/ZeroMate/examples/18-UART/kernel/src/drivers/bcm_aux.cpp:30
    return mAUX_Reg[static_cast<unsigned int>(reg_idx)];
    8220:	e51b3008 	ldr	r3, [fp, #-8]
    8224:	e5932000 	ldr	r2, [r3]
    8228:	e51b300c 	ldr	r3, [fp, #-12]
    822c:	e1a03103 	lsl	r3, r3, #2
    8230:	e0823003 	add	r3, r2, r3
    8234:	e5933000 	ldr	r3, [r3]
/mnt/c/Users/Kuba/Documents/ZeroMate/examples/18-UART/kernel/src/drivers/bcm_aux.cpp:31
}
    8238:	e1a00003 	mov	r0, r3
    823c:	e28bd000 	add	sp, fp, #0
    8240:	e49db004 	pop	{fp}		; (ldr fp, [sp], #4)
    8244:	e12fff1e 	bx	lr

00008248 <_Z41__static_initialization_and_destruction_0ii>:
_Z41__static_initialization_and_destruction_0ii():
/mnt/c/Users/Kuba/Documents/ZeroMate/examples/18-UART/kernel/src/drivers/bcm_aux.cpp:31
    8248:	e92d4800 	push	{fp, lr}
    824c:	e28db004 	add	fp, sp, #4
    8250:	e24dd008 	sub	sp, sp, #8
    8254:	e50b0008 	str	r0, [fp, #-8]
    8258:	e50b100c 	str	r1, [fp, #-12]
    825c:	e51b3008 	ldr	r3, [fp, #-8]
    8260:	e3530001 	cmp	r3, #1
    8264:	1a000006 	bne	8284 <_Z41__static_initialization_and_destruction_0ii+0x3c>
/mnt/c/Users/Kuba/Documents/ZeroMate/examples/18-UART/kernel/src/drivers/bcm_aux.cpp:31 (discriminator 1)
    8268:	e51b300c 	ldr	r3, [fp, #-12]
    826c:	e59f201c 	ldr	r2, [pc, #28]	; 8290 <_Z41__static_initialization_and_destruction_0ii+0x48>
    8270:	e1530002 	cmp	r3, r2
    8274:	1a000002 	bne	8284 <_Z41__static_initialization_and_destruction_0ii+0x3c>
/mnt/c/Users/Kuba/Documents/ZeroMate/examples/18-UART/kernel/src/drivers/bcm_aux.cpp:3
CAUX sAUX(hal::AUX_Base);
    8278:	e59f1014 	ldr	r1, [pc, #20]	; 8294 <_Z41__static_initialization_and_destruction_0ii+0x4c>
    827c:	e59f0014 	ldr	r0, [pc, #20]	; 8298 <_Z41__static_initialization_and_destruction_0ii+0x50>
    8280:	ebffff9a 	bl	80f0 <_ZN4CAUXC1Ej>
/mnt/c/Users/Kuba/Documents/ZeroMate/examples/18-UART/kernel/src/drivers/bcm_aux.cpp:31
}
    8284:	e320f000 	nop	{0}
    8288:	e24bd004 	sub	sp, fp, #4
    828c:	e8bd8800 	pop	{fp, pc}
    8290:	0000ffff 	strdeq	pc, [r0], -pc	; <UNPREDICTABLE>
    8294:	20215000 	eorcs	r5, r1, r0
    8298:	000096d8 	ldrdeq	r9, [r0], -r8

0000829c <_GLOBAL__sub_I_sAUX>:
_GLOBAL__sub_I_sAUX():
/mnt/c/Users/Kuba/Documents/ZeroMate/examples/18-UART/kernel/src/drivers/bcm_aux.cpp:31
    829c:	e92d4800 	push	{fp, lr}
    82a0:	e28db004 	add	fp, sp, #4
    82a4:	e59f1008 	ldr	r1, [pc, #8]	; 82b4 <_GLOBAL__sub_I_sAUX+0x18>
    82a8:	e3a00001 	mov	r0, #1
    82ac:	ebffffe5 	bl	8248 <_Z41__static_initialization_and_destruction_0ii>
    82b0:	e8bd8800 	pop	{fp, pc}
    82b4:	0000ffff 	strdeq	pc, [r0], -pc	; <UNPREDICTABLE>

000082b8 <_ZN13CGPIO_HandlerC1Ej>:
_ZN13CGPIO_HandlerC2Ej():
/mnt/c/Users/Kuba/Documents/ZeroMate/examples/18-UART/kernel/src/drivers/gpio.cpp:6
#include <hal/peripherals.h>
#include <drivers/gpio.h>

CGPIO_Handler sGPIO(hal::GPIO_Base);

CGPIO_Handler::CGPIO_Handler(unsigned int gpio_base_addr)
    82b8:	e52db004 	push	{fp}		; (str fp, [sp, #-4]!)
    82bc:	e28db000 	add	fp, sp, #0
    82c0:	e24dd00c 	sub	sp, sp, #12
    82c4:	e50b0008 	str	r0, [fp, #-8]
    82c8:	e50b100c 	str	r1, [fp, #-12]
/mnt/c/Users/Kuba/Documents/ZeroMate/examples/18-UART/kernel/src/drivers/gpio.cpp:7
: mGPIO(reinterpret_cast<unsigned int*>(gpio_base_addr))
    82cc:	e51b200c 	ldr	r2, [fp, #-12]
    82d0:	e51b3008 	ldr	r3, [fp, #-8]
    82d4:	e5832000 	str	r2, [r3]
/mnt/c/Users/Kuba/Documents/ZeroMate/examples/18-UART/kernel/src/drivers/gpio.cpp:10
{
    //
}
    82d8:	e51b3008 	ldr	r3, [fp, #-8]
    82dc:	e1a00003 	mov	r0, r3
    82e0:	e28bd000 	add	sp, fp, #0
    82e4:	e49db004 	pop	{fp}		; (ldr fp, [sp], #4)
    82e8:	e12fff1e 	bx	lr

000082ec <_ZNK13CGPIO_Handler19Get_GPFSEL_LocationEjRjS0_>:
_ZNK13CGPIO_Handler19Get_GPFSEL_LocationEjRjS0_():
/mnt/c/Users/Kuba/Documents/ZeroMate/examples/18-UART/kernel/src/drivers/gpio.cpp:13

bool CGPIO_Handler::Get_GPFSEL_Location(uint32_t pin, uint32_t& reg, uint32_t& bit_idx) const
{
    82ec:	e52db004 	push	{fp}		; (str fp, [sp, #-4]!)
    82f0:	e28db000 	add	fp, sp, #0
    82f4:	e24dd014 	sub	sp, sp, #20
    82f8:	e50b0008 	str	r0, [fp, #-8]
    82fc:	e50b100c 	str	r1, [fp, #-12]
    8300:	e50b2010 	str	r2, [fp, #-16]
    8304:	e50b3014 	str	r3, [fp, #-20]	; 0xffffffec
/mnt/c/Users/Kuba/Documents/ZeroMate/examples/18-UART/kernel/src/drivers/gpio.cpp:14
    if (pin > hal::GPIO_Pin_Count)
    8308:	e51b300c 	ldr	r3, [fp, #-12]
    830c:	e3530036 	cmp	r3, #54	; 0x36
    8310:	9a000001 	bls	831c <_ZNK13CGPIO_Handler19Get_GPFSEL_LocationEjRjS0_+0x30>
/mnt/c/Users/Kuba/Documents/ZeroMate/examples/18-UART/kernel/src/drivers/gpio.cpp:15
        return false;
    8314:	e3a03000 	mov	r3, #0
    8318:	ea000033 	b	83ec <_ZNK13CGPIO_Handler19Get_GPFSEL_LocationEjRjS0_+0x100>
/mnt/c/Users/Kuba/Documents/ZeroMate/examples/18-UART/kernel/src/drivers/gpio.cpp:17

    switch (pin / 10)
    831c:	e51b300c 	ldr	r3, [fp, #-12]
    8320:	e59f20d4 	ldr	r2, [pc, #212]	; 83fc <_ZNK13CGPIO_Handler19Get_GPFSEL_LocationEjRjS0_+0x110>
    8324:	e0832392 	umull	r2, r3, r2, r3
    8328:	e1a031a3 	lsr	r3, r3, #3
    832c:	e3530005 	cmp	r3, #5
    8330:	979ff103 	ldrls	pc, [pc, r3, lsl #2]
    8334:	ea00001d 	b	83b0 <_ZNK13CGPIO_Handler19Get_GPFSEL_LocationEjRjS0_+0xc4>
    8338:	00008350 	andeq	r8, r0, r0, asr r3
    833c:	00008360 	andeq	r8, r0, r0, ror #6
    8340:	00008370 	andeq	r8, r0, r0, ror r3
    8344:	00008380 	andeq	r8, r0, r0, lsl #7
    8348:	00008390 	muleq	r0, r0, r3
    834c:	000083a0 	andeq	r8, r0, r0, lsr #7
/mnt/c/Users/Kuba/Documents/ZeroMate/examples/18-UART/kernel/src/drivers/gpio.cpp:20
    {
        case 0:
            reg = static_cast<uint32_t>(hal::GPIO_Reg::GPFSEL0);
    8350:	e51b3010 	ldr	r3, [fp, #-16]
    8354:	e3a02000 	mov	r2, #0
    8358:	e5832000 	str	r2, [r3]
/mnt/c/Users/Kuba/Documents/ZeroMate/examples/18-UART/kernel/src/drivers/gpio.cpp:21
            break;
    835c:	ea000013 	b	83b0 <_ZNK13CGPIO_Handler19Get_GPFSEL_LocationEjRjS0_+0xc4>
/mnt/c/Users/Kuba/Documents/ZeroMate/examples/18-UART/kernel/src/drivers/gpio.cpp:23
        case 1:
            reg = static_cast<uint32_t>(hal::GPIO_Reg::GPFSEL1);
    8360:	e51b3010 	ldr	r3, [fp, #-16]
    8364:	e3a02001 	mov	r2, #1
    8368:	e5832000 	str	r2, [r3]
/mnt/c/Users/Kuba/Documents/ZeroMate/examples/18-UART/kernel/src/drivers/gpio.cpp:24
            break;
    836c:	ea00000f 	b	83b0 <_ZNK13CGPIO_Handler19Get_GPFSEL_LocationEjRjS0_+0xc4>
/mnt/c/Users/Kuba/Documents/ZeroMate/examples/18-UART/kernel/src/drivers/gpio.cpp:26
        case 2:
            reg = static_cast<uint32_t>(hal::GPIO_Reg::GPFSEL2);
    8370:	e51b3010 	ldr	r3, [fp, #-16]
    8374:	e3a02002 	mov	r2, #2
    8378:	e5832000 	str	r2, [r3]
/mnt/c/Users/Kuba/Documents/ZeroMate/examples/18-UART/kernel/src/drivers/gpio.cpp:27
            break;
    837c:	ea00000b 	b	83b0 <_ZNK13CGPIO_Handler19Get_GPFSEL_LocationEjRjS0_+0xc4>
/mnt/c/Users/Kuba/Documents/ZeroMate/examples/18-UART/kernel/src/drivers/gpio.cpp:29
        case 3:
            reg = static_cast<uint32_t>(hal::GPIO_Reg::GPFSEL3);
    8380:	e51b3010 	ldr	r3, [fp, #-16]
    8384:	e3a02003 	mov	r2, #3
    8388:	e5832000 	str	r2, [r3]
/mnt/c/Users/Kuba/Documents/ZeroMate/examples/18-UART/kernel/src/drivers/gpio.cpp:30
            break;
    838c:	ea000007 	b	83b0 <_ZNK13CGPIO_Handler19Get_GPFSEL_LocationEjRjS0_+0xc4>
/mnt/c/Users/Kuba/Documents/ZeroMate/examples/18-UART/kernel/src/drivers/gpio.cpp:32
        case 4:
            reg = static_cast<uint32_t>(hal::GPIO_Reg::GPFSEL4);
    8390:	e51b3010 	ldr	r3, [fp, #-16]
    8394:	e3a02004 	mov	r2, #4
    8398:	e5832000 	str	r2, [r3]
/mnt/c/Users/Kuba/Documents/ZeroMate/examples/18-UART/kernel/src/drivers/gpio.cpp:33
            break;
    839c:	ea000003 	b	83b0 <_ZNK13CGPIO_Handler19Get_GPFSEL_LocationEjRjS0_+0xc4>
/mnt/c/Users/Kuba/Documents/ZeroMate/examples/18-UART/kernel/src/drivers/gpio.cpp:35
        case 5:
            reg = static_cast<uint32_t>(hal::GPIO_Reg::GPFSEL5);
    83a0:	e51b3010 	ldr	r3, [fp, #-16]
    83a4:	e3a02005 	mov	r2, #5
    83a8:	e5832000 	str	r2, [r3]
/mnt/c/Users/Kuba/Documents/ZeroMate/examples/18-UART/kernel/src/drivers/gpio.cpp:36
            break;
    83ac:	e320f000 	nop	{0}
/mnt/c/Users/Kuba/Documents/ZeroMate/examples/18-UART/kernel/src/drivers/gpio.cpp:39
    }

    bit_idx = (pin % 10) * 3;
    83b0:	e51b100c 	ldr	r1, [fp, #-12]
    83b4:	e59f3040 	ldr	r3, [pc, #64]	; 83fc <_ZNK13CGPIO_Handler19Get_GPFSEL_LocationEjRjS0_+0x110>
    83b8:	e0832193 	umull	r2, r3, r3, r1
    83bc:	e1a021a3 	lsr	r2, r3, #3
    83c0:	e1a03002 	mov	r3, r2
    83c4:	e1a03103 	lsl	r3, r3, #2
    83c8:	e0833002 	add	r3, r3, r2
    83cc:	e1a03083 	lsl	r3, r3, #1
    83d0:	e0412003 	sub	r2, r1, r3
    83d4:	e1a03002 	mov	r3, r2
    83d8:	e1a03083 	lsl	r3, r3, #1
    83dc:	e0832002 	add	r2, r3, r2
    83e0:	e51b3014 	ldr	r3, [fp, #-20]	; 0xffffffec
    83e4:	e5832000 	str	r2, [r3]
/mnt/c/Users/Kuba/Documents/ZeroMate/examples/18-UART/kernel/src/drivers/gpio.cpp:41

    return true;
    83e8:	e3a03001 	mov	r3, #1
/mnt/c/Users/Kuba/Documents/ZeroMate/examples/18-UART/kernel/src/drivers/gpio.cpp:42
}
    83ec:	e1a00003 	mov	r0, r3
    83f0:	e28bd000 	add	sp, fp, #0
    83f4:	e49db004 	pop	{fp}		; (ldr fp, [sp], #4)
    83f8:	e12fff1e 	bx	lr
    83fc:	cccccccd 	stclgt	12, cr12, [ip], {205}	; 0xcd

00008400 <_ZNK13CGPIO_Handler18Get_GPCLR_LocationEjRjS0_>:
_ZNK13CGPIO_Handler18Get_GPCLR_LocationEjRjS0_():
/mnt/c/Users/Kuba/Documents/ZeroMate/examples/18-UART/kernel/src/drivers/gpio.cpp:45

bool CGPIO_Handler::Get_GPCLR_Location(uint32_t pin, uint32_t& reg, uint32_t& bit_idx) const
{
    8400:	e52db004 	push	{fp}		; (str fp, [sp, #-4]!)
    8404:	e28db000 	add	fp, sp, #0
    8408:	e24dd014 	sub	sp, sp, #20
    840c:	e50b0008 	str	r0, [fp, #-8]
    8410:	e50b100c 	str	r1, [fp, #-12]
    8414:	e50b2010 	str	r2, [fp, #-16]
    8418:	e50b3014 	str	r3, [fp, #-20]	; 0xffffffec
/mnt/c/Users/Kuba/Documents/ZeroMate/examples/18-UART/kernel/src/drivers/gpio.cpp:46
    if (pin > hal::GPIO_Pin_Count)
    841c:	e51b300c 	ldr	r3, [fp, #-12]
    8420:	e3530036 	cmp	r3, #54	; 0x36
    8424:	9a000001 	bls	8430 <_ZNK13CGPIO_Handler18Get_GPCLR_LocationEjRjS0_+0x30>
/mnt/c/Users/Kuba/Documents/ZeroMate/examples/18-UART/kernel/src/drivers/gpio.cpp:47
        return false;
    8428:	e3a03000 	mov	r3, #0
    842c:	ea00000c 	b	8464 <_ZNK13CGPIO_Handler18Get_GPCLR_LocationEjRjS0_+0x64>
/mnt/c/Users/Kuba/Documents/ZeroMate/examples/18-UART/kernel/src/drivers/gpio.cpp:49

    reg = static_cast<uint32_t>((pin < 32) ? hal::GPIO_Reg::GPCLR0 : hal::GPIO_Reg::GPCLR1);
    8430:	e51b300c 	ldr	r3, [fp, #-12]
    8434:	e353001f 	cmp	r3, #31
    8438:	8a000001 	bhi	8444 <_ZNK13CGPIO_Handler18Get_GPCLR_LocationEjRjS0_+0x44>
/mnt/c/Users/Kuba/Documents/ZeroMate/examples/18-UART/kernel/src/drivers/gpio.cpp:49 (discriminator 1)
    843c:	e3a0200a 	mov	r2, #10
    8440:	ea000000 	b	8448 <_ZNK13CGPIO_Handler18Get_GPCLR_LocationEjRjS0_+0x48>
/mnt/c/Users/Kuba/Documents/ZeroMate/examples/18-UART/kernel/src/drivers/gpio.cpp:49 (discriminator 2)
    8444:	e3a0200b 	mov	r2, #11
/mnt/c/Users/Kuba/Documents/ZeroMate/examples/18-UART/kernel/src/drivers/gpio.cpp:49 (discriminator 4)
    8448:	e51b3010 	ldr	r3, [fp, #-16]
    844c:	e5832000 	str	r2, [r3]
/mnt/c/Users/Kuba/Documents/ZeroMate/examples/18-UART/kernel/src/drivers/gpio.cpp:50 (discriminator 4)
    bit_idx = pin % 32;
    8450:	e51b300c 	ldr	r3, [fp, #-12]
    8454:	e203201f 	and	r2, r3, #31
    8458:	e51b3014 	ldr	r3, [fp, #-20]	; 0xffffffec
    845c:	e5832000 	str	r2, [r3]
/mnt/c/Users/Kuba/Documents/ZeroMate/examples/18-UART/kernel/src/drivers/gpio.cpp:52 (discriminator 4)

    return true;
    8460:	e3a03001 	mov	r3, #1
/mnt/c/Users/Kuba/Documents/ZeroMate/examples/18-UART/kernel/src/drivers/gpio.cpp:53
}
    8464:	e1a00003 	mov	r0, r3
    8468:	e28bd000 	add	sp, fp, #0
    846c:	e49db004 	pop	{fp}		; (ldr fp, [sp], #4)
    8470:	e12fff1e 	bx	lr

00008474 <_ZNK13CGPIO_Handler18Get_GPSET_LocationEjRjS0_>:
_ZNK13CGPIO_Handler18Get_GPSET_LocationEjRjS0_():
/mnt/c/Users/Kuba/Documents/ZeroMate/examples/18-UART/kernel/src/drivers/gpio.cpp:56

bool CGPIO_Handler::Get_GPSET_Location(uint32_t pin, uint32_t& reg, uint32_t& bit_idx) const
{
    8474:	e52db004 	push	{fp}		; (str fp, [sp, #-4]!)
    8478:	e28db000 	add	fp, sp, #0
    847c:	e24dd014 	sub	sp, sp, #20
    8480:	e50b0008 	str	r0, [fp, #-8]
    8484:	e50b100c 	str	r1, [fp, #-12]
    8488:	e50b2010 	str	r2, [fp, #-16]
    848c:	e50b3014 	str	r3, [fp, #-20]	; 0xffffffec
/mnt/c/Users/Kuba/Documents/ZeroMate/examples/18-UART/kernel/src/drivers/gpio.cpp:57
    if (pin > hal::GPIO_Pin_Count)
    8490:	e51b300c 	ldr	r3, [fp, #-12]
    8494:	e3530036 	cmp	r3, #54	; 0x36
    8498:	9a000001 	bls	84a4 <_ZNK13CGPIO_Handler18Get_GPSET_LocationEjRjS0_+0x30>
/mnt/c/Users/Kuba/Documents/ZeroMate/examples/18-UART/kernel/src/drivers/gpio.cpp:58
        return false;
    849c:	e3a03000 	mov	r3, #0
    84a0:	ea00000c 	b	84d8 <_ZNK13CGPIO_Handler18Get_GPSET_LocationEjRjS0_+0x64>
/mnt/c/Users/Kuba/Documents/ZeroMate/examples/18-UART/kernel/src/drivers/gpio.cpp:60

    reg = static_cast<uint32_t>((pin < 32) ? hal::GPIO_Reg::GPSET0 : hal::GPIO_Reg::GPSET1);
    84a4:	e51b300c 	ldr	r3, [fp, #-12]
    84a8:	e353001f 	cmp	r3, #31
    84ac:	8a000001 	bhi	84b8 <_ZNK13CGPIO_Handler18Get_GPSET_LocationEjRjS0_+0x44>
/mnt/c/Users/Kuba/Documents/ZeroMate/examples/18-UART/kernel/src/drivers/gpio.cpp:60 (discriminator 1)
    84b0:	e3a02007 	mov	r2, #7
    84b4:	ea000000 	b	84bc <_ZNK13CGPIO_Handler18Get_GPSET_LocationEjRjS0_+0x48>
/mnt/c/Users/Kuba/Documents/ZeroMate/examples/18-UART/kernel/src/drivers/gpio.cpp:60 (discriminator 2)
    84b8:	e3a02008 	mov	r2, #8
/mnt/c/Users/Kuba/Documents/ZeroMate/examples/18-UART/kernel/src/drivers/gpio.cpp:60 (discriminator 4)
    84bc:	e51b3010 	ldr	r3, [fp, #-16]
    84c0:	e5832000 	str	r2, [r3]
/mnt/c/Users/Kuba/Documents/ZeroMate/examples/18-UART/kernel/src/drivers/gpio.cpp:61 (discriminator 4)
    bit_idx = pin % 32;
    84c4:	e51b300c 	ldr	r3, [fp, #-12]
    84c8:	e203201f 	and	r2, r3, #31
    84cc:	e51b3014 	ldr	r3, [fp, #-20]	; 0xffffffec
    84d0:	e5832000 	str	r2, [r3]
/mnt/c/Users/Kuba/Documents/ZeroMate/examples/18-UART/kernel/src/drivers/gpio.cpp:63 (discriminator 4)

    return true;
    84d4:	e3a03001 	mov	r3, #1
/mnt/c/Users/Kuba/Documents/ZeroMate/examples/18-UART/kernel/src/drivers/gpio.cpp:64
}
    84d8:	e1a00003 	mov	r0, r3
    84dc:	e28bd000 	add	sp, fp, #0
    84e0:	e49db004 	pop	{fp}		; (ldr fp, [sp], #4)
    84e4:	e12fff1e 	bx	lr

000084e8 <_ZNK13CGPIO_Handler18Get_GPLEV_LocationEjRjS0_>:
_ZNK13CGPIO_Handler18Get_GPLEV_LocationEjRjS0_():
/mnt/c/Users/Kuba/Documents/ZeroMate/examples/18-UART/kernel/src/drivers/gpio.cpp:67

bool CGPIO_Handler::Get_GPLEV_Location(uint32_t pin, uint32_t& reg, uint32_t& bit_idx) const
{
    84e8:	e52db004 	push	{fp}		; (str fp, [sp, #-4]!)
    84ec:	e28db000 	add	fp, sp, #0
    84f0:	e24dd014 	sub	sp, sp, #20
    84f4:	e50b0008 	str	r0, [fp, #-8]
    84f8:	e50b100c 	str	r1, [fp, #-12]
    84fc:	e50b2010 	str	r2, [fp, #-16]
    8500:	e50b3014 	str	r3, [fp, #-20]	; 0xffffffec
/mnt/c/Users/Kuba/Documents/ZeroMate/examples/18-UART/kernel/src/drivers/gpio.cpp:68
    if (pin > hal::GPIO_Pin_Count)
    8504:	e51b300c 	ldr	r3, [fp, #-12]
    8508:	e3530036 	cmp	r3, #54	; 0x36
    850c:	9a000001 	bls	8518 <_ZNK13CGPIO_Handler18Get_GPLEV_LocationEjRjS0_+0x30>
/mnt/c/Users/Kuba/Documents/ZeroMate/examples/18-UART/kernel/src/drivers/gpio.cpp:69
        return false;
    8510:	e3a03000 	mov	r3, #0
    8514:	ea00000c 	b	854c <_ZNK13CGPIO_Handler18Get_GPLEV_LocationEjRjS0_+0x64>
/mnt/c/Users/Kuba/Documents/ZeroMate/examples/18-UART/kernel/src/drivers/gpio.cpp:71

    reg = static_cast<uint32_t>((pin < 32) ? hal::GPIO_Reg::GPLEV0 : hal::GPIO_Reg::GPLEV1);
    8518:	e51b300c 	ldr	r3, [fp, #-12]
    851c:	e353001f 	cmp	r3, #31
    8520:	8a000001 	bhi	852c <_ZNK13CGPIO_Handler18Get_GPLEV_LocationEjRjS0_+0x44>
/mnt/c/Users/Kuba/Documents/ZeroMate/examples/18-UART/kernel/src/drivers/gpio.cpp:71 (discriminator 1)
    8524:	e3a0200d 	mov	r2, #13
    8528:	ea000000 	b	8530 <_ZNK13CGPIO_Handler18Get_GPLEV_LocationEjRjS0_+0x48>
/mnt/c/Users/Kuba/Documents/ZeroMate/examples/18-UART/kernel/src/drivers/gpio.cpp:71 (discriminator 2)
    852c:	e3a0200e 	mov	r2, #14
/mnt/c/Users/Kuba/Documents/ZeroMate/examples/18-UART/kernel/src/drivers/gpio.cpp:71 (discriminator 4)
    8530:	e51b3010 	ldr	r3, [fp, #-16]
    8534:	e5832000 	str	r2, [r3]
/mnt/c/Users/Kuba/Documents/ZeroMate/examples/18-UART/kernel/src/drivers/gpio.cpp:72 (discriminator 4)
    bit_idx = pin % 32;
    8538:	e51b300c 	ldr	r3, [fp, #-12]
    853c:	e203201f 	and	r2, r3, #31
    8540:	e51b3014 	ldr	r3, [fp, #-20]	; 0xffffffec
    8544:	e5832000 	str	r2, [r3]
/mnt/c/Users/Kuba/Documents/ZeroMate/examples/18-UART/kernel/src/drivers/gpio.cpp:74 (discriminator 4)

    return true;
    8548:	e3a03001 	mov	r3, #1
/mnt/c/Users/Kuba/Documents/ZeroMate/examples/18-UART/kernel/src/drivers/gpio.cpp:75
}
    854c:	e1a00003 	mov	r0, r3
    8550:	e28bd000 	add	sp, fp, #0
    8554:	e49db004 	pop	{fp}		; (ldr fp, [sp], #4)
    8558:	e12fff1e 	bx	lr

0000855c <_ZN13CGPIO_Handler17Set_GPIO_FunctionEj14NGPIO_Function>:
_ZN13CGPIO_Handler17Set_GPIO_FunctionEj14NGPIO_Function():
/mnt/c/Users/Kuba/Documents/ZeroMate/examples/18-UART/kernel/src/drivers/gpio.cpp:78

void CGPIO_Handler::Set_GPIO_Function(uint32_t pin, NGPIO_Function func)
{
    855c:	e92d4800 	push	{fp, lr}
    8560:	e28db004 	add	fp, sp, #4
    8564:	e24dd018 	sub	sp, sp, #24
    8568:	e50b0010 	str	r0, [fp, #-16]
    856c:	e50b1014 	str	r1, [fp, #-20]	; 0xffffffec
    8570:	e1a03002 	mov	r3, r2
    8574:	e54b3015 	strb	r3, [fp, #-21]	; 0xffffffeb
/mnt/c/Users/Kuba/Documents/ZeroMate/examples/18-UART/kernel/src/drivers/gpio.cpp:80
    uint32_t reg, bit;
    if (Get_GPFSEL_Location(pin, reg, bit))
    8578:	e24b300c 	sub	r3, fp, #12
    857c:	e24b2008 	sub	r2, fp, #8
    8580:	e51b1014 	ldr	r1, [fp, #-20]	; 0xffffffec
    8584:	e51b0010 	ldr	r0, [fp, #-16]
    8588:	ebffff57 	bl	82ec <_ZNK13CGPIO_Handler19Get_GPFSEL_LocationEjRjS0_>
    858c:	e1a03000 	mov	r3, r0
    8590:	e3530000 	cmp	r3, #0
    8594:	1a000015 	bne	85f0 <_ZN13CGPIO_Handler17Set_GPIO_FunctionEj14NGPIO_Function+0x94>
/mnt/c/Users/Kuba/Documents/ZeroMate/examples/18-UART/kernel/src/drivers/gpio.cpp:83
        return;

    mGPIO[reg] = (mGPIO[reg] & (~static_cast<unsigned int>(7 << bit))) | (static_cast<unsigned int>(func) << bit);
    8598:	e51b3010 	ldr	r3, [fp, #-16]
    859c:	e5932000 	ldr	r2, [r3]
    85a0:	e51b3008 	ldr	r3, [fp, #-8]
    85a4:	e1a03103 	lsl	r3, r3, #2
    85a8:	e0823003 	add	r3, r2, r3
    85ac:	e5932000 	ldr	r2, [r3]
    85b0:	e51b300c 	ldr	r3, [fp, #-12]
    85b4:	e3a01007 	mov	r1, #7
    85b8:	e1a03311 	lsl	r3, r1, r3
    85bc:	e1e03003 	mvn	r3, r3
    85c0:	e0021003 	and	r1, r2, r3
    85c4:	e55b2015 	ldrb	r2, [fp, #-21]	; 0xffffffeb
    85c8:	e51b300c 	ldr	r3, [fp, #-12]
    85cc:	e1a02312 	lsl	r2, r2, r3
    85d0:	e51b3010 	ldr	r3, [fp, #-16]
    85d4:	e5930000 	ldr	r0, [r3]
    85d8:	e51b3008 	ldr	r3, [fp, #-8]
    85dc:	e1a03103 	lsl	r3, r3, #2
    85e0:	e0803003 	add	r3, r0, r3
    85e4:	e1812002 	orr	r2, r1, r2
    85e8:	e5832000 	str	r2, [r3]
    85ec:	ea000000 	b	85f4 <_ZN13CGPIO_Handler17Set_GPIO_FunctionEj14NGPIO_Function+0x98>
/mnt/c/Users/Kuba/Documents/ZeroMate/examples/18-UART/kernel/src/drivers/gpio.cpp:81
        return;
    85f0:	e320f000 	nop	{0}
/mnt/c/Users/Kuba/Documents/ZeroMate/examples/18-UART/kernel/src/drivers/gpio.cpp:84
}
    85f4:	e24bd004 	sub	sp, fp, #4
    85f8:	e8bd8800 	pop	{fp, pc}

000085fc <_ZNK13CGPIO_Handler17Get_GPIO_FunctionEj>:
_ZNK13CGPIO_Handler17Get_GPIO_FunctionEj():
/mnt/c/Users/Kuba/Documents/ZeroMate/examples/18-UART/kernel/src/drivers/gpio.cpp:87

NGPIO_Function CGPIO_Handler::Get_GPIO_Function(uint32_t pin) const
{
    85fc:	e92d4800 	push	{fp, lr}
    8600:	e28db004 	add	fp, sp, #4
    8604:	e24dd010 	sub	sp, sp, #16
    8608:	e50b0010 	str	r0, [fp, #-16]
    860c:	e50b1014 	str	r1, [fp, #-20]	; 0xffffffec
/mnt/c/Users/Kuba/Documents/ZeroMate/examples/18-UART/kernel/src/drivers/gpio.cpp:89
    uint32_t reg, bit;
    if (Get_GPFSEL_Location(pin, reg, bit))
    8610:	e24b300c 	sub	r3, fp, #12
    8614:	e24b2008 	sub	r2, fp, #8
    8618:	e51b1014 	ldr	r1, [fp, #-20]	; 0xffffffec
    861c:	e51b0010 	ldr	r0, [fp, #-16]
    8620:	ebffff31 	bl	82ec <_ZNK13CGPIO_Handler19Get_GPFSEL_LocationEjRjS0_>
    8624:	e1a03000 	mov	r3, r0
    8628:	e3530000 	cmp	r3, #0
    862c:	0a000001 	beq	8638 <_ZNK13CGPIO_Handler17Get_GPIO_FunctionEj+0x3c>
/mnt/c/Users/Kuba/Documents/ZeroMate/examples/18-UART/kernel/src/drivers/gpio.cpp:90
        return NGPIO_Function::Unspecified;
    8630:	e3a03008 	mov	r3, #8
    8634:	ea00000a 	b	8664 <_ZNK13CGPIO_Handler17Get_GPIO_FunctionEj+0x68>
/mnt/c/Users/Kuba/Documents/ZeroMate/examples/18-UART/kernel/src/drivers/gpio.cpp:92

    return static_cast<NGPIO_Function>((mGPIO[reg] >> bit) & 7);
    8638:	e51b3010 	ldr	r3, [fp, #-16]
    863c:	e5932000 	ldr	r2, [r3]
    8640:	e51b3008 	ldr	r3, [fp, #-8]
    8644:	e1a03103 	lsl	r3, r3, #2
    8648:	e0823003 	add	r3, r2, r3
    864c:	e5932000 	ldr	r2, [r3]
    8650:	e51b300c 	ldr	r3, [fp, #-12]
    8654:	e1a03332 	lsr	r3, r2, r3
    8658:	e6ef3073 	uxtb	r3, r3
    865c:	e2033007 	and	r3, r3, #7
    8660:	e6ef3073 	uxtb	r3, r3
/mnt/c/Users/Kuba/Documents/ZeroMate/examples/18-UART/kernel/src/drivers/gpio.cpp:93 (discriminator 1)
}
    8664:	e1a00003 	mov	r0, r3
    8668:	e24bd004 	sub	sp, fp, #4
    866c:	e8bd8800 	pop	{fp, pc}

00008670 <_ZN13CGPIO_Handler10Set_OutputEjb>:
_ZN13CGPIO_Handler10Set_OutputEjb():
/mnt/c/Users/Kuba/Documents/ZeroMate/examples/18-UART/kernel/src/drivers/gpio.cpp:96

void CGPIO_Handler::Set_Output(uint32_t pin, bool set)
{
    8670:	e92d4800 	push	{fp, lr}
    8674:	e28db004 	add	fp, sp, #4
    8678:	e24dd018 	sub	sp, sp, #24
    867c:	e50b0010 	str	r0, [fp, #-16]
    8680:	e50b1014 	str	r1, [fp, #-20]	; 0xffffffec
    8684:	e1a03002 	mov	r3, r2
    8688:	e54b3015 	strb	r3, [fp, #-21]	; 0xffffffeb
/mnt/c/Users/Kuba/Documents/ZeroMate/examples/18-UART/kernel/src/drivers/gpio.cpp:98
    uint32_t reg, bit;
    if (!(set && Get_GPSET_Location(pin, reg, bit)) && !(!set && Get_GPCLR_Location(pin, reg, bit)))
    868c:	e55b3015 	ldrb	r3, [fp, #-21]	; 0xffffffeb
    8690:	e2233001 	eor	r3, r3, #1
    8694:	e6ef3073 	uxtb	r3, r3
    8698:	e3530000 	cmp	r3, #0
    869c:	1a000009 	bne	86c8 <_ZN13CGPIO_Handler10Set_OutputEjb+0x58>
/mnt/c/Users/Kuba/Documents/ZeroMate/examples/18-UART/kernel/src/drivers/gpio.cpp:98 (discriminator 2)
    86a0:	e24b300c 	sub	r3, fp, #12
    86a4:	e24b2008 	sub	r2, fp, #8
    86a8:	e51b1014 	ldr	r1, [fp, #-20]	; 0xffffffec
    86ac:	e51b0010 	ldr	r0, [fp, #-16]
    86b0:	ebffff6f 	bl	8474 <_ZNK13CGPIO_Handler18Get_GPSET_LocationEjRjS0_>
    86b4:	e1a03000 	mov	r3, r0
    86b8:	e2233001 	eor	r3, r3, #1
    86bc:	e6ef3073 	uxtb	r3, r3
    86c0:	e3530000 	cmp	r3, #0
    86c4:	0a00000e 	beq	8704 <_ZN13CGPIO_Handler10Set_OutputEjb+0x94>
/mnt/c/Users/Kuba/Documents/ZeroMate/examples/18-UART/kernel/src/drivers/gpio.cpp:98 (discriminator 3)
    86c8:	e55b3015 	ldrb	r3, [fp, #-21]	; 0xffffffeb
    86cc:	e3530000 	cmp	r3, #0
    86d0:	1a000009 	bne	86fc <_ZN13CGPIO_Handler10Set_OutputEjb+0x8c>
/mnt/c/Users/Kuba/Documents/ZeroMate/examples/18-UART/kernel/src/drivers/gpio.cpp:98 (discriminator 6)
    86d4:	e24b300c 	sub	r3, fp, #12
    86d8:	e24b2008 	sub	r2, fp, #8
    86dc:	e51b1014 	ldr	r1, [fp, #-20]	; 0xffffffec
    86e0:	e51b0010 	ldr	r0, [fp, #-16]
    86e4:	ebffff45 	bl	8400 <_ZNK13CGPIO_Handler18Get_GPCLR_LocationEjRjS0_>
    86e8:	e1a03000 	mov	r3, r0
    86ec:	e2233001 	eor	r3, r3, #1
    86f0:	e6ef3073 	uxtb	r3, r3
    86f4:	e3530000 	cmp	r3, #0
    86f8:	0a000001 	beq	8704 <_ZN13CGPIO_Handler10Set_OutputEjb+0x94>
/mnt/c/Users/Kuba/Documents/ZeroMate/examples/18-UART/kernel/src/drivers/gpio.cpp:98 (discriminator 7)
    86fc:	e3a03001 	mov	r3, #1
    8700:	ea000000 	b	8708 <_ZN13CGPIO_Handler10Set_OutputEjb+0x98>
/mnt/c/Users/Kuba/Documents/ZeroMate/examples/18-UART/kernel/src/drivers/gpio.cpp:98 (discriminator 8)
    8704:	e3a03000 	mov	r3, #0
/mnt/c/Users/Kuba/Documents/ZeroMate/examples/18-UART/kernel/src/drivers/gpio.cpp:98 (discriminator 10)
    8708:	e3530000 	cmp	r3, #0
    870c:	1a00000a 	bne	873c <_ZN13CGPIO_Handler10Set_OutputEjb+0xcc>
/mnt/c/Users/Kuba/Documents/ZeroMate/examples/18-UART/kernel/src/drivers/gpio.cpp:101
        return;

    mGPIO[reg] = (1 << bit);
    8710:	e51b300c 	ldr	r3, [fp, #-12]
    8714:	e3a02001 	mov	r2, #1
    8718:	e1a01312 	lsl	r1, r2, r3
    871c:	e51b3010 	ldr	r3, [fp, #-16]
    8720:	e5932000 	ldr	r2, [r3]
    8724:	e51b3008 	ldr	r3, [fp, #-8]
    8728:	e1a03103 	lsl	r3, r3, #2
    872c:	e0823003 	add	r3, r2, r3
    8730:	e1a02001 	mov	r2, r1
    8734:	e5832000 	str	r2, [r3]
    8738:	ea000000 	b	8740 <_ZN13CGPIO_Handler10Set_OutputEjb+0xd0>
/mnt/c/Users/Kuba/Documents/ZeroMate/examples/18-UART/kernel/src/drivers/gpio.cpp:99
        return;
    873c:	e320f000 	nop	{0}
/mnt/c/Users/Kuba/Documents/ZeroMate/examples/18-UART/kernel/src/drivers/gpio.cpp:102
}
    8740:	e24bd004 	sub	sp, fp, #4
    8744:	e8bd8800 	pop	{fp, pc}

00008748 <_Z41__static_initialization_and_destruction_0ii>:
_Z41__static_initialization_and_destruction_0ii():
/mnt/c/Users/Kuba/Documents/ZeroMate/examples/18-UART/kernel/src/drivers/gpio.cpp:102
    8748:	e92d4800 	push	{fp, lr}
    874c:	e28db004 	add	fp, sp, #4
    8750:	e24dd008 	sub	sp, sp, #8
    8754:	e50b0008 	str	r0, [fp, #-8]
    8758:	e50b100c 	str	r1, [fp, #-12]
    875c:	e51b3008 	ldr	r3, [fp, #-8]
    8760:	e3530001 	cmp	r3, #1
    8764:	1a000006 	bne	8784 <_Z41__static_initialization_and_destruction_0ii+0x3c>
/mnt/c/Users/Kuba/Documents/ZeroMate/examples/18-UART/kernel/src/drivers/gpio.cpp:102 (discriminator 1)
    8768:	e51b300c 	ldr	r3, [fp, #-12]
    876c:	e59f201c 	ldr	r2, [pc, #28]	; 8790 <_Z41__static_initialization_and_destruction_0ii+0x48>
    8770:	e1530002 	cmp	r3, r2
    8774:	1a000002 	bne	8784 <_Z41__static_initialization_and_destruction_0ii+0x3c>
/mnt/c/Users/Kuba/Documents/ZeroMate/examples/18-UART/kernel/src/drivers/gpio.cpp:4
CGPIO_Handler sGPIO(hal::GPIO_Base);
    8778:	e59f1014 	ldr	r1, [pc, #20]	; 8794 <_Z41__static_initialization_and_destruction_0ii+0x4c>
    877c:	e59f0014 	ldr	r0, [pc, #20]	; 8798 <_Z41__static_initialization_and_destruction_0ii+0x50>
    8780:	ebfffecc 	bl	82b8 <_ZN13CGPIO_HandlerC1Ej>
/mnt/c/Users/Kuba/Documents/ZeroMate/examples/18-UART/kernel/src/drivers/gpio.cpp:102
}
    8784:	e320f000 	nop	{0}
    8788:	e24bd004 	sub	sp, fp, #4
    878c:	e8bd8800 	pop	{fp, pc}
    8790:	0000ffff 	strdeq	pc, [r0], -pc	; <UNPREDICTABLE>
    8794:	20200000 	eorcs	r0, r0, r0
    8798:	000096dc 	ldrdeq	r9, [r0], -ip

0000879c <_GLOBAL__sub_I_sGPIO>:
_GLOBAL__sub_I_sGPIO():
/mnt/c/Users/Kuba/Documents/ZeroMate/examples/18-UART/kernel/src/drivers/gpio.cpp:102
    879c:	e92d4800 	push	{fp, lr}
    87a0:	e28db004 	add	fp, sp, #4
    87a4:	e59f1008 	ldr	r1, [pc, #8]	; 87b4 <_GLOBAL__sub_I_sGPIO+0x18>
    87a8:	e3a00001 	mov	r0, #1
    87ac:	ebffffe5 	bl	8748 <_Z41__static_initialization_and_destruction_0ii>
    87b0:	e8bd8800 	pop	{fp, pc}
    87b4:	0000ffff 	strdeq	pc, [r0], -pc	; <UNPREDICTABLE>

000087b8 <_ZN8CMonitorC1Ejjj>:
_ZN8CMonitorC2Ejjj():
/mnt/c/Users/Kuba/Documents/ZeroMate/examples/18-UART/kernel/src/drivers/monitor.cpp:5
#include <drivers/monitor.h>

CMonitor sMonitor{ 0x30000000, 80, 25 };

CMonitor::CMonitor(unsigned int monitor_base_addr, unsigned int width, unsigned int height)
    87b8:	e52db004 	push	{fp}		; (str fp, [sp, #-4]!)
    87bc:	e28db000 	add	fp, sp, #0
    87c0:	e24dd014 	sub	sp, sp, #20
    87c4:	e50b0008 	str	r0, [fp, #-8]
    87c8:	e50b100c 	str	r1, [fp, #-12]
    87cc:	e50b2010 	str	r2, [fp, #-16]
    87d0:	e50b3014 	str	r3, [fp, #-20]	; 0xffffffec
/mnt/c/Users/Kuba/Documents/ZeroMate/examples/18-UART/kernel/src/drivers/monitor.cpp:6
: m_monitor{ reinterpret_cast<unsigned char*>(monitor_base_addr) }
    87d4:	e51b200c 	ldr	r2, [fp, #-12]
/mnt/c/Users/Kuba/Documents/ZeroMate/examples/18-UART/kernel/src/drivers/monitor.cpp:10
, m_width{ width }
, m_height{ height }
, m_cursor{ 0, 0 }
, m_number_base{ DEFAULT_NUMBER_BASE }
    87d8:	e51b3008 	ldr	r3, [fp, #-8]
    87dc:	e5832000 	str	r2, [r3]
    87e0:	e51b3008 	ldr	r3, [fp, #-8]
    87e4:	e51b2010 	ldr	r2, [fp, #-16]
    87e8:	e5832004 	str	r2, [r3, #4]
    87ec:	e51b3008 	ldr	r3, [fp, #-8]
    87f0:	e51b2014 	ldr	r2, [fp, #-20]	; 0xffffffec
    87f4:	e5832008 	str	r2, [r3, #8]
    87f8:	e51b3008 	ldr	r3, [fp, #-8]
    87fc:	e3a02000 	mov	r2, #0
    8800:	e583200c 	str	r2, [r3, #12]
    8804:	e51b3008 	ldr	r3, [fp, #-8]
    8808:	e3a02000 	mov	r2, #0
    880c:	e5832010 	str	r2, [r3, #16]
    8810:	e51b3008 	ldr	r3, [fp, #-8]
    8814:	e3a0200a 	mov	r2, #10
    8818:	e5832014 	str	r2, [r3, #20]
/mnt/c/Users/Kuba/Documents/ZeroMate/examples/18-UART/kernel/src/drivers/monitor.cpp:12
{
}
    881c:	e51b3008 	ldr	r3, [fp, #-8]
    8820:	e1a00003 	mov	r0, r3
    8824:	e28bd000 	add	sp, fp, #0
    8828:	e49db004 	pop	{fp}		; (ldr fp, [sp], #4)
    882c:	e12fff1e 	bx	lr

00008830 <_ZN8CMonitor5ClearEv>:
_ZN8CMonitor5ClearEv():
/mnt/c/Users/Kuba/Documents/ZeroMate/examples/18-UART/kernel/src/drivers/monitor.cpp:21
    m_cursor.y = 0;
    m_cursor.y = 0;
}

void CMonitor::Clear()
{
    8830:	e92d4800 	push	{fp, lr}
    8834:	e28db004 	add	fp, sp, #4
    8838:	e24dd010 	sub	sp, sp, #16
    883c:	e50b0010 	str	r0, [fp, #-16]
/mnt/c/Users/Kuba/Documents/ZeroMate/examples/18-UART/kernel/src/drivers/monitor.cpp:22
    Reset_Cursor();
    8840:	e51b0010 	ldr	r0, [fp, #-16]
    8844:	eb00016d 	bl	8e00 <_ZN8CMonitor12Reset_CursorEv>
/mnt/c/Users/Kuba/Documents/ZeroMate/examples/18-UART/kernel/src/drivers/monitor.cpp:24

    for (unsigned int y = 0; y < m_height; ++y)
    8848:	e3a03000 	mov	r3, #0
    884c:	e50b3008 	str	r3, [fp, #-8]
/mnt/c/Users/Kuba/Documents/ZeroMate/examples/18-UART/kernel/src/drivers/monitor.cpp:24 (discriminator 1)
    8850:	e51b3010 	ldr	r3, [fp, #-16]
    8854:	e5933008 	ldr	r3, [r3, #8]
    8858:	e51b2008 	ldr	r2, [fp, #-8]
    885c:	e1520003 	cmp	r2, r3
    8860:	2a000019 	bcs	88cc <_ZN8CMonitor5ClearEv+0x9c>
/mnt/c/Users/Kuba/Documents/ZeroMate/examples/18-UART/kernel/src/drivers/monitor.cpp:26
    {
        for (unsigned int x = 0; x < m_width; ++x)
    8864:	e3a03000 	mov	r3, #0
    8868:	e50b300c 	str	r3, [fp, #-12]
/mnt/c/Users/Kuba/Documents/ZeroMate/examples/18-UART/kernel/src/drivers/monitor.cpp:26 (discriminator 3)
    886c:	e51b3010 	ldr	r3, [fp, #-16]
    8870:	e5933004 	ldr	r3, [r3, #4]
    8874:	e51b200c 	ldr	r2, [fp, #-12]
    8878:	e1520003 	cmp	r2, r3
    887c:	2a00000e 	bcs	88bc <_ZN8CMonitor5ClearEv+0x8c>
/mnt/c/Users/Kuba/Documents/ZeroMate/examples/18-UART/kernel/src/drivers/monitor.cpp:28 (discriminator 2)
        {
            m_monitor[(y * m_width) + x] = ' ';
    8880:	e51b3010 	ldr	r3, [fp, #-16]
    8884:	e5932000 	ldr	r2, [r3]
    8888:	e51b3010 	ldr	r3, [fp, #-16]
    888c:	e5933004 	ldr	r3, [r3, #4]
    8890:	e51b1008 	ldr	r1, [fp, #-8]
    8894:	e0010391 	mul	r1, r1, r3
    8898:	e51b300c 	ldr	r3, [fp, #-12]
    889c:	e0813003 	add	r3, r1, r3
    88a0:	e0823003 	add	r3, r2, r3
    88a4:	e3a02020 	mov	r2, #32
    88a8:	e5c32000 	strb	r2, [r3]
/mnt/c/Users/Kuba/Documents/ZeroMate/examples/18-UART/kernel/src/drivers/monitor.cpp:26 (discriminator 2)
        for (unsigned int x = 0; x < m_width; ++x)
    88ac:	e51b300c 	ldr	r3, [fp, #-12]
    88b0:	e2833001 	add	r3, r3, #1
    88b4:	e50b300c 	str	r3, [fp, #-12]
    88b8:	eaffffeb 	b	886c <_ZN8CMonitor5ClearEv+0x3c>
/mnt/c/Users/Kuba/Documents/ZeroMate/examples/18-UART/kernel/src/drivers/monitor.cpp:24 (discriminator 2)
    for (unsigned int y = 0; y < m_height; ++y)
    88bc:	e51b3008 	ldr	r3, [fp, #-8]
    88c0:	e2833001 	add	r3, r3, #1
    88c4:	e50b3008 	str	r3, [fp, #-8]
    88c8:	eaffffe0 	b	8850 <_ZN8CMonitor5ClearEv+0x20>
/mnt/c/Users/Kuba/Documents/ZeroMate/examples/18-UART/kernel/src/drivers/monitor.cpp:31
        }
    }
}
    88cc:	e320f000 	nop	{0}
    88d0:	e24bd004 	sub	sp, fp, #4
    88d4:	e8bd8800 	pop	{fp, pc}

000088d8 <_ZN8CMonitor6ScrollEv>:
_ZN8CMonitor6ScrollEv():
/mnt/c/Users/Kuba/Documents/ZeroMate/examples/18-UART/kernel/src/drivers/monitor.cpp:49
        m_cursor.y = m_height - 1;
    }
}

void CMonitor::Scroll()
{
    88d8:	e52db004 	push	{fp}		; (str fp, [sp, #-4]!)
    88dc:	e28db000 	add	fp, sp, #0
    88e0:	e24dd01c 	sub	sp, sp, #28
    88e4:	e50b0018 	str	r0, [fp, #-24]	; 0xffffffe8
/mnt/c/Users/Kuba/Documents/ZeroMate/examples/18-UART/kernel/src/drivers/monitor.cpp:50
    for (unsigned int y = 1; y < m_height; ++y)
    88e8:	e3a03001 	mov	r3, #1
    88ec:	e50b3008 	str	r3, [fp, #-8]
/mnt/c/Users/Kuba/Documents/ZeroMate/examples/18-UART/kernel/src/drivers/monitor.cpp:50 (discriminator 1)
    88f0:	e51b3018 	ldr	r3, [fp, #-24]	; 0xffffffe8
    88f4:	e5933008 	ldr	r3, [r3, #8]
    88f8:	e51b2008 	ldr	r2, [fp, #-8]
    88fc:	e1520003 	cmp	r2, r3
    8900:	2a000024 	bcs	8998 <_ZN8CMonitor6ScrollEv+0xc0>
/mnt/c/Users/Kuba/Documents/ZeroMate/examples/18-UART/kernel/src/drivers/monitor.cpp:52
    {
        for (unsigned int x = 0; x < m_width; ++x)
    8904:	e3a03000 	mov	r3, #0
    8908:	e50b300c 	str	r3, [fp, #-12]
/mnt/c/Users/Kuba/Documents/ZeroMate/examples/18-UART/kernel/src/drivers/monitor.cpp:52 (discriminator 3)
    890c:	e51b3018 	ldr	r3, [fp, #-24]	; 0xffffffe8
    8910:	e5933004 	ldr	r3, [r3, #4]
    8914:	e51b200c 	ldr	r2, [fp, #-12]
    8918:	e1520003 	cmp	r2, r3
    891c:	2a000019 	bcs	8988 <_ZN8CMonitor6ScrollEv+0xb0>
/mnt/c/Users/Kuba/Documents/ZeroMate/examples/18-UART/kernel/src/drivers/monitor.cpp:54 (discriminator 2)
        {
            m_monitor[((y - 1) * m_width) + x] = m_monitor[(y * m_width) + x];
    8920:	e51b3018 	ldr	r3, [fp, #-24]	; 0xffffffe8
    8924:	e5932000 	ldr	r2, [r3]
    8928:	e51b3018 	ldr	r3, [fp, #-24]	; 0xffffffe8
    892c:	e5933004 	ldr	r3, [r3, #4]
    8930:	e51b1008 	ldr	r1, [fp, #-8]
    8934:	e0010391 	mul	r1, r1, r3
    8938:	e51b300c 	ldr	r3, [fp, #-12]
    893c:	e0813003 	add	r3, r1, r3
    8940:	e0822003 	add	r2, r2, r3
    8944:	e51b3018 	ldr	r3, [fp, #-24]	; 0xffffffe8
    8948:	e5931000 	ldr	r1, [r3]
    894c:	e51b3008 	ldr	r3, [fp, #-8]
    8950:	e2433001 	sub	r3, r3, #1
    8954:	e51b0018 	ldr	r0, [fp, #-24]	; 0xffffffe8
    8958:	e5900004 	ldr	r0, [r0, #4]
    895c:	e0000390 	mul	r0, r0, r3
    8960:	e51b300c 	ldr	r3, [fp, #-12]
    8964:	e0803003 	add	r3, r0, r3
    8968:	e0813003 	add	r3, r1, r3
    896c:	e5d22000 	ldrb	r2, [r2]
    8970:	e6ef2072 	uxtb	r2, r2
    8974:	e5c32000 	strb	r2, [r3]
/mnt/c/Users/Kuba/Documents/ZeroMate/examples/18-UART/kernel/src/drivers/monitor.cpp:52 (discriminator 2)
        for (unsigned int x = 0; x < m_width; ++x)
    8978:	e51b300c 	ldr	r3, [fp, #-12]
    897c:	e2833001 	add	r3, r3, #1
    8980:	e50b300c 	str	r3, [fp, #-12]
    8984:	eaffffe0 	b	890c <_ZN8CMonitor6ScrollEv+0x34>
/mnt/c/Users/Kuba/Documents/ZeroMate/examples/18-UART/kernel/src/drivers/monitor.cpp:50 (discriminator 2)
    for (unsigned int y = 1; y < m_height; ++y)
    8988:	e51b3008 	ldr	r3, [fp, #-8]
    898c:	e2833001 	add	r3, r3, #1
    8990:	e50b3008 	str	r3, [fp, #-8]
    8994:	eaffffd5 	b	88f0 <_ZN8CMonitor6ScrollEv+0x18>
/mnt/c/Users/Kuba/Documents/ZeroMate/examples/18-UART/kernel/src/drivers/monitor.cpp:58
        }
    }

    for (unsigned int x = 0; x < m_width; ++x)
    8998:	e3a03000 	mov	r3, #0
    899c:	e50b3010 	str	r3, [fp, #-16]
/mnt/c/Users/Kuba/Documents/ZeroMate/examples/18-UART/kernel/src/drivers/monitor.cpp:58 (discriminator 3)
    89a0:	e51b3018 	ldr	r3, [fp, #-24]	; 0xffffffe8
    89a4:	e5933004 	ldr	r3, [r3, #4]
    89a8:	e51b2010 	ldr	r2, [fp, #-16]
    89ac:	e1520003 	cmp	r2, r3
    89b0:	2a000010 	bcs	89f8 <_ZN8CMonitor6ScrollEv+0x120>
/mnt/c/Users/Kuba/Documents/ZeroMate/examples/18-UART/kernel/src/drivers/monitor.cpp:60 (discriminator 2)
    {
        m_monitor[((m_height - 1) * m_width) + x] = ' ';
    89b4:	e51b3018 	ldr	r3, [fp, #-24]	; 0xffffffe8
    89b8:	e5932000 	ldr	r2, [r3]
    89bc:	e51b3018 	ldr	r3, [fp, #-24]	; 0xffffffe8
    89c0:	e5933008 	ldr	r3, [r3, #8]
    89c4:	e2433001 	sub	r3, r3, #1
    89c8:	e51b1018 	ldr	r1, [fp, #-24]	; 0xffffffe8
    89cc:	e5911004 	ldr	r1, [r1, #4]
    89d0:	e0010391 	mul	r1, r1, r3
    89d4:	e51b3010 	ldr	r3, [fp, #-16]
    89d8:	e0813003 	add	r3, r1, r3
    89dc:	e0823003 	add	r3, r2, r3
    89e0:	e3a02020 	mov	r2, #32
    89e4:	e5c32000 	strb	r2, [r3]
/mnt/c/Users/Kuba/Documents/ZeroMate/examples/18-UART/kernel/src/drivers/monitor.cpp:58 (discriminator 2)
    for (unsigned int x = 0; x < m_width; ++x)
    89e8:	e51b3010 	ldr	r3, [fp, #-16]
    89ec:	e2833001 	add	r3, r3, #1
    89f0:	e50b3010 	str	r3, [fp, #-16]
    89f4:	eaffffe9 	b	89a0 <_ZN8CMonitor6ScrollEv+0xc8>
/mnt/c/Users/Kuba/Documents/ZeroMate/examples/18-UART/kernel/src/drivers/monitor.cpp:62
    }
}
    89f8:	e320f000 	nop	{0}
    89fc:	e28bd000 	add	sp, fp, #0
    8a00:	e49db004 	pop	{fp}		; (ldr fp, [sp], #4)
    8a04:	e12fff1e 	bx	lr

00008a08 <_ZN8CMonitorlsEc>:
_ZN8CMonitorlsEc():
/mnt/c/Users/Kuba/Documents/ZeroMate/examples/18-UART/kernel/src/drivers/monitor.cpp:70
{
    m_number_base = DEFAULT_NUMBER_BASE;
}

CMonitor& CMonitor::operator<<(char c)
{
    8a08:	e92d4800 	push	{fp, lr}
    8a0c:	e28db004 	add	fp, sp, #4
    8a10:	e24dd008 	sub	sp, sp, #8
    8a14:	e50b0008 	str	r0, [fp, #-8]
    8a18:	e1a03001 	mov	r3, r1
    8a1c:	e54b3009 	strb	r3, [fp, #-9]
/mnt/c/Users/Kuba/Documents/ZeroMate/examples/18-UART/kernel/src/drivers/monitor.cpp:71
    if (c != '\n')
    8a20:	e55b3009 	ldrb	r3, [fp, #-9]
    8a24:	e353000a 	cmp	r3, #10
    8a28:	0a000012 	beq	8a78 <_ZN8CMonitorlsEc+0x70>
/mnt/c/Users/Kuba/Documents/ZeroMate/examples/18-UART/kernel/src/drivers/monitor.cpp:73
    {
        m_monitor[(m_cursor.y * m_width) + m_cursor.x] = static_cast<unsigned char>(c);
    8a2c:	e51b3008 	ldr	r3, [fp, #-8]
    8a30:	e5932000 	ldr	r2, [r3]
    8a34:	e51b3008 	ldr	r3, [fp, #-8]
    8a38:	e593300c 	ldr	r3, [r3, #12]
    8a3c:	e51b1008 	ldr	r1, [fp, #-8]
    8a40:	e5911004 	ldr	r1, [r1, #4]
    8a44:	e0010391 	mul	r1, r1, r3
    8a48:	e51b3008 	ldr	r3, [fp, #-8]
    8a4c:	e5933010 	ldr	r3, [r3, #16]
    8a50:	e0813003 	add	r3, r1, r3
    8a54:	e0823003 	add	r3, r2, r3
    8a58:	e55b2009 	ldrb	r2, [fp, #-9]
    8a5c:	e5c32000 	strb	r2, [r3]
/mnt/c/Users/Kuba/Documents/ZeroMate/examples/18-UART/kernel/src/drivers/monitor.cpp:74
        ++m_cursor.x;
    8a60:	e51b3008 	ldr	r3, [fp, #-8]
    8a64:	e5933010 	ldr	r3, [r3, #16]
    8a68:	e2832001 	add	r2, r3, #1
    8a6c:	e51b3008 	ldr	r3, [fp, #-8]
    8a70:	e5832010 	str	r2, [r3, #16]
    8a74:	ea000007 	b	8a98 <_ZN8CMonitorlsEc+0x90>
/mnt/c/Users/Kuba/Documents/ZeroMate/examples/18-UART/kernel/src/drivers/monitor.cpp:78
    }
    else
    {
        m_cursor.x = 0;
    8a78:	e51b3008 	ldr	r3, [fp, #-8]
    8a7c:	e3a02000 	mov	r2, #0
    8a80:	e5832010 	str	r2, [r3, #16]
/mnt/c/Users/Kuba/Documents/ZeroMate/examples/18-UART/kernel/src/drivers/monitor.cpp:79
        ++m_cursor.y;
    8a84:	e51b3008 	ldr	r3, [fp, #-8]
    8a88:	e593300c 	ldr	r3, [r3, #12]
    8a8c:	e2832001 	add	r2, r3, #1
    8a90:	e51b3008 	ldr	r3, [fp, #-8]
    8a94:	e583200c 	str	r2, [r3, #12]
/mnt/c/Users/Kuba/Documents/ZeroMate/examples/18-UART/kernel/src/drivers/monitor.cpp:82
    }

    Adjust_Cursor();
    8a98:	e51b0008 	ldr	r0, [fp, #-8]
    8a9c:	eb0000e5 	bl	8e38 <_ZN8CMonitor13Adjust_CursorEv>
/mnt/c/Users/Kuba/Documents/ZeroMate/examples/18-UART/kernel/src/drivers/monitor.cpp:84

    return *this;
    8aa0:	e51b3008 	ldr	r3, [fp, #-8]
/mnt/c/Users/Kuba/Documents/ZeroMate/examples/18-UART/kernel/src/drivers/monitor.cpp:85
}
    8aa4:	e1a00003 	mov	r0, r3
    8aa8:	e24bd004 	sub	sp, fp, #4
    8aac:	e8bd8800 	pop	{fp, pc}

00008ab0 <_ZN8CMonitorlsEPKc>:
_ZN8CMonitorlsEPKc():
/mnt/c/Users/Kuba/Documents/ZeroMate/examples/18-UART/kernel/src/drivers/monitor.cpp:88

CMonitor& CMonitor::operator<<(const char* str)
{
    8ab0:	e92d4800 	push	{fp, lr}
    8ab4:	e28db004 	add	fp, sp, #4
    8ab8:	e24dd010 	sub	sp, sp, #16
    8abc:	e50b0010 	str	r0, [fp, #-16]
    8ac0:	e50b1014 	str	r1, [fp, #-20]	; 0xffffffec
/mnt/c/Users/Kuba/Documents/ZeroMate/examples/18-UART/kernel/src/drivers/monitor.cpp:89
    for (unsigned int i = 0; str[i] != '\0'; ++i)
    8ac4:	e3a03000 	mov	r3, #0
    8ac8:	e50b3008 	str	r3, [fp, #-8]
/mnt/c/Users/Kuba/Documents/ZeroMate/examples/18-UART/kernel/src/drivers/monitor.cpp:89 (discriminator 3)
    8acc:	e51b2014 	ldr	r2, [fp, #-20]	; 0xffffffec
    8ad0:	e51b3008 	ldr	r3, [fp, #-8]
    8ad4:	e0823003 	add	r3, r2, r3
    8ad8:	e5d33000 	ldrb	r3, [r3]
    8adc:	e3530000 	cmp	r3, #0
    8ae0:	0a00000a 	beq	8b10 <_ZN8CMonitorlsEPKc+0x60>
/mnt/c/Users/Kuba/Documents/ZeroMate/examples/18-UART/kernel/src/drivers/monitor.cpp:91 (discriminator 2)
    {
        *this << str[i];
    8ae4:	e51b2014 	ldr	r2, [fp, #-20]	; 0xffffffec
    8ae8:	e51b3008 	ldr	r3, [fp, #-8]
    8aec:	e0823003 	add	r3, r2, r3
    8af0:	e5d33000 	ldrb	r3, [r3]
    8af4:	e1a01003 	mov	r1, r3
    8af8:	e51b0010 	ldr	r0, [fp, #-16]
    8afc:	ebffffc1 	bl	8a08 <_ZN8CMonitorlsEc>
/mnt/c/Users/Kuba/Documents/ZeroMate/examples/18-UART/kernel/src/drivers/monitor.cpp:89 (discriminator 2)
    for (unsigned int i = 0; str[i] != '\0'; ++i)
    8b00:	e51b3008 	ldr	r3, [fp, #-8]
    8b04:	e2833001 	add	r3, r3, #1
    8b08:	e50b3008 	str	r3, [fp, #-8]
    8b0c:	eaffffee 	b	8acc <_ZN8CMonitorlsEPKc+0x1c>
/mnt/c/Users/Kuba/Documents/ZeroMate/examples/18-UART/kernel/src/drivers/monitor.cpp:94
    }

    Reset_Number_Base();
    8b10:	e51b0010 	ldr	r0, [fp, #-16]
    8b14:	eb0000e9 	bl	8ec0 <_ZN8CMonitor17Reset_Number_BaseEv>
/mnt/c/Users/Kuba/Documents/ZeroMate/examples/18-UART/kernel/src/drivers/monitor.cpp:96

    return *this;
    8b18:	e51b3010 	ldr	r3, [fp, #-16]
/mnt/c/Users/Kuba/Documents/ZeroMate/examples/18-UART/kernel/src/drivers/monitor.cpp:97
}
    8b1c:	e1a00003 	mov	r0, r3
    8b20:	e24bd004 	sub	sp, fp, #4
    8b24:	e8bd8800 	pop	{fp, pc}

00008b28 <_ZN8CMonitorlsENS_12NNumber_BaseE>:
_ZN8CMonitorlsENS_12NNumber_BaseE():
/mnt/c/Users/Kuba/Documents/ZeroMate/examples/18-UART/kernel/src/drivers/monitor.cpp:100

CMonitor& CMonitor::operator<<(CMonitor::NNumber_Base number_base)
{
    8b28:	e52db004 	push	{fp}		; (str fp, [sp, #-4]!)
    8b2c:	e28db000 	add	fp, sp, #0
    8b30:	e24dd00c 	sub	sp, sp, #12
    8b34:	e50b0008 	str	r0, [fp, #-8]
    8b38:	e50b100c 	str	r1, [fp, #-12]
/mnt/c/Users/Kuba/Documents/ZeroMate/examples/18-UART/kernel/src/drivers/monitor.cpp:101
    m_number_base = number_base;
    8b3c:	e51b3008 	ldr	r3, [fp, #-8]
    8b40:	e51b200c 	ldr	r2, [fp, #-12]
    8b44:	e5832014 	str	r2, [r3, #20]
/mnt/c/Users/Kuba/Documents/ZeroMate/examples/18-UART/kernel/src/drivers/monitor.cpp:103

    return *this;
    8b48:	e51b3008 	ldr	r3, [fp, #-8]
/mnt/c/Users/Kuba/Documents/ZeroMate/examples/18-UART/kernel/src/drivers/monitor.cpp:104
}
    8b4c:	e1a00003 	mov	r0, r3
    8b50:	e28bd000 	add	sp, fp, #0
    8b54:	e49db004 	pop	{fp}		; (ldr fp, [sp], #4)
    8b58:	e12fff1e 	bx	lr

00008b5c <_ZN8CMonitorlsEj>:
_ZN8CMonitorlsEj():
/mnt/c/Users/Kuba/Documents/ZeroMate/examples/18-UART/kernel/src/drivers/monitor.cpp:107

CMonitor& CMonitor::operator<<(unsigned int num)
{
    8b5c:	e92d4800 	push	{fp, lr}
    8b60:	e28db004 	add	fp, sp, #4
    8b64:	e24dd008 	sub	sp, sp, #8
    8b68:	e50b0008 	str	r0, [fp, #-8]
    8b6c:	e50b100c 	str	r1, [fp, #-12]
/mnt/c/Users/Kuba/Documents/ZeroMate/examples/18-UART/kernel/src/drivers/monitor.cpp:112
    static constexpr unsigned int BUFFER_SIZE = 16;

    static char s_buffer[BUFFER_SIZE];

    itoa(num, s_buffer, static_cast<unsigned int>(m_number_base));
    8b70:	e51b3008 	ldr	r3, [fp, #-8]
    8b74:	e5933014 	ldr	r3, [r3, #20]
    8b78:	e59f202c 	ldr	r2, [pc, #44]	; 8bac <_ZN8CMonitorlsEj+0x50>
    8b7c:	e51b100c 	ldr	r1, [fp, #-12]
    8b80:	e51b0008 	ldr	r0, [fp, #-8]
    8b84:	eb000021 	bl	8c10 <_ZN8CMonitor4itoaEjPcj>
/mnt/c/Users/Kuba/Documents/ZeroMate/examples/18-UART/kernel/src/drivers/monitor.cpp:113
    *this << s_buffer;
    8b88:	e59f101c 	ldr	r1, [pc, #28]	; 8bac <_ZN8CMonitorlsEj+0x50>
    8b8c:	e51b0008 	ldr	r0, [fp, #-8]
    8b90:	ebffffc6 	bl	8ab0 <_ZN8CMonitorlsEPKc>
/mnt/c/Users/Kuba/Documents/ZeroMate/examples/18-UART/kernel/src/drivers/monitor.cpp:114
    Reset_Number_Base();
    8b94:	e51b0008 	ldr	r0, [fp, #-8]
    8b98:	eb0000c8 	bl	8ec0 <_ZN8CMonitor17Reset_Number_BaseEv>
/mnt/c/Users/Kuba/Documents/ZeroMate/examples/18-UART/kernel/src/drivers/monitor.cpp:116

    return *this;
    8b9c:	e51b3008 	ldr	r3, [fp, #-8]
/mnt/c/Users/Kuba/Documents/ZeroMate/examples/18-UART/kernel/src/drivers/monitor.cpp:117
}
    8ba0:	e1a00003 	mov	r0, r3
    8ba4:	e24bd004 	sub	sp, fp, #4
    8ba8:	e8bd8800 	pop	{fp, pc}
    8bac:	000096f8 	strdeq	r9, [r0], -r8

00008bb0 <_ZN8CMonitorlsEb>:
_ZN8CMonitorlsEb():
/mnt/c/Users/Kuba/Documents/ZeroMate/examples/18-UART/kernel/src/drivers/monitor.cpp:120

CMonitor& CMonitor::operator<<(bool value)
{
    8bb0:	e92d4800 	push	{fp, lr}
    8bb4:	e28db004 	add	fp, sp, #4
    8bb8:	e24dd008 	sub	sp, sp, #8
    8bbc:	e50b0008 	str	r0, [fp, #-8]
    8bc0:	e1a03001 	mov	r3, r1
    8bc4:	e54b3009 	strb	r3, [fp, #-9]
/mnt/c/Users/Kuba/Documents/ZeroMate/examples/18-UART/kernel/src/drivers/monitor.cpp:121
    if (value)
    8bc8:	e55b3009 	ldrb	r3, [fp, #-9]
    8bcc:	e3530000 	cmp	r3, #0
    8bd0:	0a000003 	beq	8be4 <_ZN8CMonitorlsEb+0x34>
/mnt/c/Users/Kuba/Documents/ZeroMate/examples/18-UART/kernel/src/drivers/monitor.cpp:123
    {
        *this << "true";
    8bd4:	e59f102c 	ldr	r1, [pc, #44]	; 8c08 <_ZN8CMonitorlsEb+0x58>
    8bd8:	e51b0008 	ldr	r0, [fp, #-8]
    8bdc:	ebffffb3 	bl	8ab0 <_ZN8CMonitorlsEPKc>
    8be0:	ea000002 	b	8bf0 <_ZN8CMonitorlsEb+0x40>
/mnt/c/Users/Kuba/Documents/ZeroMate/examples/18-UART/kernel/src/drivers/monitor.cpp:127
    }
    else
    {
        *this << "false";
    8be4:	e59f1020 	ldr	r1, [pc, #32]	; 8c0c <_ZN8CMonitorlsEb+0x5c>
    8be8:	e51b0008 	ldr	r0, [fp, #-8]
    8bec:	ebffffaf 	bl	8ab0 <_ZN8CMonitorlsEPKc>
/mnt/c/Users/Kuba/Documents/ZeroMate/examples/18-UART/kernel/src/drivers/monitor.cpp:130
    }

    Reset_Number_Base();
    8bf0:	e51b0008 	ldr	r0, [fp, #-8]
    8bf4:	eb0000b1 	bl	8ec0 <_ZN8CMonitor17Reset_Number_BaseEv>
/mnt/c/Users/Kuba/Documents/ZeroMate/examples/18-UART/kernel/src/drivers/monitor.cpp:132

    return *this;
    8bf8:	e51b3008 	ldr	r3, [fp, #-8]
/mnt/c/Users/Kuba/Documents/ZeroMate/examples/18-UART/kernel/src/drivers/monitor.cpp:133
}
    8bfc:	e1a00003 	mov	r0, r3
    8c00:	e24bd004 	sub	sp, fp, #4
    8c04:	e8bd8800 	pop	{fp, pc}
    8c08:	00009660 	andeq	r9, r0, r0, ror #12
    8c0c:	00009668 	andeq	r9, r0, r8, ror #12

00008c10 <_ZN8CMonitor4itoaEjPcj>:
_ZN8CMonitor4itoaEjPcj():
/mnt/c/Users/Kuba/Documents/ZeroMate/examples/18-UART/kernel/src/drivers/monitor.cpp:136

void CMonitor::itoa(unsigned int input, char* output, unsigned int base)
{
    8c10:	e92d4800 	push	{fp, lr}
    8c14:	e28db004 	add	fp, sp, #4
    8c18:	e24dd020 	sub	sp, sp, #32
    8c1c:	e50b0018 	str	r0, [fp, #-24]	; 0xffffffe8
    8c20:	e50b101c 	str	r1, [fp, #-28]	; 0xffffffe4
    8c24:	e50b2020 	str	r2, [fp, #-32]	; 0xffffffe0
    8c28:	e50b3024 	str	r3, [fp, #-36]	; 0xffffffdc
/mnt/c/Users/Kuba/Documents/ZeroMate/examples/18-UART/kernel/src/drivers/monitor.cpp:137
    int i = 0;
    8c2c:	e3a03000 	mov	r3, #0
    8c30:	e50b3008 	str	r3, [fp, #-8]
/mnt/c/Users/Kuba/Documents/ZeroMate/examples/18-UART/kernel/src/drivers/monitor.cpp:139

    while (input > 0)
    8c34:	e51b301c 	ldr	r3, [fp, #-28]	; 0xffffffe4
    8c38:	e3530000 	cmp	r3, #0
    8c3c:	0a000015 	beq	8c98 <_ZN8CMonitor4itoaEjPcj+0x88>
/mnt/c/Users/Kuba/Documents/ZeroMate/examples/18-UART/kernel/src/drivers/monitor.cpp:141
    {
        output[i] = CharConvArr[input % base];
    8c40:	e51b301c 	ldr	r3, [fp, #-28]	; 0xffffffe4
    8c44:	e51b1024 	ldr	r1, [fp, #-36]	; 0xffffffdc
    8c48:	e1a00003 	mov	r0, r3
    8c4c:	eb000241 	bl	9558 <__aeabi_uidivmod>
    8c50:	e1a03001 	mov	r3, r1
    8c54:	e1a02003 	mov	r2, r3
    8c58:	e59f3128 	ldr	r3, [pc, #296]	; 8d88 <_ZN8CMonitor4itoaEjPcj+0x178>
    8c5c:	e0822003 	add	r2, r2, r3
    8c60:	e51b3008 	ldr	r3, [fp, #-8]
    8c64:	e51b1020 	ldr	r1, [fp, #-32]	; 0xffffffe0
    8c68:	e0813003 	add	r3, r1, r3
    8c6c:	e5d22000 	ldrb	r2, [r2]
    8c70:	e5c32000 	strb	r2, [r3]
/mnt/c/Users/Kuba/Documents/ZeroMate/examples/18-UART/kernel/src/drivers/monitor.cpp:142
        input /= base;
    8c74:	e51b1024 	ldr	r1, [fp, #-36]	; 0xffffffdc
    8c78:	e51b001c 	ldr	r0, [fp, #-28]	; 0xffffffe4
    8c7c:	eb0001ba 	bl	936c <__udivsi3>
    8c80:	e1a03000 	mov	r3, r0
    8c84:	e50b301c 	str	r3, [fp, #-28]	; 0xffffffe4
/mnt/c/Users/Kuba/Documents/ZeroMate/examples/18-UART/kernel/src/drivers/monitor.cpp:144

        i++;
    8c88:	e51b3008 	ldr	r3, [fp, #-8]
    8c8c:	e2833001 	add	r3, r3, #1
    8c90:	e50b3008 	str	r3, [fp, #-8]
/mnt/c/Users/Kuba/Documents/ZeroMate/examples/18-UART/kernel/src/drivers/monitor.cpp:139
    while (input > 0)
    8c94:	eaffffe6 	b	8c34 <_ZN8CMonitor4itoaEjPcj+0x24>
/mnt/c/Users/Kuba/Documents/ZeroMate/examples/18-UART/kernel/src/drivers/monitor.cpp:147
    }

    if (i == 0)
    8c98:	e51b3008 	ldr	r3, [fp, #-8]
    8c9c:	e3530000 	cmp	r3, #0
    8ca0:	1a000007 	bne	8cc4 <_ZN8CMonitor4itoaEjPcj+0xb4>
/mnt/c/Users/Kuba/Documents/ZeroMate/examples/18-UART/kernel/src/drivers/monitor.cpp:149
    {
        output[i] = CharConvArr[0];
    8ca4:	e51b3008 	ldr	r3, [fp, #-8]
    8ca8:	e51b2020 	ldr	r2, [fp, #-32]	; 0xffffffe0
    8cac:	e0823003 	add	r3, r2, r3
    8cb0:	e3a02030 	mov	r2, #48	; 0x30
    8cb4:	e5c32000 	strb	r2, [r3]
/mnt/c/Users/Kuba/Documents/ZeroMate/examples/18-UART/kernel/src/drivers/monitor.cpp:150
        i++;
    8cb8:	e51b3008 	ldr	r3, [fp, #-8]
    8cbc:	e2833001 	add	r3, r3, #1
    8cc0:	e50b3008 	str	r3, [fp, #-8]
/mnt/c/Users/Kuba/Documents/ZeroMate/examples/18-UART/kernel/src/drivers/monitor.cpp:153
    }

    output[i] = '\0';
    8cc4:	e51b3008 	ldr	r3, [fp, #-8]
    8cc8:	e51b2020 	ldr	r2, [fp, #-32]	; 0xffffffe0
    8ccc:	e0823003 	add	r3, r2, r3
    8cd0:	e3a02000 	mov	r2, #0
    8cd4:	e5c32000 	strb	r2, [r3]
/mnt/c/Users/Kuba/Documents/ZeroMate/examples/18-UART/kernel/src/drivers/monitor.cpp:154
    i--;
    8cd8:	e51b3008 	ldr	r3, [fp, #-8]
    8cdc:	e2433001 	sub	r3, r3, #1
    8ce0:	e50b3008 	str	r3, [fp, #-8]
/mnt/c/Users/Kuba/Documents/ZeroMate/examples/18-UART/kernel/src/drivers/monitor.cpp:156

    for (int j = 0; j <= (i / 2); j++)
    8ce4:	e3a03000 	mov	r3, #0
    8ce8:	e50b300c 	str	r3, [fp, #-12]
/mnt/c/Users/Kuba/Documents/ZeroMate/examples/18-UART/kernel/src/drivers/monitor.cpp:156 (discriminator 3)
    8cec:	e51b3008 	ldr	r3, [fp, #-8]
    8cf0:	e1a02fa3 	lsr	r2, r3, #31
    8cf4:	e0823003 	add	r3, r2, r3
    8cf8:	e1a030c3 	asr	r3, r3, #1
    8cfc:	e1a02003 	mov	r2, r3
    8d00:	e51b300c 	ldr	r3, [fp, #-12]
    8d04:	e1530002 	cmp	r3, r2
    8d08:	ca00001b 	bgt	8d7c <_ZN8CMonitor4itoaEjPcj+0x16c>
/mnt/c/Users/Kuba/Documents/ZeroMate/examples/18-UART/kernel/src/drivers/monitor.cpp:158 (discriminator 2)
    {
        char c = output[i - j];
    8d0c:	e51b2008 	ldr	r2, [fp, #-8]
    8d10:	e51b300c 	ldr	r3, [fp, #-12]
    8d14:	e0423003 	sub	r3, r2, r3
    8d18:	e1a02003 	mov	r2, r3
    8d1c:	e51b3020 	ldr	r3, [fp, #-32]	; 0xffffffe0
    8d20:	e0833002 	add	r3, r3, r2
    8d24:	e5d33000 	ldrb	r3, [r3]
    8d28:	e54b300d 	strb	r3, [fp, #-13]
/mnt/c/Users/Kuba/Documents/ZeroMate/examples/18-UART/kernel/src/drivers/monitor.cpp:159 (discriminator 2)
        output[i - j] = output[j];
    8d2c:	e51b300c 	ldr	r3, [fp, #-12]
    8d30:	e51b2020 	ldr	r2, [fp, #-32]	; 0xffffffe0
    8d34:	e0822003 	add	r2, r2, r3
    8d38:	e51b1008 	ldr	r1, [fp, #-8]
    8d3c:	e51b300c 	ldr	r3, [fp, #-12]
    8d40:	e0413003 	sub	r3, r1, r3
    8d44:	e1a01003 	mov	r1, r3
    8d48:	e51b3020 	ldr	r3, [fp, #-32]	; 0xffffffe0
    8d4c:	e0833001 	add	r3, r3, r1
    8d50:	e5d22000 	ldrb	r2, [r2]
    8d54:	e5c32000 	strb	r2, [r3]
/mnt/c/Users/Kuba/Documents/ZeroMate/examples/18-UART/kernel/src/drivers/monitor.cpp:160 (discriminator 2)
        output[j] = c;
    8d58:	e51b300c 	ldr	r3, [fp, #-12]
    8d5c:	e51b2020 	ldr	r2, [fp, #-32]	; 0xffffffe0
    8d60:	e0823003 	add	r3, r2, r3
    8d64:	e55b200d 	ldrb	r2, [fp, #-13]
    8d68:	e5c32000 	strb	r2, [r3]
/mnt/c/Users/Kuba/Documents/ZeroMate/examples/18-UART/kernel/src/drivers/monitor.cpp:156 (discriminator 2)
    for (int j = 0; j <= (i / 2); j++)
    8d6c:	e51b300c 	ldr	r3, [fp, #-12]
    8d70:	e2833001 	add	r3, r3, #1
    8d74:	e50b300c 	str	r3, [fp, #-12]
    8d78:	eaffffdb 	b	8cec <_ZN8CMonitor4itoaEjPcj+0xdc>
/mnt/c/Users/Kuba/Documents/ZeroMate/examples/18-UART/kernel/src/drivers/monitor.cpp:162
    }
}
    8d7c:	e320f000 	nop	{0}
    8d80:	e24bd004 	sub	sp, fp, #4
    8d84:	e8bd8800 	pop	{fp, pc}
    8d88:	00009670 	andeq	r9, r0, r0, ror r6

00008d8c <_Z41__static_initialization_and_destruction_0ii>:
_Z41__static_initialization_and_destruction_0ii():
/mnt/c/Users/Kuba/Documents/ZeroMate/examples/18-UART/kernel/src/drivers/monitor.cpp:162
    8d8c:	e92d4800 	push	{fp, lr}
    8d90:	e28db004 	add	fp, sp, #4
    8d94:	e24dd008 	sub	sp, sp, #8
    8d98:	e50b0008 	str	r0, [fp, #-8]
    8d9c:	e50b100c 	str	r1, [fp, #-12]
    8da0:	e51b3008 	ldr	r3, [fp, #-8]
    8da4:	e3530001 	cmp	r3, #1
    8da8:	1a000008 	bne	8dd0 <_Z41__static_initialization_and_destruction_0ii+0x44>
/mnt/c/Users/Kuba/Documents/ZeroMate/examples/18-UART/kernel/src/drivers/monitor.cpp:162 (discriminator 1)
    8dac:	e51b300c 	ldr	r3, [fp, #-12]
    8db0:	e59f2024 	ldr	r2, [pc, #36]	; 8ddc <_Z41__static_initialization_and_destruction_0ii+0x50>
    8db4:	e1530002 	cmp	r3, r2
    8db8:	1a000004 	bne	8dd0 <_Z41__static_initialization_and_destruction_0ii+0x44>
/mnt/c/Users/Kuba/Documents/ZeroMate/examples/18-UART/kernel/src/drivers/monitor.cpp:3
CMonitor sMonitor{ 0x30000000, 80, 25 };
    8dbc:	e3a03019 	mov	r3, #25
    8dc0:	e3a02050 	mov	r2, #80	; 0x50
    8dc4:	e3a01203 	mov	r1, #805306368	; 0x30000000
    8dc8:	e59f0010 	ldr	r0, [pc, #16]	; 8de0 <_Z41__static_initialization_and_destruction_0ii+0x54>
    8dcc:	ebfffe79 	bl	87b8 <_ZN8CMonitorC1Ejjj>
/mnt/c/Users/Kuba/Documents/ZeroMate/examples/18-UART/kernel/src/drivers/monitor.cpp:162
}
    8dd0:	e320f000 	nop	{0}
    8dd4:	e24bd004 	sub	sp, fp, #4
    8dd8:	e8bd8800 	pop	{fp, pc}
    8ddc:	0000ffff 	strdeq	pc, [r0], -pc	; <UNPREDICTABLE>
    8de0:	000096e0 	andeq	r9, r0, r0, ror #13

00008de4 <_GLOBAL__sub_I_sMonitor>:
_GLOBAL__sub_I_sMonitor():
/mnt/c/Users/Kuba/Documents/ZeroMate/examples/18-UART/kernel/src/drivers/monitor.cpp:162
    8de4:	e92d4800 	push	{fp, lr}
    8de8:	e28db004 	add	fp, sp, #4
    8dec:	e59f1008 	ldr	r1, [pc, #8]	; 8dfc <_GLOBAL__sub_I_sMonitor+0x18>
    8df0:	e3a00001 	mov	r0, #1
    8df4:	ebffffe4 	bl	8d8c <_Z41__static_initialization_and_destruction_0ii>
    8df8:	e8bd8800 	pop	{fp, pc}
    8dfc:	0000ffff 	strdeq	pc, [r0], -pc	; <UNPREDICTABLE>

00008e00 <_ZN8CMonitor12Reset_CursorEv>:
_ZN8CMonitor12Reset_CursorEv():
/mnt/c/Users/Kuba/Documents/ZeroMate/examples/18-UART/kernel/src/drivers/monitor.cpp:15
{
    8e00:	e52db004 	push	{fp}		; (str fp, [sp, #-4]!)
    8e04:	e28db000 	add	fp, sp, #0
    8e08:	e24dd00c 	sub	sp, sp, #12
    8e0c:	e50b0008 	str	r0, [fp, #-8]
/mnt/c/Users/Kuba/Documents/ZeroMate/examples/18-UART/kernel/src/drivers/monitor.cpp:16
    m_cursor.y = 0;
    8e10:	e51b3008 	ldr	r3, [fp, #-8]
    8e14:	e3a02000 	mov	r2, #0
    8e18:	e583200c 	str	r2, [r3, #12]
/mnt/c/Users/Kuba/Documents/ZeroMate/examples/18-UART/kernel/src/drivers/monitor.cpp:17
    m_cursor.y = 0;
    8e1c:	e51b3008 	ldr	r3, [fp, #-8]
    8e20:	e3a02000 	mov	r2, #0
    8e24:	e583200c 	str	r2, [r3, #12]
/mnt/c/Users/Kuba/Documents/ZeroMate/examples/18-UART/kernel/src/drivers/monitor.cpp:18
}
    8e28:	e320f000 	nop	{0}
    8e2c:	e28bd000 	add	sp, fp, #0
    8e30:	e49db004 	pop	{fp}		; (ldr fp, [sp], #4)
    8e34:	e12fff1e 	bx	lr

00008e38 <_ZN8CMonitor13Adjust_CursorEv>:
_ZN8CMonitor13Adjust_CursorEv():
/mnt/c/Users/Kuba/Documents/ZeroMate/examples/18-UART/kernel/src/drivers/monitor.cpp:34
{
    8e38:	e92d4800 	push	{fp, lr}
    8e3c:	e28db004 	add	fp, sp, #4
    8e40:	e24dd008 	sub	sp, sp, #8
    8e44:	e50b0008 	str	r0, [fp, #-8]
/mnt/c/Users/Kuba/Documents/ZeroMate/examples/18-UART/kernel/src/drivers/monitor.cpp:35
    if (m_cursor.x >= m_width)
    8e48:	e51b3008 	ldr	r3, [fp, #-8]
    8e4c:	e5932010 	ldr	r2, [r3, #16]
    8e50:	e51b3008 	ldr	r3, [fp, #-8]
    8e54:	e5933004 	ldr	r3, [r3, #4]
    8e58:	e1520003 	cmp	r2, r3
    8e5c:	3a000007 	bcc	8e80 <_ZN8CMonitor13Adjust_CursorEv+0x48>
/mnt/c/Users/Kuba/Documents/ZeroMate/examples/18-UART/kernel/src/drivers/monitor.cpp:37
        m_cursor.x = 0;
    8e60:	e51b3008 	ldr	r3, [fp, #-8]
    8e64:	e3a02000 	mov	r2, #0
    8e68:	e5832010 	str	r2, [r3, #16]
/mnt/c/Users/Kuba/Documents/ZeroMate/examples/18-UART/kernel/src/drivers/monitor.cpp:38
        ++m_cursor.y;
    8e6c:	e51b3008 	ldr	r3, [fp, #-8]
    8e70:	e593300c 	ldr	r3, [r3, #12]
    8e74:	e2832001 	add	r2, r3, #1
    8e78:	e51b3008 	ldr	r3, [fp, #-8]
    8e7c:	e583200c 	str	r2, [r3, #12]
/mnt/c/Users/Kuba/Documents/ZeroMate/examples/18-UART/kernel/src/drivers/monitor.cpp:41
    if (m_cursor.y >= m_height)
    8e80:	e51b3008 	ldr	r3, [fp, #-8]
    8e84:	e593200c 	ldr	r2, [r3, #12]
    8e88:	e51b3008 	ldr	r3, [fp, #-8]
    8e8c:	e5933008 	ldr	r3, [r3, #8]
    8e90:	e1520003 	cmp	r2, r3
    8e94:	3a000006 	bcc	8eb4 <_ZN8CMonitor13Adjust_CursorEv+0x7c>
/mnt/c/Users/Kuba/Documents/ZeroMate/examples/18-UART/kernel/src/drivers/monitor.cpp:43
        Scroll();
    8e98:	e51b0008 	ldr	r0, [fp, #-8]
    8e9c:	ebfffe8d 	bl	88d8 <_ZN8CMonitor6ScrollEv>
/mnt/c/Users/Kuba/Documents/ZeroMate/examples/18-UART/kernel/src/drivers/monitor.cpp:44
        m_cursor.y = m_height - 1;
    8ea0:	e51b3008 	ldr	r3, [fp, #-8]
    8ea4:	e5933008 	ldr	r3, [r3, #8]
    8ea8:	e2432001 	sub	r2, r3, #1
    8eac:	e51b3008 	ldr	r3, [fp, #-8]
    8eb0:	e583200c 	str	r2, [r3, #12]
/mnt/c/Users/Kuba/Documents/ZeroMate/examples/18-UART/kernel/src/drivers/monitor.cpp:46
}
    8eb4:	e320f000 	nop	{0}
    8eb8:	e24bd004 	sub	sp, fp, #4
    8ebc:	e8bd8800 	pop	{fp, pc}

00008ec0 <_ZN8CMonitor17Reset_Number_BaseEv>:
_ZN8CMonitor17Reset_Number_BaseEv():
/mnt/c/Users/Kuba/Documents/ZeroMate/examples/18-UART/kernel/src/drivers/monitor.cpp:65
{
    8ec0:	e52db004 	push	{fp}		; (str fp, [sp, #-4]!)
    8ec4:	e28db000 	add	fp, sp, #0
    8ec8:	e24dd00c 	sub	sp, sp, #12
    8ecc:	e50b0008 	str	r0, [fp, #-8]
/mnt/c/Users/Kuba/Documents/ZeroMate/examples/18-UART/kernel/src/drivers/monitor.cpp:66
    m_number_base = DEFAULT_NUMBER_BASE;
    8ed0:	e51b3008 	ldr	r3, [fp, #-8]
    8ed4:	e3a0200a 	mov	r2, #10
    8ed8:	e5832014 	str	r2, [r3, #20]
/mnt/c/Users/Kuba/Documents/ZeroMate/examples/18-UART/kernel/src/drivers/monitor.cpp:67
}
    8edc:	e320f000 	nop	{0}
    8ee0:	e28bd000 	add	sp, fp, #0
    8ee4:	e49db004 	pop	{fp}		; (ldr fp, [sp], #4)
    8ee8:	e12fff1e 	bx	lr

00008eec <_ZN5CUARTC1ER4CAUX>:
_ZN5CUARTC2ER4CAUX():
/mnt/c/Users/Kuba/Documents/ZeroMate/examples/18-UART/kernel/src/drivers/uart.cpp:7
#include <drivers/bcm_aux.h>
#include <drivers/monitor.h>

CUART sUART0(sAUX);

CUART::CUART(CAUX& aux)
    8eec:	e92d4800 	push	{fp, lr}
    8ef0:	e28db004 	add	fp, sp, #4
    8ef4:	e24dd008 	sub	sp, sp, #8
    8ef8:	e50b0008 	str	r0, [fp, #-8]
    8efc:	e50b100c 	str	r1, [fp, #-12]
/mnt/c/Users/Kuba/Documents/ZeroMate/examples/18-UART/kernel/src/drivers/uart.cpp:8
: mAUX(aux)
    8f00:	e51b3008 	ldr	r3, [fp, #-8]
    8f04:	e51b200c 	ldr	r2, [fp, #-12]
    8f08:	e5832000 	str	r2, [r3]
/mnt/c/Users/Kuba/Documents/ZeroMate/examples/18-UART/kernel/src/drivers/uart.cpp:10
{
    mAUX.Enable(hal::AUX_Peripherals::MiniUART);
    8f0c:	e51b3008 	ldr	r3, [fp, #-8]
    8f10:	e5933000 	ldr	r3, [r3]
    8f14:	e3a01000 	mov	r1, #0
    8f18:	e1a00003 	mov	r0, r3
    8f1c:	ebfffc80 	bl	8124 <_ZN4CAUX6EnableEN3hal15AUX_PeripheralsE>
/mnt/c/Users/Kuba/Documents/ZeroMate/examples/18-UART/kernel/src/drivers/uart.cpp:12
    // mAUX.Set_Register(hal::AUX_Reg::ENABLES, mAUX.Get_Register(hal::AUX_Reg::ENABLES) | 0x01);
    mAUX.Set_Register(hal::AUX_Reg::MU_IIR, 0);
    8f20:	e51b3008 	ldr	r3, [fp, #-8]
    8f24:	e5933000 	ldr	r3, [r3]
    8f28:	e3a02000 	mov	r2, #0
    8f2c:	e3a01012 	mov	r1, #18
    8f30:	e1a00003 	mov	r0, r3
    8f34:	ebfffca3 	bl	81c8 <_ZN4CAUX12Set_RegisterEN3hal7AUX_RegEj>
/mnt/c/Users/Kuba/Documents/ZeroMate/examples/18-UART/kernel/src/drivers/uart.cpp:13
    mAUX.Set_Register(hal::AUX_Reg::MU_IER, 0);
    8f38:	e51b3008 	ldr	r3, [fp, #-8]
    8f3c:	e5933000 	ldr	r3, [r3]
    8f40:	e3a02000 	mov	r2, #0
    8f44:	e3a01011 	mov	r1, #17
    8f48:	e1a00003 	mov	r0, r3
    8f4c:	ebfffc9d 	bl	81c8 <_ZN4CAUX12Set_RegisterEN3hal7AUX_RegEj>
/mnt/c/Users/Kuba/Documents/ZeroMate/examples/18-UART/kernel/src/drivers/uart.cpp:14
    mAUX.Set_Register(hal::AUX_Reg::MU_MCR, 0);
    8f50:	e51b3008 	ldr	r3, [fp, #-8]
    8f54:	e5933000 	ldr	r3, [r3]
    8f58:	e3a02000 	mov	r2, #0
    8f5c:	e3a01014 	mov	r1, #20
    8f60:	e1a00003 	mov	r0, r3
    8f64:	ebfffc97 	bl	81c8 <_ZN4CAUX12Set_RegisterEN3hal7AUX_RegEj>
/mnt/c/Users/Kuba/Documents/ZeroMate/examples/18-UART/kernel/src/drivers/uart.cpp:15
    mAUX.Set_Register(hal::AUX_Reg::MU_CNTL, 3); // RX and TX enabled
    8f68:	e51b3008 	ldr	r3, [fp, #-8]
    8f6c:	e5933000 	ldr	r3, [r3]
    8f70:	e3a02003 	mov	r2, #3
    8f74:	e3a01018 	mov	r1, #24
    8f78:	e1a00003 	mov	r0, r3
    8f7c:	ebfffc91 	bl	81c8 <_ZN4CAUX12Set_RegisterEN3hal7AUX_RegEj>
/mnt/c/Users/Kuba/Documents/ZeroMate/examples/18-UART/kernel/src/drivers/uart.cpp:16
}
    8f80:	e51b3008 	ldr	r3, [fp, #-8]
    8f84:	e1a00003 	mov	r0, r3
    8f88:	e24bd004 	sub	sp, fp, #4
    8f8c:	e8bd8800 	pop	{fp, pc}

00008f90 <_ZN5CUART15Set_Char_LengthE17NUART_Char_Length>:
_ZN5CUART15Set_Char_LengthE17NUART_Char_Length():
/mnt/c/Users/Kuba/Documents/ZeroMate/examples/18-UART/kernel/src/drivers/uart.cpp:19

void CUART::Set_Char_Length(NUART_Char_Length len)
{
    8f90:	e92d4810 	push	{r4, fp, lr}
    8f94:	e28db008 	add	fp, sp, #8
    8f98:	e24dd00c 	sub	sp, sp, #12
    8f9c:	e50b0010 	str	r0, [fp, #-16]
    8fa0:	e50b1014 	str	r1, [fp, #-20]	; 0xffffffec
/mnt/c/Users/Kuba/Documents/ZeroMate/examples/18-UART/kernel/src/drivers/uart.cpp:20
    mAUX.Set_Register(hal::AUX_Reg::MU_LCR,
    8fa4:	e51b3010 	ldr	r3, [fp, #-16]
    8fa8:	e5934000 	ldr	r4, [r3]
/mnt/c/Users/Kuba/Documents/ZeroMate/examples/18-UART/kernel/src/drivers/uart.cpp:21
                      (mAUX.Get_Register(hal::AUX_Reg::MU_LCR) & 0xFFFFFFFE) | static_cast<unsigned int>(len));
    8fac:	e51b3010 	ldr	r3, [fp, #-16]
    8fb0:	e5933000 	ldr	r3, [r3]
    8fb4:	e3a01013 	mov	r1, #19
    8fb8:	e1a00003 	mov	r0, r3
    8fbc:	ebfffc92 	bl	820c <_ZN4CAUX12Get_RegisterEN3hal7AUX_RegE>
    8fc0:	e1a03000 	mov	r3, r0
    8fc4:	e3c32001 	bic	r2, r3, #1
    8fc8:	e51b3014 	ldr	r3, [fp, #-20]	; 0xffffffec
/mnt/c/Users/Kuba/Documents/ZeroMate/examples/18-UART/kernel/src/drivers/uart.cpp:20
    mAUX.Set_Register(hal::AUX_Reg::MU_LCR,
    8fcc:	e1823003 	orr	r3, r2, r3
    8fd0:	e1a02003 	mov	r2, r3
    8fd4:	e3a01013 	mov	r1, #19
    8fd8:	e1a00004 	mov	r0, r4
    8fdc:	ebfffc79 	bl	81c8 <_ZN4CAUX12Set_RegisterEN3hal7AUX_RegEj>
/mnt/c/Users/Kuba/Documents/ZeroMate/examples/18-UART/kernel/src/drivers/uart.cpp:22
}
    8fe0:	e320f000 	nop	{0}
    8fe4:	e24bd008 	sub	sp, fp, #8
    8fe8:	e8bd8810 	pop	{r4, fp, pc}

00008fec <_ZN5CUART13Set_Baud_RateE15NUART_Baud_Rate>:
_ZN5CUART13Set_Baud_RateE15NUART_Baud_Rate():
/mnt/c/Users/Kuba/Documents/ZeroMate/examples/18-UART/kernel/src/drivers/uart.cpp:25

void CUART::Set_Baud_Rate(NUART_Baud_Rate rate)
{
    8fec:	e92d4800 	push	{fp, lr}
    8ff0:	e28db004 	add	fp, sp, #4
    8ff4:	e24dd010 	sub	sp, sp, #16
    8ff8:	e50b0010 	str	r0, [fp, #-16]
    8ffc:	e50b1014 	str	r1, [fp, #-20]	; 0xffffffec
/mnt/c/Users/Kuba/Documents/ZeroMate/examples/18-UART/kernel/src/drivers/uart.cpp:26
    constexpr unsigned int Clock_Rate = 250000000; // taktovaci frekvence hlavniho jadra
    9000:	e59f3070 	ldr	r3, [pc, #112]	; 9078 <_ZN5CUART13Set_Baud_RateE15NUART_Baud_Rate+0x8c>
    9004:	e50b3008 	str	r3, [fp, #-8]
/mnt/c/Users/Kuba/Documents/ZeroMate/examples/18-UART/kernel/src/drivers/uart.cpp:27
    const unsigned int val = ((Clock_Rate / static_cast<unsigned int>(rate)) / 8) - 1;
    9008:	e51b3014 	ldr	r3, [fp, #-20]	; 0xffffffec
    900c:	e1a01003 	mov	r1, r3
    9010:	e59f0064 	ldr	r0, [pc, #100]	; 907c <_ZN5CUART13Set_Baud_RateE15NUART_Baud_Rate+0x90>
    9014:	eb0000d4 	bl	936c <__udivsi3>
    9018:	e1a03000 	mov	r3, r0
    901c:	e2433001 	sub	r3, r3, #1
    9020:	e50b300c 	str	r3, [fp, #-12]
/mnt/c/Users/Kuba/Documents/ZeroMate/examples/18-UART/kernel/src/drivers/uart.cpp:29

    mAUX.Set_Register(hal::AUX_Reg::MU_CNTL, 0);
    9024:	e51b3010 	ldr	r3, [fp, #-16]
    9028:	e5933000 	ldr	r3, [r3]
    902c:	e3a02000 	mov	r2, #0
    9030:	e3a01018 	mov	r1, #24
    9034:	e1a00003 	mov	r0, r3
    9038:	ebfffc62 	bl	81c8 <_ZN4CAUX12Set_RegisterEN3hal7AUX_RegEj>
/mnt/c/Users/Kuba/Documents/ZeroMate/examples/18-UART/kernel/src/drivers/uart.cpp:31

    mAUX.Set_Register(hal::AUX_Reg::MU_BAUD, val);
    903c:	e51b3010 	ldr	r3, [fp, #-16]
    9040:	e5933000 	ldr	r3, [r3]
    9044:	e51b200c 	ldr	r2, [fp, #-12]
    9048:	e3a0101a 	mov	r1, #26
    904c:	e1a00003 	mov	r0, r3
    9050:	ebfffc5c 	bl	81c8 <_ZN4CAUX12Set_RegisterEN3hal7AUX_RegEj>
/mnt/c/Users/Kuba/Documents/ZeroMate/examples/18-UART/kernel/src/drivers/uart.cpp:33

    mAUX.Set_Register(hal::AUX_Reg::MU_CNTL, 3);
    9054:	e51b3010 	ldr	r3, [fp, #-16]
    9058:	e5933000 	ldr	r3, [r3]
    905c:	e3a02003 	mov	r2, #3
    9060:	e3a01018 	mov	r1, #24
    9064:	e1a00003 	mov	r0, r3
    9068:	ebfffc56 	bl	81c8 <_ZN4CAUX12Set_RegisterEN3hal7AUX_RegEj>
/mnt/c/Users/Kuba/Documents/ZeroMate/examples/18-UART/kernel/src/drivers/uart.cpp:34
}
    906c:	e320f000 	nop	{0}
    9070:	e24bd004 	sub	sp, fp, #4
    9074:	e8bd8800 	pop	{fp, pc}
    9078:	0ee6b280 	cdpeq	2, 14, cr11, cr6, cr0, {4}
    907c:	01dcd650 	bicseq	sp, ip, r0, asr r6

00009080 <_ZN5CUART5WriteEc>:
_ZN5CUART5WriteEc():
/mnt/c/Users/Kuba/Documents/ZeroMate/examples/18-UART/kernel/src/drivers/uart.cpp:37

void CUART::Write(char c)
{
    9080:	e92d4800 	push	{fp, lr}
    9084:	e28db004 	add	fp, sp, #4
    9088:	e24dd010 	sub	sp, sp, #16
    908c:	e50b0010 	str	r0, [fp, #-16]
    9090:	e1a03001 	mov	r3, r1
    9094:	e54b3011 	strb	r3, [fp, #-17]	; 0xffffffef
/mnt/c/Users/Kuba/Documents/ZeroMate/examples/18-UART/kernel/src/drivers/uart.cpp:38
    unsigned int value = (mAUX.Get_Register(hal::AUX_Reg::MU_LSR) & (1 << 5));
    9098:	e51b3010 	ldr	r3, [fp, #-16]
    909c:	e5933000 	ldr	r3, [r3]
    90a0:	e3a01015 	mov	r1, #21
    90a4:	e1a00003 	mov	r0, r3
    90a8:	ebfffc57 	bl	820c <_ZN4CAUX12Get_RegisterEN3hal7AUX_RegE>
    90ac:	e1a03000 	mov	r3, r0
    90b0:	e2033020 	and	r3, r3, #32
    90b4:	e50b3008 	str	r3, [fp, #-8]
/mnt/c/Users/Kuba/Documents/ZeroMate/examples/18-UART/kernel/src/drivers/uart.cpp:41

    // dokud ma status registr priznak "vystupni fronta plna", nelze prenaset dalsi bit
    while (!value)
    90b8:	e51b3008 	ldr	r3, [fp, #-8]
    90bc:	e3530000 	cmp	r3, #0
    90c0:	1a000008 	bne	90e8 <_ZN5CUART5WriteEc+0x68>
/mnt/c/Users/Kuba/Documents/ZeroMate/examples/18-UART/kernel/src/drivers/uart.cpp:43
    {
        value = (mAUX.Get_Register(hal::AUX_Reg::MU_LSR) & (1 << 5));
    90c4:	e51b3010 	ldr	r3, [fp, #-16]
    90c8:	e5933000 	ldr	r3, [r3]
    90cc:	e3a01015 	mov	r1, #21
    90d0:	e1a00003 	mov	r0, r3
    90d4:	ebfffc4c 	bl	820c <_ZN4CAUX12Get_RegisterEN3hal7AUX_RegE>
    90d8:	e1a03000 	mov	r3, r0
    90dc:	e2033020 	and	r3, r3, #32
    90e0:	e50b3008 	str	r3, [fp, #-8]
/mnt/c/Users/Kuba/Documents/ZeroMate/examples/18-UART/kernel/src/drivers/uart.cpp:41
    while (!value)
    90e4:	eafffff3 	b	90b8 <_ZN5CUART5WriteEc+0x38>
/mnt/c/Users/Kuba/Documents/ZeroMate/examples/18-UART/kernel/src/drivers/uart.cpp:47
        // sMonitor << value << '\n';
    }

    mAUX.Set_Register(hal::AUX_Reg::MU_IO, c);
    90e8:	e51b3010 	ldr	r3, [fp, #-16]
    90ec:	e5933000 	ldr	r3, [r3]
    90f0:	e55b2011 	ldrb	r2, [fp, #-17]	; 0xffffffef
    90f4:	e3a01010 	mov	r1, #16
    90f8:	e1a00003 	mov	r0, r3
    90fc:	ebfffc31 	bl	81c8 <_ZN4CAUX12Set_RegisterEN3hal7AUX_RegEj>
/mnt/c/Users/Kuba/Documents/ZeroMate/examples/18-UART/kernel/src/drivers/uart.cpp:48
}
    9100:	e320f000 	nop	{0}
    9104:	e24bd004 	sub	sp, fp, #4
    9108:	e8bd8800 	pop	{fp, pc}

0000910c <_ZN5CUART5WriteEPKc>:
_ZN5CUART5WriteEPKc():
/mnt/c/Users/Kuba/Documents/ZeroMate/examples/18-UART/kernel/src/drivers/uart.cpp:51

void CUART::Write(const char* str)
{
    910c:	e92d4800 	push	{fp, lr}
    9110:	e28db004 	add	fp, sp, #4
    9114:	e24dd010 	sub	sp, sp, #16
    9118:	e50b0010 	str	r0, [fp, #-16]
    911c:	e50b1014 	str	r1, [fp, #-20]	; 0xffffffec
/mnt/c/Users/Kuba/Documents/ZeroMate/examples/18-UART/kernel/src/drivers/uart.cpp:54
    int i;

    for (i = 0; str[i] != '\0'; i++)
    9120:	e3a03000 	mov	r3, #0
    9124:	e50b3008 	str	r3, [fp, #-8]
/mnt/c/Users/Kuba/Documents/ZeroMate/examples/18-UART/kernel/src/drivers/uart.cpp:54 (discriminator 3)
    9128:	e51b3008 	ldr	r3, [fp, #-8]
    912c:	e51b2014 	ldr	r2, [fp, #-20]	; 0xffffffec
    9130:	e0823003 	add	r3, r2, r3
    9134:	e5d33000 	ldrb	r3, [r3]
    9138:	e3530000 	cmp	r3, #0
    913c:	0a00000a 	beq	916c <_ZN5CUART5WriteEPKc+0x60>
/mnt/c/Users/Kuba/Documents/ZeroMate/examples/18-UART/kernel/src/drivers/uart.cpp:55 (discriminator 2)
        Write(str[i]);
    9140:	e51b3008 	ldr	r3, [fp, #-8]
    9144:	e51b2014 	ldr	r2, [fp, #-20]	; 0xffffffec
    9148:	e0823003 	add	r3, r2, r3
    914c:	e5d33000 	ldrb	r3, [r3]
    9150:	e1a01003 	mov	r1, r3
    9154:	e51b0010 	ldr	r0, [fp, #-16]
    9158:	ebffffc8 	bl	9080 <_ZN5CUART5WriteEc>
/mnt/c/Users/Kuba/Documents/ZeroMate/examples/18-UART/kernel/src/drivers/uart.cpp:54 (discriminator 2)
    for (i = 0; str[i] != '\0'; i++)
    915c:	e51b3008 	ldr	r3, [fp, #-8]
    9160:	e2833001 	add	r3, r3, #1
    9164:	e50b3008 	str	r3, [fp, #-8]
    9168:	eaffffee 	b	9128 <_ZN5CUART5WriteEPKc+0x1c>
/mnt/c/Users/Kuba/Documents/ZeroMate/examples/18-UART/kernel/src/drivers/uart.cpp:56
    916c:	e320f000 	nop	{0}
    9170:	e24bd004 	sub	sp, fp, #4
    9174:	e8bd8800 	pop	{fp, pc}

00009178 <_Z41__static_initialization_and_destruction_0ii>:
_Z41__static_initialization_and_destruction_0ii():
/mnt/c/Users/Kuba/Documents/ZeroMate/examples/18-UART/kernel/src/drivers/uart.cpp:56
    9178:	e92d4800 	push	{fp, lr}
    917c:	e28db004 	add	fp, sp, #4
    9180:	e24dd008 	sub	sp, sp, #8
    9184:	e50b0008 	str	r0, [fp, #-8]
    9188:	e50b100c 	str	r1, [fp, #-12]
    918c:	e51b3008 	ldr	r3, [fp, #-8]
    9190:	e3530001 	cmp	r3, #1
    9194:	1a000006 	bne	91b4 <_Z41__static_initialization_and_destruction_0ii+0x3c>
/mnt/c/Users/Kuba/Documents/ZeroMate/examples/18-UART/kernel/src/drivers/uart.cpp:56 (discriminator 1)
    9198:	e51b300c 	ldr	r3, [fp, #-12]
    919c:	e59f201c 	ldr	r2, [pc, #28]	; 91c0 <_Z41__static_initialization_and_destruction_0ii+0x48>
    91a0:	e1530002 	cmp	r3, r2
    91a4:	1a000002 	bne	91b4 <_Z41__static_initialization_and_destruction_0ii+0x3c>
/mnt/c/Users/Kuba/Documents/ZeroMate/examples/18-UART/kernel/src/drivers/uart.cpp:5
CUART sUART0(sAUX);
    91a8:	e59f1014 	ldr	r1, [pc, #20]	; 91c4 <_Z41__static_initialization_and_destruction_0ii+0x4c>
    91ac:	e59f0014 	ldr	r0, [pc, #20]	; 91c8 <_Z41__static_initialization_and_destruction_0ii+0x50>
    91b0:	ebffff4d 	bl	8eec <_ZN5CUARTC1ER4CAUX>
/mnt/c/Users/Kuba/Documents/ZeroMate/examples/18-UART/kernel/src/drivers/uart.cpp:56
    91b4:	e320f000 	nop	{0}
    91b8:	e24bd004 	sub	sp, fp, #4
    91bc:	e8bd8800 	pop	{fp, pc}
    91c0:	0000ffff 	strdeq	pc, [r0], -pc	; <UNPREDICTABLE>
    91c4:	000096d8 	ldrdeq	r9, [r0], -r8
    91c8:	00009708 	andeq	r9, r0, r8, lsl #14

000091cc <_GLOBAL__sub_I_sUART0>:
_GLOBAL__sub_I_sUART0():
/mnt/c/Users/Kuba/Documents/ZeroMate/examples/18-UART/kernel/src/drivers/uart.cpp:56
    91cc:	e92d4800 	push	{fp, lr}
    91d0:	e28db004 	add	fp, sp, #4
    91d4:	e59f1008 	ldr	r1, [pc, #8]	; 91e4 <_GLOBAL__sub_I_sUART0+0x18>
    91d8:	e3a00001 	mov	r0, #1
    91dc:	ebffffe5 	bl	9178 <_Z41__static_initialization_and_destruction_0ii>
    91e0:	e8bd8800 	pop	{fp, pc}
    91e4:	0000ffff 	strdeq	pc, [r0], -pc	; <UNPREDICTABLE>

000091e8 <_kernel_main>:
_kernel_main():
/mnt/c/Users/Kuba/Documents/ZeroMate/examples/18-UART/kernel/src/main.cpp:6
#include <drivers/gpio.h>
#include <drivers/uart.h>
#include <drivers/monitor.h>

extern "C" int _kernel_main(void)
{
    91e8:	e92d4800 	push	{fp, lr}
    91ec:	e28db004 	add	fp, sp, #4
    91f0:	e24dd008 	sub	sp, sp, #8
/mnt/c/Users/Kuba/Documents/ZeroMate/examples/18-UART/kernel/src/main.cpp:8
    // inicializujeme UART kanal 0
    sUART0.Set_Baud_Rate(NUART_Baud_Rate::BR_9600);
    91f4:	e3a01d96 	mov	r1, #9600	; 0x2580
    91f8:	e59f004c 	ldr	r0, [pc, #76]	; 924c <_kernel_main+0x64>
    91fc:	ebffff7a 	bl	8fec <_ZN5CUART13Set_Baud_RateE15NUART_Baud_Rate>
/mnt/c/Users/Kuba/Documents/ZeroMate/examples/18-UART/kernel/src/main.cpp:9
    sUART0.Set_Char_Length(NUART_Char_Length::Char_8);
    9200:	e3a01001 	mov	r1, #1
    9204:	e59f0040 	ldr	r0, [pc, #64]	; 924c <_kernel_main+0x64>
    9208:	ebffff60 	bl	8f90 <_ZN5CUART15Set_Char_LengthE17NUART_Char_Length>
/mnt/c/Users/Kuba/Documents/ZeroMate/examples/18-UART/kernel/src/main.cpp:15

    volatile unsigned int tim;

    while (1)
    {
        sUART0.Write("Welcome to KIV/OS RPiOS kernel\r\n");
    920c:	e59f103c 	ldr	r1, [pc, #60]	; 9250 <_kernel_main+0x68>
    9210:	e59f0034 	ldr	r0, [pc, #52]	; 924c <_kernel_main+0x64>
    9214:	ebffffbc 	bl	910c <_ZN5CUART5WriteEPKc>
/mnt/c/Users/Kuba/Documents/ZeroMate/examples/18-UART/kernel/src/main.cpp:17
        
        for (tim = 0; tim < 0x100; tim++)
    9218:	e3a03000 	mov	r3, #0
    921c:	e50b3008 	str	r3, [fp, #-8]
/mnt/c/Users/Kuba/Documents/ZeroMate/examples/18-UART/kernel/src/main.cpp:17 (discriminator 3)
    9220:	e51b3008 	ldr	r3, [fp, #-8]
    9224:	e35300ff 	cmp	r3, #255	; 0xff
    9228:	93a03001 	movls	r3, #1
    922c:	83a03000 	movhi	r3, #0
    9230:	e6ef3073 	uxtb	r3, r3
    9234:	e3530000 	cmp	r3, #0
    9238:	0afffff3 	beq	920c <_kernel_main+0x24>
/mnt/c/Users/Kuba/Documents/ZeroMate/examples/18-UART/kernel/src/main.cpp:17 (discriminator 2)
    923c:	e51b3008 	ldr	r3, [fp, #-8]
    9240:	e2833001 	add	r3, r3, #1
    9244:	e50b3008 	str	r3, [fp, #-8]
    9248:	eafffff4 	b	9220 <_kernel_main+0x38>
    924c:	00009708 	andeq	r9, r0, r8, lsl #14
    9250:	000096a4 	andeq	r9, r0, r4, lsr #13

00009254 <_c_startup>:
_c_startup():
/mnt/c/Users/Kuba/Documents/ZeroMate/examples/18-UART/kernel/src/startup.cpp:21
extern "C" dtor_ptr __DTOR_LIST__[0];
// konec pole destruktoru
extern "C" dtor_ptr __DTOR_END__[0];

extern "C" int _c_startup(void)
{
    9254:	e52db004 	push	{fp}		; (str fp, [sp, #-4]!)
    9258:	e28db000 	add	fp, sp, #0
    925c:	e24dd00c 	sub	sp, sp, #12
/mnt/c/Users/Kuba/Documents/ZeroMate/examples/18-UART/kernel/src/startup.cpp:25
    int* i;

    // vynulujeme .bss sekci
    for (i = (int*)_bss_start; i < (int*)_bss_end; i++)
    9260:	e59f304c 	ldr	r3, [pc, #76]	; 92b4 <_c_startup+0x60>
    9264:	e5933000 	ldr	r3, [r3]
    9268:	e50b3008 	str	r3, [fp, #-8]
/mnt/c/Users/Kuba/Documents/ZeroMate/examples/18-UART/kernel/src/startup.cpp:25 (discriminator 3)
    926c:	e59f3044 	ldr	r3, [pc, #68]	; 92b8 <_c_startup+0x64>
    9270:	e5933000 	ldr	r3, [r3]
    9274:	e1a02003 	mov	r2, r3
    9278:	e51b3008 	ldr	r3, [fp, #-8]
    927c:	e1530002 	cmp	r3, r2
    9280:	2a000006 	bcs	92a0 <_c_startup+0x4c>
/mnt/c/Users/Kuba/Documents/ZeroMate/examples/18-UART/kernel/src/startup.cpp:26 (discriminator 2)
        *i = 0;
    9284:	e51b3008 	ldr	r3, [fp, #-8]
    9288:	e3a02000 	mov	r2, #0
    928c:	e5832000 	str	r2, [r3]
/mnt/c/Users/Kuba/Documents/ZeroMate/examples/18-UART/kernel/src/startup.cpp:25 (discriminator 2)
    for (i = (int*)_bss_start; i < (int*)_bss_end; i++)
    9290:	e51b3008 	ldr	r3, [fp, #-8]
    9294:	e2833004 	add	r3, r3, #4
    9298:	e50b3008 	str	r3, [fp, #-8]
    929c:	eafffff2 	b	926c <_c_startup+0x18>
/mnt/c/Users/Kuba/Documents/ZeroMate/examples/18-UART/kernel/src/startup.cpp:28

    return 0;
    92a0:	e3a03000 	mov	r3, #0
/mnt/c/Users/Kuba/Documents/ZeroMate/examples/18-UART/kernel/src/startup.cpp:29
}
    92a4:	e1a00003 	mov	r0, r3
    92a8:	e28bd000 	add	sp, fp, #0
    92ac:	e49db004 	pop	{fp}		; (ldr fp, [sp], #4)
    92b0:	e12fff1e 	bx	lr
    92b4:	000096d8 	ldrdeq	r9, [r0], -r8
    92b8:	0000971c 	andeq	r9, r0, ip, lsl r7

000092bc <_cpp_startup>:
_cpp_startup():
/mnt/c/Users/Kuba/Documents/ZeroMate/examples/18-UART/kernel/src/startup.cpp:32

extern "C" int _cpp_startup(void)
{
    92bc:	e92d4800 	push	{fp, lr}
    92c0:	e28db004 	add	fp, sp, #4
    92c4:	e24dd008 	sub	sp, sp, #8
/mnt/c/Users/Kuba/Documents/ZeroMate/examples/18-UART/kernel/src/startup.cpp:37
    ctor_ptr* fnptr;

    // zavolame konstruktory globalnich C++ trid
    // v poli __CTOR_LIST__ jsou ukazatele na vygenerovane stuby volani konstruktoru
    for (fnptr = __CTOR_LIST__; fnptr < __CTOR_END__; fnptr++)
    92c8:	e59f303c 	ldr	r3, [pc, #60]	; 930c <_cpp_startup+0x50>
    92cc:	e50b3008 	str	r3, [fp, #-8]
/mnt/c/Users/Kuba/Documents/ZeroMate/examples/18-UART/kernel/src/startup.cpp:37 (discriminator 3)
    92d0:	e51b3008 	ldr	r3, [fp, #-8]
    92d4:	e59f2034 	ldr	r2, [pc, #52]	; 9310 <_cpp_startup+0x54>
    92d8:	e1530002 	cmp	r3, r2
    92dc:	2a000006 	bcs	92fc <_cpp_startup+0x40>
/mnt/c/Users/Kuba/Documents/ZeroMate/examples/18-UART/kernel/src/startup.cpp:38 (discriminator 2)
        (*fnptr)();
    92e0:	e51b3008 	ldr	r3, [fp, #-8]
    92e4:	e5933000 	ldr	r3, [r3]
    92e8:	e12fff33 	blx	r3
/mnt/c/Users/Kuba/Documents/ZeroMate/examples/18-UART/kernel/src/startup.cpp:37 (discriminator 2)
    for (fnptr = __CTOR_LIST__; fnptr < __CTOR_END__; fnptr++)
    92ec:	e51b3008 	ldr	r3, [fp, #-8]
    92f0:	e2833004 	add	r3, r3, #4
    92f4:	e50b3008 	str	r3, [fp, #-8]
    92f8:	eafffff4 	b	92d0 <_cpp_startup+0x14>
/mnt/c/Users/Kuba/Documents/ZeroMate/examples/18-UART/kernel/src/startup.cpp:40

    return 0;
    92fc:	e3a03000 	mov	r3, #0
/mnt/c/Users/Kuba/Documents/ZeroMate/examples/18-UART/kernel/src/startup.cpp:41
}
    9300:	e1a00003 	mov	r0, r3
    9304:	e24bd004 	sub	sp, fp, #4
    9308:	e8bd8800 	pop	{fp, pc}
    930c:	000096c8 	andeq	r9, r0, r8, asr #13
    9310:	000096d8 	ldrdeq	r9, [r0], -r8

00009314 <_cpp_shutdown>:
_cpp_shutdown():
/mnt/c/Users/Kuba/Documents/ZeroMate/examples/18-UART/kernel/src/startup.cpp:44

extern "C" int _cpp_shutdown(void)
{
    9314:	e92d4800 	push	{fp, lr}
    9318:	e28db004 	add	fp, sp, #4
    931c:	e24dd008 	sub	sp, sp, #8
/mnt/c/Users/Kuba/Documents/ZeroMate/examples/18-UART/kernel/src/startup.cpp:48
    dtor_ptr* fnptr;

    // zavolame destruktory globalnich C++ trid
    for (fnptr = __DTOR_LIST__; fnptr < __DTOR_END__; fnptr++)
    9320:	e59f303c 	ldr	r3, [pc, #60]	; 9364 <_cpp_shutdown+0x50>
    9324:	e50b3008 	str	r3, [fp, #-8]
/mnt/c/Users/Kuba/Documents/ZeroMate/examples/18-UART/kernel/src/startup.cpp:48 (discriminator 3)
    9328:	e51b3008 	ldr	r3, [fp, #-8]
    932c:	e59f2034 	ldr	r2, [pc, #52]	; 9368 <_cpp_shutdown+0x54>
    9330:	e1530002 	cmp	r3, r2
    9334:	2a000006 	bcs	9354 <_cpp_shutdown+0x40>
/mnt/c/Users/Kuba/Documents/ZeroMate/examples/18-UART/kernel/src/startup.cpp:49 (discriminator 2)
        (*fnptr)();
    9338:	e51b3008 	ldr	r3, [fp, #-8]
    933c:	e5933000 	ldr	r3, [r3]
    9340:	e12fff33 	blx	r3
/mnt/c/Users/Kuba/Documents/ZeroMate/examples/18-UART/kernel/src/startup.cpp:48 (discriminator 2)
    for (fnptr = __DTOR_LIST__; fnptr < __DTOR_END__; fnptr++)
    9344:	e51b3008 	ldr	r3, [fp, #-8]
    9348:	e2833004 	add	r3, r3, #4
    934c:	e50b3008 	str	r3, [fp, #-8]
    9350:	eafffff4 	b	9328 <_cpp_shutdown+0x14>
/mnt/c/Users/Kuba/Documents/ZeroMate/examples/18-UART/kernel/src/startup.cpp:51

    return 0;
    9354:	e3a03000 	mov	r3, #0
/mnt/c/Users/Kuba/Documents/ZeroMate/examples/18-UART/kernel/src/startup.cpp:52
}
    9358:	e1a00003 	mov	r0, r3
    935c:	e24bd004 	sub	sp, fp, #4
    9360:	e8bd8800 	pop	{fp, pc}
    9364:	000096d8 	ldrdeq	r9, [r0], -r8
    9368:	000096d8 	ldrdeq	r9, [r0], -r8

0000936c <__udivsi3>:
__udivsi3():
/build/gcc-arm-none-eabi-hYfgK4/gcc-arm-none-eabi-10.3-2021.07/build/arm-none-eabi/arm/v5te/hard/libgcc/../../../../../../libgcc/config/arm/lib1funcs.S:1104
    936c:	e2512001 	subs	r2, r1, #1
/build/gcc-arm-none-eabi-hYfgK4/gcc-arm-none-eabi-10.3-2021.07/build/arm-none-eabi/arm/v5te/hard/libgcc/../../../../../../libgcc/config/arm/lib1funcs.S:1106
    9370:	012fff1e 	bxeq	lr
/build/gcc-arm-none-eabi-hYfgK4/gcc-arm-none-eabi-10.3-2021.07/build/arm-none-eabi/arm/v5te/hard/libgcc/../../../../../../libgcc/config/arm/lib1funcs.S:1107
    9374:	3a000074 	bcc	954c <__udivsi3+0x1e0>
/build/gcc-arm-none-eabi-hYfgK4/gcc-arm-none-eabi-10.3-2021.07/build/arm-none-eabi/arm/v5te/hard/libgcc/../../../../../../libgcc/config/arm/lib1funcs.S:1108
    9378:	e1500001 	cmp	r0, r1
/build/gcc-arm-none-eabi-hYfgK4/gcc-arm-none-eabi-10.3-2021.07/build/arm-none-eabi/arm/v5te/hard/libgcc/../../../../../../libgcc/config/arm/lib1funcs.S:1109
    937c:	9a00006b 	bls	9530 <__udivsi3+0x1c4>
/build/gcc-arm-none-eabi-hYfgK4/gcc-arm-none-eabi-10.3-2021.07/build/arm-none-eabi/arm/v5te/hard/libgcc/../../../../../../libgcc/config/arm/lib1funcs.S:1110
    9380:	e1110002 	tst	r1, r2
/build/gcc-arm-none-eabi-hYfgK4/gcc-arm-none-eabi-10.3-2021.07/build/arm-none-eabi/arm/v5te/hard/libgcc/../../../../../../libgcc/config/arm/lib1funcs.S:1111
    9384:	0a00006c 	beq	953c <__udivsi3+0x1d0>
/build/gcc-arm-none-eabi-hYfgK4/gcc-arm-none-eabi-10.3-2021.07/build/arm-none-eabi/arm/v5te/hard/libgcc/../../../../../../libgcc/config/arm/lib1funcs.S:1113
    9388:	e16f3f10 	clz	r3, r0
    938c:	e16f2f11 	clz	r2, r1
    9390:	e0423003 	sub	r3, r2, r3
    9394:	e273301f 	rsbs	r3, r3, #31
    9398:	10833083 	addne	r3, r3, r3, lsl #1
    939c:	e3a02000 	mov	r2, #0
    93a0:	108ff103 	addne	pc, pc, r3, lsl #2
    93a4:	e1a00000 	nop			; (mov r0, r0)
    93a8:	e1500f81 	cmp	r0, r1, lsl #31
    93ac:	e0a22002 	adc	r2, r2, r2
    93b0:	20400f81 	subcs	r0, r0, r1, lsl #31
    93b4:	e1500f01 	cmp	r0, r1, lsl #30
    93b8:	e0a22002 	adc	r2, r2, r2
    93bc:	20400f01 	subcs	r0, r0, r1, lsl #30
    93c0:	e1500e81 	cmp	r0, r1, lsl #29
    93c4:	e0a22002 	adc	r2, r2, r2
    93c8:	20400e81 	subcs	r0, r0, r1, lsl #29
    93cc:	e1500e01 	cmp	r0, r1, lsl #28
    93d0:	e0a22002 	adc	r2, r2, r2
    93d4:	20400e01 	subcs	r0, r0, r1, lsl #28
    93d8:	e1500d81 	cmp	r0, r1, lsl #27
    93dc:	e0a22002 	adc	r2, r2, r2
    93e0:	20400d81 	subcs	r0, r0, r1, lsl #27
    93e4:	e1500d01 	cmp	r0, r1, lsl #26
    93e8:	e0a22002 	adc	r2, r2, r2
    93ec:	20400d01 	subcs	r0, r0, r1, lsl #26
    93f0:	e1500c81 	cmp	r0, r1, lsl #25
    93f4:	e0a22002 	adc	r2, r2, r2
    93f8:	20400c81 	subcs	r0, r0, r1, lsl #25
    93fc:	e1500c01 	cmp	r0, r1, lsl #24
    9400:	e0a22002 	adc	r2, r2, r2
    9404:	20400c01 	subcs	r0, r0, r1, lsl #24
    9408:	e1500b81 	cmp	r0, r1, lsl #23
    940c:	e0a22002 	adc	r2, r2, r2
    9410:	20400b81 	subcs	r0, r0, r1, lsl #23
    9414:	e1500b01 	cmp	r0, r1, lsl #22
    9418:	e0a22002 	adc	r2, r2, r2
    941c:	20400b01 	subcs	r0, r0, r1, lsl #22
    9420:	e1500a81 	cmp	r0, r1, lsl #21
    9424:	e0a22002 	adc	r2, r2, r2
    9428:	20400a81 	subcs	r0, r0, r1, lsl #21
    942c:	e1500a01 	cmp	r0, r1, lsl #20
    9430:	e0a22002 	adc	r2, r2, r2
    9434:	20400a01 	subcs	r0, r0, r1, lsl #20
    9438:	e1500981 	cmp	r0, r1, lsl #19
    943c:	e0a22002 	adc	r2, r2, r2
    9440:	20400981 	subcs	r0, r0, r1, lsl #19
    9444:	e1500901 	cmp	r0, r1, lsl #18
    9448:	e0a22002 	adc	r2, r2, r2
    944c:	20400901 	subcs	r0, r0, r1, lsl #18
    9450:	e1500881 	cmp	r0, r1, lsl #17
    9454:	e0a22002 	adc	r2, r2, r2
    9458:	20400881 	subcs	r0, r0, r1, lsl #17
    945c:	e1500801 	cmp	r0, r1, lsl #16
    9460:	e0a22002 	adc	r2, r2, r2
    9464:	20400801 	subcs	r0, r0, r1, lsl #16
    9468:	e1500781 	cmp	r0, r1, lsl #15
    946c:	e0a22002 	adc	r2, r2, r2
    9470:	20400781 	subcs	r0, r0, r1, lsl #15
    9474:	e1500701 	cmp	r0, r1, lsl #14
    9478:	e0a22002 	adc	r2, r2, r2
    947c:	20400701 	subcs	r0, r0, r1, lsl #14
    9480:	e1500681 	cmp	r0, r1, lsl #13
    9484:	e0a22002 	adc	r2, r2, r2
    9488:	20400681 	subcs	r0, r0, r1, lsl #13
    948c:	e1500601 	cmp	r0, r1, lsl #12
    9490:	e0a22002 	adc	r2, r2, r2
    9494:	20400601 	subcs	r0, r0, r1, lsl #12
    9498:	e1500581 	cmp	r0, r1, lsl #11
    949c:	e0a22002 	adc	r2, r2, r2
    94a0:	20400581 	subcs	r0, r0, r1, lsl #11
    94a4:	e1500501 	cmp	r0, r1, lsl #10
    94a8:	e0a22002 	adc	r2, r2, r2
    94ac:	20400501 	subcs	r0, r0, r1, lsl #10
    94b0:	e1500481 	cmp	r0, r1, lsl #9
    94b4:	e0a22002 	adc	r2, r2, r2
    94b8:	20400481 	subcs	r0, r0, r1, lsl #9
    94bc:	e1500401 	cmp	r0, r1, lsl #8
    94c0:	e0a22002 	adc	r2, r2, r2
    94c4:	20400401 	subcs	r0, r0, r1, lsl #8
    94c8:	e1500381 	cmp	r0, r1, lsl #7
    94cc:	e0a22002 	adc	r2, r2, r2
    94d0:	20400381 	subcs	r0, r0, r1, lsl #7
    94d4:	e1500301 	cmp	r0, r1, lsl #6
    94d8:	e0a22002 	adc	r2, r2, r2
    94dc:	20400301 	subcs	r0, r0, r1, lsl #6
    94e0:	e1500281 	cmp	r0, r1, lsl #5
    94e4:	e0a22002 	adc	r2, r2, r2
    94e8:	20400281 	subcs	r0, r0, r1, lsl #5
    94ec:	e1500201 	cmp	r0, r1, lsl #4
    94f0:	e0a22002 	adc	r2, r2, r2
    94f4:	20400201 	subcs	r0, r0, r1, lsl #4
    94f8:	e1500181 	cmp	r0, r1, lsl #3
    94fc:	e0a22002 	adc	r2, r2, r2
    9500:	20400181 	subcs	r0, r0, r1, lsl #3
    9504:	e1500101 	cmp	r0, r1, lsl #2
    9508:	e0a22002 	adc	r2, r2, r2
    950c:	20400101 	subcs	r0, r0, r1, lsl #2
    9510:	e1500081 	cmp	r0, r1, lsl #1
    9514:	e0a22002 	adc	r2, r2, r2
    9518:	20400081 	subcs	r0, r0, r1, lsl #1
    951c:	e1500001 	cmp	r0, r1
    9520:	e0a22002 	adc	r2, r2, r2
    9524:	20400001 	subcs	r0, r0, r1
/build/gcc-arm-none-eabi-hYfgK4/gcc-arm-none-eabi-10.3-2021.07/build/arm-none-eabi/arm/v5te/hard/libgcc/../../../../../../libgcc/config/arm/lib1funcs.S:1115
    9528:	e1a00002 	mov	r0, r2
/build/gcc-arm-none-eabi-hYfgK4/gcc-arm-none-eabi-10.3-2021.07/build/arm-none-eabi/arm/v5te/hard/libgcc/../../../../../../libgcc/config/arm/lib1funcs.S:1116
    952c:	e12fff1e 	bx	lr
/build/gcc-arm-none-eabi-hYfgK4/gcc-arm-none-eabi-10.3-2021.07/build/arm-none-eabi/arm/v5te/hard/libgcc/../../../../../../libgcc/config/arm/lib1funcs.S:1119
    9530:	03a00001 	moveq	r0, #1
/build/gcc-arm-none-eabi-hYfgK4/gcc-arm-none-eabi-10.3-2021.07/build/arm-none-eabi/arm/v5te/hard/libgcc/../../../../../../libgcc/config/arm/lib1funcs.S:1120
    9534:	13a00000 	movne	r0, #0
/build/gcc-arm-none-eabi-hYfgK4/gcc-arm-none-eabi-10.3-2021.07/build/arm-none-eabi/arm/v5te/hard/libgcc/../../../../../../libgcc/config/arm/lib1funcs.S:1121
    9538:	e12fff1e 	bx	lr
/build/gcc-arm-none-eabi-hYfgK4/gcc-arm-none-eabi-10.3-2021.07/build/arm-none-eabi/arm/v5te/hard/libgcc/../../../../../../libgcc/config/arm/lib1funcs.S:1123
    953c:	e16f2f11 	clz	r2, r1
    9540:	e262201f 	rsb	r2, r2, #31
/build/gcc-arm-none-eabi-hYfgK4/gcc-arm-none-eabi-10.3-2021.07/build/arm-none-eabi/arm/v5te/hard/libgcc/../../../../../../libgcc/config/arm/lib1funcs.S:1125
    9544:	e1a00230 	lsr	r0, r0, r2
/build/gcc-arm-none-eabi-hYfgK4/gcc-arm-none-eabi-10.3-2021.07/build/arm-none-eabi/arm/v5te/hard/libgcc/../../../../../../libgcc/config/arm/lib1funcs.S:1126
    9548:	e12fff1e 	bx	lr
/build/gcc-arm-none-eabi-hYfgK4/gcc-arm-none-eabi-10.3-2021.07/build/arm-none-eabi/arm/v5te/hard/libgcc/../../../../../../libgcc/config/arm/lib1funcs.S:1130
    954c:	e3500000 	cmp	r0, #0
    9550:	13e00000 	mvnne	r0, #0
    9554:	ea000007 	b	9578 <__aeabi_idiv0>

00009558 <__aeabi_uidivmod>:
__aeabi_uidivmod():
/build/gcc-arm-none-eabi-hYfgK4/gcc-arm-none-eabi-10.3-2021.07/build/arm-none-eabi/arm/v5te/hard/libgcc/../../../../../../libgcc/config/arm/lib1funcs.S:1161
    9558:	e3510000 	cmp	r1, #0
/build/gcc-arm-none-eabi-hYfgK4/gcc-arm-none-eabi-10.3-2021.07/build/arm-none-eabi/arm/v5te/hard/libgcc/../../../../../../libgcc/config/arm/lib1funcs.S:1162
    955c:	0afffffa 	beq	954c <__udivsi3+0x1e0>
/build/gcc-arm-none-eabi-hYfgK4/gcc-arm-none-eabi-10.3-2021.07/build/arm-none-eabi/arm/v5te/hard/libgcc/../../../../../../libgcc/config/arm/lib1funcs.S:1163
    9560:	e92d4003 	push	{r0, r1, lr}
/build/gcc-arm-none-eabi-hYfgK4/gcc-arm-none-eabi-10.3-2021.07/build/arm-none-eabi/arm/v5te/hard/libgcc/../../../../../../libgcc/config/arm/lib1funcs.S:1164
    9564:	ebffff80 	bl	936c <__udivsi3>
/build/gcc-arm-none-eabi-hYfgK4/gcc-arm-none-eabi-10.3-2021.07/build/arm-none-eabi/arm/v5te/hard/libgcc/../../../../../../libgcc/config/arm/lib1funcs.S:1165
    9568:	e8bd4006 	pop	{r1, r2, lr}
/build/gcc-arm-none-eabi-hYfgK4/gcc-arm-none-eabi-10.3-2021.07/build/arm-none-eabi/arm/v5te/hard/libgcc/../../../../../../libgcc/config/arm/lib1funcs.S:1166
    956c:	e0030092 	mul	r3, r2, r0
/build/gcc-arm-none-eabi-hYfgK4/gcc-arm-none-eabi-10.3-2021.07/build/arm-none-eabi/arm/v5te/hard/libgcc/../../../../../../libgcc/config/arm/lib1funcs.S:1167
    9570:	e0411003 	sub	r1, r1, r3
/build/gcc-arm-none-eabi-hYfgK4/gcc-arm-none-eabi-10.3-2021.07/build/arm-none-eabi/arm/v5te/hard/libgcc/../../../../../../libgcc/config/arm/lib1funcs.S:1168
    9574:	e12fff1e 	bx	lr

00009578 <__aeabi_idiv0>:
__aeabi_ldiv0():
/build/gcc-arm-none-eabi-hYfgK4/gcc-arm-none-eabi-10.3-2021.07/build/arm-none-eabi/arm/v5te/hard/libgcc/../../../../../../libgcc/config/arm/lib1funcs.S:1466
    9578:	e12fff1e 	bx	lr
