
./kernel:     file format elf32-littlearm


Disassembly of section .text:

00008000 <_start>:
_start():
/mnt/c/Users/Kuba/Documents/ZeroMate/examples/21-FPU/kernel/src/start.s:17
.equ    CPSR_FIQ_INHIBIT,       0x40


;@ kernel reset vektor - tento kod se vykona pri kazdem resetu zarizeni (i prvnim spusteni)
_start:
	mov sp, #0x8000			;@ nastavime stack pointer na spodek zasobniku
    8000:	e3a0d902 	mov	sp, #32768	; 0x8000
/mnt/c/Users/Kuba/Documents/ZeroMate/examples/21-FPU/kernel/src/start.s:20

	;@ nacteni tabulky vektoru preruseni do pameti
	mov r0, #0x8000			;@ adresa 0x8000 (_start) do r0
    8004:	e3a00902 	mov	r0, #32768	; 0x8000
/mnt/c/Users/Kuba/Documents/ZeroMate/examples/21-FPU/kernel/src/start.s:21
    mov r1, #0x0000			;@ adresa 0x0000 (pocatek RAM) do r1 - tam budeme vkladat tabulku vektoru preruseni
    8008:	e3a01000 	mov	r1, #0
/mnt/c/Users/Kuba/Documents/ZeroMate/examples/21-FPU/kernel/src/start.s:23

	mrc p15, 0, r6, c1, c0, 2
    800c:	ee116f50 	mrc	15, 0, r6, cr1, cr0, {2}
/mnt/c/Users/Kuba/Documents/ZeroMate/examples/21-FPU/kernel/src/start.s:24
    orr r6, r6, #0x300000
    8010:	e3866603 	orr	r6, r6, #3145728	; 0x300000
/mnt/c/Users/Kuba/Documents/ZeroMate/examples/21-FPU/kernel/src/start.s:25
    mcr p15, 0, r6, c1, c0, 2
    8014:	ee016f50 	mcr	15, 0, r6, cr1, cr0, {2}
/mnt/c/Users/Kuba/Documents/ZeroMate/examples/21-FPU/kernel/src/start.s:26
    mov r6, #0x40000000
    8018:	e3a06101 	mov	r6, #1073741824	; 0x40000000
/mnt/c/Users/Kuba/Documents/ZeroMate/examples/21-FPU/kernel/src/start.s:27
    fmxr fpexc, r6
    801c:	eee86a10 	vmsr	fpexc, r6
/mnt/c/Users/Kuba/Documents/ZeroMate/examples/21-FPU/kernel/src/start.s:30

	;@ a vracime se zpet do supervisor modu, SP si nastavime zpet na nasi hodnotu
    mov r0, #(CPSR_MODE_SVR | CPSR_IRQ_INHIBIT | CPSR_FIQ_INHIBIT)
    8020:	e3a000d3 	mov	r0, #211	; 0xd3
/mnt/c/Users/Kuba/Documents/ZeroMate/examples/21-FPU/kernel/src/start.s:31
    msr cpsr_c, r0
    8024:	e121f000 	msr	CPSR_c, r0
/mnt/c/Users/Kuba/Documents/ZeroMate/examples/21-FPU/kernel/src/start.s:32
    mov sp, #0x8000
    8028:	e3a0d902 	mov	sp, #32768	; 0x8000
/mnt/c/Users/Kuba/Documents/ZeroMate/examples/21-FPU/kernel/src/start.s:34

	bl _c_startup			;@ C startup kod (inicializace prostredi)
    802c:	eb000276 	bl	8a0c <_c_startup>
/mnt/c/Users/Kuba/Documents/ZeroMate/examples/21-FPU/kernel/src/start.s:35
	bl _cpp_startup			;@ C++ startup kod (volani globalnich konstruktoru, ...)
    8030:	eb00028f 	bl	8a74 <_cpp_startup>
/mnt/c/Users/Kuba/Documents/ZeroMate/examples/21-FPU/kernel/src/start.s:36
	bl _kernel_main			;@ skocime do hlavniho kodu jadra (v C)
    8034:	eb000238 	bl	891c <_kernel_main>
/mnt/c/Users/Kuba/Documents/ZeroMate/examples/21-FPU/kernel/src/start.s:37
	bl _cpp_shutdown		;@ C++ shutdown kod (volani globalnich destruktoru, ...)
    8038:	eb0002a3 	bl	8acc <_cpp_shutdown>

0000803c <hang>:
hang():
/mnt/c/Users/Kuba/Documents/ZeroMate/examples/21-FPU/kernel/src/start.s:40

hang:
	b hang
    803c:	eafffffe 	b	803c <hang>

00008040 <__cxa_guard_acquire>:
__cxa_guard_acquire():
/mnt/c/Users/Kuba/Documents/ZeroMate/examples/21-FPU/kernel/src/cxx.cpp:11
    extern "C" int __cxa_guard_acquire(__guard*);
    extern "C" void __cxa_guard_release(__guard*);
    extern "C" void __cxa_guard_abort(__guard*);

    extern "C" int __cxa_guard_acquire(__guard* g)
    {
    8040:	e52db004 	push	{fp}		; (str fp, [sp, #-4]!)
    8044:	e28db000 	add	fp, sp, #0
    8048:	e24dd00c 	sub	sp, sp, #12
    804c:	e50b0008 	str	r0, [fp, #-8]
/mnt/c/Users/Kuba/Documents/ZeroMate/examples/21-FPU/kernel/src/cxx.cpp:12
        return !*(char*)(g);
    8050:	e51b3008 	ldr	r3, [fp, #-8]
    8054:	e5d33000 	ldrb	r3, [r3]
    8058:	e3530000 	cmp	r3, #0
    805c:	03a03001 	moveq	r3, #1
    8060:	13a03000 	movne	r3, #0
    8064:	e6ef3073 	uxtb	r3, r3
/mnt/c/Users/Kuba/Documents/ZeroMate/examples/21-FPU/kernel/src/cxx.cpp:13
    }
    8068:	e1a00003 	mov	r0, r3
    806c:	e28bd000 	add	sp, fp, #0
    8070:	e49db004 	pop	{fp}		; (ldr fp, [sp], #4)
    8074:	e12fff1e 	bx	lr

00008078 <__cxa_guard_release>:
__cxa_guard_release():
/mnt/c/Users/Kuba/Documents/ZeroMate/examples/21-FPU/kernel/src/cxx.cpp:16

    extern "C" void __cxa_guard_release(__guard* g)
    {
    8078:	e52db004 	push	{fp}		; (str fp, [sp, #-4]!)
    807c:	e28db000 	add	fp, sp, #0
    8080:	e24dd00c 	sub	sp, sp, #12
    8084:	e50b0008 	str	r0, [fp, #-8]
/mnt/c/Users/Kuba/Documents/ZeroMate/examples/21-FPU/kernel/src/cxx.cpp:17
        *(char*)g = 1;
    8088:	e51b3008 	ldr	r3, [fp, #-8]
    808c:	e3a02001 	mov	r2, #1
    8090:	e5c32000 	strb	r2, [r3]
/mnt/c/Users/Kuba/Documents/ZeroMate/examples/21-FPU/kernel/src/cxx.cpp:18
    }
    8094:	e320f000 	nop	{0}
    8098:	e28bd000 	add	sp, fp, #0
    809c:	e49db004 	pop	{fp}		; (ldr fp, [sp], #4)
    80a0:	e12fff1e 	bx	lr

000080a4 <__cxa_guard_abort>:
__cxa_guard_abort():
/mnt/c/Users/Kuba/Documents/ZeroMate/examples/21-FPU/kernel/src/cxx.cpp:21

    extern "C" void __cxa_guard_abort(__guard*)
    {
    80a4:	e52db004 	push	{fp}		; (str fp, [sp, #-4]!)
    80a8:	e28db000 	add	fp, sp, #0
    80ac:	e24dd00c 	sub	sp, sp, #12
    80b0:	e50b0008 	str	r0, [fp, #-8]
/mnt/c/Users/Kuba/Documents/ZeroMate/examples/21-FPU/kernel/src/cxx.cpp:22
    }
    80b4:	e320f000 	nop	{0}
    80b8:	e28bd000 	add	sp, fp, #0
    80bc:	e49db004 	pop	{fp}		; (ldr fp, [sp], #4)
    80c0:	e12fff1e 	bx	lr

000080c4 <__dso_handle>:
__dso_handle():
/mnt/c/Users/Kuba/Documents/ZeroMate/examples/21-FPU/kernel/src/cxx.cpp:26
}

extern "C" void __dso_handle()
{
    80c4:	e52db004 	push	{fp}		; (str fp, [sp, #-4]!)
    80c8:	e28db000 	add	fp, sp, #0
/mnt/c/Users/Kuba/Documents/ZeroMate/examples/21-FPU/kernel/src/cxx.cpp:28
    // ignore dtors for now
}
    80cc:	e320f000 	nop	{0}
    80d0:	e28bd000 	add	sp, fp, #0
    80d4:	e49db004 	pop	{fp}		; (ldr fp, [sp], #4)
    80d8:	e12fff1e 	bx	lr

000080dc <__cxa_atexit>:
__cxa_atexit():
/mnt/c/Users/Kuba/Documents/ZeroMate/examples/21-FPU/kernel/src/cxx.cpp:31

extern "C" void __cxa_atexit()
{
    80dc:	e52db004 	push	{fp}		; (str fp, [sp, #-4]!)
    80e0:	e28db000 	add	fp, sp, #0
/mnt/c/Users/Kuba/Documents/ZeroMate/examples/21-FPU/kernel/src/cxx.cpp:33
    // ignore dtors for now
}
    80e4:	e320f000 	nop	{0}
    80e8:	e28bd000 	add	sp, fp, #0
    80ec:	e49db004 	pop	{fp}		; (ldr fp, [sp], #4)
    80f0:	e12fff1e 	bx	lr

000080f4 <__cxa_pure_virtual>:
__cxa_pure_virtual():
/mnt/c/Users/Kuba/Documents/ZeroMate/examples/21-FPU/kernel/src/cxx.cpp:36

extern "C" void __cxa_pure_virtual()
{
    80f4:	e52db004 	push	{fp}		; (str fp, [sp, #-4]!)
    80f8:	e28db000 	add	fp, sp, #0
/mnt/c/Users/Kuba/Documents/ZeroMate/examples/21-FPU/kernel/src/cxx.cpp:38
    // pure virtual method called
}
    80fc:	e320f000 	nop	{0}
    8100:	e28bd000 	add	sp, fp, #0
    8104:	e49db004 	pop	{fp}		; (ldr fp, [sp], #4)
    8108:	e12fff1e 	bx	lr

0000810c <__aeabi_unwind_cpp_pr1>:
__aeabi_unwind_cpp_pr1():
/mnt/c/Users/Kuba/Documents/ZeroMate/examples/21-FPU/kernel/src/cxx.cpp:41

extern "C" void __aeabi_unwind_cpp_pr1()
{
    810c:	e52db004 	push	{fp}		; (str fp, [sp, #-4]!)
    8110:	e28db000 	add	fp, sp, #0
/mnt/c/Users/Kuba/Documents/ZeroMate/examples/21-FPU/kernel/src/cxx.cpp:42 (discriminator 1)
    while (true)
    8114:	eafffffe 	b	8114 <__aeabi_unwind_cpp_pr1+0x8>

00008118 <_ZN8CMonitorC1Ejjj>:
_ZN8CMonitorC2Ejjj():
/mnt/c/Users/Kuba/Documents/ZeroMate/examples/21-FPU/kernel/src/drivers/monitor.cpp:5
#include <drivers/monitor.h>

CMonitor sMonitor{ 0x30000000, 80, 25 };

CMonitor::CMonitor(unsigned int monitor_base_addr, unsigned int width, unsigned int height)
    8118:	e52db004 	push	{fp}		; (str fp, [sp, #-4]!)
    811c:	e28db000 	add	fp, sp, #0
    8120:	e24dd014 	sub	sp, sp, #20
    8124:	e50b0008 	str	r0, [fp, #-8]
    8128:	e50b100c 	str	r1, [fp, #-12]
    812c:	e50b2010 	str	r2, [fp, #-16]
    8130:	e50b3014 	str	r3, [fp, #-20]	; 0xffffffec
/mnt/c/Users/Kuba/Documents/ZeroMate/examples/21-FPU/kernel/src/drivers/monitor.cpp:6
: m_monitor{ reinterpret_cast<unsigned char*>(monitor_base_addr) }
    8134:	e51b200c 	ldr	r2, [fp, #-12]
/mnt/c/Users/Kuba/Documents/ZeroMate/examples/21-FPU/kernel/src/drivers/monitor.cpp:10
, m_width{ width }
, m_height{ height }
, m_cursor{ 0, 0 }
, m_number_base{ DEFAULT_NUMBER_BASE }
    8138:	e51b3008 	ldr	r3, [fp, #-8]
    813c:	e5832000 	str	r2, [r3]
    8140:	e51b3008 	ldr	r3, [fp, #-8]
    8144:	e51b2010 	ldr	r2, [fp, #-16]
    8148:	e5832004 	str	r2, [r3, #4]
    814c:	e51b3008 	ldr	r3, [fp, #-8]
    8150:	e51b2014 	ldr	r2, [fp, #-20]	; 0xffffffec
    8154:	e5832008 	str	r2, [r3, #8]
    8158:	e51b3008 	ldr	r3, [fp, #-8]
    815c:	e3a02000 	mov	r2, #0
    8160:	e583200c 	str	r2, [r3, #12]
    8164:	e51b3008 	ldr	r3, [fp, #-8]
    8168:	e3a02000 	mov	r2, #0
    816c:	e5832010 	str	r2, [r3, #16]
    8170:	e51b3008 	ldr	r3, [fp, #-8]
    8174:	e3a0200a 	mov	r2, #10
    8178:	e5832014 	str	r2, [r3, #20]
/mnt/c/Users/Kuba/Documents/ZeroMate/examples/21-FPU/kernel/src/drivers/monitor.cpp:12
{
}
    817c:	e51b3008 	ldr	r3, [fp, #-8]
    8180:	e1a00003 	mov	r0, r3
    8184:	e28bd000 	add	sp, fp, #0
    8188:	e49db004 	pop	{fp}		; (ldr fp, [sp], #4)
    818c:	e12fff1e 	bx	lr

00008190 <_ZN8CMonitor5ClearEv>:
_ZN8CMonitor5ClearEv():
/mnt/c/Users/Kuba/Documents/ZeroMate/examples/21-FPU/kernel/src/drivers/monitor.cpp:21
    m_cursor.y = 0;
    m_cursor.y = 0;
}

void CMonitor::Clear()
{
    8190:	e92d4800 	push	{fp, lr}
    8194:	e28db004 	add	fp, sp, #4
    8198:	e24dd010 	sub	sp, sp, #16
    819c:	e50b0010 	str	r0, [fp, #-16]
/mnt/c/Users/Kuba/Documents/ZeroMate/examples/21-FPU/kernel/src/drivers/monitor.cpp:22
    Reset_Cursor();
    81a0:	e51b0010 	ldr	r0, [fp, #-16]
    81a4:	eb00016d 	bl	8760 <_ZN8CMonitor12Reset_CursorEv>
/mnt/c/Users/Kuba/Documents/ZeroMate/examples/21-FPU/kernel/src/drivers/monitor.cpp:24

    for (unsigned int y = 0; y < m_height; ++y)
    81a8:	e3a03000 	mov	r3, #0
    81ac:	e50b3008 	str	r3, [fp, #-8]
/mnt/c/Users/Kuba/Documents/ZeroMate/examples/21-FPU/kernel/src/drivers/monitor.cpp:24 (discriminator 1)
    81b0:	e51b3010 	ldr	r3, [fp, #-16]
    81b4:	e5933008 	ldr	r3, [r3, #8]
    81b8:	e51b2008 	ldr	r2, [fp, #-8]
    81bc:	e1520003 	cmp	r2, r3
    81c0:	2a000019 	bcs	822c <_ZN8CMonitor5ClearEv+0x9c>
/mnt/c/Users/Kuba/Documents/ZeroMate/examples/21-FPU/kernel/src/drivers/monitor.cpp:26
    {
        for (unsigned int x = 0; x < m_width; ++x)
    81c4:	e3a03000 	mov	r3, #0
    81c8:	e50b300c 	str	r3, [fp, #-12]
/mnt/c/Users/Kuba/Documents/ZeroMate/examples/21-FPU/kernel/src/drivers/monitor.cpp:26 (discriminator 3)
    81cc:	e51b3010 	ldr	r3, [fp, #-16]
    81d0:	e5933004 	ldr	r3, [r3, #4]
    81d4:	e51b200c 	ldr	r2, [fp, #-12]
    81d8:	e1520003 	cmp	r2, r3
    81dc:	2a00000e 	bcs	821c <_ZN8CMonitor5ClearEv+0x8c>
/mnt/c/Users/Kuba/Documents/ZeroMate/examples/21-FPU/kernel/src/drivers/monitor.cpp:28 (discriminator 2)
        {
            m_monitor[(y * m_width) + x] = ' ';
    81e0:	e51b3010 	ldr	r3, [fp, #-16]
    81e4:	e5932000 	ldr	r2, [r3]
    81e8:	e51b3010 	ldr	r3, [fp, #-16]
    81ec:	e5933004 	ldr	r3, [r3, #4]
    81f0:	e51b1008 	ldr	r1, [fp, #-8]
    81f4:	e0010391 	mul	r1, r1, r3
    81f8:	e51b300c 	ldr	r3, [fp, #-12]
    81fc:	e0813003 	add	r3, r1, r3
    8200:	e0823003 	add	r3, r2, r3
    8204:	e3a02020 	mov	r2, #32
    8208:	e5c32000 	strb	r2, [r3]
/mnt/c/Users/Kuba/Documents/ZeroMate/examples/21-FPU/kernel/src/drivers/monitor.cpp:26 (discriminator 2)
        for (unsigned int x = 0; x < m_width; ++x)
    820c:	e51b300c 	ldr	r3, [fp, #-12]
    8210:	e2833001 	add	r3, r3, #1
    8214:	e50b300c 	str	r3, [fp, #-12]
    8218:	eaffffeb 	b	81cc <_ZN8CMonitor5ClearEv+0x3c>
/mnt/c/Users/Kuba/Documents/ZeroMate/examples/21-FPU/kernel/src/drivers/monitor.cpp:24 (discriminator 2)
    for (unsigned int y = 0; y < m_height; ++y)
    821c:	e51b3008 	ldr	r3, [fp, #-8]
    8220:	e2833001 	add	r3, r3, #1
    8224:	e50b3008 	str	r3, [fp, #-8]
    8228:	eaffffe0 	b	81b0 <_ZN8CMonitor5ClearEv+0x20>
/mnt/c/Users/Kuba/Documents/ZeroMate/examples/21-FPU/kernel/src/drivers/monitor.cpp:31
        }
    }
}
    822c:	e320f000 	nop	{0}
    8230:	e24bd004 	sub	sp, fp, #4
    8234:	e8bd8800 	pop	{fp, pc}

00008238 <_ZN8CMonitor6ScrollEv>:
_ZN8CMonitor6ScrollEv():
/mnt/c/Users/Kuba/Documents/ZeroMate/examples/21-FPU/kernel/src/drivers/monitor.cpp:49
        m_cursor.y = m_height - 1;
    }
}

void CMonitor::Scroll()
{
    8238:	e52db004 	push	{fp}		; (str fp, [sp, #-4]!)
    823c:	e28db000 	add	fp, sp, #0
    8240:	e24dd01c 	sub	sp, sp, #28
    8244:	e50b0018 	str	r0, [fp, #-24]	; 0xffffffe8
/mnt/c/Users/Kuba/Documents/ZeroMate/examples/21-FPU/kernel/src/drivers/monitor.cpp:50
    for (unsigned int y = 1; y < m_height; ++y)
    8248:	e3a03001 	mov	r3, #1
    824c:	e50b3008 	str	r3, [fp, #-8]
/mnt/c/Users/Kuba/Documents/ZeroMate/examples/21-FPU/kernel/src/drivers/monitor.cpp:50 (discriminator 1)
    8250:	e51b3018 	ldr	r3, [fp, #-24]	; 0xffffffe8
    8254:	e5933008 	ldr	r3, [r3, #8]
    8258:	e51b2008 	ldr	r2, [fp, #-8]
    825c:	e1520003 	cmp	r2, r3
    8260:	2a000024 	bcs	82f8 <_ZN8CMonitor6ScrollEv+0xc0>
/mnt/c/Users/Kuba/Documents/ZeroMate/examples/21-FPU/kernel/src/drivers/monitor.cpp:52
    {
        for (unsigned int x = 0; x < m_width; ++x)
    8264:	e3a03000 	mov	r3, #0
    8268:	e50b300c 	str	r3, [fp, #-12]
/mnt/c/Users/Kuba/Documents/ZeroMate/examples/21-FPU/kernel/src/drivers/monitor.cpp:52 (discriminator 3)
    826c:	e51b3018 	ldr	r3, [fp, #-24]	; 0xffffffe8
    8270:	e5933004 	ldr	r3, [r3, #4]
    8274:	e51b200c 	ldr	r2, [fp, #-12]
    8278:	e1520003 	cmp	r2, r3
    827c:	2a000019 	bcs	82e8 <_ZN8CMonitor6ScrollEv+0xb0>
/mnt/c/Users/Kuba/Documents/ZeroMate/examples/21-FPU/kernel/src/drivers/monitor.cpp:54 (discriminator 2)
        {
            m_monitor[((y - 1) * m_width) + x] = m_monitor[(y * m_width) + x];
    8280:	e51b3018 	ldr	r3, [fp, #-24]	; 0xffffffe8
    8284:	e5932000 	ldr	r2, [r3]
    8288:	e51b3018 	ldr	r3, [fp, #-24]	; 0xffffffe8
    828c:	e5933004 	ldr	r3, [r3, #4]
    8290:	e51b1008 	ldr	r1, [fp, #-8]
    8294:	e0010391 	mul	r1, r1, r3
    8298:	e51b300c 	ldr	r3, [fp, #-12]
    829c:	e0813003 	add	r3, r1, r3
    82a0:	e0822003 	add	r2, r2, r3
    82a4:	e51b3018 	ldr	r3, [fp, #-24]	; 0xffffffe8
    82a8:	e5931000 	ldr	r1, [r3]
    82ac:	e51b3008 	ldr	r3, [fp, #-8]
    82b0:	e2433001 	sub	r3, r3, #1
    82b4:	e51b0018 	ldr	r0, [fp, #-24]	; 0xffffffe8
    82b8:	e5900004 	ldr	r0, [r0, #4]
    82bc:	e0000390 	mul	r0, r0, r3
    82c0:	e51b300c 	ldr	r3, [fp, #-12]
    82c4:	e0803003 	add	r3, r0, r3
    82c8:	e0813003 	add	r3, r1, r3
    82cc:	e5d22000 	ldrb	r2, [r2]
    82d0:	e6ef2072 	uxtb	r2, r2
    82d4:	e5c32000 	strb	r2, [r3]
/mnt/c/Users/Kuba/Documents/ZeroMate/examples/21-FPU/kernel/src/drivers/monitor.cpp:52 (discriminator 2)
        for (unsigned int x = 0; x < m_width; ++x)
    82d8:	e51b300c 	ldr	r3, [fp, #-12]
    82dc:	e2833001 	add	r3, r3, #1
    82e0:	e50b300c 	str	r3, [fp, #-12]
    82e4:	eaffffe0 	b	826c <_ZN8CMonitor6ScrollEv+0x34>
/mnt/c/Users/Kuba/Documents/ZeroMate/examples/21-FPU/kernel/src/drivers/monitor.cpp:50 (discriminator 2)
    for (unsigned int y = 1; y < m_height; ++y)
    82e8:	e51b3008 	ldr	r3, [fp, #-8]
    82ec:	e2833001 	add	r3, r3, #1
    82f0:	e50b3008 	str	r3, [fp, #-8]
    82f4:	eaffffd5 	b	8250 <_ZN8CMonitor6ScrollEv+0x18>
/mnt/c/Users/Kuba/Documents/ZeroMate/examples/21-FPU/kernel/src/drivers/monitor.cpp:58
        }
    }

    for (unsigned int x = 0; x < m_width; ++x)
    82f8:	e3a03000 	mov	r3, #0
    82fc:	e50b3010 	str	r3, [fp, #-16]
/mnt/c/Users/Kuba/Documents/ZeroMate/examples/21-FPU/kernel/src/drivers/monitor.cpp:58 (discriminator 3)
    8300:	e51b3018 	ldr	r3, [fp, #-24]	; 0xffffffe8
    8304:	e5933004 	ldr	r3, [r3, #4]
    8308:	e51b2010 	ldr	r2, [fp, #-16]
    830c:	e1520003 	cmp	r2, r3
    8310:	2a000010 	bcs	8358 <_ZN8CMonitor6ScrollEv+0x120>
/mnt/c/Users/Kuba/Documents/ZeroMate/examples/21-FPU/kernel/src/drivers/monitor.cpp:60 (discriminator 2)
    {
        m_monitor[((m_height - 1) * m_width) + x] = ' ';
    8314:	e51b3018 	ldr	r3, [fp, #-24]	; 0xffffffe8
    8318:	e5932000 	ldr	r2, [r3]
    831c:	e51b3018 	ldr	r3, [fp, #-24]	; 0xffffffe8
    8320:	e5933008 	ldr	r3, [r3, #8]
    8324:	e2433001 	sub	r3, r3, #1
    8328:	e51b1018 	ldr	r1, [fp, #-24]	; 0xffffffe8
    832c:	e5911004 	ldr	r1, [r1, #4]
    8330:	e0010391 	mul	r1, r1, r3
    8334:	e51b3010 	ldr	r3, [fp, #-16]
    8338:	e0813003 	add	r3, r1, r3
    833c:	e0823003 	add	r3, r2, r3
    8340:	e3a02020 	mov	r2, #32
    8344:	e5c32000 	strb	r2, [r3]
/mnt/c/Users/Kuba/Documents/ZeroMate/examples/21-FPU/kernel/src/drivers/monitor.cpp:58 (discriminator 2)
    for (unsigned int x = 0; x < m_width; ++x)
    8348:	e51b3010 	ldr	r3, [fp, #-16]
    834c:	e2833001 	add	r3, r3, #1
    8350:	e50b3010 	str	r3, [fp, #-16]
    8354:	eaffffe9 	b	8300 <_ZN8CMonitor6ScrollEv+0xc8>
/mnt/c/Users/Kuba/Documents/ZeroMate/examples/21-FPU/kernel/src/drivers/monitor.cpp:62
    }
}
    8358:	e320f000 	nop	{0}
    835c:	e28bd000 	add	sp, fp, #0
    8360:	e49db004 	pop	{fp}		; (ldr fp, [sp], #4)
    8364:	e12fff1e 	bx	lr

00008368 <_ZN8CMonitorlsEc>:
_ZN8CMonitorlsEc():
/mnt/c/Users/Kuba/Documents/ZeroMate/examples/21-FPU/kernel/src/drivers/monitor.cpp:70
{
    m_number_base = DEFAULT_NUMBER_BASE;
}

CMonitor& CMonitor::operator<<(char c)
{
    8368:	e92d4800 	push	{fp, lr}
    836c:	e28db004 	add	fp, sp, #4
    8370:	e24dd008 	sub	sp, sp, #8
    8374:	e50b0008 	str	r0, [fp, #-8]
    8378:	e1a03001 	mov	r3, r1
    837c:	e54b3009 	strb	r3, [fp, #-9]
/mnt/c/Users/Kuba/Documents/ZeroMate/examples/21-FPU/kernel/src/drivers/monitor.cpp:71
    if (c != '\n')
    8380:	e55b3009 	ldrb	r3, [fp, #-9]
    8384:	e353000a 	cmp	r3, #10
    8388:	0a000012 	beq	83d8 <_ZN8CMonitorlsEc+0x70>
/mnt/c/Users/Kuba/Documents/ZeroMate/examples/21-FPU/kernel/src/drivers/monitor.cpp:73
    {
        m_monitor[(m_cursor.y * m_width) + m_cursor.x] = static_cast<unsigned char>(c);
    838c:	e51b3008 	ldr	r3, [fp, #-8]
    8390:	e5932000 	ldr	r2, [r3]
    8394:	e51b3008 	ldr	r3, [fp, #-8]
    8398:	e593300c 	ldr	r3, [r3, #12]
    839c:	e51b1008 	ldr	r1, [fp, #-8]
    83a0:	e5911004 	ldr	r1, [r1, #4]
    83a4:	e0010391 	mul	r1, r1, r3
    83a8:	e51b3008 	ldr	r3, [fp, #-8]
    83ac:	e5933010 	ldr	r3, [r3, #16]
    83b0:	e0813003 	add	r3, r1, r3
    83b4:	e0823003 	add	r3, r2, r3
    83b8:	e55b2009 	ldrb	r2, [fp, #-9]
    83bc:	e5c32000 	strb	r2, [r3]
/mnt/c/Users/Kuba/Documents/ZeroMate/examples/21-FPU/kernel/src/drivers/monitor.cpp:74
        ++m_cursor.x;
    83c0:	e51b3008 	ldr	r3, [fp, #-8]
    83c4:	e5933010 	ldr	r3, [r3, #16]
    83c8:	e2832001 	add	r2, r3, #1
    83cc:	e51b3008 	ldr	r3, [fp, #-8]
    83d0:	e5832010 	str	r2, [r3, #16]
    83d4:	ea000007 	b	83f8 <_ZN8CMonitorlsEc+0x90>
/mnt/c/Users/Kuba/Documents/ZeroMate/examples/21-FPU/kernel/src/drivers/monitor.cpp:78
    }
    else
    {
        m_cursor.x = 0;
    83d8:	e51b3008 	ldr	r3, [fp, #-8]
    83dc:	e3a02000 	mov	r2, #0
    83e0:	e5832010 	str	r2, [r3, #16]
/mnt/c/Users/Kuba/Documents/ZeroMate/examples/21-FPU/kernel/src/drivers/monitor.cpp:79
        ++m_cursor.y;
    83e4:	e51b3008 	ldr	r3, [fp, #-8]
    83e8:	e593300c 	ldr	r3, [r3, #12]
    83ec:	e2832001 	add	r2, r3, #1
    83f0:	e51b3008 	ldr	r3, [fp, #-8]
    83f4:	e583200c 	str	r2, [r3, #12]
/mnt/c/Users/Kuba/Documents/ZeroMate/examples/21-FPU/kernel/src/drivers/monitor.cpp:82
    }

    Adjust_Cursor();
    83f8:	e51b0008 	ldr	r0, [fp, #-8]
    83fc:	eb0000e5 	bl	8798 <_ZN8CMonitor13Adjust_CursorEv>
/mnt/c/Users/Kuba/Documents/ZeroMate/examples/21-FPU/kernel/src/drivers/monitor.cpp:84

    return *this;
    8400:	e51b3008 	ldr	r3, [fp, #-8]
/mnt/c/Users/Kuba/Documents/ZeroMate/examples/21-FPU/kernel/src/drivers/monitor.cpp:85
}
    8404:	e1a00003 	mov	r0, r3
    8408:	e24bd004 	sub	sp, fp, #4
    840c:	e8bd8800 	pop	{fp, pc}

00008410 <_ZN8CMonitorlsEPKc>:
_ZN8CMonitorlsEPKc():
/mnt/c/Users/Kuba/Documents/ZeroMate/examples/21-FPU/kernel/src/drivers/monitor.cpp:88

CMonitor& CMonitor::operator<<(const char* str)
{
    8410:	e92d4800 	push	{fp, lr}
    8414:	e28db004 	add	fp, sp, #4
    8418:	e24dd010 	sub	sp, sp, #16
    841c:	e50b0010 	str	r0, [fp, #-16]
    8420:	e50b1014 	str	r1, [fp, #-20]	; 0xffffffec
/mnt/c/Users/Kuba/Documents/ZeroMate/examples/21-FPU/kernel/src/drivers/monitor.cpp:89
    for (unsigned int i = 0; str[i] != '\0'; ++i)
    8424:	e3a03000 	mov	r3, #0
    8428:	e50b3008 	str	r3, [fp, #-8]
/mnt/c/Users/Kuba/Documents/ZeroMate/examples/21-FPU/kernel/src/drivers/monitor.cpp:89 (discriminator 3)
    842c:	e51b2014 	ldr	r2, [fp, #-20]	; 0xffffffec
    8430:	e51b3008 	ldr	r3, [fp, #-8]
    8434:	e0823003 	add	r3, r2, r3
    8438:	e5d33000 	ldrb	r3, [r3]
    843c:	e3530000 	cmp	r3, #0
    8440:	0a00000a 	beq	8470 <_ZN8CMonitorlsEPKc+0x60>
/mnt/c/Users/Kuba/Documents/ZeroMate/examples/21-FPU/kernel/src/drivers/monitor.cpp:91 (discriminator 2)
    {
        *this << str[i];
    8444:	e51b2014 	ldr	r2, [fp, #-20]	; 0xffffffec
    8448:	e51b3008 	ldr	r3, [fp, #-8]
    844c:	e0823003 	add	r3, r2, r3
    8450:	e5d33000 	ldrb	r3, [r3]
    8454:	e1a01003 	mov	r1, r3
    8458:	e51b0010 	ldr	r0, [fp, #-16]
    845c:	ebffffc1 	bl	8368 <_ZN8CMonitorlsEc>
/mnt/c/Users/Kuba/Documents/ZeroMate/examples/21-FPU/kernel/src/drivers/monitor.cpp:89 (discriminator 2)
    for (unsigned int i = 0; str[i] != '\0'; ++i)
    8460:	e51b3008 	ldr	r3, [fp, #-8]
    8464:	e2833001 	add	r3, r3, #1
    8468:	e50b3008 	str	r3, [fp, #-8]
    846c:	eaffffee 	b	842c <_ZN8CMonitorlsEPKc+0x1c>
/mnt/c/Users/Kuba/Documents/ZeroMate/examples/21-FPU/kernel/src/drivers/monitor.cpp:94
    }

    Reset_Number_Base();
    8470:	e51b0010 	ldr	r0, [fp, #-16]
    8474:	eb0000e9 	bl	8820 <_ZN8CMonitor17Reset_Number_BaseEv>
/mnt/c/Users/Kuba/Documents/ZeroMate/examples/21-FPU/kernel/src/drivers/monitor.cpp:96

    return *this;
    8478:	e51b3010 	ldr	r3, [fp, #-16]
/mnt/c/Users/Kuba/Documents/ZeroMate/examples/21-FPU/kernel/src/drivers/monitor.cpp:97
}
    847c:	e1a00003 	mov	r0, r3
    8480:	e24bd004 	sub	sp, fp, #4
    8484:	e8bd8800 	pop	{fp, pc}

00008488 <_ZN8CMonitorlsENS_12NNumber_BaseE>:
_ZN8CMonitorlsENS_12NNumber_BaseE():
/mnt/c/Users/Kuba/Documents/ZeroMate/examples/21-FPU/kernel/src/drivers/monitor.cpp:100

CMonitor& CMonitor::operator<<(CMonitor::NNumber_Base number_base)
{
    8488:	e52db004 	push	{fp}		; (str fp, [sp, #-4]!)
    848c:	e28db000 	add	fp, sp, #0
    8490:	e24dd00c 	sub	sp, sp, #12
    8494:	e50b0008 	str	r0, [fp, #-8]
    8498:	e50b100c 	str	r1, [fp, #-12]
/mnt/c/Users/Kuba/Documents/ZeroMate/examples/21-FPU/kernel/src/drivers/monitor.cpp:101
    m_number_base = number_base;
    849c:	e51b3008 	ldr	r3, [fp, #-8]
    84a0:	e51b200c 	ldr	r2, [fp, #-12]
    84a4:	e5832014 	str	r2, [r3, #20]
/mnt/c/Users/Kuba/Documents/ZeroMate/examples/21-FPU/kernel/src/drivers/monitor.cpp:103

    return *this;
    84a8:	e51b3008 	ldr	r3, [fp, #-8]
/mnt/c/Users/Kuba/Documents/ZeroMate/examples/21-FPU/kernel/src/drivers/monitor.cpp:104
}
    84ac:	e1a00003 	mov	r0, r3
    84b0:	e28bd000 	add	sp, fp, #0
    84b4:	e49db004 	pop	{fp}		; (ldr fp, [sp], #4)
    84b8:	e12fff1e 	bx	lr

000084bc <_ZN8CMonitorlsEj>:
_ZN8CMonitorlsEj():
/mnt/c/Users/Kuba/Documents/ZeroMate/examples/21-FPU/kernel/src/drivers/monitor.cpp:107

CMonitor& CMonitor::operator<<(unsigned int num)
{
    84bc:	e92d4800 	push	{fp, lr}
    84c0:	e28db004 	add	fp, sp, #4
    84c4:	e24dd008 	sub	sp, sp, #8
    84c8:	e50b0008 	str	r0, [fp, #-8]
    84cc:	e50b100c 	str	r1, [fp, #-12]
/mnt/c/Users/Kuba/Documents/ZeroMate/examples/21-FPU/kernel/src/drivers/monitor.cpp:112
    static constexpr unsigned int BUFFER_SIZE = 16;

    static char s_buffer[BUFFER_SIZE];

    itoa(num, s_buffer, static_cast<unsigned int>(m_number_base));
    84d0:	e51b3008 	ldr	r3, [fp, #-8]
    84d4:	e5933014 	ldr	r3, [r3, #20]
    84d8:	e59f202c 	ldr	r2, [pc, #44]	; 850c <_ZN8CMonitorlsEj+0x50>
    84dc:	e51b100c 	ldr	r1, [fp, #-12]
    84e0:	e51b0008 	ldr	r0, [fp, #-8]
    84e4:	eb000021 	bl	8570 <_ZN8CMonitor4itoaEjPcj>
/mnt/c/Users/Kuba/Documents/ZeroMate/examples/21-FPU/kernel/src/drivers/monitor.cpp:113
    *this << s_buffer;
    84e8:	e59f101c 	ldr	r1, [pc, #28]	; 850c <_ZN8CMonitorlsEj+0x50>
    84ec:	e51b0008 	ldr	r0, [fp, #-8]
    84f0:	ebffffc6 	bl	8410 <_ZN8CMonitorlsEPKc>
/mnt/c/Users/Kuba/Documents/ZeroMate/examples/21-FPU/kernel/src/drivers/monitor.cpp:114
    Reset_Number_Base();
    84f4:	e51b0008 	ldr	r0, [fp, #-8]
    84f8:	eb0000c8 	bl	8820 <_ZN8CMonitor17Reset_Number_BaseEv>
/mnt/c/Users/Kuba/Documents/ZeroMate/examples/21-FPU/kernel/src/drivers/monitor.cpp:116

    return *this;
    84fc:	e51b3008 	ldr	r3, [fp, #-8]
/mnt/c/Users/Kuba/Documents/ZeroMate/examples/21-FPU/kernel/src/drivers/monitor.cpp:117
}
    8500:	e1a00003 	mov	r0, r3
    8504:	e24bd004 	sub	sp, fp, #4
    8508:	e8bd8800 	pop	{fp, pc}
    850c:	00008dcc 	andeq	r8, r0, ip, asr #27

00008510 <_ZN8CMonitorlsEb>:
_ZN8CMonitorlsEb():
/mnt/c/Users/Kuba/Documents/ZeroMate/examples/21-FPU/kernel/src/drivers/monitor.cpp:120

CMonitor& CMonitor::operator<<(bool value)
{
    8510:	e92d4800 	push	{fp, lr}
    8514:	e28db004 	add	fp, sp, #4
    8518:	e24dd008 	sub	sp, sp, #8
    851c:	e50b0008 	str	r0, [fp, #-8]
    8520:	e1a03001 	mov	r3, r1
    8524:	e54b3009 	strb	r3, [fp, #-9]
/mnt/c/Users/Kuba/Documents/ZeroMate/examples/21-FPU/kernel/src/drivers/monitor.cpp:121
    if (value)
    8528:	e55b3009 	ldrb	r3, [fp, #-9]
    852c:	e3530000 	cmp	r3, #0
    8530:	0a000003 	beq	8544 <_ZN8CMonitorlsEb+0x34>
/mnt/c/Users/Kuba/Documents/ZeroMate/examples/21-FPU/kernel/src/drivers/monitor.cpp:123
    {
        *this << "true";
    8534:	e59f102c 	ldr	r1, [pc, #44]	; 8568 <_ZN8CMonitorlsEb+0x58>
    8538:	e51b0008 	ldr	r0, [fp, #-8]
    853c:	ebffffb3 	bl	8410 <_ZN8CMonitorlsEPKc>
    8540:	ea000002 	b	8550 <_ZN8CMonitorlsEb+0x40>
/mnt/c/Users/Kuba/Documents/ZeroMate/examples/21-FPU/kernel/src/drivers/monitor.cpp:127
    }
    else
    {
        *this << "false";
    8544:	e59f1020 	ldr	r1, [pc, #32]	; 856c <_ZN8CMonitorlsEb+0x5c>
    8548:	e51b0008 	ldr	r0, [fp, #-8]
    854c:	ebffffaf 	bl	8410 <_ZN8CMonitorlsEPKc>
/mnt/c/Users/Kuba/Documents/ZeroMate/examples/21-FPU/kernel/src/drivers/monitor.cpp:130
    }

    Reset_Number_Base();
    8550:	e51b0008 	ldr	r0, [fp, #-8]
    8554:	eb0000b1 	bl	8820 <_ZN8CMonitor17Reset_Number_BaseEv>
/mnt/c/Users/Kuba/Documents/ZeroMate/examples/21-FPU/kernel/src/drivers/monitor.cpp:132

    return *this;
    8558:	e51b3008 	ldr	r3, [fp, #-8]
/mnt/c/Users/Kuba/Documents/ZeroMate/examples/21-FPU/kernel/src/drivers/monitor.cpp:133
}
    855c:	e1a00003 	mov	r0, r3
    8560:	e24bd004 	sub	sp, fp, #4
    8564:	e8bd8800 	pop	{fp, pc}
    8568:	00008d8c 	andeq	r8, r0, ip, lsl #27
    856c:	00008d94 	muleq	r0, r4, sp

00008570 <_ZN8CMonitor4itoaEjPcj>:
_ZN8CMonitor4itoaEjPcj():
/mnt/c/Users/Kuba/Documents/ZeroMate/examples/21-FPU/kernel/src/drivers/monitor.cpp:136

void CMonitor::itoa(unsigned int input, char* output, unsigned int base)
{
    8570:	e92d4800 	push	{fp, lr}
    8574:	e28db004 	add	fp, sp, #4
    8578:	e24dd020 	sub	sp, sp, #32
    857c:	e50b0018 	str	r0, [fp, #-24]	; 0xffffffe8
    8580:	e50b101c 	str	r1, [fp, #-28]	; 0xffffffe4
    8584:	e50b2020 	str	r2, [fp, #-32]	; 0xffffffe0
    8588:	e50b3024 	str	r3, [fp, #-36]	; 0xffffffdc
/mnt/c/Users/Kuba/Documents/ZeroMate/examples/21-FPU/kernel/src/drivers/monitor.cpp:137
    int i = 0;
    858c:	e3a03000 	mov	r3, #0
    8590:	e50b3008 	str	r3, [fp, #-8]
/mnt/c/Users/Kuba/Documents/ZeroMate/examples/21-FPU/kernel/src/drivers/monitor.cpp:139

    while (input > 0)
    8594:	e51b301c 	ldr	r3, [fp, #-28]	; 0xffffffe4
    8598:	e3530000 	cmp	r3, #0
    859c:	0a000015 	beq	85f8 <_ZN8CMonitor4itoaEjPcj+0x88>
/mnt/c/Users/Kuba/Documents/ZeroMate/examples/21-FPU/kernel/src/drivers/monitor.cpp:141
    {
        output[i] = CharConvArr[input % base];
    85a0:	e51b301c 	ldr	r3, [fp, #-28]	; 0xffffffe4
    85a4:	e51b1024 	ldr	r1, [fp, #-36]	; 0xffffffdc
    85a8:	e1a00003 	mov	r0, r3
    85ac:	eb0001d7 	bl	8d10 <__aeabi_uidivmod>
    85b0:	e1a03001 	mov	r3, r1
    85b4:	e1a02003 	mov	r2, r3
    85b8:	e59f3128 	ldr	r3, [pc, #296]	; 86e8 <_ZN8CMonitor4itoaEjPcj+0x178>
    85bc:	e0822003 	add	r2, r2, r3
    85c0:	e51b3008 	ldr	r3, [fp, #-8]
    85c4:	e51b1020 	ldr	r1, [fp, #-32]	; 0xffffffe0
    85c8:	e0813003 	add	r3, r1, r3
    85cc:	e5d22000 	ldrb	r2, [r2]
    85d0:	e5c32000 	strb	r2, [r3]
/mnt/c/Users/Kuba/Documents/ZeroMate/examples/21-FPU/kernel/src/drivers/monitor.cpp:142
        input /= base;
    85d4:	e51b1024 	ldr	r1, [fp, #-36]	; 0xffffffdc
    85d8:	e51b001c 	ldr	r0, [fp, #-28]	; 0xffffffe4
    85dc:	eb000150 	bl	8b24 <__udivsi3>
    85e0:	e1a03000 	mov	r3, r0
    85e4:	e50b301c 	str	r3, [fp, #-28]	; 0xffffffe4
/mnt/c/Users/Kuba/Documents/ZeroMate/examples/21-FPU/kernel/src/drivers/monitor.cpp:144

        i++;
    85e8:	e51b3008 	ldr	r3, [fp, #-8]
    85ec:	e2833001 	add	r3, r3, #1
    85f0:	e50b3008 	str	r3, [fp, #-8]
/mnt/c/Users/Kuba/Documents/ZeroMate/examples/21-FPU/kernel/src/drivers/monitor.cpp:139
    while (input > 0)
    85f4:	eaffffe6 	b	8594 <_ZN8CMonitor4itoaEjPcj+0x24>
/mnt/c/Users/Kuba/Documents/ZeroMate/examples/21-FPU/kernel/src/drivers/monitor.cpp:147
    }

    if (i == 0)
    85f8:	e51b3008 	ldr	r3, [fp, #-8]
    85fc:	e3530000 	cmp	r3, #0
    8600:	1a000007 	bne	8624 <_ZN8CMonitor4itoaEjPcj+0xb4>
/mnt/c/Users/Kuba/Documents/ZeroMate/examples/21-FPU/kernel/src/drivers/monitor.cpp:149
    {
        output[i] = CharConvArr[0];
    8604:	e51b3008 	ldr	r3, [fp, #-8]
    8608:	e51b2020 	ldr	r2, [fp, #-32]	; 0xffffffe0
    860c:	e0823003 	add	r3, r2, r3
    8610:	e3a02030 	mov	r2, #48	; 0x30
    8614:	e5c32000 	strb	r2, [r3]
/mnt/c/Users/Kuba/Documents/ZeroMate/examples/21-FPU/kernel/src/drivers/monitor.cpp:150
        i++;
    8618:	e51b3008 	ldr	r3, [fp, #-8]
    861c:	e2833001 	add	r3, r3, #1
    8620:	e50b3008 	str	r3, [fp, #-8]
/mnt/c/Users/Kuba/Documents/ZeroMate/examples/21-FPU/kernel/src/drivers/monitor.cpp:153
    }

    output[i] = '\0';
    8624:	e51b3008 	ldr	r3, [fp, #-8]
    8628:	e51b2020 	ldr	r2, [fp, #-32]	; 0xffffffe0
    862c:	e0823003 	add	r3, r2, r3
    8630:	e3a02000 	mov	r2, #0
    8634:	e5c32000 	strb	r2, [r3]
/mnt/c/Users/Kuba/Documents/ZeroMate/examples/21-FPU/kernel/src/drivers/monitor.cpp:154
    i--;
    8638:	e51b3008 	ldr	r3, [fp, #-8]
    863c:	e2433001 	sub	r3, r3, #1
    8640:	e50b3008 	str	r3, [fp, #-8]
/mnt/c/Users/Kuba/Documents/ZeroMate/examples/21-FPU/kernel/src/drivers/monitor.cpp:156

    for (int j = 0; j <= (i / 2); j++)
    8644:	e3a03000 	mov	r3, #0
    8648:	e50b300c 	str	r3, [fp, #-12]
/mnt/c/Users/Kuba/Documents/ZeroMate/examples/21-FPU/kernel/src/drivers/monitor.cpp:156 (discriminator 3)
    864c:	e51b3008 	ldr	r3, [fp, #-8]
    8650:	e1a02fa3 	lsr	r2, r3, #31
    8654:	e0823003 	add	r3, r2, r3
    8658:	e1a030c3 	asr	r3, r3, #1
    865c:	e1a02003 	mov	r2, r3
    8660:	e51b300c 	ldr	r3, [fp, #-12]
    8664:	e1530002 	cmp	r3, r2
    8668:	ca00001b 	bgt	86dc <_ZN8CMonitor4itoaEjPcj+0x16c>
/mnt/c/Users/Kuba/Documents/ZeroMate/examples/21-FPU/kernel/src/drivers/monitor.cpp:158 (discriminator 2)
    {
        char c = output[i - j];
    866c:	e51b2008 	ldr	r2, [fp, #-8]
    8670:	e51b300c 	ldr	r3, [fp, #-12]
    8674:	e0423003 	sub	r3, r2, r3
    8678:	e1a02003 	mov	r2, r3
    867c:	e51b3020 	ldr	r3, [fp, #-32]	; 0xffffffe0
    8680:	e0833002 	add	r3, r3, r2
    8684:	e5d33000 	ldrb	r3, [r3]
    8688:	e54b300d 	strb	r3, [fp, #-13]
/mnt/c/Users/Kuba/Documents/ZeroMate/examples/21-FPU/kernel/src/drivers/monitor.cpp:159 (discriminator 2)
        output[i - j] = output[j];
    868c:	e51b300c 	ldr	r3, [fp, #-12]
    8690:	e51b2020 	ldr	r2, [fp, #-32]	; 0xffffffe0
    8694:	e0822003 	add	r2, r2, r3
    8698:	e51b1008 	ldr	r1, [fp, #-8]
    869c:	e51b300c 	ldr	r3, [fp, #-12]
    86a0:	e0413003 	sub	r3, r1, r3
    86a4:	e1a01003 	mov	r1, r3
    86a8:	e51b3020 	ldr	r3, [fp, #-32]	; 0xffffffe0
    86ac:	e0833001 	add	r3, r3, r1
    86b0:	e5d22000 	ldrb	r2, [r2]
    86b4:	e5c32000 	strb	r2, [r3]
/mnt/c/Users/Kuba/Documents/ZeroMate/examples/21-FPU/kernel/src/drivers/monitor.cpp:160 (discriminator 2)
        output[j] = c;
    86b8:	e51b300c 	ldr	r3, [fp, #-12]
    86bc:	e51b2020 	ldr	r2, [fp, #-32]	; 0xffffffe0
    86c0:	e0823003 	add	r3, r2, r3
    86c4:	e55b200d 	ldrb	r2, [fp, #-13]
    86c8:	e5c32000 	strb	r2, [r3]
/mnt/c/Users/Kuba/Documents/ZeroMate/examples/21-FPU/kernel/src/drivers/monitor.cpp:156 (discriminator 2)
    for (int j = 0; j <= (i / 2); j++)
    86cc:	e51b300c 	ldr	r3, [fp, #-12]
    86d0:	e2833001 	add	r3, r3, #1
    86d4:	e50b300c 	str	r3, [fp, #-12]
    86d8:	eaffffdb 	b	864c <_ZN8CMonitor4itoaEjPcj+0xdc>
/mnt/c/Users/Kuba/Documents/ZeroMate/examples/21-FPU/kernel/src/drivers/monitor.cpp:162
    }
}
    86dc:	e320f000 	nop	{0}
    86e0:	e24bd004 	sub	sp, fp, #4
    86e4:	e8bd8800 	pop	{fp, pc}
    86e8:	00008d9c 	muleq	r0, ip, sp

000086ec <_Z41__static_initialization_and_destruction_0ii>:
_Z41__static_initialization_and_destruction_0ii():
/mnt/c/Users/Kuba/Documents/ZeroMate/examples/21-FPU/kernel/src/drivers/monitor.cpp:162
    86ec:	e92d4800 	push	{fp, lr}
    86f0:	e28db004 	add	fp, sp, #4
    86f4:	e24dd008 	sub	sp, sp, #8
    86f8:	e50b0008 	str	r0, [fp, #-8]
    86fc:	e50b100c 	str	r1, [fp, #-12]
    8700:	e51b3008 	ldr	r3, [fp, #-8]
    8704:	e3530001 	cmp	r3, #1
    8708:	1a000008 	bne	8730 <_Z41__static_initialization_and_destruction_0ii+0x44>
/mnt/c/Users/Kuba/Documents/ZeroMate/examples/21-FPU/kernel/src/drivers/monitor.cpp:162 (discriminator 1)
    870c:	e51b300c 	ldr	r3, [fp, #-12]
    8710:	e59f2024 	ldr	r2, [pc, #36]	; 873c <_Z41__static_initialization_and_destruction_0ii+0x50>
    8714:	e1530002 	cmp	r3, r2
    8718:	1a000004 	bne	8730 <_Z41__static_initialization_and_destruction_0ii+0x44>
/mnt/c/Users/Kuba/Documents/ZeroMate/examples/21-FPU/kernel/src/drivers/monitor.cpp:3
CMonitor sMonitor{ 0x30000000, 80, 25 };
    871c:	e3a03019 	mov	r3, #25
    8720:	e3a02050 	mov	r2, #80	; 0x50
    8724:	e3a01203 	mov	r1, #805306368	; 0x30000000
    8728:	e59f0010 	ldr	r0, [pc, #16]	; 8740 <_Z41__static_initialization_and_destruction_0ii+0x54>
    872c:	ebfffe79 	bl	8118 <_ZN8CMonitorC1Ejjj>
/mnt/c/Users/Kuba/Documents/ZeroMate/examples/21-FPU/kernel/src/drivers/monitor.cpp:162
}
    8730:	e320f000 	nop	{0}
    8734:	e24bd004 	sub	sp, fp, #4
    8738:	e8bd8800 	pop	{fp, pc}
    873c:	0000ffff 	strdeq	pc, [r0], -pc	; <UNPREDICTABLE>
    8740:	00008db4 			; <UNDEFINED> instruction: 0x00008db4

00008744 <_GLOBAL__sub_I_sMonitor>:
_GLOBAL__sub_I_sMonitor():
/mnt/c/Users/Kuba/Documents/ZeroMate/examples/21-FPU/kernel/src/drivers/monitor.cpp:162
    8744:	e92d4800 	push	{fp, lr}
    8748:	e28db004 	add	fp, sp, #4
    874c:	e59f1008 	ldr	r1, [pc, #8]	; 875c <_GLOBAL__sub_I_sMonitor+0x18>
    8750:	e3a00001 	mov	r0, #1
    8754:	ebffffe4 	bl	86ec <_Z41__static_initialization_and_destruction_0ii>
    8758:	e8bd8800 	pop	{fp, pc}
    875c:	0000ffff 	strdeq	pc, [r0], -pc	; <UNPREDICTABLE>

00008760 <_ZN8CMonitor12Reset_CursorEv>:
_ZN8CMonitor12Reset_CursorEv():
/mnt/c/Users/Kuba/Documents/ZeroMate/examples/21-FPU/kernel/src/drivers/monitor.cpp:15
{
    8760:	e52db004 	push	{fp}		; (str fp, [sp, #-4]!)
    8764:	e28db000 	add	fp, sp, #0
    8768:	e24dd00c 	sub	sp, sp, #12
    876c:	e50b0008 	str	r0, [fp, #-8]
/mnt/c/Users/Kuba/Documents/ZeroMate/examples/21-FPU/kernel/src/drivers/monitor.cpp:16
    m_cursor.y = 0;
    8770:	e51b3008 	ldr	r3, [fp, #-8]
    8774:	e3a02000 	mov	r2, #0
    8778:	e583200c 	str	r2, [r3, #12]
/mnt/c/Users/Kuba/Documents/ZeroMate/examples/21-FPU/kernel/src/drivers/monitor.cpp:17
    m_cursor.y = 0;
    877c:	e51b3008 	ldr	r3, [fp, #-8]
    8780:	e3a02000 	mov	r2, #0
    8784:	e583200c 	str	r2, [r3, #12]
/mnt/c/Users/Kuba/Documents/ZeroMate/examples/21-FPU/kernel/src/drivers/monitor.cpp:18
}
    8788:	e320f000 	nop	{0}
    878c:	e28bd000 	add	sp, fp, #0
    8790:	e49db004 	pop	{fp}		; (ldr fp, [sp], #4)
    8794:	e12fff1e 	bx	lr

00008798 <_ZN8CMonitor13Adjust_CursorEv>:
_ZN8CMonitor13Adjust_CursorEv():
/mnt/c/Users/Kuba/Documents/ZeroMate/examples/21-FPU/kernel/src/drivers/monitor.cpp:34
{
    8798:	e92d4800 	push	{fp, lr}
    879c:	e28db004 	add	fp, sp, #4
    87a0:	e24dd008 	sub	sp, sp, #8
    87a4:	e50b0008 	str	r0, [fp, #-8]
/mnt/c/Users/Kuba/Documents/ZeroMate/examples/21-FPU/kernel/src/drivers/monitor.cpp:35
    if (m_cursor.x >= m_width)
    87a8:	e51b3008 	ldr	r3, [fp, #-8]
    87ac:	e5932010 	ldr	r2, [r3, #16]
    87b0:	e51b3008 	ldr	r3, [fp, #-8]
    87b4:	e5933004 	ldr	r3, [r3, #4]
    87b8:	e1520003 	cmp	r2, r3
    87bc:	3a000007 	bcc	87e0 <_ZN8CMonitor13Adjust_CursorEv+0x48>
/mnt/c/Users/Kuba/Documents/ZeroMate/examples/21-FPU/kernel/src/drivers/monitor.cpp:37
        m_cursor.x = 0;
    87c0:	e51b3008 	ldr	r3, [fp, #-8]
    87c4:	e3a02000 	mov	r2, #0
    87c8:	e5832010 	str	r2, [r3, #16]
/mnt/c/Users/Kuba/Documents/ZeroMate/examples/21-FPU/kernel/src/drivers/monitor.cpp:38
        ++m_cursor.y;
    87cc:	e51b3008 	ldr	r3, [fp, #-8]
    87d0:	e593300c 	ldr	r3, [r3, #12]
    87d4:	e2832001 	add	r2, r3, #1
    87d8:	e51b3008 	ldr	r3, [fp, #-8]
    87dc:	e583200c 	str	r2, [r3, #12]
/mnt/c/Users/Kuba/Documents/ZeroMate/examples/21-FPU/kernel/src/drivers/monitor.cpp:41
    if (m_cursor.y >= m_height)
    87e0:	e51b3008 	ldr	r3, [fp, #-8]
    87e4:	e593200c 	ldr	r2, [r3, #12]
    87e8:	e51b3008 	ldr	r3, [fp, #-8]
    87ec:	e5933008 	ldr	r3, [r3, #8]
    87f0:	e1520003 	cmp	r2, r3
    87f4:	3a000006 	bcc	8814 <_ZN8CMonitor13Adjust_CursorEv+0x7c>
/mnt/c/Users/Kuba/Documents/ZeroMate/examples/21-FPU/kernel/src/drivers/monitor.cpp:43
        Scroll();
    87f8:	e51b0008 	ldr	r0, [fp, #-8]
    87fc:	ebfffe8d 	bl	8238 <_ZN8CMonitor6ScrollEv>
/mnt/c/Users/Kuba/Documents/ZeroMate/examples/21-FPU/kernel/src/drivers/monitor.cpp:44
        m_cursor.y = m_height - 1;
    8800:	e51b3008 	ldr	r3, [fp, #-8]
    8804:	e5933008 	ldr	r3, [r3, #8]
    8808:	e2432001 	sub	r2, r3, #1
    880c:	e51b3008 	ldr	r3, [fp, #-8]
    8810:	e583200c 	str	r2, [r3, #12]
/mnt/c/Users/Kuba/Documents/ZeroMate/examples/21-FPU/kernel/src/drivers/monitor.cpp:46
}
    8814:	e320f000 	nop	{0}
    8818:	e24bd004 	sub	sp, fp, #4
    881c:	e8bd8800 	pop	{fp, pc}

00008820 <_ZN8CMonitor17Reset_Number_BaseEv>:
_ZN8CMonitor17Reset_Number_BaseEv():
/mnt/c/Users/Kuba/Documents/ZeroMate/examples/21-FPU/kernel/src/drivers/monitor.cpp:65
{
    8820:	e52db004 	push	{fp}		; (str fp, [sp, #-4]!)
    8824:	e28db000 	add	fp, sp, #0
    8828:	e24dd00c 	sub	sp, sp, #12
    882c:	e50b0008 	str	r0, [fp, #-8]
/mnt/c/Users/Kuba/Documents/ZeroMate/examples/21-FPU/kernel/src/drivers/monitor.cpp:66
    m_number_base = DEFAULT_NUMBER_BASE;
    8830:	e51b3008 	ldr	r3, [fp, #-8]
    8834:	e3a0200a 	mov	r2, #10
    8838:	e5832014 	str	r2, [r3, #20]
/mnt/c/Users/Kuba/Documents/ZeroMate/examples/21-FPU/kernel/src/drivers/monitor.cpp:67
}
    883c:	e320f000 	nop	{0}
    8840:	e28bd000 	add	sp, fp, #0
    8844:	e49db004 	pop	{fp}		; (ldr fp, [sp], #4)
    8848:	e12fff1e 	bx	lr

0000884c <_Z10custom_sinf>:
_Z10custom_sinf():
/mnt/c/Users/Kuba/Documents/ZeroMate/examples/21-FPU/kernel/src/main.cpp:4
#include <drivers/monitor.h>

float custom_sin(float x)
{
    884c:	e52db004 	push	{fp}		; (str fp, [sp, #-4]!)
    8850:	e28db000 	add	fp, sp, #0
    8854:	e24dd024 	sub	sp, sp, #36	; 0x24
    8858:	ed0b0a08 	vstr	s0, [fp, #-32]	; 0xffffffe0
/mnt/c/Users/Kuba/Documents/ZeroMate/examples/21-FPU/kernel/src/main.cpp:5
    float result = 0.0F;
    885c:	e3a03000 	mov	r3, #0
    8860:	e50b3008 	str	r3, [fp, #-8]
/mnt/c/Users/Kuba/Documents/ZeroMate/examples/21-FPU/kernel/src/main.cpp:6
    float term = x;
    8864:	e51b3020 	ldr	r3, [fp, #-32]	; 0xffffffe0
    8868:	e50b300c 	str	r3, [fp, #-12]
/mnt/c/Users/Kuba/Documents/ZeroMate/examples/21-FPU/kernel/src/main.cpp:7
    float sign = 1.0F;
    886c:	e3a035fe 	mov	r3, #1065353216	; 0x3f800000
    8870:	e50b3010 	str	r3, [fp, #-16]
/mnt/c/Users/Kuba/Documents/ZeroMate/examples/21-FPU/kernel/src/main.cpp:8
    float factorial = 1.0F;
    8874:	e3a035fe 	mov	r3, #1065353216	; 0x3f800000
    8878:	e50b3018 	str	r3, [fp, #-24]	; 0xffffffe8
/mnt/c/Users/Kuba/Documents/ZeroMate/examples/21-FPU/kernel/src/main.cpp:10

    for (int i = 0; i < 10; i++)
    887c:	e3a03000 	mov	r3, #0
    8880:	e50b3014 	str	r3, [fp, #-20]	; 0xffffffec
/mnt/c/Users/Kuba/Documents/ZeroMate/examples/21-FPU/kernel/src/main.cpp:10 (discriminator 3)
    8884:	e51b3014 	ldr	r3, [fp, #-20]	; 0xffffffec
    8888:	e3530009 	cmp	r3, #9
    888c:	ca00001c 	bgt	8904 <_Z10custom_sinf+0xb8>
/mnt/c/Users/Kuba/Documents/ZeroMate/examples/21-FPU/kernel/src/main.cpp:12 (discriminator 2)
    {
        result += sign * term;
    8890:	ed1b7a04 	vldr	s14, [fp, #-16]
    8894:	ed5b7a03 	vldr	s15, [fp, #-12]
    8898:	ee677a27 	vmul.f32	s15, s14, s15
    889c:	ed1b7a02 	vldr	s14, [fp, #-8]
    88a0:	ee777a27 	vadd.f32	s15, s14, s15
    88a4:	ed4b7a02 	vstr	s15, [fp, #-8]
/mnt/c/Users/Kuba/Documents/ZeroMate/examples/21-FPU/kernel/src/main.cpp:13 (discriminator 2)
        sign = -sign;
    88a8:	ed5b7a04 	vldr	s15, [fp, #-16]
    88ac:	eef17a67 	vneg.f32	s15, s15
    88b0:	ed4b7a04 	vstr	s15, [fp, #-16]
/mnt/c/Users/Kuba/Documents/ZeroMate/examples/21-FPU/kernel/src/main.cpp:14 (discriminator 2)
        term = term * x * x / ((2 * i + 2) * (2 * i + 3));
    88b4:	ed1b7a03 	vldr	s14, [fp, #-12]
    88b8:	ed5b7a08 	vldr	s15, [fp, #-32]	; 0xffffffe0
    88bc:	ee277a27 	vmul.f32	s14, s14, s15
    88c0:	ed5b7a08 	vldr	s15, [fp, #-32]	; 0xffffffe0
    88c4:	ee676a27 	vmul.f32	s13, s14, s15
    88c8:	e51b3014 	ldr	r3, [fp, #-20]	; 0xffffffec
    88cc:	e2833001 	add	r3, r3, #1
    88d0:	e51b2014 	ldr	r2, [fp, #-20]	; 0xffffffec
    88d4:	e1a02082 	lsl	r2, r2, #1
    88d8:	e2822003 	add	r2, r2, #3
    88dc:	e0030392 	mul	r3, r2, r3
    88e0:	e1a03083 	lsl	r3, r3, #1
    88e4:	ee073a90 	vmov	s15, r3
    88e8:	eeb87ae7 	vcvt.f32.s32	s14, s15
    88ec:	eec67a87 	vdiv.f32	s15, s13, s14
    88f0:	ed4b7a03 	vstr	s15, [fp, #-12]
/mnt/c/Users/Kuba/Documents/ZeroMate/examples/21-FPU/kernel/src/main.cpp:10 (discriminator 2)
    for (int i = 0; i < 10; i++)
    88f4:	e51b3014 	ldr	r3, [fp, #-20]	; 0xffffffec
    88f8:	e2833001 	add	r3, r3, #1
    88fc:	e50b3014 	str	r3, [fp, #-20]	; 0xffffffec
    8900:	eaffffdf 	b	8884 <_Z10custom_sinf+0x38>
/mnt/c/Users/Kuba/Documents/ZeroMate/examples/21-FPU/kernel/src/main.cpp:17
    }

    return result;
    8904:	e51b3008 	ldr	r3, [fp, #-8]
    8908:	ee073a90 	vmov	s15, r3
/mnt/c/Users/Kuba/Documents/ZeroMate/examples/21-FPU/kernel/src/main.cpp:18
}
    890c:	eeb00a67 	vmov.f32	s0, s15
    8910:	e28bd000 	add	sp, fp, #0
    8914:	e49db004 	pop	{fp}		; (ldr fp, [sp], #4)
    8918:	e12fff1e 	bx	lr

0000891c <_kernel_main>:
_kernel_main():
/mnt/c/Users/Kuba/Documents/ZeroMate/examples/21-FPU/kernel/src/main.cpp:21

extern "C" int _kernel_main(void)
{
    891c:	e92d4800 	push	{fp, lr}
    8920:	e28db004 	add	fp, sp, #4
    8924:	e24dd018 	sub	sp, sp, #24
/mnt/c/Users/Kuba/Documents/ZeroMate/examples/21-FPU/kernel/src/main.cpp:22
    sMonitor.Clear();
    8928:	e59f00d4 	ldr	r0, [pc, #212]	; 8a04 <_kernel_main+0xe8>
    892c:	ebfffe17 	bl	8190 <_ZN8CMonitor5ClearEv>
/mnt/c/Users/Kuba/Documents/ZeroMate/examples/21-FPU/kernel/src/main.cpp:24

    float angle = 0.0F;
    8930:	e3a03000 	mov	r3, #0
    8934:	e50b3008 	str	r3, [fp, #-8]
/mnt/c/Users/Kuba/Documents/ZeroMate/examples/21-FPU/kernel/src/main.cpp:25
    float frequency = 1.0F;
    8938:	e3a035fe 	mov	r3, #1065353216	; 0x3f800000
    893c:	e50b3010 	str	r3, [fp, #-16]
/mnt/c/Users/Kuba/Documents/ZeroMate/examples/21-FPU/kernel/src/main.cpp:27

    const float M_PI = 3.14159265358979323846F;
    8940:	e59f30c0 	ldr	r3, [pc, #192]	; 8a08 <_kernel_main+0xec>
    8944:	e50b3014 	str	r3, [fp, #-20]	; 0xffffffec
/mnt/c/Users/Kuba/Documents/ZeroMate/examples/21-FPU/kernel/src/main.cpp:31

    while (1)
    {
        float value = custom_sin(angle);
    8948:	ed1b0a02 	vldr	s0, [fp, #-8]
    894c:	ebffffbe 	bl	884c <_Z10custom_sinf>
    8950:	ed0b0a06 	vstr	s0, [fp, #-24]	; 0xffffffe8
/mnt/c/Users/Kuba/Documents/ZeroMate/examples/21-FPU/kernel/src/main.cpp:32
        int numStars = (int)((value + 1.0F) * 40.F);
    8954:	ed5b7a06 	vldr	s15, [fp, #-24]	; 0xffffffe8
    8958:	ed9f7a25 	vldr	s14, [pc, #148]	; 89f4 <_kernel_main+0xd8>
    895c:	ee777a87 	vadd.f32	s15, s15, s14
    8960:	ed9f7a24 	vldr	s14, [pc, #144]	; 89f8 <_kernel_main+0xdc>
    8964:	ee677a87 	vmul.f32	s15, s15, s14
    8968:	eefd7ae7 	vcvt.s32.f32	s15, s15
    896c:	ee173a90 	vmov	r3, s15
    8970:	e50b301c 	str	r3, [fp, #-28]	; 0xffffffe4
/mnt/c/Users/Kuba/Documents/ZeroMate/examples/21-FPU/kernel/src/main.cpp:34

        for (int i = 0; i < numStars; i++)
    8974:	e3a03000 	mov	r3, #0
    8978:	e50b300c 	str	r3, [fp, #-12]
/mnt/c/Users/Kuba/Documents/ZeroMate/examples/21-FPU/kernel/src/main.cpp:34 (discriminator 3)
    897c:	e51b200c 	ldr	r2, [fp, #-12]
    8980:	e51b301c 	ldr	r3, [fp, #-28]	; 0xffffffe4
    8984:	e1520003 	cmp	r2, r3
    8988:	aa000006 	bge	89a8 <_kernel_main+0x8c>
/mnt/c/Users/Kuba/Documents/ZeroMate/examples/21-FPU/kernel/src/main.cpp:36 (discriminator 2)
        {
            sMonitor << '*';
    898c:	e3a0102a 	mov	r1, #42	; 0x2a
    8990:	e59f006c 	ldr	r0, [pc, #108]	; 8a04 <_kernel_main+0xe8>
    8994:	ebfffe73 	bl	8368 <_ZN8CMonitorlsEc>
/mnt/c/Users/Kuba/Documents/ZeroMate/examples/21-FPU/kernel/src/main.cpp:34 (discriminator 2)
        for (int i = 0; i < numStars; i++)
    8998:	e51b300c 	ldr	r3, [fp, #-12]
    899c:	e2833001 	add	r3, r3, #1
    89a0:	e50b300c 	str	r3, [fp, #-12]
    89a4:	eafffff4 	b	897c <_kernel_main+0x60>
/mnt/c/Users/Kuba/Documents/ZeroMate/examples/21-FPU/kernel/src/main.cpp:39
        }

        sMonitor << '\n';
    89a8:	e3a0100a 	mov	r1, #10
    89ac:	e59f0050 	ldr	r0, [pc, #80]	; 8a04 <_kernel_main+0xe8>
    89b0:	ebfffe6c 	bl	8368 <_ZN8CMonitorlsEc>
/mnt/c/Users/Kuba/Documents/ZeroMate/examples/21-FPU/kernel/src/main.cpp:41

        angle += 0.1F * frequency;
    89b4:	ed5b7a04 	vldr	s15, [fp, #-16]
    89b8:	ed9f7a0f 	vldr	s14, [pc, #60]	; 89fc <_kernel_main+0xe0>
    89bc:	ee677a87 	vmul.f32	s15, s15, s14
    89c0:	ed1b7a02 	vldr	s14, [fp, #-8]
    89c4:	ee777a27 	vadd.f32	s15, s14, s15
    89c8:	ed4b7a02 	vstr	s15, [fp, #-8]
/mnt/c/Users/Kuba/Documents/ZeroMate/examples/21-FPU/kernel/src/main.cpp:42
        if (angle >= 2.0F * M_PI)
    89cc:	ed5b7a02 	vldr	s15, [fp, #-8]
    89d0:	ed9f7a0a 	vldr	s14, [pc, #40]	; 8a00 <_kernel_main+0xe4>
    89d4:	eef47ac7 	vcmpe.f32	s15, s14
    89d8:	eef1fa10 	vmrs	APSR_nzcv, fpscr
    89dc:	ba000003 	blt	89f0 <_kernel_main+0xd4>
/mnt/c/Users/Kuba/Documents/ZeroMate/examples/21-FPU/kernel/src/main.cpp:44
        {
            angle -= 2.0F * M_PI;
    89e0:	ed5b7a02 	vldr	s15, [fp, #-8]
    89e4:	ed9f7a05 	vldr	s14, [pc, #20]	; 8a00 <_kernel_main+0xe4>
    89e8:	ee777ac7 	vsub.f32	s15, s15, s14
    89ec:	ed4b7a02 	vstr	s15, [fp, #-8]
/mnt/c/Users/Kuba/Documents/ZeroMate/examples/21-FPU/kernel/src/main.cpp:46
        }
    }
    89f0:	eaffffd4 	b	8948 <_kernel_main+0x2c>
    89f4:	3f800000 	svccc	0x00800000
    89f8:	42200000 	eormi	r0, r0, #0
    89fc:	3dcccccd 	stclcc	12, cr12, [ip, #820]	; 0x334
    8a00:	40c90fdb 	ldrdmi	r0, [r9], #251	; 0xfb
    8a04:	00008db4 			; <UNDEFINED> instruction: 0x00008db4
    8a08:	40490fdb 	ldrdmi	r0, [r9], #-251	; 0xffffff05

00008a0c <_c_startup>:
_c_startup():
/mnt/c/Users/Kuba/Documents/ZeroMate/examples/21-FPU/kernel/src/startup.cpp:21
extern "C" dtor_ptr __DTOR_LIST__[0];
// konec pole destruktoru
extern "C" dtor_ptr __DTOR_END__[0];

extern "C" int _c_startup(void)
{
    8a0c:	e52db004 	push	{fp}		; (str fp, [sp, #-4]!)
    8a10:	e28db000 	add	fp, sp, #0
    8a14:	e24dd00c 	sub	sp, sp, #12
/mnt/c/Users/Kuba/Documents/ZeroMate/examples/21-FPU/kernel/src/startup.cpp:25
    int* i;

    // vynulujeme .bss sekci
    for (i = (int*)_bss_start; i < (int*)_bss_end; i++)
    8a18:	e59f304c 	ldr	r3, [pc, #76]	; 8a6c <_c_startup+0x60>
    8a1c:	e5933000 	ldr	r3, [r3]
    8a20:	e50b3008 	str	r3, [fp, #-8]
/mnt/c/Users/Kuba/Documents/ZeroMate/examples/21-FPU/kernel/src/startup.cpp:25 (discriminator 3)
    8a24:	e59f3044 	ldr	r3, [pc, #68]	; 8a70 <_c_startup+0x64>
    8a28:	e5933000 	ldr	r3, [r3]
    8a2c:	e1a02003 	mov	r2, r3
    8a30:	e51b3008 	ldr	r3, [fp, #-8]
    8a34:	e1530002 	cmp	r3, r2
    8a38:	2a000006 	bcs	8a58 <_c_startup+0x4c>
/mnt/c/Users/Kuba/Documents/ZeroMate/examples/21-FPU/kernel/src/startup.cpp:26 (discriminator 2)
        *i = 0;
    8a3c:	e51b3008 	ldr	r3, [fp, #-8]
    8a40:	e3a02000 	mov	r2, #0
    8a44:	e5832000 	str	r2, [r3]
/mnt/c/Users/Kuba/Documents/ZeroMate/examples/21-FPU/kernel/src/startup.cpp:25 (discriminator 2)
    for (i = (int*)_bss_start; i < (int*)_bss_end; i++)
    8a48:	e51b3008 	ldr	r3, [fp, #-8]
    8a4c:	e2833004 	add	r3, r3, #4
    8a50:	e50b3008 	str	r3, [fp, #-8]
    8a54:	eafffff2 	b	8a24 <_c_startup+0x18>
/mnt/c/Users/Kuba/Documents/ZeroMate/examples/21-FPU/kernel/src/startup.cpp:28

    return 0;
    8a58:	e3a03000 	mov	r3, #0
/mnt/c/Users/Kuba/Documents/ZeroMate/examples/21-FPU/kernel/src/startup.cpp:29
}
    8a5c:	e1a00003 	mov	r0, r3
    8a60:	e28bd000 	add	sp, fp, #0
    8a64:	e49db004 	pop	{fp}		; (ldr fp, [sp], #4)
    8a68:	e12fff1e 	bx	lr
    8a6c:	00008db4 			; <UNDEFINED> instruction: 0x00008db4
    8a70:	00008dec 	andeq	r8, r0, ip, ror #27

00008a74 <_cpp_startup>:
_cpp_startup():
/mnt/c/Users/Kuba/Documents/ZeroMate/examples/21-FPU/kernel/src/startup.cpp:32

extern "C" int _cpp_startup(void)
{
    8a74:	e92d4800 	push	{fp, lr}
    8a78:	e28db004 	add	fp, sp, #4
    8a7c:	e24dd008 	sub	sp, sp, #8
/mnt/c/Users/Kuba/Documents/ZeroMate/examples/21-FPU/kernel/src/startup.cpp:37
    ctor_ptr* fnptr;

    // zavolame konstruktory globalnich C++ trid
    // v poli __CTOR_LIST__ jsou ukazatele na vygenerovane stuby volani konstruktoru
    for (fnptr = __CTOR_LIST__; fnptr < __CTOR_END__; fnptr++)
    8a80:	e59f303c 	ldr	r3, [pc, #60]	; 8ac4 <_cpp_startup+0x50>
    8a84:	e50b3008 	str	r3, [fp, #-8]
/mnt/c/Users/Kuba/Documents/ZeroMate/examples/21-FPU/kernel/src/startup.cpp:37 (discriminator 3)
    8a88:	e51b3008 	ldr	r3, [fp, #-8]
    8a8c:	e59f2034 	ldr	r2, [pc, #52]	; 8ac8 <_cpp_startup+0x54>
    8a90:	e1530002 	cmp	r3, r2
    8a94:	2a000006 	bcs	8ab4 <_cpp_startup+0x40>
/mnt/c/Users/Kuba/Documents/ZeroMate/examples/21-FPU/kernel/src/startup.cpp:38 (discriminator 2)
        (*fnptr)();
    8a98:	e51b3008 	ldr	r3, [fp, #-8]
    8a9c:	e5933000 	ldr	r3, [r3]
    8aa0:	e12fff33 	blx	r3
/mnt/c/Users/Kuba/Documents/ZeroMate/examples/21-FPU/kernel/src/startup.cpp:37 (discriminator 2)
    for (fnptr = __CTOR_LIST__; fnptr < __CTOR_END__; fnptr++)
    8aa4:	e51b3008 	ldr	r3, [fp, #-8]
    8aa8:	e2833004 	add	r3, r3, #4
    8aac:	e50b3008 	str	r3, [fp, #-8]
    8ab0:	eafffff4 	b	8a88 <_cpp_startup+0x14>
/mnt/c/Users/Kuba/Documents/ZeroMate/examples/21-FPU/kernel/src/startup.cpp:40

    return 0;
    8ab4:	e3a03000 	mov	r3, #0
/mnt/c/Users/Kuba/Documents/ZeroMate/examples/21-FPU/kernel/src/startup.cpp:41
}
    8ab8:	e1a00003 	mov	r0, r3
    8abc:	e24bd004 	sub	sp, fp, #4
    8ac0:	e8bd8800 	pop	{fp, pc}
    8ac4:	00008db0 			; <UNDEFINED> instruction: 0x00008db0
    8ac8:	00008db4 			; <UNDEFINED> instruction: 0x00008db4

00008acc <_cpp_shutdown>:
_cpp_shutdown():
/mnt/c/Users/Kuba/Documents/ZeroMate/examples/21-FPU/kernel/src/startup.cpp:44

extern "C" int _cpp_shutdown(void)
{
    8acc:	e92d4800 	push	{fp, lr}
    8ad0:	e28db004 	add	fp, sp, #4
    8ad4:	e24dd008 	sub	sp, sp, #8
/mnt/c/Users/Kuba/Documents/ZeroMate/examples/21-FPU/kernel/src/startup.cpp:48
    dtor_ptr* fnptr;

    // zavolame destruktory globalnich C++ trid
    for (fnptr = __DTOR_LIST__; fnptr < __DTOR_END__; fnptr++)
    8ad8:	e59f303c 	ldr	r3, [pc, #60]	; 8b1c <_cpp_shutdown+0x50>
    8adc:	e50b3008 	str	r3, [fp, #-8]
/mnt/c/Users/Kuba/Documents/ZeroMate/examples/21-FPU/kernel/src/startup.cpp:48 (discriminator 3)
    8ae0:	e51b3008 	ldr	r3, [fp, #-8]
    8ae4:	e59f2034 	ldr	r2, [pc, #52]	; 8b20 <_cpp_shutdown+0x54>
    8ae8:	e1530002 	cmp	r3, r2
    8aec:	2a000006 	bcs	8b0c <_cpp_shutdown+0x40>
/mnt/c/Users/Kuba/Documents/ZeroMate/examples/21-FPU/kernel/src/startup.cpp:49 (discriminator 2)
        (*fnptr)();
    8af0:	e51b3008 	ldr	r3, [fp, #-8]
    8af4:	e5933000 	ldr	r3, [r3]
    8af8:	e12fff33 	blx	r3
/mnt/c/Users/Kuba/Documents/ZeroMate/examples/21-FPU/kernel/src/startup.cpp:48 (discriminator 2)
    for (fnptr = __DTOR_LIST__; fnptr < __DTOR_END__; fnptr++)
    8afc:	e51b3008 	ldr	r3, [fp, #-8]
    8b00:	e2833004 	add	r3, r3, #4
    8b04:	e50b3008 	str	r3, [fp, #-8]
    8b08:	eafffff4 	b	8ae0 <_cpp_shutdown+0x14>
/mnt/c/Users/Kuba/Documents/ZeroMate/examples/21-FPU/kernel/src/startup.cpp:51

    return 0;
    8b0c:	e3a03000 	mov	r3, #0
/mnt/c/Users/Kuba/Documents/ZeroMate/examples/21-FPU/kernel/src/startup.cpp:52
}
    8b10:	e1a00003 	mov	r0, r3
    8b14:	e24bd004 	sub	sp, fp, #4
    8b18:	e8bd8800 	pop	{fp, pc}
    8b1c:	00008db4 			; <UNDEFINED> instruction: 0x00008db4
    8b20:	00008db4 			; <UNDEFINED> instruction: 0x00008db4

00008b24 <__udivsi3>:
__udivsi3():
/build/gcc-arm-none-eabi-hYfgK4/gcc-arm-none-eabi-10.3-2021.07/build/arm-none-eabi/arm/v5te/hard/libgcc/../../../../../../libgcc/config/arm/lib1funcs.S:1104
    8b24:	e2512001 	subs	r2, r1, #1
/build/gcc-arm-none-eabi-hYfgK4/gcc-arm-none-eabi-10.3-2021.07/build/arm-none-eabi/arm/v5te/hard/libgcc/../../../../../../libgcc/config/arm/lib1funcs.S:1106
    8b28:	012fff1e 	bxeq	lr
/build/gcc-arm-none-eabi-hYfgK4/gcc-arm-none-eabi-10.3-2021.07/build/arm-none-eabi/arm/v5te/hard/libgcc/../../../../../../libgcc/config/arm/lib1funcs.S:1107
    8b2c:	3a000074 	bcc	8d04 <__udivsi3+0x1e0>
/build/gcc-arm-none-eabi-hYfgK4/gcc-arm-none-eabi-10.3-2021.07/build/arm-none-eabi/arm/v5te/hard/libgcc/../../../../../../libgcc/config/arm/lib1funcs.S:1108
    8b30:	e1500001 	cmp	r0, r1
/build/gcc-arm-none-eabi-hYfgK4/gcc-arm-none-eabi-10.3-2021.07/build/arm-none-eabi/arm/v5te/hard/libgcc/../../../../../../libgcc/config/arm/lib1funcs.S:1109
    8b34:	9a00006b 	bls	8ce8 <__udivsi3+0x1c4>
/build/gcc-arm-none-eabi-hYfgK4/gcc-arm-none-eabi-10.3-2021.07/build/arm-none-eabi/arm/v5te/hard/libgcc/../../../../../../libgcc/config/arm/lib1funcs.S:1110
    8b38:	e1110002 	tst	r1, r2
/build/gcc-arm-none-eabi-hYfgK4/gcc-arm-none-eabi-10.3-2021.07/build/arm-none-eabi/arm/v5te/hard/libgcc/../../../../../../libgcc/config/arm/lib1funcs.S:1111
    8b3c:	0a00006c 	beq	8cf4 <__udivsi3+0x1d0>
/build/gcc-arm-none-eabi-hYfgK4/gcc-arm-none-eabi-10.3-2021.07/build/arm-none-eabi/arm/v5te/hard/libgcc/../../../../../../libgcc/config/arm/lib1funcs.S:1113
    8b40:	e16f3f10 	clz	r3, r0
    8b44:	e16f2f11 	clz	r2, r1
    8b48:	e0423003 	sub	r3, r2, r3
    8b4c:	e273301f 	rsbs	r3, r3, #31
    8b50:	10833083 	addne	r3, r3, r3, lsl #1
    8b54:	e3a02000 	mov	r2, #0
    8b58:	108ff103 	addne	pc, pc, r3, lsl #2
    8b5c:	e1a00000 	nop			; (mov r0, r0)
    8b60:	e1500f81 	cmp	r0, r1, lsl #31
    8b64:	e0a22002 	adc	r2, r2, r2
    8b68:	20400f81 	subcs	r0, r0, r1, lsl #31
    8b6c:	e1500f01 	cmp	r0, r1, lsl #30
    8b70:	e0a22002 	adc	r2, r2, r2
    8b74:	20400f01 	subcs	r0, r0, r1, lsl #30
    8b78:	e1500e81 	cmp	r0, r1, lsl #29
    8b7c:	e0a22002 	adc	r2, r2, r2
    8b80:	20400e81 	subcs	r0, r0, r1, lsl #29
    8b84:	e1500e01 	cmp	r0, r1, lsl #28
    8b88:	e0a22002 	adc	r2, r2, r2
    8b8c:	20400e01 	subcs	r0, r0, r1, lsl #28
    8b90:	e1500d81 	cmp	r0, r1, lsl #27
    8b94:	e0a22002 	adc	r2, r2, r2
    8b98:	20400d81 	subcs	r0, r0, r1, lsl #27
    8b9c:	e1500d01 	cmp	r0, r1, lsl #26
    8ba0:	e0a22002 	adc	r2, r2, r2
    8ba4:	20400d01 	subcs	r0, r0, r1, lsl #26
    8ba8:	e1500c81 	cmp	r0, r1, lsl #25
    8bac:	e0a22002 	adc	r2, r2, r2
    8bb0:	20400c81 	subcs	r0, r0, r1, lsl #25
    8bb4:	e1500c01 	cmp	r0, r1, lsl #24
    8bb8:	e0a22002 	adc	r2, r2, r2
    8bbc:	20400c01 	subcs	r0, r0, r1, lsl #24
    8bc0:	e1500b81 	cmp	r0, r1, lsl #23
    8bc4:	e0a22002 	adc	r2, r2, r2
    8bc8:	20400b81 	subcs	r0, r0, r1, lsl #23
    8bcc:	e1500b01 	cmp	r0, r1, lsl #22
    8bd0:	e0a22002 	adc	r2, r2, r2
    8bd4:	20400b01 	subcs	r0, r0, r1, lsl #22
    8bd8:	e1500a81 	cmp	r0, r1, lsl #21
    8bdc:	e0a22002 	adc	r2, r2, r2
    8be0:	20400a81 	subcs	r0, r0, r1, lsl #21
    8be4:	e1500a01 	cmp	r0, r1, lsl #20
    8be8:	e0a22002 	adc	r2, r2, r2
    8bec:	20400a01 	subcs	r0, r0, r1, lsl #20
    8bf0:	e1500981 	cmp	r0, r1, lsl #19
    8bf4:	e0a22002 	adc	r2, r2, r2
    8bf8:	20400981 	subcs	r0, r0, r1, lsl #19
    8bfc:	e1500901 	cmp	r0, r1, lsl #18
    8c00:	e0a22002 	adc	r2, r2, r2
    8c04:	20400901 	subcs	r0, r0, r1, lsl #18
    8c08:	e1500881 	cmp	r0, r1, lsl #17
    8c0c:	e0a22002 	adc	r2, r2, r2
    8c10:	20400881 	subcs	r0, r0, r1, lsl #17
    8c14:	e1500801 	cmp	r0, r1, lsl #16
    8c18:	e0a22002 	adc	r2, r2, r2
    8c1c:	20400801 	subcs	r0, r0, r1, lsl #16
    8c20:	e1500781 	cmp	r0, r1, lsl #15
    8c24:	e0a22002 	adc	r2, r2, r2
    8c28:	20400781 	subcs	r0, r0, r1, lsl #15
    8c2c:	e1500701 	cmp	r0, r1, lsl #14
    8c30:	e0a22002 	adc	r2, r2, r2
    8c34:	20400701 	subcs	r0, r0, r1, lsl #14
    8c38:	e1500681 	cmp	r0, r1, lsl #13
    8c3c:	e0a22002 	adc	r2, r2, r2
    8c40:	20400681 	subcs	r0, r0, r1, lsl #13
    8c44:	e1500601 	cmp	r0, r1, lsl #12
    8c48:	e0a22002 	adc	r2, r2, r2
    8c4c:	20400601 	subcs	r0, r0, r1, lsl #12
    8c50:	e1500581 	cmp	r0, r1, lsl #11
    8c54:	e0a22002 	adc	r2, r2, r2
    8c58:	20400581 	subcs	r0, r0, r1, lsl #11
    8c5c:	e1500501 	cmp	r0, r1, lsl #10
    8c60:	e0a22002 	adc	r2, r2, r2
    8c64:	20400501 	subcs	r0, r0, r1, lsl #10
    8c68:	e1500481 	cmp	r0, r1, lsl #9
    8c6c:	e0a22002 	adc	r2, r2, r2
    8c70:	20400481 	subcs	r0, r0, r1, lsl #9
    8c74:	e1500401 	cmp	r0, r1, lsl #8
    8c78:	e0a22002 	adc	r2, r2, r2
    8c7c:	20400401 	subcs	r0, r0, r1, lsl #8
    8c80:	e1500381 	cmp	r0, r1, lsl #7
    8c84:	e0a22002 	adc	r2, r2, r2
    8c88:	20400381 	subcs	r0, r0, r1, lsl #7
    8c8c:	e1500301 	cmp	r0, r1, lsl #6
    8c90:	e0a22002 	adc	r2, r2, r2
    8c94:	20400301 	subcs	r0, r0, r1, lsl #6
    8c98:	e1500281 	cmp	r0, r1, lsl #5
    8c9c:	e0a22002 	adc	r2, r2, r2
    8ca0:	20400281 	subcs	r0, r0, r1, lsl #5
    8ca4:	e1500201 	cmp	r0, r1, lsl #4
    8ca8:	e0a22002 	adc	r2, r2, r2
    8cac:	20400201 	subcs	r0, r0, r1, lsl #4
    8cb0:	e1500181 	cmp	r0, r1, lsl #3
    8cb4:	e0a22002 	adc	r2, r2, r2
    8cb8:	20400181 	subcs	r0, r0, r1, lsl #3
    8cbc:	e1500101 	cmp	r0, r1, lsl #2
    8cc0:	e0a22002 	adc	r2, r2, r2
    8cc4:	20400101 	subcs	r0, r0, r1, lsl #2
    8cc8:	e1500081 	cmp	r0, r1, lsl #1
    8ccc:	e0a22002 	adc	r2, r2, r2
    8cd0:	20400081 	subcs	r0, r0, r1, lsl #1
    8cd4:	e1500001 	cmp	r0, r1
    8cd8:	e0a22002 	adc	r2, r2, r2
    8cdc:	20400001 	subcs	r0, r0, r1
/build/gcc-arm-none-eabi-hYfgK4/gcc-arm-none-eabi-10.3-2021.07/build/arm-none-eabi/arm/v5te/hard/libgcc/../../../../../../libgcc/config/arm/lib1funcs.S:1115
    8ce0:	e1a00002 	mov	r0, r2
/build/gcc-arm-none-eabi-hYfgK4/gcc-arm-none-eabi-10.3-2021.07/build/arm-none-eabi/arm/v5te/hard/libgcc/../../../../../../libgcc/config/arm/lib1funcs.S:1116
    8ce4:	e12fff1e 	bx	lr
/build/gcc-arm-none-eabi-hYfgK4/gcc-arm-none-eabi-10.3-2021.07/build/arm-none-eabi/arm/v5te/hard/libgcc/../../../../../../libgcc/config/arm/lib1funcs.S:1119
    8ce8:	03a00001 	moveq	r0, #1
/build/gcc-arm-none-eabi-hYfgK4/gcc-arm-none-eabi-10.3-2021.07/build/arm-none-eabi/arm/v5te/hard/libgcc/../../../../../../libgcc/config/arm/lib1funcs.S:1120
    8cec:	13a00000 	movne	r0, #0
/build/gcc-arm-none-eabi-hYfgK4/gcc-arm-none-eabi-10.3-2021.07/build/arm-none-eabi/arm/v5te/hard/libgcc/../../../../../../libgcc/config/arm/lib1funcs.S:1121
    8cf0:	e12fff1e 	bx	lr
/build/gcc-arm-none-eabi-hYfgK4/gcc-arm-none-eabi-10.3-2021.07/build/arm-none-eabi/arm/v5te/hard/libgcc/../../../../../../libgcc/config/arm/lib1funcs.S:1123
    8cf4:	e16f2f11 	clz	r2, r1
    8cf8:	e262201f 	rsb	r2, r2, #31
/build/gcc-arm-none-eabi-hYfgK4/gcc-arm-none-eabi-10.3-2021.07/build/arm-none-eabi/arm/v5te/hard/libgcc/../../../../../../libgcc/config/arm/lib1funcs.S:1125
    8cfc:	e1a00230 	lsr	r0, r0, r2
/build/gcc-arm-none-eabi-hYfgK4/gcc-arm-none-eabi-10.3-2021.07/build/arm-none-eabi/arm/v5te/hard/libgcc/../../../../../../libgcc/config/arm/lib1funcs.S:1126
    8d00:	e12fff1e 	bx	lr
/build/gcc-arm-none-eabi-hYfgK4/gcc-arm-none-eabi-10.3-2021.07/build/arm-none-eabi/arm/v5te/hard/libgcc/../../../../../../libgcc/config/arm/lib1funcs.S:1130
    8d04:	e3500000 	cmp	r0, #0
    8d08:	13e00000 	mvnne	r0, #0
    8d0c:	ea000007 	b	8d30 <__aeabi_idiv0>

00008d10 <__aeabi_uidivmod>:
__aeabi_uidivmod():
/build/gcc-arm-none-eabi-hYfgK4/gcc-arm-none-eabi-10.3-2021.07/build/arm-none-eabi/arm/v5te/hard/libgcc/../../../../../../libgcc/config/arm/lib1funcs.S:1161
    8d10:	e3510000 	cmp	r1, #0
/build/gcc-arm-none-eabi-hYfgK4/gcc-arm-none-eabi-10.3-2021.07/build/arm-none-eabi/arm/v5te/hard/libgcc/../../../../../../libgcc/config/arm/lib1funcs.S:1162
    8d14:	0afffffa 	beq	8d04 <__udivsi3+0x1e0>
/build/gcc-arm-none-eabi-hYfgK4/gcc-arm-none-eabi-10.3-2021.07/build/arm-none-eabi/arm/v5te/hard/libgcc/../../../../../../libgcc/config/arm/lib1funcs.S:1163
    8d18:	e92d4003 	push	{r0, r1, lr}
/build/gcc-arm-none-eabi-hYfgK4/gcc-arm-none-eabi-10.3-2021.07/build/arm-none-eabi/arm/v5te/hard/libgcc/../../../../../../libgcc/config/arm/lib1funcs.S:1164
    8d1c:	ebffff80 	bl	8b24 <__udivsi3>
/build/gcc-arm-none-eabi-hYfgK4/gcc-arm-none-eabi-10.3-2021.07/build/arm-none-eabi/arm/v5te/hard/libgcc/../../../../../../libgcc/config/arm/lib1funcs.S:1165
    8d20:	e8bd4006 	pop	{r1, r2, lr}
/build/gcc-arm-none-eabi-hYfgK4/gcc-arm-none-eabi-10.3-2021.07/build/arm-none-eabi/arm/v5te/hard/libgcc/../../../../../../libgcc/config/arm/lib1funcs.S:1166
    8d24:	e0030092 	mul	r3, r2, r0
/build/gcc-arm-none-eabi-hYfgK4/gcc-arm-none-eabi-10.3-2021.07/build/arm-none-eabi/arm/v5te/hard/libgcc/../../../../../../libgcc/config/arm/lib1funcs.S:1167
    8d28:	e0411003 	sub	r1, r1, r3
/build/gcc-arm-none-eabi-hYfgK4/gcc-arm-none-eabi-10.3-2021.07/build/arm-none-eabi/arm/v5te/hard/libgcc/../../../../../../libgcc/config/arm/lib1funcs.S:1168
    8d2c:	e12fff1e 	bx	lr

00008d30 <__aeabi_idiv0>:
__aeabi_ldiv0():
/build/gcc-arm-none-eabi-hYfgK4/gcc-arm-none-eabi-10.3-2021.07/build/arm-none-eabi/arm/v5te/hard/libgcc/../../../../../../libgcc/config/arm/lib1funcs.S:1466
    8d30:	e12fff1e 	bx	lr
