
./init_task:     file format elf32-littlearm


Disassembly of section .text:

00008000 <_start>:
_start():
/mnt/c/Users/Kuba/Documents/ZeroMate/examples/18-edf/userspace/crt0.s:10
;@ startovaci symbol - vstupni bod z jadra OS do uzivatelskeho programu
;@ v podstate jen ihned zavola nejakou C funkci, nepotrebujeme nic tak kritickeho, abychom to vsechno museli psal v ASM
;@ jen _start vlastne ani neni funkce, takze by tento vstupni bod mel byt psany takto; rovnez je treba se ujistit, ze
;@ je tento symbol relokovany spravne na 0x8000 (tam OS ocekava, ze se nachazi vstupni bod)
_start:
    bl __crt0_run
    8000:	eb000017 	bl	8064 <__crt0_run>

00008004 <_hang>:
_hang():
/mnt/c/Users/Kuba/Documents/ZeroMate/examples/18-edf/userspace/crt0.s:13
    ;@ z funkce __crt0_run by se nemel proces uz vratit, ale kdyby neco, tak se zacyklime
_hang:
    b _hang
    8004:	eafffffe 	b	8004 <_hang>

00008008 <__crt0_init_bss>:
__crt0_init_bss():
/mnt/c/Users/Kuba/Documents/ZeroMate/examples/18-edf/userspace/crt0.c:10

extern unsigned int __bss_start;
extern unsigned int __bss_end;

void __crt0_init_bss()
{
    8008:	e52db004 	push	{fp}		; (str fp, [sp, #-4]!)
    800c:	e28db000 	add	fp, sp, #0
    8010:	e24dd00c 	sub	sp, sp, #12
/mnt/c/Users/Kuba/Documents/ZeroMate/examples/18-edf/userspace/crt0.c:11
    unsigned int* begin = (unsigned int*)&__bss_start;
    8014:	e59f3040 	ldr	r3, [pc, #64]	; 805c <__crt0_init_bss+0x54>
    8018:	e50b3008 	str	r3, [fp, #-8]
/mnt/c/Users/Kuba/Documents/ZeroMate/examples/18-edf/userspace/crt0.c:12
    for (; begin < (unsigned int*)&__bss_end; begin++)
    801c:	ea000005 	b	8038 <__crt0_init_bss+0x30>
/mnt/c/Users/Kuba/Documents/ZeroMate/examples/18-edf/userspace/crt0.c:13 (discriminator 2)
        *begin = 0;
    8020:	e51b3008 	ldr	r3, [fp, #-8]
    8024:	e3a02000 	mov	r2, #0
    8028:	e5832000 	str	r2, [r3]
/mnt/c/Users/Kuba/Documents/ZeroMate/examples/18-edf/userspace/crt0.c:12 (discriminator 2)
    for (; begin < (unsigned int*)&__bss_end; begin++)
    802c:	e51b3008 	ldr	r3, [fp, #-8]
    8030:	e2833004 	add	r3, r3, #4
    8034:	e50b3008 	str	r3, [fp, #-8]
/mnt/c/Users/Kuba/Documents/ZeroMate/examples/18-edf/userspace/crt0.c:12 (discriminator 1)
    8038:	e51b3008 	ldr	r3, [fp, #-8]
    803c:	e59f201c 	ldr	r2, [pc, #28]	; 8060 <__crt0_init_bss+0x58>
    8040:	e1530002 	cmp	r3, r2
    8044:	3afffff5 	bcc	8020 <__crt0_init_bss+0x18>
/mnt/c/Users/Kuba/Documents/ZeroMate/examples/18-edf/userspace/crt0.c:14
}
    8048:	e320f000 	nop	{0}
    804c:	e320f000 	nop	{0}
    8050:	e28bd000 	add	sp, fp, #0
    8054:	e49db004 	pop	{fp}		; (ldr fp, [sp], #4)
    8058:	e12fff1e 	bx	lr
    805c:	00008de8 	andeq	r8, r0, r8, ror #27
    8060:	00008df8 	strdeq	r8, [r0], -r8	; <UNPREDICTABLE>

00008064 <__crt0_run>:
__crt0_run():
/mnt/c/Users/Kuba/Documents/ZeroMate/examples/18-edf/userspace/crt0.c:17

void __crt0_run()
{
    8064:	e92d4800 	push	{fp, lr}
    8068:	e28db004 	add	fp, sp, #4
    806c:	e24dd008 	sub	sp, sp, #8
/mnt/c/Users/Kuba/Documents/ZeroMate/examples/18-edf/userspace/crt0.c:19
    // inicializace .bss sekce (vynulovani)
    __crt0_init_bss();
    8070:	ebffffe4 	bl	8008 <__crt0_init_bss>
/mnt/c/Users/Kuba/Documents/ZeroMate/examples/18-edf/userspace/crt0.c:22

    // volani konstruktoru globalnich trid (C++)
    _cpp_startup();
    8074:	eb000040 	bl	817c <_cpp_startup>
/mnt/c/Users/Kuba/Documents/ZeroMate/examples/18-edf/userspace/crt0.c:27

    // volani funkce main
    // nebudeme se zde zabyvat predavanim parametru do funkce main
    // jinak by se mohly predavat napr. namapovane do virtualniho adr. prostoru a odkazem pres zasobnik (kam nam muze OS pushnout co chce)
    int result = main(0, 0);
    8078:	e3a01000 	mov	r1, #0
    807c:	e3a00000 	mov	r0, #0
    8080:	eb000069 	bl	822c <main>
    8084:	e50b0008 	str	r0, [fp, #-8]
/mnt/c/Users/Kuba/Documents/ZeroMate/examples/18-edf/userspace/crt0.c:30

    // volani destruktoru globalnich trid (C++)
    _cpp_shutdown();
    8088:	eb000051 	bl	81d4 <_cpp_shutdown>
/mnt/c/Users/Kuba/Documents/ZeroMate/examples/18-edf/userspace/crt0.c:33

    // volani terminate() syscallu s navratovym kodem funkce main
    asm volatile("mov r0, %0" : : "r" (result));
    808c:	e51b3008 	ldr	r3, [fp, #-8]
    8090:	e1a00003 	mov	r0, r3
/mnt/c/Users/Kuba/Documents/ZeroMate/examples/18-edf/userspace/crt0.c:34
    asm volatile("svc #1");
    8094:	ef000001 	svc	0x00000001
/mnt/c/Users/Kuba/Documents/ZeroMate/examples/18-edf/userspace/crt0.c:35
}
    8098:	e320f000 	nop	{0}
    809c:	e24bd004 	sub	sp, fp, #4
    80a0:	e8bd8800 	pop	{fp, pc}

000080a4 <__cxa_guard_acquire>:
__cxa_guard_acquire():
/mnt/c/Users/Kuba/Documents/ZeroMate/examples/18-edf/userspace/cxxabi.cpp:11
	extern "C" int __cxa_guard_acquire (__guard *);
	extern "C" void __cxa_guard_release (__guard *);
	extern "C" void __cxa_guard_abort (__guard *);

	extern "C" int __cxa_guard_acquire (__guard *g)
	{
    80a4:	e52db004 	push	{fp}		; (str fp, [sp, #-4]!)
    80a8:	e28db000 	add	fp, sp, #0
    80ac:	e24dd00c 	sub	sp, sp, #12
    80b0:	e50b0008 	str	r0, [fp, #-8]
/mnt/c/Users/Kuba/Documents/ZeroMate/examples/18-edf/userspace/cxxabi.cpp:12
		return !*(char *)(g);
    80b4:	e51b3008 	ldr	r3, [fp, #-8]
    80b8:	e5d33000 	ldrb	r3, [r3]
    80bc:	e3530000 	cmp	r3, #0
    80c0:	03a03001 	moveq	r3, #1
    80c4:	13a03000 	movne	r3, #0
    80c8:	e6ef3073 	uxtb	r3, r3
/mnt/c/Users/Kuba/Documents/ZeroMate/examples/18-edf/userspace/cxxabi.cpp:13
	}
    80cc:	e1a00003 	mov	r0, r3
    80d0:	e28bd000 	add	sp, fp, #0
    80d4:	e49db004 	pop	{fp}		; (ldr fp, [sp], #4)
    80d8:	e12fff1e 	bx	lr

000080dc <__cxa_guard_release>:
__cxa_guard_release():
/mnt/c/Users/Kuba/Documents/ZeroMate/examples/18-edf/userspace/cxxabi.cpp:16

	extern "C" void __cxa_guard_release (__guard *g)
	{
    80dc:	e52db004 	push	{fp}		; (str fp, [sp, #-4]!)
    80e0:	e28db000 	add	fp, sp, #0
    80e4:	e24dd00c 	sub	sp, sp, #12
    80e8:	e50b0008 	str	r0, [fp, #-8]
/mnt/c/Users/Kuba/Documents/ZeroMate/examples/18-edf/userspace/cxxabi.cpp:17
		*(char *)g = 1;
    80ec:	e51b3008 	ldr	r3, [fp, #-8]
    80f0:	e3a02001 	mov	r2, #1
    80f4:	e5c32000 	strb	r2, [r3]
/mnt/c/Users/Kuba/Documents/ZeroMate/examples/18-edf/userspace/cxxabi.cpp:18
	}
    80f8:	e320f000 	nop	{0}
    80fc:	e28bd000 	add	sp, fp, #0
    8100:	e49db004 	pop	{fp}		; (ldr fp, [sp], #4)
    8104:	e12fff1e 	bx	lr

00008108 <__cxa_guard_abort>:
__cxa_guard_abort():
/mnt/c/Users/Kuba/Documents/ZeroMate/examples/18-edf/userspace/cxxabi.cpp:21

	extern "C" void __cxa_guard_abort (__guard *)
	{
    8108:	e52db004 	push	{fp}		; (str fp, [sp, #-4]!)
    810c:	e28db000 	add	fp, sp, #0
    8110:	e24dd00c 	sub	sp, sp, #12
    8114:	e50b0008 	str	r0, [fp, #-8]
/mnt/c/Users/Kuba/Documents/ZeroMate/examples/18-edf/userspace/cxxabi.cpp:23

	}
    8118:	e320f000 	nop	{0}
    811c:	e28bd000 	add	sp, fp, #0
    8120:	e49db004 	pop	{fp}		; (ldr fp, [sp], #4)
    8124:	e12fff1e 	bx	lr

00008128 <__dso_handle>:
__dso_handle():
/mnt/c/Users/Kuba/Documents/ZeroMate/examples/18-edf/userspace/cxxabi.cpp:27
}

extern "C" void __dso_handle()
{
    8128:	e52db004 	push	{fp}		; (str fp, [sp, #-4]!)
    812c:	e28db000 	add	fp, sp, #0
/mnt/c/Users/Kuba/Documents/ZeroMate/examples/18-edf/userspace/cxxabi.cpp:29
    // ignore dtors for now
}
    8130:	e320f000 	nop	{0}
    8134:	e28bd000 	add	sp, fp, #0
    8138:	e49db004 	pop	{fp}		; (ldr fp, [sp], #4)
    813c:	e12fff1e 	bx	lr

00008140 <__cxa_atexit>:
__cxa_atexit():
/mnt/c/Users/Kuba/Documents/ZeroMate/examples/18-edf/userspace/cxxabi.cpp:32

extern "C" void __cxa_atexit()
{
    8140:	e52db004 	push	{fp}		; (str fp, [sp, #-4]!)
    8144:	e28db000 	add	fp, sp, #0
/mnt/c/Users/Kuba/Documents/ZeroMate/examples/18-edf/userspace/cxxabi.cpp:34
    // ignore dtors for now
}
    8148:	e320f000 	nop	{0}
    814c:	e28bd000 	add	sp, fp, #0
    8150:	e49db004 	pop	{fp}		; (ldr fp, [sp], #4)
    8154:	e12fff1e 	bx	lr

00008158 <__cxa_pure_virtual>:
__cxa_pure_virtual():
/mnt/c/Users/Kuba/Documents/ZeroMate/examples/18-edf/userspace/cxxabi.cpp:37

extern "C" void __cxa_pure_virtual()
{
    8158:	e52db004 	push	{fp}		; (str fp, [sp, #-4]!)
    815c:	e28db000 	add	fp, sp, #0
/mnt/c/Users/Kuba/Documents/ZeroMate/examples/18-edf/userspace/cxxabi.cpp:39
    // pure virtual method called
}
    8160:	e320f000 	nop	{0}
    8164:	e28bd000 	add	sp, fp, #0
    8168:	e49db004 	pop	{fp}		; (ldr fp, [sp], #4)
    816c:	e12fff1e 	bx	lr

00008170 <__aeabi_unwind_cpp_pr1>:
__aeabi_unwind_cpp_pr1():
/mnt/c/Users/Kuba/Documents/ZeroMate/examples/18-edf/userspace/cxxabi.cpp:42

extern "C" void __aeabi_unwind_cpp_pr1()
{
    8170:	e52db004 	push	{fp}		; (str fp, [sp, #-4]!)
    8174:	e28db000 	add	fp, sp, #0
/mnt/c/Users/Kuba/Documents/ZeroMate/examples/18-edf/userspace/cxxabi.cpp:43 (discriminator 1)
	while (true)
    8178:	eafffffe 	b	8178 <__aeabi_unwind_cpp_pr1+0x8>

0000817c <_cpp_startup>:
_cpp_startup():
/mnt/c/Users/Kuba/Documents/ZeroMate/examples/18-edf/userspace/cxxabi.cpp:61
extern "C" dtor_ptr __DTOR_LIST__[0];
// konec pole destruktoru
extern "C" dtor_ptr __DTOR_END__[0];

extern "C" int _cpp_startup(void)
{
    817c:	e92d4800 	push	{fp, lr}
    8180:	e28db004 	add	fp, sp, #4
    8184:	e24dd008 	sub	sp, sp, #8
/mnt/c/Users/Kuba/Documents/ZeroMate/examples/18-edf/userspace/cxxabi.cpp:66
	ctor_ptr* fnptr;
	
	// zavolame konstruktory globalnich C++ trid
	// v poli __CTOR_LIST__ jsou ukazatele na vygenerovane stuby volani konstruktoru
	for (fnptr = __CTOR_LIST__; fnptr < __CTOR_END__; fnptr++)
    8188:	e59f303c 	ldr	r3, [pc, #60]	; 81cc <_cpp_startup+0x50>
    818c:	e50b3008 	str	r3, [fp, #-8]
/mnt/c/Users/Kuba/Documents/ZeroMate/examples/18-edf/userspace/cxxabi.cpp:66 (discriminator 3)
    8190:	e51b3008 	ldr	r3, [fp, #-8]
    8194:	e59f2034 	ldr	r2, [pc, #52]	; 81d0 <_cpp_startup+0x54>
    8198:	e1530002 	cmp	r3, r2
    819c:	2a000006 	bcs	81bc <_cpp_startup+0x40>
/mnt/c/Users/Kuba/Documents/ZeroMate/examples/18-edf/userspace/cxxabi.cpp:67 (discriminator 2)
		(*fnptr)();
    81a0:	e51b3008 	ldr	r3, [fp, #-8]
    81a4:	e5933000 	ldr	r3, [r3]
    81a8:	e12fff33 	blx	r3
/mnt/c/Users/Kuba/Documents/ZeroMate/examples/18-edf/userspace/cxxabi.cpp:66 (discriminator 2)
	for (fnptr = __CTOR_LIST__; fnptr < __CTOR_END__; fnptr++)
    81ac:	e51b3008 	ldr	r3, [fp, #-8]
    81b0:	e2833004 	add	r3, r3, #4
    81b4:	e50b3008 	str	r3, [fp, #-8]
    81b8:	eafffff4 	b	8190 <_cpp_startup+0x14>
/mnt/c/Users/Kuba/Documents/ZeroMate/examples/18-edf/userspace/cxxabi.cpp:69
	
	return 0;
    81bc:	e3a03000 	mov	r3, #0
/mnt/c/Users/Kuba/Documents/ZeroMate/examples/18-edf/userspace/cxxabi.cpp:70
}
    81c0:	e1a00003 	mov	r0, r3
    81c4:	e24bd004 	sub	sp, fp, #4
    81c8:	e8bd8800 	pop	{fp, pc}
    81cc:	00008de5 	andeq	r8, r0, r5, ror #27
    81d0:	00008de5 	andeq	r8, r0, r5, ror #27

000081d4 <_cpp_shutdown>:
_cpp_shutdown():
/mnt/c/Users/Kuba/Documents/ZeroMate/examples/18-edf/userspace/cxxabi.cpp:73

extern "C" int _cpp_shutdown(void)
{
    81d4:	e92d4800 	push	{fp, lr}
    81d8:	e28db004 	add	fp, sp, #4
    81dc:	e24dd008 	sub	sp, sp, #8
/mnt/c/Users/Kuba/Documents/ZeroMate/examples/18-edf/userspace/cxxabi.cpp:77
	dtor_ptr* fnptr;
	
	// zavolame destruktory globalnich C++ trid
	for (fnptr = __DTOR_LIST__; fnptr < __DTOR_END__; fnptr++)
    81e0:	e59f303c 	ldr	r3, [pc, #60]	; 8224 <_cpp_shutdown+0x50>
    81e4:	e50b3008 	str	r3, [fp, #-8]
/mnt/c/Users/Kuba/Documents/ZeroMate/examples/18-edf/userspace/cxxabi.cpp:77 (discriminator 3)
    81e8:	e51b3008 	ldr	r3, [fp, #-8]
    81ec:	e59f2034 	ldr	r2, [pc, #52]	; 8228 <_cpp_shutdown+0x54>
    81f0:	e1530002 	cmp	r3, r2
    81f4:	2a000006 	bcs	8214 <_cpp_shutdown+0x40>
/mnt/c/Users/Kuba/Documents/ZeroMate/examples/18-edf/userspace/cxxabi.cpp:78 (discriminator 2)
		(*fnptr)();
    81f8:	e51b3008 	ldr	r3, [fp, #-8]
    81fc:	e5933000 	ldr	r3, [r3]
    8200:	e12fff33 	blx	r3
/mnt/c/Users/Kuba/Documents/ZeroMate/examples/18-edf/userspace/cxxabi.cpp:77 (discriminator 2)
	for (fnptr = __DTOR_LIST__; fnptr < __DTOR_END__; fnptr++)
    8204:	e51b3008 	ldr	r3, [fp, #-8]
    8208:	e2833004 	add	r3, r3, #4
    820c:	e50b3008 	str	r3, [fp, #-8]
    8210:	eafffff4 	b	81e8 <_cpp_shutdown+0x14>
/mnt/c/Users/Kuba/Documents/ZeroMate/examples/18-edf/userspace/cxxabi.cpp:80
	
	return 0;
    8214:	e3a03000 	mov	r3, #0
/mnt/c/Users/Kuba/Documents/ZeroMate/examples/18-edf/userspace/cxxabi.cpp:81
}
    8218:	e1a00003 	mov	r0, r3
    821c:	e24bd004 	sub	sp, fp, #4
    8220:	e8bd8800 	pop	{fp, pc}
    8224:	00008de5 	andeq	r8, r0, r5, ror #27
    8228:	00008de5 	andeq	r8, r0, r5, ror #27

0000822c <main>:
main():
/mnt/c/Users/Kuba/Documents/ZeroMate/examples/18-edf/userspace/init_task/main.cpp:6
#include <stdfile.h>

#include <process/process_manager.h>

int main(int argc, char** argv)
{
    822c:	e92d4800 	push	{fp, lr}
    8230:	e28db004 	add	fp, sp, #4
    8234:	e24dd008 	sub	sp, sp, #8
    8238:	e50b0008 	str	r0, [fp, #-8]
    823c:	e50b100c 	str	r1, [fp, #-12]
/mnt/c/Users/Kuba/Documents/ZeroMate/examples/18-edf/userspace/init_task/main.cpp:11
	// systemovy init task startuje jako prvni, a ma nejnizsi prioritu ze vsech - bude se tedy planovat v podstate jen tehdy,
	// kdy nic jineho nikdo nema na praci

	// nastavime deadline na "nekonecno" = vlastne snizime dynamickou prioritu na nejnizsi moznou
	set_task_deadline(Indefinite);
    8240:	e3e00000 	mvn	r0, #0
    8244:	eb0000cd 	bl	8580 <_Z17set_task_deadlinej>
/mnt/c/Users/Kuba/Documents/ZeroMate/examples/18-edf/userspace/init_task/main.cpp:15 (discriminator 1)

	// TODO: tady budeme chtit nechat spoustet zbytek procesu, az budeme umet nacitat treba z eMMC a SD karty
	
	while (true)
    8248:	eafffffe 	b	8248 <main+0x1c>

0000824c <_Z6getpidv>:
_Z6getpidv():
/mnt/c/Users/Kuba/Documents/ZeroMate/examples/18-edf/stdlib/src/stdfile.cpp:5
#include <stdfile.h>
#include <stdstring.h>

uint32_t getpid()
{
    824c:	e52db004 	push	{fp}		; (str fp, [sp, #-4]!)
    8250:	e28db000 	add	fp, sp, #0
    8254:	e24dd00c 	sub	sp, sp, #12
/mnt/c/Users/Kuba/Documents/ZeroMate/examples/18-edf/stdlib/src/stdfile.cpp:8
    uint32_t pid;

    asm volatile("swi 0");
    8258:	ef000000 	svc	0x00000000
/mnt/c/Users/Kuba/Documents/ZeroMate/examples/18-edf/stdlib/src/stdfile.cpp:9
    asm volatile("mov %0, r0" : "=r" (pid));
    825c:	e1a03000 	mov	r3, r0
    8260:	e50b3008 	str	r3, [fp, #-8]
/mnt/c/Users/Kuba/Documents/ZeroMate/examples/18-edf/stdlib/src/stdfile.cpp:11

    return pid;
    8264:	e51b3008 	ldr	r3, [fp, #-8]
/mnt/c/Users/Kuba/Documents/ZeroMate/examples/18-edf/stdlib/src/stdfile.cpp:12
}
    8268:	e1a00003 	mov	r0, r3
    826c:	e28bd000 	add	sp, fp, #0
    8270:	e49db004 	pop	{fp}		; (ldr fp, [sp], #4)
    8274:	e12fff1e 	bx	lr

00008278 <_Z9terminatei>:
_Z9terminatei():
/mnt/c/Users/Kuba/Documents/ZeroMate/examples/18-edf/stdlib/src/stdfile.cpp:15

void terminate(int exitcode)
{
    8278:	e52db004 	push	{fp}		; (str fp, [sp, #-4]!)
    827c:	e28db000 	add	fp, sp, #0
    8280:	e24dd00c 	sub	sp, sp, #12
    8284:	e50b0008 	str	r0, [fp, #-8]
/mnt/c/Users/Kuba/Documents/ZeroMate/examples/18-edf/stdlib/src/stdfile.cpp:16
    asm volatile("mov r0, %0" : : "r" (exitcode));
    8288:	e51b3008 	ldr	r3, [fp, #-8]
    828c:	e1a00003 	mov	r0, r3
/mnt/c/Users/Kuba/Documents/ZeroMate/examples/18-edf/stdlib/src/stdfile.cpp:17
    asm volatile("swi 1");
    8290:	ef000001 	svc	0x00000001
/mnt/c/Users/Kuba/Documents/ZeroMate/examples/18-edf/stdlib/src/stdfile.cpp:18
}
    8294:	e320f000 	nop	{0}
    8298:	e28bd000 	add	sp, fp, #0
    829c:	e49db004 	pop	{fp}		; (ldr fp, [sp], #4)
    82a0:	e12fff1e 	bx	lr

000082a4 <_Z11sched_yieldv>:
_Z11sched_yieldv():
/mnt/c/Users/Kuba/Documents/ZeroMate/examples/18-edf/stdlib/src/stdfile.cpp:21

void sched_yield()
{
    82a4:	e52db004 	push	{fp}		; (str fp, [sp, #-4]!)
    82a8:	e28db000 	add	fp, sp, #0
/mnt/c/Users/Kuba/Documents/ZeroMate/examples/18-edf/stdlib/src/stdfile.cpp:22
    asm volatile("swi 2");
    82ac:	ef000002 	svc	0x00000002
/mnt/c/Users/Kuba/Documents/ZeroMate/examples/18-edf/stdlib/src/stdfile.cpp:23
}
    82b0:	e320f000 	nop	{0}
    82b4:	e28bd000 	add	sp, fp, #0
    82b8:	e49db004 	pop	{fp}		; (ldr fp, [sp], #4)
    82bc:	e12fff1e 	bx	lr

000082c0 <_Z4openPKc15NFile_Open_Mode>:
_Z4openPKc15NFile_Open_Mode():
/mnt/c/Users/Kuba/Documents/ZeroMate/examples/18-edf/stdlib/src/stdfile.cpp:26

uint32_t open(const char* filename, NFile_Open_Mode mode)
{
    82c0:	e52db004 	push	{fp}		; (str fp, [sp, #-4]!)
    82c4:	e28db000 	add	fp, sp, #0
    82c8:	e24dd014 	sub	sp, sp, #20
    82cc:	e50b0010 	str	r0, [fp, #-16]
    82d0:	e50b1014 	str	r1, [fp, #-20]	; 0xffffffec
/mnt/c/Users/Kuba/Documents/ZeroMate/examples/18-edf/stdlib/src/stdfile.cpp:29
    uint32_t file;

    asm volatile("mov r0, %0" : : "r" (filename));
    82d4:	e51b3010 	ldr	r3, [fp, #-16]
    82d8:	e1a00003 	mov	r0, r3
/mnt/c/Users/Kuba/Documents/ZeroMate/examples/18-edf/stdlib/src/stdfile.cpp:30
    asm volatile("mov r1, %0" : : "r" (mode));
    82dc:	e51b3014 	ldr	r3, [fp, #-20]	; 0xffffffec
    82e0:	e1a01003 	mov	r1, r3
/mnt/c/Users/Kuba/Documents/ZeroMate/examples/18-edf/stdlib/src/stdfile.cpp:31
    asm volatile("swi 64");
    82e4:	ef000040 	svc	0x00000040
/mnt/c/Users/Kuba/Documents/ZeroMate/examples/18-edf/stdlib/src/stdfile.cpp:32
    asm volatile("mov %0, r0" : "=r" (file));
    82e8:	e1a03000 	mov	r3, r0
    82ec:	e50b3008 	str	r3, [fp, #-8]
/mnt/c/Users/Kuba/Documents/ZeroMate/examples/18-edf/stdlib/src/stdfile.cpp:34

    return file;
    82f0:	e51b3008 	ldr	r3, [fp, #-8]
/mnt/c/Users/Kuba/Documents/ZeroMate/examples/18-edf/stdlib/src/stdfile.cpp:35
}
    82f4:	e1a00003 	mov	r0, r3
    82f8:	e28bd000 	add	sp, fp, #0
    82fc:	e49db004 	pop	{fp}		; (ldr fp, [sp], #4)
    8300:	e12fff1e 	bx	lr

00008304 <_Z4readjPcj>:
_Z4readjPcj():
/mnt/c/Users/Kuba/Documents/ZeroMate/examples/18-edf/stdlib/src/stdfile.cpp:38

uint32_t read(uint32_t file, char* const buffer, uint32_t size)
{
    8304:	e52db004 	push	{fp}		; (str fp, [sp, #-4]!)
    8308:	e28db000 	add	fp, sp, #0
    830c:	e24dd01c 	sub	sp, sp, #28
    8310:	e50b0010 	str	r0, [fp, #-16]
    8314:	e50b1014 	str	r1, [fp, #-20]	; 0xffffffec
    8318:	e50b2018 	str	r2, [fp, #-24]	; 0xffffffe8
/mnt/c/Users/Kuba/Documents/ZeroMate/examples/18-edf/stdlib/src/stdfile.cpp:41
    uint32_t rdnum;

    asm volatile("mov r0, %0" : : "r" (file));
    831c:	e51b3010 	ldr	r3, [fp, #-16]
    8320:	e1a00003 	mov	r0, r3
/mnt/c/Users/Kuba/Documents/ZeroMate/examples/18-edf/stdlib/src/stdfile.cpp:42
    asm volatile("mov r1, %0" : : "r" (buffer));
    8324:	e51b3014 	ldr	r3, [fp, #-20]	; 0xffffffec
    8328:	e1a01003 	mov	r1, r3
/mnt/c/Users/Kuba/Documents/ZeroMate/examples/18-edf/stdlib/src/stdfile.cpp:43
    asm volatile("mov r2, %0" : : "r" (size));
    832c:	e51b3018 	ldr	r3, [fp, #-24]	; 0xffffffe8
    8330:	e1a02003 	mov	r2, r3
/mnt/c/Users/Kuba/Documents/ZeroMate/examples/18-edf/stdlib/src/stdfile.cpp:44
    asm volatile("swi 65");
    8334:	ef000041 	svc	0x00000041
/mnt/c/Users/Kuba/Documents/ZeroMate/examples/18-edf/stdlib/src/stdfile.cpp:45
    asm volatile("mov %0, r0" : "=r" (rdnum));
    8338:	e1a03000 	mov	r3, r0
    833c:	e50b3008 	str	r3, [fp, #-8]
/mnt/c/Users/Kuba/Documents/ZeroMate/examples/18-edf/stdlib/src/stdfile.cpp:47

    return rdnum;
    8340:	e51b3008 	ldr	r3, [fp, #-8]
/mnt/c/Users/Kuba/Documents/ZeroMate/examples/18-edf/stdlib/src/stdfile.cpp:48
}
    8344:	e1a00003 	mov	r0, r3
    8348:	e28bd000 	add	sp, fp, #0
    834c:	e49db004 	pop	{fp}		; (ldr fp, [sp], #4)
    8350:	e12fff1e 	bx	lr

00008354 <_Z5writejPKcj>:
_Z5writejPKcj():
/mnt/c/Users/Kuba/Documents/ZeroMate/examples/18-edf/stdlib/src/stdfile.cpp:51

uint32_t write(uint32_t file, const char* buffer, uint32_t size)
{
    8354:	e52db004 	push	{fp}		; (str fp, [sp, #-4]!)
    8358:	e28db000 	add	fp, sp, #0
    835c:	e24dd01c 	sub	sp, sp, #28
    8360:	e50b0010 	str	r0, [fp, #-16]
    8364:	e50b1014 	str	r1, [fp, #-20]	; 0xffffffec
    8368:	e50b2018 	str	r2, [fp, #-24]	; 0xffffffe8
/mnt/c/Users/Kuba/Documents/ZeroMate/examples/18-edf/stdlib/src/stdfile.cpp:54
    uint32_t wrnum;

    asm volatile("mov r0, %0" : : "r" (file));
    836c:	e51b3010 	ldr	r3, [fp, #-16]
    8370:	e1a00003 	mov	r0, r3
/mnt/c/Users/Kuba/Documents/ZeroMate/examples/18-edf/stdlib/src/stdfile.cpp:55
    asm volatile("mov r1, %0" : : "r" (buffer));
    8374:	e51b3014 	ldr	r3, [fp, #-20]	; 0xffffffec
    8378:	e1a01003 	mov	r1, r3
/mnt/c/Users/Kuba/Documents/ZeroMate/examples/18-edf/stdlib/src/stdfile.cpp:56
    asm volatile("mov r2, %0" : : "r" (size));
    837c:	e51b3018 	ldr	r3, [fp, #-24]	; 0xffffffe8
    8380:	e1a02003 	mov	r2, r3
/mnt/c/Users/Kuba/Documents/ZeroMate/examples/18-edf/stdlib/src/stdfile.cpp:57
    asm volatile("swi 66");
    8384:	ef000042 	svc	0x00000042
/mnt/c/Users/Kuba/Documents/ZeroMate/examples/18-edf/stdlib/src/stdfile.cpp:58
    asm volatile("mov %0, r0" : "=r" (wrnum));
    8388:	e1a03000 	mov	r3, r0
    838c:	e50b3008 	str	r3, [fp, #-8]
/mnt/c/Users/Kuba/Documents/ZeroMate/examples/18-edf/stdlib/src/stdfile.cpp:60

    return wrnum;
    8390:	e51b3008 	ldr	r3, [fp, #-8]
/mnt/c/Users/Kuba/Documents/ZeroMate/examples/18-edf/stdlib/src/stdfile.cpp:61
}
    8394:	e1a00003 	mov	r0, r3
    8398:	e28bd000 	add	sp, fp, #0
    839c:	e49db004 	pop	{fp}		; (ldr fp, [sp], #4)
    83a0:	e12fff1e 	bx	lr

000083a4 <_Z5closej>:
_Z5closej():
/mnt/c/Users/Kuba/Documents/ZeroMate/examples/18-edf/stdlib/src/stdfile.cpp:64

void close(uint32_t file)
{
    83a4:	e52db004 	push	{fp}		; (str fp, [sp, #-4]!)
    83a8:	e28db000 	add	fp, sp, #0
    83ac:	e24dd00c 	sub	sp, sp, #12
    83b0:	e50b0008 	str	r0, [fp, #-8]
/mnt/c/Users/Kuba/Documents/ZeroMate/examples/18-edf/stdlib/src/stdfile.cpp:65
    asm volatile("mov r0, %0" : : "r" (file));
    83b4:	e51b3008 	ldr	r3, [fp, #-8]
    83b8:	e1a00003 	mov	r0, r3
/mnt/c/Users/Kuba/Documents/ZeroMate/examples/18-edf/stdlib/src/stdfile.cpp:66
    asm volatile("swi 67");
    83bc:	ef000043 	svc	0x00000043
/mnt/c/Users/Kuba/Documents/ZeroMate/examples/18-edf/stdlib/src/stdfile.cpp:67
}
    83c0:	e320f000 	nop	{0}
    83c4:	e28bd000 	add	sp, fp, #0
    83c8:	e49db004 	pop	{fp}		; (ldr fp, [sp], #4)
    83cc:	e12fff1e 	bx	lr

000083d0 <_Z5ioctlj16NIOCtl_OperationPv>:
_Z5ioctlj16NIOCtl_OperationPv():
/mnt/c/Users/Kuba/Documents/ZeroMate/examples/18-edf/stdlib/src/stdfile.cpp:70

uint32_t ioctl(uint32_t file, NIOCtl_Operation operation, void* param)
{
    83d0:	e52db004 	push	{fp}		; (str fp, [sp, #-4]!)
    83d4:	e28db000 	add	fp, sp, #0
    83d8:	e24dd01c 	sub	sp, sp, #28
    83dc:	e50b0010 	str	r0, [fp, #-16]
    83e0:	e50b1014 	str	r1, [fp, #-20]	; 0xffffffec
    83e4:	e50b2018 	str	r2, [fp, #-24]	; 0xffffffe8
/mnt/c/Users/Kuba/Documents/ZeroMate/examples/18-edf/stdlib/src/stdfile.cpp:73
    uint32_t retcode;

    asm volatile("mov r0, %0" : : "r" (file));
    83e8:	e51b3010 	ldr	r3, [fp, #-16]
    83ec:	e1a00003 	mov	r0, r3
/mnt/c/Users/Kuba/Documents/ZeroMate/examples/18-edf/stdlib/src/stdfile.cpp:74
    asm volatile("mov r1, %0" : : "r" (operation));
    83f0:	e51b3014 	ldr	r3, [fp, #-20]	; 0xffffffec
    83f4:	e1a01003 	mov	r1, r3
/mnt/c/Users/Kuba/Documents/ZeroMate/examples/18-edf/stdlib/src/stdfile.cpp:75
    asm volatile("mov r2, %0" : : "r" (param));
    83f8:	e51b3018 	ldr	r3, [fp, #-24]	; 0xffffffe8
    83fc:	e1a02003 	mov	r2, r3
/mnt/c/Users/Kuba/Documents/ZeroMate/examples/18-edf/stdlib/src/stdfile.cpp:76
    asm volatile("swi 68");
    8400:	ef000044 	svc	0x00000044
/mnt/c/Users/Kuba/Documents/ZeroMate/examples/18-edf/stdlib/src/stdfile.cpp:77
    asm volatile("mov %0, r0" : "=r" (retcode));
    8404:	e1a03000 	mov	r3, r0
    8408:	e50b3008 	str	r3, [fp, #-8]
/mnt/c/Users/Kuba/Documents/ZeroMate/examples/18-edf/stdlib/src/stdfile.cpp:79

    return retcode;
    840c:	e51b3008 	ldr	r3, [fp, #-8]
/mnt/c/Users/Kuba/Documents/ZeroMate/examples/18-edf/stdlib/src/stdfile.cpp:80
}
    8410:	e1a00003 	mov	r0, r3
    8414:	e28bd000 	add	sp, fp, #0
    8418:	e49db004 	pop	{fp}		; (ldr fp, [sp], #4)
    841c:	e12fff1e 	bx	lr

00008420 <_Z6notifyjj>:
_Z6notifyjj():
/mnt/c/Users/Kuba/Documents/ZeroMate/examples/18-edf/stdlib/src/stdfile.cpp:83

uint32_t notify(uint32_t file, uint32_t count)
{
    8420:	e52db004 	push	{fp}		; (str fp, [sp, #-4]!)
    8424:	e28db000 	add	fp, sp, #0
    8428:	e24dd014 	sub	sp, sp, #20
    842c:	e50b0010 	str	r0, [fp, #-16]
    8430:	e50b1014 	str	r1, [fp, #-20]	; 0xffffffec
/mnt/c/Users/Kuba/Documents/ZeroMate/examples/18-edf/stdlib/src/stdfile.cpp:86
    uint32_t retcnt;

    asm volatile("mov r0, %0" : : "r" (file));
    8434:	e51b3010 	ldr	r3, [fp, #-16]
    8438:	e1a00003 	mov	r0, r3
/mnt/c/Users/Kuba/Documents/ZeroMate/examples/18-edf/stdlib/src/stdfile.cpp:87
    asm volatile("mov r1, %0" : : "r" (count));
    843c:	e51b3014 	ldr	r3, [fp, #-20]	; 0xffffffec
    8440:	e1a01003 	mov	r1, r3
/mnt/c/Users/Kuba/Documents/ZeroMate/examples/18-edf/stdlib/src/stdfile.cpp:88
    asm volatile("swi 69");
    8444:	ef000045 	svc	0x00000045
/mnt/c/Users/Kuba/Documents/ZeroMate/examples/18-edf/stdlib/src/stdfile.cpp:89
    asm volatile("mov %0, r0" : "=r" (retcnt));
    8448:	e1a03000 	mov	r3, r0
    844c:	e50b3008 	str	r3, [fp, #-8]
/mnt/c/Users/Kuba/Documents/ZeroMate/examples/18-edf/stdlib/src/stdfile.cpp:91

    return retcnt;
    8450:	e51b3008 	ldr	r3, [fp, #-8]
/mnt/c/Users/Kuba/Documents/ZeroMate/examples/18-edf/stdlib/src/stdfile.cpp:92
}
    8454:	e1a00003 	mov	r0, r3
    8458:	e28bd000 	add	sp, fp, #0
    845c:	e49db004 	pop	{fp}		; (ldr fp, [sp], #4)
    8460:	e12fff1e 	bx	lr

00008464 <_Z4waitjjj>:
_Z4waitjjj():
/mnt/c/Users/Kuba/Documents/ZeroMate/examples/18-edf/stdlib/src/stdfile.cpp:95

NSWI_Result_Code wait(uint32_t file, uint32_t count, uint32_t notified_deadline)
{
    8464:	e52db004 	push	{fp}		; (str fp, [sp, #-4]!)
    8468:	e28db000 	add	fp, sp, #0
    846c:	e24dd01c 	sub	sp, sp, #28
    8470:	e50b0010 	str	r0, [fp, #-16]
    8474:	e50b1014 	str	r1, [fp, #-20]	; 0xffffffec
    8478:	e50b2018 	str	r2, [fp, #-24]	; 0xffffffe8
/mnt/c/Users/Kuba/Documents/ZeroMate/examples/18-edf/stdlib/src/stdfile.cpp:98
    NSWI_Result_Code retcode;

    asm volatile("mov r0, %0" : : "r" (file));
    847c:	e51b3010 	ldr	r3, [fp, #-16]
    8480:	e1a00003 	mov	r0, r3
/mnt/c/Users/Kuba/Documents/ZeroMate/examples/18-edf/stdlib/src/stdfile.cpp:99
    asm volatile("mov r1, %0" : : "r" (count));
    8484:	e51b3014 	ldr	r3, [fp, #-20]	; 0xffffffec
    8488:	e1a01003 	mov	r1, r3
/mnt/c/Users/Kuba/Documents/ZeroMate/examples/18-edf/stdlib/src/stdfile.cpp:100
    asm volatile("mov r2, %0" : : "r" (notified_deadline));
    848c:	e51b3018 	ldr	r3, [fp, #-24]	; 0xffffffe8
    8490:	e1a02003 	mov	r2, r3
/mnt/c/Users/Kuba/Documents/ZeroMate/examples/18-edf/stdlib/src/stdfile.cpp:101
    asm volatile("swi 70");
    8494:	ef000046 	svc	0x00000046
/mnt/c/Users/Kuba/Documents/ZeroMate/examples/18-edf/stdlib/src/stdfile.cpp:102
    asm volatile("mov %0, r0" : "=r" (retcode));
    8498:	e1a03000 	mov	r3, r0
    849c:	e50b3008 	str	r3, [fp, #-8]
/mnt/c/Users/Kuba/Documents/ZeroMate/examples/18-edf/stdlib/src/stdfile.cpp:104

    return retcode;
    84a0:	e51b3008 	ldr	r3, [fp, #-8]
/mnt/c/Users/Kuba/Documents/ZeroMate/examples/18-edf/stdlib/src/stdfile.cpp:105
}
    84a4:	e1a00003 	mov	r0, r3
    84a8:	e28bd000 	add	sp, fp, #0
    84ac:	e49db004 	pop	{fp}		; (ldr fp, [sp], #4)
    84b0:	e12fff1e 	bx	lr

000084b4 <_Z5sleepjj>:
_Z5sleepjj():
/mnt/c/Users/Kuba/Documents/ZeroMate/examples/18-edf/stdlib/src/stdfile.cpp:108

bool sleep(uint32_t ticks, uint32_t notified_deadline)
{
    84b4:	e52db004 	push	{fp}		; (str fp, [sp, #-4]!)
    84b8:	e28db000 	add	fp, sp, #0
    84bc:	e24dd014 	sub	sp, sp, #20
    84c0:	e50b0010 	str	r0, [fp, #-16]
    84c4:	e50b1014 	str	r1, [fp, #-20]	; 0xffffffec
/mnt/c/Users/Kuba/Documents/ZeroMate/examples/18-edf/stdlib/src/stdfile.cpp:111
    uint32_t retcode;

    asm volatile("mov r0, %0" : : "r" (ticks));
    84c8:	e51b3010 	ldr	r3, [fp, #-16]
    84cc:	e1a00003 	mov	r0, r3
/mnt/c/Users/Kuba/Documents/ZeroMate/examples/18-edf/stdlib/src/stdfile.cpp:112
    asm volatile("mov r1, %0" : : "r" (notified_deadline));
    84d0:	e51b3014 	ldr	r3, [fp, #-20]	; 0xffffffec
    84d4:	e1a01003 	mov	r1, r3
/mnt/c/Users/Kuba/Documents/ZeroMate/examples/18-edf/stdlib/src/stdfile.cpp:113
    asm volatile("swi 3");
    84d8:	ef000003 	svc	0x00000003
/mnt/c/Users/Kuba/Documents/ZeroMate/examples/18-edf/stdlib/src/stdfile.cpp:114
    asm volatile("mov %0, r0" : "=r" (retcode));
    84dc:	e1a03000 	mov	r3, r0
    84e0:	e50b3008 	str	r3, [fp, #-8]
/mnt/c/Users/Kuba/Documents/ZeroMate/examples/18-edf/stdlib/src/stdfile.cpp:116

    return retcode;
    84e4:	e51b3008 	ldr	r3, [fp, #-8]
    84e8:	e3530000 	cmp	r3, #0
    84ec:	13a03001 	movne	r3, #1
    84f0:	03a03000 	moveq	r3, #0
    84f4:	e6ef3073 	uxtb	r3, r3
/mnt/c/Users/Kuba/Documents/ZeroMate/examples/18-edf/stdlib/src/stdfile.cpp:117
}
    84f8:	e1a00003 	mov	r0, r3
    84fc:	e28bd000 	add	sp, fp, #0
    8500:	e49db004 	pop	{fp}		; (ldr fp, [sp], #4)
    8504:	e12fff1e 	bx	lr

00008508 <_Z24get_active_process_countv>:
_Z24get_active_process_countv():
/mnt/c/Users/Kuba/Documents/ZeroMate/examples/18-edf/stdlib/src/stdfile.cpp:120

uint32_t get_active_process_count()
{
    8508:	e52db004 	push	{fp}		; (str fp, [sp, #-4]!)
    850c:	e28db000 	add	fp, sp, #0
    8510:	e24dd00c 	sub	sp, sp, #12
/mnt/c/Users/Kuba/Documents/ZeroMate/examples/18-edf/stdlib/src/stdfile.cpp:121
    const NGet_Sched_Info_Type req = NGet_Sched_Info_Type::Active_Process_Count;
    8514:	e3a03000 	mov	r3, #0
    8518:	e50b3008 	str	r3, [fp, #-8]
/mnt/c/Users/Kuba/Documents/ZeroMate/examples/18-edf/stdlib/src/stdfile.cpp:124
    uint32_t retval;

    asm volatile("mov r0, %0" : : "r" (req));
    851c:	e3a03000 	mov	r3, #0
    8520:	e1a00003 	mov	r0, r3
/mnt/c/Users/Kuba/Documents/ZeroMate/examples/18-edf/stdlib/src/stdfile.cpp:125
    asm volatile("mov r1, %0" : : "r" (&retval));
    8524:	e24b300c 	sub	r3, fp, #12
    8528:	e1a01003 	mov	r1, r3
/mnt/c/Users/Kuba/Documents/ZeroMate/examples/18-edf/stdlib/src/stdfile.cpp:126
    asm volatile("swi 4");
    852c:	ef000004 	svc	0x00000004
/mnt/c/Users/Kuba/Documents/ZeroMate/examples/18-edf/stdlib/src/stdfile.cpp:128

    return retval;
    8530:	e51b300c 	ldr	r3, [fp, #-12]
/mnt/c/Users/Kuba/Documents/ZeroMate/examples/18-edf/stdlib/src/stdfile.cpp:129
}
    8534:	e1a00003 	mov	r0, r3
    8538:	e28bd000 	add	sp, fp, #0
    853c:	e49db004 	pop	{fp}		; (ldr fp, [sp], #4)
    8540:	e12fff1e 	bx	lr

00008544 <_Z14get_tick_countv>:
_Z14get_tick_countv():
/mnt/c/Users/Kuba/Documents/ZeroMate/examples/18-edf/stdlib/src/stdfile.cpp:132

uint32_t get_tick_count()
{
    8544:	e52db004 	push	{fp}		; (str fp, [sp, #-4]!)
    8548:	e28db000 	add	fp, sp, #0
    854c:	e24dd00c 	sub	sp, sp, #12
/mnt/c/Users/Kuba/Documents/ZeroMate/examples/18-edf/stdlib/src/stdfile.cpp:133
    const NGet_Sched_Info_Type req = NGet_Sched_Info_Type::Tick_Count;
    8550:	e3a03001 	mov	r3, #1
    8554:	e50b3008 	str	r3, [fp, #-8]
/mnt/c/Users/Kuba/Documents/ZeroMate/examples/18-edf/stdlib/src/stdfile.cpp:136
    uint32_t retval;

    asm volatile("mov r0, %0" : : "r" (req));
    8558:	e3a03001 	mov	r3, #1
    855c:	e1a00003 	mov	r0, r3
/mnt/c/Users/Kuba/Documents/ZeroMate/examples/18-edf/stdlib/src/stdfile.cpp:137
    asm volatile("mov r1, %0" : : "r" (&retval));
    8560:	e24b300c 	sub	r3, fp, #12
    8564:	e1a01003 	mov	r1, r3
/mnt/c/Users/Kuba/Documents/ZeroMate/examples/18-edf/stdlib/src/stdfile.cpp:138
    asm volatile("swi 4");
    8568:	ef000004 	svc	0x00000004
/mnt/c/Users/Kuba/Documents/ZeroMate/examples/18-edf/stdlib/src/stdfile.cpp:140

    return retval;
    856c:	e51b300c 	ldr	r3, [fp, #-12]
/mnt/c/Users/Kuba/Documents/ZeroMate/examples/18-edf/stdlib/src/stdfile.cpp:141
}
    8570:	e1a00003 	mov	r0, r3
    8574:	e28bd000 	add	sp, fp, #0
    8578:	e49db004 	pop	{fp}		; (ldr fp, [sp], #4)
    857c:	e12fff1e 	bx	lr

00008580 <_Z17set_task_deadlinej>:
_Z17set_task_deadlinej():
/mnt/c/Users/Kuba/Documents/ZeroMate/examples/18-edf/stdlib/src/stdfile.cpp:144

void set_task_deadline(uint32_t tick_count_required)
{
    8580:	e52db004 	push	{fp}		; (str fp, [sp, #-4]!)
    8584:	e28db000 	add	fp, sp, #0
    8588:	e24dd014 	sub	sp, sp, #20
    858c:	e50b0010 	str	r0, [fp, #-16]
/mnt/c/Users/Kuba/Documents/ZeroMate/examples/18-edf/stdlib/src/stdfile.cpp:145
    const NDeadline_Subservice req = NDeadline_Subservice::Set_Relative;
    8590:	e3a03000 	mov	r3, #0
    8594:	e50b3008 	str	r3, [fp, #-8]
/mnt/c/Users/Kuba/Documents/ZeroMate/examples/18-edf/stdlib/src/stdfile.cpp:147

    asm volatile("mov r0, %0" : : "r" (req));
    8598:	e3a03000 	mov	r3, #0
    859c:	e1a00003 	mov	r0, r3
/mnt/c/Users/Kuba/Documents/ZeroMate/examples/18-edf/stdlib/src/stdfile.cpp:148
    asm volatile("mov r1, %0" : : "r" (&tick_count_required));
    85a0:	e24b3010 	sub	r3, fp, #16
    85a4:	e1a01003 	mov	r1, r3
/mnt/c/Users/Kuba/Documents/ZeroMate/examples/18-edf/stdlib/src/stdfile.cpp:149
    asm volatile("swi 5");
    85a8:	ef000005 	svc	0x00000005
/mnt/c/Users/Kuba/Documents/ZeroMate/examples/18-edf/stdlib/src/stdfile.cpp:150
}
    85ac:	e320f000 	nop	{0}
    85b0:	e28bd000 	add	sp, fp, #0
    85b4:	e49db004 	pop	{fp}		; (ldr fp, [sp], #4)
    85b8:	e12fff1e 	bx	lr

000085bc <_Z26get_task_ticks_to_deadlinev>:
_Z26get_task_ticks_to_deadlinev():
/mnt/c/Users/Kuba/Documents/ZeroMate/examples/18-edf/stdlib/src/stdfile.cpp:153

uint32_t get_task_ticks_to_deadline()
{
    85bc:	e52db004 	push	{fp}		; (str fp, [sp, #-4]!)
    85c0:	e28db000 	add	fp, sp, #0
    85c4:	e24dd00c 	sub	sp, sp, #12
/mnt/c/Users/Kuba/Documents/ZeroMate/examples/18-edf/stdlib/src/stdfile.cpp:154
    const NDeadline_Subservice req = NDeadline_Subservice::Get_Remaining;
    85c8:	e3a03001 	mov	r3, #1
    85cc:	e50b3008 	str	r3, [fp, #-8]
/mnt/c/Users/Kuba/Documents/ZeroMate/examples/18-edf/stdlib/src/stdfile.cpp:157
    uint32_t ticks;

    asm volatile("mov r0, %0" : : "r" (req));
    85d0:	e3a03001 	mov	r3, #1
    85d4:	e1a00003 	mov	r0, r3
/mnt/c/Users/Kuba/Documents/ZeroMate/examples/18-edf/stdlib/src/stdfile.cpp:158
    asm volatile("mov r1, %0" : : "r" (&ticks));
    85d8:	e24b300c 	sub	r3, fp, #12
    85dc:	e1a01003 	mov	r1, r3
/mnt/c/Users/Kuba/Documents/ZeroMate/examples/18-edf/stdlib/src/stdfile.cpp:159
    asm volatile("swi 5");
    85e0:	ef000005 	svc	0x00000005
/mnt/c/Users/Kuba/Documents/ZeroMate/examples/18-edf/stdlib/src/stdfile.cpp:161

    return ticks;
    85e4:	e51b300c 	ldr	r3, [fp, #-12]
/mnt/c/Users/Kuba/Documents/ZeroMate/examples/18-edf/stdlib/src/stdfile.cpp:162
}
    85e8:	e1a00003 	mov	r0, r3
    85ec:	e28bd000 	add	sp, fp, #0
    85f0:	e49db004 	pop	{fp}		; (ldr fp, [sp], #4)
    85f4:	e12fff1e 	bx	lr

000085f8 <_Z4pipePKcj>:
_Z4pipePKcj():
/mnt/c/Users/Kuba/Documents/ZeroMate/examples/18-edf/stdlib/src/stdfile.cpp:167

const char Pipe_File_Prefix[] = "SYS:pipe/";

uint32_t pipe(const char* name, uint32_t buf_size)
{
    85f8:	e92d4800 	push	{fp, lr}
    85fc:	e28db004 	add	fp, sp, #4
    8600:	e24dd050 	sub	sp, sp, #80	; 0x50
    8604:	e50b0050 	str	r0, [fp, #-80]	; 0xffffffb0
    8608:	e50b1054 	str	r1, [fp, #-84]	; 0xffffffac
/mnt/c/Users/Kuba/Documents/ZeroMate/examples/18-edf/stdlib/src/stdfile.cpp:169
    char fname[64];
    strncpy(fname, Pipe_File_Prefix, sizeof(Pipe_File_Prefix));
    860c:	e24b3048 	sub	r3, fp, #72	; 0x48
    8610:	e3a0200a 	mov	r2, #10
    8614:	e59f1088 	ldr	r1, [pc, #136]	; 86a4 <_Z4pipePKcj+0xac>
    8618:	e1a00003 	mov	r0, r3
    861c:	eb0000a5 	bl	88b8 <_Z7strncpyPcPKci>
/mnt/c/Users/Kuba/Documents/ZeroMate/examples/18-edf/stdlib/src/stdfile.cpp:170
    strncpy(fname + sizeof(Pipe_File_Prefix), name, sizeof(fname) - sizeof(Pipe_File_Prefix) - 1);
    8620:	e24b3048 	sub	r3, fp, #72	; 0x48
    8624:	e283300a 	add	r3, r3, #10
    8628:	e3a02035 	mov	r2, #53	; 0x35
    862c:	e51b1050 	ldr	r1, [fp, #-80]	; 0xffffffb0
    8630:	e1a00003 	mov	r0, r3
    8634:	eb00009f 	bl	88b8 <_Z7strncpyPcPKci>
/mnt/c/Users/Kuba/Documents/ZeroMate/examples/18-edf/stdlib/src/stdfile.cpp:172

    int ncur = sizeof(Pipe_File_Prefix) + strlen(name);
    8638:	e51b0050 	ldr	r0, [fp, #-80]	; 0xffffffb0
    863c:	eb0000f8 	bl	8a24 <_Z6strlenPKc>
    8640:	e1a03000 	mov	r3, r0
    8644:	e283300a 	add	r3, r3, #10
    8648:	e50b3008 	str	r3, [fp, #-8]
/mnt/c/Users/Kuba/Documents/ZeroMate/examples/18-edf/stdlib/src/stdfile.cpp:174

    fname[ncur++] = '#';
    864c:	e51b3008 	ldr	r3, [fp, #-8]
    8650:	e2832001 	add	r2, r3, #1
    8654:	e50b2008 	str	r2, [fp, #-8]
    8658:	e2433004 	sub	r3, r3, #4
    865c:	e083300b 	add	r3, r3, fp
    8660:	e3a02023 	mov	r2, #35	; 0x23
    8664:	e5432044 	strb	r2, [r3, #-68]	; 0xffffffbc
/mnt/c/Users/Kuba/Documents/ZeroMate/examples/18-edf/stdlib/src/stdfile.cpp:176

    itoa(buf_size, &fname[ncur], 10);
    8668:	e24b2048 	sub	r2, fp, #72	; 0x48
    866c:	e51b3008 	ldr	r3, [fp, #-8]
    8670:	e0823003 	add	r3, r2, r3
    8674:	e3a0200a 	mov	r2, #10
    8678:	e1a01003 	mov	r1, r3
    867c:	e51b0054 	ldr	r0, [fp, #-84]	; 0xffffffac
    8680:	eb000008 	bl	86a8 <_Z4itoajPcj>
/mnt/c/Users/Kuba/Documents/ZeroMate/examples/18-edf/stdlib/src/stdfile.cpp:178

    return open(fname, NFile_Open_Mode::Read_Write);
    8684:	e24b3048 	sub	r3, fp, #72	; 0x48
    8688:	e3a01002 	mov	r1, #2
    868c:	e1a00003 	mov	r0, r3
    8690:	ebffff0a 	bl	82c0 <_Z4openPKc15NFile_Open_Mode>
    8694:	e1a03000 	mov	r3, r0
/mnt/c/Users/Kuba/Documents/ZeroMate/examples/18-edf/stdlib/src/stdfile.cpp:179
}
    8698:	e1a00003 	mov	r0, r3
    869c:	e24bd004 	sub	sp, fp, #4
    86a0:	e8bd8800 	pop	{fp, pc}
    86a4:	00008dc8 	andeq	r8, r0, r8, asr #27

000086a8 <_Z4itoajPcj>:
_Z4itoajPcj():
/mnt/c/Users/Kuba/Documents/ZeroMate/examples/18-edf/stdlib/src/stdstring.cpp:9
{
    const char CharConvArr[] = "0123456789ABCDEF";
}

void itoa(unsigned int input, char* output, unsigned int base)
{
    86a8:	e92d4800 	push	{fp, lr}
    86ac:	e28db004 	add	fp, sp, #4
    86b0:	e24dd020 	sub	sp, sp, #32
    86b4:	e50b0018 	str	r0, [fp, #-24]	; 0xffffffe8
    86b8:	e50b101c 	str	r1, [fp, #-28]	; 0xffffffe4
    86bc:	e50b2020 	str	r2, [fp, #-32]	; 0xffffffe0
/mnt/c/Users/Kuba/Documents/ZeroMate/examples/18-edf/stdlib/src/stdstring.cpp:10
	int i = 0;
    86c0:	e3a03000 	mov	r3, #0
    86c4:	e50b3008 	str	r3, [fp, #-8]
/mnt/c/Users/Kuba/Documents/ZeroMate/examples/18-edf/stdlib/src/stdstring.cpp:12

	while (input > 0)
    86c8:	e51b3018 	ldr	r3, [fp, #-24]	; 0xffffffe8
    86cc:	e3530000 	cmp	r3, #0
    86d0:	0a000014 	beq	8728 <_Z4itoajPcj+0x80>
/mnt/c/Users/Kuba/Documents/ZeroMate/examples/18-edf/stdlib/src/stdstring.cpp:14
	{
		output[i] = CharConvArr[input % base];
    86d4:	e51b3018 	ldr	r3, [fp, #-24]	; 0xffffffe8
    86d8:	e51b1020 	ldr	r1, [fp, #-32]	; 0xffffffe0
    86dc:	e1a00003 	mov	r0, r3
    86e0:	eb000199 	bl	8d4c <__aeabi_uidivmod>
    86e4:	e1a03001 	mov	r3, r1
    86e8:	e1a01003 	mov	r1, r3
    86ec:	e51b3008 	ldr	r3, [fp, #-8]
    86f0:	e51b201c 	ldr	r2, [fp, #-28]	; 0xffffffe4
    86f4:	e0823003 	add	r3, r2, r3
    86f8:	e59f2118 	ldr	r2, [pc, #280]	; 8818 <_Z4itoajPcj+0x170>
    86fc:	e7d22001 	ldrb	r2, [r2, r1]
    8700:	e5c32000 	strb	r2, [r3]
/mnt/c/Users/Kuba/Documents/ZeroMate/examples/18-edf/stdlib/src/stdstring.cpp:15
		input /= base;
    8704:	e51b1020 	ldr	r1, [fp, #-32]	; 0xffffffe0
    8708:	e51b0018 	ldr	r0, [fp, #-24]	; 0xffffffe8
    870c:	eb000113 	bl	8b60 <__udivsi3>
    8710:	e1a03000 	mov	r3, r0
    8714:	e50b3018 	str	r3, [fp, #-24]	; 0xffffffe8
/mnt/c/Users/Kuba/Documents/ZeroMate/examples/18-edf/stdlib/src/stdstring.cpp:16
		i++;
    8718:	e51b3008 	ldr	r3, [fp, #-8]
    871c:	e2833001 	add	r3, r3, #1
    8720:	e50b3008 	str	r3, [fp, #-8]
/mnt/c/Users/Kuba/Documents/ZeroMate/examples/18-edf/stdlib/src/stdstring.cpp:12
	while (input > 0)
    8724:	eaffffe7 	b	86c8 <_Z4itoajPcj+0x20>
/mnt/c/Users/Kuba/Documents/ZeroMate/examples/18-edf/stdlib/src/stdstring.cpp:19
	}

    if (i == 0)
    8728:	e51b3008 	ldr	r3, [fp, #-8]
    872c:	e3530000 	cmp	r3, #0
    8730:	1a000007 	bne	8754 <_Z4itoajPcj+0xac>
/mnt/c/Users/Kuba/Documents/ZeroMate/examples/18-edf/stdlib/src/stdstring.cpp:21
    {
        output[i] = CharConvArr[0];
    8734:	e51b3008 	ldr	r3, [fp, #-8]
    8738:	e51b201c 	ldr	r2, [fp, #-28]	; 0xffffffe4
    873c:	e0823003 	add	r3, r2, r3
    8740:	e3a02030 	mov	r2, #48	; 0x30
    8744:	e5c32000 	strb	r2, [r3]
/mnt/c/Users/Kuba/Documents/ZeroMate/examples/18-edf/stdlib/src/stdstring.cpp:22
        i++;
    8748:	e51b3008 	ldr	r3, [fp, #-8]
    874c:	e2833001 	add	r3, r3, #1
    8750:	e50b3008 	str	r3, [fp, #-8]
/mnt/c/Users/Kuba/Documents/ZeroMate/examples/18-edf/stdlib/src/stdstring.cpp:25
    }

	output[i] = '\0';
    8754:	e51b3008 	ldr	r3, [fp, #-8]
    8758:	e51b201c 	ldr	r2, [fp, #-28]	; 0xffffffe4
    875c:	e0823003 	add	r3, r2, r3
    8760:	e3a02000 	mov	r2, #0
    8764:	e5c32000 	strb	r2, [r3]
/mnt/c/Users/Kuba/Documents/ZeroMate/examples/18-edf/stdlib/src/stdstring.cpp:26
	i--;
    8768:	e51b3008 	ldr	r3, [fp, #-8]
    876c:	e2433001 	sub	r3, r3, #1
    8770:	e50b3008 	str	r3, [fp, #-8]
/mnt/c/Users/Kuba/Documents/ZeroMate/examples/18-edf/stdlib/src/stdstring.cpp:28

	for (int j = 0; j <= i/2; j++)
    8774:	e3a03000 	mov	r3, #0
    8778:	e50b300c 	str	r3, [fp, #-12]
/mnt/c/Users/Kuba/Documents/ZeroMate/examples/18-edf/stdlib/src/stdstring.cpp:28 (discriminator 3)
    877c:	e51b3008 	ldr	r3, [fp, #-8]
    8780:	e1a02fa3 	lsr	r2, r3, #31
    8784:	e0823003 	add	r3, r2, r3
    8788:	e1a030c3 	asr	r3, r3, #1
    878c:	e1a02003 	mov	r2, r3
    8790:	e51b300c 	ldr	r3, [fp, #-12]
    8794:	e1530002 	cmp	r3, r2
    8798:	ca00001b 	bgt	880c <_Z4itoajPcj+0x164>
/mnt/c/Users/Kuba/Documents/ZeroMate/examples/18-edf/stdlib/src/stdstring.cpp:30 (discriminator 2)
	{
		char c = output[i - j];
    879c:	e51b2008 	ldr	r2, [fp, #-8]
    87a0:	e51b300c 	ldr	r3, [fp, #-12]
    87a4:	e0423003 	sub	r3, r2, r3
    87a8:	e1a02003 	mov	r2, r3
    87ac:	e51b301c 	ldr	r3, [fp, #-28]	; 0xffffffe4
    87b0:	e0833002 	add	r3, r3, r2
    87b4:	e5d33000 	ldrb	r3, [r3]
    87b8:	e54b300d 	strb	r3, [fp, #-13]
/mnt/c/Users/Kuba/Documents/ZeroMate/examples/18-edf/stdlib/src/stdstring.cpp:31 (discriminator 2)
		output[i - j] = output[j];
    87bc:	e51b300c 	ldr	r3, [fp, #-12]
    87c0:	e51b201c 	ldr	r2, [fp, #-28]	; 0xffffffe4
    87c4:	e0822003 	add	r2, r2, r3
    87c8:	e51b1008 	ldr	r1, [fp, #-8]
    87cc:	e51b300c 	ldr	r3, [fp, #-12]
    87d0:	e0413003 	sub	r3, r1, r3
    87d4:	e1a01003 	mov	r1, r3
    87d8:	e51b301c 	ldr	r3, [fp, #-28]	; 0xffffffe4
    87dc:	e0833001 	add	r3, r3, r1
    87e0:	e5d22000 	ldrb	r2, [r2]
    87e4:	e5c32000 	strb	r2, [r3]
/mnt/c/Users/Kuba/Documents/ZeroMate/examples/18-edf/stdlib/src/stdstring.cpp:32 (discriminator 2)
		output[j] = c;
    87e8:	e51b300c 	ldr	r3, [fp, #-12]
    87ec:	e51b201c 	ldr	r2, [fp, #-28]	; 0xffffffe4
    87f0:	e0823003 	add	r3, r2, r3
    87f4:	e55b200d 	ldrb	r2, [fp, #-13]
    87f8:	e5c32000 	strb	r2, [r3]
/mnt/c/Users/Kuba/Documents/ZeroMate/examples/18-edf/stdlib/src/stdstring.cpp:28 (discriminator 2)
	for (int j = 0; j <= i/2; j++)
    87fc:	e51b300c 	ldr	r3, [fp, #-12]
    8800:	e2833001 	add	r3, r3, #1
    8804:	e50b300c 	str	r3, [fp, #-12]
    8808:	eaffffdb 	b	877c <_Z4itoajPcj+0xd4>
/mnt/c/Users/Kuba/Documents/ZeroMate/examples/18-edf/stdlib/src/stdstring.cpp:34
	}
}
    880c:	e320f000 	nop	{0}
    8810:	e24bd004 	sub	sp, fp, #4
    8814:	e8bd8800 	pop	{fp, pc}
    8818:	00008dd4 	ldrdeq	r8, [r0], -r4

0000881c <_Z4atoiPKc>:
_Z4atoiPKc():
/mnt/c/Users/Kuba/Documents/ZeroMate/examples/18-edf/stdlib/src/stdstring.cpp:37

int atoi(const char* input)
{
    881c:	e52db004 	push	{fp}		; (str fp, [sp, #-4]!)
    8820:	e28db000 	add	fp, sp, #0
    8824:	e24dd014 	sub	sp, sp, #20
    8828:	e50b0010 	str	r0, [fp, #-16]
/mnt/c/Users/Kuba/Documents/ZeroMate/examples/18-edf/stdlib/src/stdstring.cpp:38
	int output = 0;
    882c:	e3a03000 	mov	r3, #0
    8830:	e50b3008 	str	r3, [fp, #-8]
/mnt/c/Users/Kuba/Documents/ZeroMate/examples/18-edf/stdlib/src/stdstring.cpp:40

	while (*input != '\0')
    8834:	e51b3010 	ldr	r3, [fp, #-16]
    8838:	e5d33000 	ldrb	r3, [r3]
    883c:	e3530000 	cmp	r3, #0
    8840:	0a000017 	beq	88a4 <_Z4atoiPKc+0x88>
/mnt/c/Users/Kuba/Documents/ZeroMate/examples/18-edf/stdlib/src/stdstring.cpp:42
	{
		output *= 10;
    8844:	e51b2008 	ldr	r2, [fp, #-8]
    8848:	e1a03002 	mov	r3, r2
    884c:	e1a03103 	lsl	r3, r3, #2
    8850:	e0833002 	add	r3, r3, r2
    8854:	e1a03083 	lsl	r3, r3, #1
    8858:	e50b3008 	str	r3, [fp, #-8]
/mnt/c/Users/Kuba/Documents/ZeroMate/examples/18-edf/stdlib/src/stdstring.cpp:43
		if (*input > '9' || *input < '0')
    885c:	e51b3010 	ldr	r3, [fp, #-16]
    8860:	e5d33000 	ldrb	r3, [r3]
    8864:	e3530039 	cmp	r3, #57	; 0x39
    8868:	8a00000d 	bhi	88a4 <_Z4atoiPKc+0x88>
/mnt/c/Users/Kuba/Documents/ZeroMate/examples/18-edf/stdlib/src/stdstring.cpp:43 (discriminator 1)
    886c:	e51b3010 	ldr	r3, [fp, #-16]
    8870:	e5d33000 	ldrb	r3, [r3]
    8874:	e353002f 	cmp	r3, #47	; 0x2f
    8878:	9a000009 	bls	88a4 <_Z4atoiPKc+0x88>
/mnt/c/Users/Kuba/Documents/ZeroMate/examples/18-edf/stdlib/src/stdstring.cpp:46
			break;

		output += *input - '0';
    887c:	e51b3010 	ldr	r3, [fp, #-16]
    8880:	e5d33000 	ldrb	r3, [r3]
    8884:	e2433030 	sub	r3, r3, #48	; 0x30
    8888:	e51b2008 	ldr	r2, [fp, #-8]
    888c:	e0823003 	add	r3, r2, r3
    8890:	e50b3008 	str	r3, [fp, #-8]
/mnt/c/Users/Kuba/Documents/ZeroMate/examples/18-edf/stdlib/src/stdstring.cpp:48

		input++;
    8894:	e51b3010 	ldr	r3, [fp, #-16]
    8898:	e2833001 	add	r3, r3, #1
    889c:	e50b3010 	str	r3, [fp, #-16]
/mnt/c/Users/Kuba/Documents/ZeroMate/examples/18-edf/stdlib/src/stdstring.cpp:40
	while (*input != '\0')
    88a0:	eaffffe3 	b	8834 <_Z4atoiPKc+0x18>
/mnt/c/Users/Kuba/Documents/ZeroMate/examples/18-edf/stdlib/src/stdstring.cpp:51
	}

	return output;
    88a4:	e51b3008 	ldr	r3, [fp, #-8]
/mnt/c/Users/Kuba/Documents/ZeroMate/examples/18-edf/stdlib/src/stdstring.cpp:52
}
    88a8:	e1a00003 	mov	r0, r3
    88ac:	e28bd000 	add	sp, fp, #0
    88b0:	e49db004 	pop	{fp}		; (ldr fp, [sp], #4)
    88b4:	e12fff1e 	bx	lr

000088b8 <_Z7strncpyPcPKci>:
_Z7strncpyPcPKci():
/mnt/c/Users/Kuba/Documents/ZeroMate/examples/18-edf/stdlib/src/stdstring.cpp:55

char* strncpy(char* dest, const char *src, int num)
{
    88b8:	e52db004 	push	{fp}		; (str fp, [sp, #-4]!)
    88bc:	e28db000 	add	fp, sp, #0
    88c0:	e24dd01c 	sub	sp, sp, #28
    88c4:	e50b0010 	str	r0, [fp, #-16]
    88c8:	e50b1014 	str	r1, [fp, #-20]	; 0xffffffec
    88cc:	e50b2018 	str	r2, [fp, #-24]	; 0xffffffe8
/mnt/c/Users/Kuba/Documents/ZeroMate/examples/18-edf/stdlib/src/stdstring.cpp:58
	int i;

	for (i = 0; i < num && src[i] != '\0'; i++)
    88d0:	e3a03000 	mov	r3, #0
    88d4:	e50b3008 	str	r3, [fp, #-8]
/mnt/c/Users/Kuba/Documents/ZeroMate/examples/18-edf/stdlib/src/stdstring.cpp:58 (discriminator 4)
    88d8:	e51b2008 	ldr	r2, [fp, #-8]
    88dc:	e51b3018 	ldr	r3, [fp, #-24]	; 0xffffffe8
    88e0:	e1520003 	cmp	r2, r3
    88e4:	aa000011 	bge	8930 <_Z7strncpyPcPKci+0x78>
/mnt/c/Users/Kuba/Documents/ZeroMate/examples/18-edf/stdlib/src/stdstring.cpp:58 (discriminator 2)
    88e8:	e51b3008 	ldr	r3, [fp, #-8]
    88ec:	e51b2014 	ldr	r2, [fp, #-20]	; 0xffffffec
    88f0:	e0823003 	add	r3, r2, r3
    88f4:	e5d33000 	ldrb	r3, [r3]
    88f8:	e3530000 	cmp	r3, #0
    88fc:	0a00000b 	beq	8930 <_Z7strncpyPcPKci+0x78>
/mnt/c/Users/Kuba/Documents/ZeroMate/examples/18-edf/stdlib/src/stdstring.cpp:59 (discriminator 3)
		dest[i] = src[i];
    8900:	e51b3008 	ldr	r3, [fp, #-8]
    8904:	e51b2014 	ldr	r2, [fp, #-20]	; 0xffffffec
    8908:	e0822003 	add	r2, r2, r3
    890c:	e51b3008 	ldr	r3, [fp, #-8]
    8910:	e51b1010 	ldr	r1, [fp, #-16]
    8914:	e0813003 	add	r3, r1, r3
    8918:	e5d22000 	ldrb	r2, [r2]
    891c:	e5c32000 	strb	r2, [r3]
/mnt/c/Users/Kuba/Documents/ZeroMate/examples/18-edf/stdlib/src/stdstring.cpp:58 (discriminator 3)
	for (i = 0; i < num && src[i] != '\0'; i++)
    8920:	e51b3008 	ldr	r3, [fp, #-8]
    8924:	e2833001 	add	r3, r3, #1
    8928:	e50b3008 	str	r3, [fp, #-8]
    892c:	eaffffe9 	b	88d8 <_Z7strncpyPcPKci+0x20>
/mnt/c/Users/Kuba/Documents/ZeroMate/examples/18-edf/stdlib/src/stdstring.cpp:60 (discriminator 2)
	for (; i < num; i++)
    8930:	e51b2008 	ldr	r2, [fp, #-8]
    8934:	e51b3018 	ldr	r3, [fp, #-24]	; 0xffffffe8
    8938:	e1520003 	cmp	r2, r3
    893c:	aa000008 	bge	8964 <_Z7strncpyPcPKci+0xac>
/mnt/c/Users/Kuba/Documents/ZeroMate/examples/18-edf/stdlib/src/stdstring.cpp:61 (discriminator 1)
		dest[i] = '\0';
    8940:	e51b3008 	ldr	r3, [fp, #-8]
    8944:	e51b2010 	ldr	r2, [fp, #-16]
    8948:	e0823003 	add	r3, r2, r3
    894c:	e3a02000 	mov	r2, #0
    8950:	e5c32000 	strb	r2, [r3]
/mnt/c/Users/Kuba/Documents/ZeroMate/examples/18-edf/stdlib/src/stdstring.cpp:60 (discriminator 1)
	for (; i < num; i++)
    8954:	e51b3008 	ldr	r3, [fp, #-8]
    8958:	e2833001 	add	r3, r3, #1
    895c:	e50b3008 	str	r3, [fp, #-8]
    8960:	eafffff2 	b	8930 <_Z7strncpyPcPKci+0x78>
/mnt/c/Users/Kuba/Documents/ZeroMate/examples/18-edf/stdlib/src/stdstring.cpp:63

   return dest;
    8964:	e51b3010 	ldr	r3, [fp, #-16]
/mnt/c/Users/Kuba/Documents/ZeroMate/examples/18-edf/stdlib/src/stdstring.cpp:64
}
    8968:	e1a00003 	mov	r0, r3
    896c:	e28bd000 	add	sp, fp, #0
    8970:	e49db004 	pop	{fp}		; (ldr fp, [sp], #4)
    8974:	e12fff1e 	bx	lr

00008978 <_Z7strncmpPKcS0_i>:
_Z7strncmpPKcS0_i():
/mnt/c/Users/Kuba/Documents/ZeroMate/examples/18-edf/stdlib/src/stdstring.cpp:67

int strncmp(const char *s1, const char *s2, int num)
{
    8978:	e52db004 	push	{fp}		; (str fp, [sp, #-4]!)
    897c:	e28db000 	add	fp, sp, #0
    8980:	e24dd01c 	sub	sp, sp, #28
    8984:	e50b0010 	str	r0, [fp, #-16]
    8988:	e50b1014 	str	r1, [fp, #-20]	; 0xffffffec
    898c:	e50b2018 	str	r2, [fp, #-24]	; 0xffffffe8
/mnt/c/Users/Kuba/Documents/ZeroMate/examples/18-edf/stdlib/src/stdstring.cpp:69
	unsigned char u1, u2;
  	while (num-- > 0)
    8990:	e51b3018 	ldr	r3, [fp, #-24]	; 0xffffffe8
    8994:	e2432001 	sub	r2, r3, #1
    8998:	e50b2018 	str	r2, [fp, #-24]	; 0xffffffe8
    899c:	e3530000 	cmp	r3, #0
    89a0:	c3a03001 	movgt	r3, #1
    89a4:	d3a03000 	movle	r3, #0
    89a8:	e6ef3073 	uxtb	r3, r3
    89ac:	e3530000 	cmp	r3, #0
    89b0:	0a000016 	beq	8a10 <_Z7strncmpPKcS0_i+0x98>
/mnt/c/Users/Kuba/Documents/ZeroMate/examples/18-edf/stdlib/src/stdstring.cpp:71
    {
      	u1 = (unsigned char) *s1++;
    89b4:	e51b3010 	ldr	r3, [fp, #-16]
    89b8:	e2832001 	add	r2, r3, #1
    89bc:	e50b2010 	str	r2, [fp, #-16]
    89c0:	e5d33000 	ldrb	r3, [r3]
    89c4:	e54b3005 	strb	r3, [fp, #-5]
/mnt/c/Users/Kuba/Documents/ZeroMate/examples/18-edf/stdlib/src/stdstring.cpp:72
     	u2 = (unsigned char) *s2++;
    89c8:	e51b3014 	ldr	r3, [fp, #-20]	; 0xffffffec
    89cc:	e2832001 	add	r2, r3, #1
    89d0:	e50b2014 	str	r2, [fp, #-20]	; 0xffffffec
    89d4:	e5d33000 	ldrb	r3, [r3]
    89d8:	e54b3006 	strb	r3, [fp, #-6]
/mnt/c/Users/Kuba/Documents/ZeroMate/examples/18-edf/stdlib/src/stdstring.cpp:73
      	if (u1 != u2)
    89dc:	e55b2005 	ldrb	r2, [fp, #-5]
    89e0:	e55b3006 	ldrb	r3, [fp, #-6]
    89e4:	e1520003 	cmp	r2, r3
    89e8:	0a000003 	beq	89fc <_Z7strncmpPKcS0_i+0x84>
/mnt/c/Users/Kuba/Documents/ZeroMate/examples/18-edf/stdlib/src/stdstring.cpp:74
        	return u1 - u2;
    89ec:	e55b2005 	ldrb	r2, [fp, #-5]
    89f0:	e55b3006 	ldrb	r3, [fp, #-6]
    89f4:	e0423003 	sub	r3, r2, r3
    89f8:	ea000005 	b	8a14 <_Z7strncmpPKcS0_i+0x9c>
/mnt/c/Users/Kuba/Documents/ZeroMate/examples/18-edf/stdlib/src/stdstring.cpp:75
      	if (u1 == '\0')
    89fc:	e55b3005 	ldrb	r3, [fp, #-5]
    8a00:	e3530000 	cmp	r3, #0
    8a04:	1affffe1 	bne	8990 <_Z7strncmpPKcS0_i+0x18>
/mnt/c/Users/Kuba/Documents/ZeroMate/examples/18-edf/stdlib/src/stdstring.cpp:76
        	return 0;
    8a08:	e3a03000 	mov	r3, #0
    8a0c:	ea000000 	b	8a14 <_Z7strncmpPKcS0_i+0x9c>
/mnt/c/Users/Kuba/Documents/ZeroMate/examples/18-edf/stdlib/src/stdstring.cpp:79
    }

  	return 0;
    8a10:	e3a03000 	mov	r3, #0
/mnt/c/Users/Kuba/Documents/ZeroMate/examples/18-edf/stdlib/src/stdstring.cpp:80
}
    8a14:	e1a00003 	mov	r0, r3
    8a18:	e28bd000 	add	sp, fp, #0
    8a1c:	e49db004 	pop	{fp}		; (ldr fp, [sp], #4)
    8a20:	e12fff1e 	bx	lr

00008a24 <_Z6strlenPKc>:
_Z6strlenPKc():
/mnt/c/Users/Kuba/Documents/ZeroMate/examples/18-edf/stdlib/src/stdstring.cpp:83

int strlen(const char* s)
{
    8a24:	e52db004 	push	{fp}		; (str fp, [sp, #-4]!)
    8a28:	e28db000 	add	fp, sp, #0
    8a2c:	e24dd014 	sub	sp, sp, #20
    8a30:	e50b0010 	str	r0, [fp, #-16]
/mnt/c/Users/Kuba/Documents/ZeroMate/examples/18-edf/stdlib/src/stdstring.cpp:84
	int i = 0;
    8a34:	e3a03000 	mov	r3, #0
    8a38:	e50b3008 	str	r3, [fp, #-8]
/mnt/c/Users/Kuba/Documents/ZeroMate/examples/18-edf/stdlib/src/stdstring.cpp:86

	while (s[i] != '\0')
    8a3c:	e51b3008 	ldr	r3, [fp, #-8]
    8a40:	e51b2010 	ldr	r2, [fp, #-16]
    8a44:	e0823003 	add	r3, r2, r3
    8a48:	e5d33000 	ldrb	r3, [r3]
    8a4c:	e3530000 	cmp	r3, #0
    8a50:	0a000003 	beq	8a64 <_Z6strlenPKc+0x40>
/mnt/c/Users/Kuba/Documents/ZeroMate/examples/18-edf/stdlib/src/stdstring.cpp:87
		i++;
    8a54:	e51b3008 	ldr	r3, [fp, #-8]
    8a58:	e2833001 	add	r3, r3, #1
    8a5c:	e50b3008 	str	r3, [fp, #-8]
/mnt/c/Users/Kuba/Documents/ZeroMate/examples/18-edf/stdlib/src/stdstring.cpp:86
	while (s[i] != '\0')
    8a60:	eafffff5 	b	8a3c <_Z6strlenPKc+0x18>
/mnt/c/Users/Kuba/Documents/ZeroMate/examples/18-edf/stdlib/src/stdstring.cpp:89

	return i;
    8a64:	e51b3008 	ldr	r3, [fp, #-8]
/mnt/c/Users/Kuba/Documents/ZeroMate/examples/18-edf/stdlib/src/stdstring.cpp:90
}
    8a68:	e1a00003 	mov	r0, r3
    8a6c:	e28bd000 	add	sp, fp, #0
    8a70:	e49db004 	pop	{fp}		; (ldr fp, [sp], #4)
    8a74:	e12fff1e 	bx	lr

00008a78 <_Z5bzeroPvi>:
_Z5bzeroPvi():
/mnt/c/Users/Kuba/Documents/ZeroMate/examples/18-edf/stdlib/src/stdstring.cpp:93

void bzero(void* memory, int length)
{
    8a78:	e52db004 	push	{fp}		; (str fp, [sp, #-4]!)
    8a7c:	e28db000 	add	fp, sp, #0
    8a80:	e24dd014 	sub	sp, sp, #20
    8a84:	e50b0010 	str	r0, [fp, #-16]
    8a88:	e50b1014 	str	r1, [fp, #-20]	; 0xffffffec
/mnt/c/Users/Kuba/Documents/ZeroMate/examples/18-edf/stdlib/src/stdstring.cpp:94
	char* mem = reinterpret_cast<char*>(memory);
    8a8c:	e51b3010 	ldr	r3, [fp, #-16]
    8a90:	e50b300c 	str	r3, [fp, #-12]
/mnt/c/Users/Kuba/Documents/ZeroMate/examples/18-edf/stdlib/src/stdstring.cpp:96

	for (int i = 0; i < length; i++)
    8a94:	e3a03000 	mov	r3, #0
    8a98:	e50b3008 	str	r3, [fp, #-8]
/mnt/c/Users/Kuba/Documents/ZeroMate/examples/18-edf/stdlib/src/stdstring.cpp:96 (discriminator 3)
    8a9c:	e51b2008 	ldr	r2, [fp, #-8]
    8aa0:	e51b3014 	ldr	r3, [fp, #-20]	; 0xffffffec
    8aa4:	e1520003 	cmp	r2, r3
    8aa8:	aa000008 	bge	8ad0 <_Z5bzeroPvi+0x58>
/mnt/c/Users/Kuba/Documents/ZeroMate/examples/18-edf/stdlib/src/stdstring.cpp:97 (discriminator 2)
		mem[i] = 0;
    8aac:	e51b3008 	ldr	r3, [fp, #-8]
    8ab0:	e51b200c 	ldr	r2, [fp, #-12]
    8ab4:	e0823003 	add	r3, r2, r3
    8ab8:	e3a02000 	mov	r2, #0
    8abc:	e5c32000 	strb	r2, [r3]
/mnt/c/Users/Kuba/Documents/ZeroMate/examples/18-edf/stdlib/src/stdstring.cpp:96 (discriminator 2)
	for (int i = 0; i < length; i++)
    8ac0:	e51b3008 	ldr	r3, [fp, #-8]
    8ac4:	e2833001 	add	r3, r3, #1
    8ac8:	e50b3008 	str	r3, [fp, #-8]
    8acc:	eafffff2 	b	8a9c <_Z5bzeroPvi+0x24>
/mnt/c/Users/Kuba/Documents/ZeroMate/examples/18-edf/stdlib/src/stdstring.cpp:98
}
    8ad0:	e320f000 	nop	{0}
    8ad4:	e28bd000 	add	sp, fp, #0
    8ad8:	e49db004 	pop	{fp}		; (ldr fp, [sp], #4)
    8adc:	e12fff1e 	bx	lr

00008ae0 <_Z6memcpyPKvPvi>:
_Z6memcpyPKvPvi():
/mnt/c/Users/Kuba/Documents/ZeroMate/examples/18-edf/stdlib/src/stdstring.cpp:101

void memcpy(const void* src, void* dst, int num)
{
    8ae0:	e52db004 	push	{fp}		; (str fp, [sp, #-4]!)
    8ae4:	e28db000 	add	fp, sp, #0
    8ae8:	e24dd024 	sub	sp, sp, #36	; 0x24
    8aec:	e50b0018 	str	r0, [fp, #-24]	; 0xffffffe8
    8af0:	e50b101c 	str	r1, [fp, #-28]	; 0xffffffe4
    8af4:	e50b2020 	str	r2, [fp, #-32]	; 0xffffffe0
/mnt/c/Users/Kuba/Documents/ZeroMate/examples/18-edf/stdlib/src/stdstring.cpp:102
	const char* memsrc = reinterpret_cast<const char*>(src);
    8af8:	e51b3018 	ldr	r3, [fp, #-24]	; 0xffffffe8
    8afc:	e50b300c 	str	r3, [fp, #-12]
/mnt/c/Users/Kuba/Documents/ZeroMate/examples/18-edf/stdlib/src/stdstring.cpp:103
	char* memdst = reinterpret_cast<char*>(dst);
    8b00:	e51b301c 	ldr	r3, [fp, #-28]	; 0xffffffe4
    8b04:	e50b3010 	str	r3, [fp, #-16]
/mnt/c/Users/Kuba/Documents/ZeroMate/examples/18-edf/stdlib/src/stdstring.cpp:105

	for (int i = 0; i < num; i++)
    8b08:	e3a03000 	mov	r3, #0
    8b0c:	e50b3008 	str	r3, [fp, #-8]
/mnt/c/Users/Kuba/Documents/ZeroMate/examples/18-edf/stdlib/src/stdstring.cpp:105 (discriminator 3)
    8b10:	e51b2008 	ldr	r2, [fp, #-8]
    8b14:	e51b3020 	ldr	r3, [fp, #-32]	; 0xffffffe0
    8b18:	e1520003 	cmp	r2, r3
    8b1c:	aa00000b 	bge	8b50 <_Z6memcpyPKvPvi+0x70>
/mnt/c/Users/Kuba/Documents/ZeroMate/examples/18-edf/stdlib/src/stdstring.cpp:106 (discriminator 2)
		memdst[i] = memsrc[i];
    8b20:	e51b3008 	ldr	r3, [fp, #-8]
    8b24:	e51b200c 	ldr	r2, [fp, #-12]
    8b28:	e0822003 	add	r2, r2, r3
    8b2c:	e51b3008 	ldr	r3, [fp, #-8]
    8b30:	e51b1010 	ldr	r1, [fp, #-16]
    8b34:	e0813003 	add	r3, r1, r3
    8b38:	e5d22000 	ldrb	r2, [r2]
    8b3c:	e5c32000 	strb	r2, [r3]
/mnt/c/Users/Kuba/Documents/ZeroMate/examples/18-edf/stdlib/src/stdstring.cpp:105 (discriminator 2)
	for (int i = 0; i < num; i++)
    8b40:	e51b3008 	ldr	r3, [fp, #-8]
    8b44:	e2833001 	add	r3, r3, #1
    8b48:	e50b3008 	str	r3, [fp, #-8]
    8b4c:	eaffffef 	b	8b10 <_Z6memcpyPKvPvi+0x30>
/mnt/c/Users/Kuba/Documents/ZeroMate/examples/18-edf/stdlib/src/stdstring.cpp:107
}
    8b50:	e320f000 	nop	{0}
    8b54:	e28bd000 	add	sp, fp, #0
    8b58:	e49db004 	pop	{fp}		; (ldr fp, [sp], #4)
    8b5c:	e12fff1e 	bx	lr

00008b60 <__udivsi3>:
__udivsi3():
/build/gcc-arm-none-eabi-hYfgK4/gcc-arm-none-eabi-10.3-2021.07/build/arm-none-eabi/arm/v5te/hard/libgcc/../../../../../../libgcc/config/arm/lib1funcs.S:1104
    8b60:	e2512001 	subs	r2, r1, #1
/build/gcc-arm-none-eabi-hYfgK4/gcc-arm-none-eabi-10.3-2021.07/build/arm-none-eabi/arm/v5te/hard/libgcc/../../../../../../libgcc/config/arm/lib1funcs.S:1106
    8b64:	012fff1e 	bxeq	lr
/build/gcc-arm-none-eabi-hYfgK4/gcc-arm-none-eabi-10.3-2021.07/build/arm-none-eabi/arm/v5te/hard/libgcc/../../../../../../libgcc/config/arm/lib1funcs.S:1107
    8b68:	3a000074 	bcc	8d40 <__udivsi3+0x1e0>
/build/gcc-arm-none-eabi-hYfgK4/gcc-arm-none-eabi-10.3-2021.07/build/arm-none-eabi/arm/v5te/hard/libgcc/../../../../../../libgcc/config/arm/lib1funcs.S:1108
    8b6c:	e1500001 	cmp	r0, r1
/build/gcc-arm-none-eabi-hYfgK4/gcc-arm-none-eabi-10.3-2021.07/build/arm-none-eabi/arm/v5te/hard/libgcc/../../../../../../libgcc/config/arm/lib1funcs.S:1109
    8b70:	9a00006b 	bls	8d24 <__udivsi3+0x1c4>
/build/gcc-arm-none-eabi-hYfgK4/gcc-arm-none-eabi-10.3-2021.07/build/arm-none-eabi/arm/v5te/hard/libgcc/../../../../../../libgcc/config/arm/lib1funcs.S:1110
    8b74:	e1110002 	tst	r1, r2
/build/gcc-arm-none-eabi-hYfgK4/gcc-arm-none-eabi-10.3-2021.07/build/arm-none-eabi/arm/v5te/hard/libgcc/../../../../../../libgcc/config/arm/lib1funcs.S:1111
    8b78:	0a00006c 	beq	8d30 <__udivsi3+0x1d0>
/build/gcc-arm-none-eabi-hYfgK4/gcc-arm-none-eabi-10.3-2021.07/build/arm-none-eabi/arm/v5te/hard/libgcc/../../../../../../libgcc/config/arm/lib1funcs.S:1113
    8b7c:	e16f3f10 	clz	r3, r0
    8b80:	e16f2f11 	clz	r2, r1
    8b84:	e0423003 	sub	r3, r2, r3
    8b88:	e273301f 	rsbs	r3, r3, #31
    8b8c:	10833083 	addne	r3, r3, r3, lsl #1
    8b90:	e3a02000 	mov	r2, #0
    8b94:	108ff103 	addne	pc, pc, r3, lsl #2
    8b98:	e1a00000 	nop			; (mov r0, r0)
    8b9c:	e1500f81 	cmp	r0, r1, lsl #31
    8ba0:	e0a22002 	adc	r2, r2, r2
    8ba4:	20400f81 	subcs	r0, r0, r1, lsl #31
    8ba8:	e1500f01 	cmp	r0, r1, lsl #30
    8bac:	e0a22002 	adc	r2, r2, r2
    8bb0:	20400f01 	subcs	r0, r0, r1, lsl #30
    8bb4:	e1500e81 	cmp	r0, r1, lsl #29
    8bb8:	e0a22002 	adc	r2, r2, r2
    8bbc:	20400e81 	subcs	r0, r0, r1, lsl #29
    8bc0:	e1500e01 	cmp	r0, r1, lsl #28
    8bc4:	e0a22002 	adc	r2, r2, r2
    8bc8:	20400e01 	subcs	r0, r0, r1, lsl #28
    8bcc:	e1500d81 	cmp	r0, r1, lsl #27
    8bd0:	e0a22002 	adc	r2, r2, r2
    8bd4:	20400d81 	subcs	r0, r0, r1, lsl #27
    8bd8:	e1500d01 	cmp	r0, r1, lsl #26
    8bdc:	e0a22002 	adc	r2, r2, r2
    8be0:	20400d01 	subcs	r0, r0, r1, lsl #26
    8be4:	e1500c81 	cmp	r0, r1, lsl #25
    8be8:	e0a22002 	adc	r2, r2, r2
    8bec:	20400c81 	subcs	r0, r0, r1, lsl #25
    8bf0:	e1500c01 	cmp	r0, r1, lsl #24
    8bf4:	e0a22002 	adc	r2, r2, r2
    8bf8:	20400c01 	subcs	r0, r0, r1, lsl #24
    8bfc:	e1500b81 	cmp	r0, r1, lsl #23
    8c00:	e0a22002 	adc	r2, r2, r2
    8c04:	20400b81 	subcs	r0, r0, r1, lsl #23
    8c08:	e1500b01 	cmp	r0, r1, lsl #22
    8c0c:	e0a22002 	adc	r2, r2, r2
    8c10:	20400b01 	subcs	r0, r0, r1, lsl #22
    8c14:	e1500a81 	cmp	r0, r1, lsl #21
    8c18:	e0a22002 	adc	r2, r2, r2
    8c1c:	20400a81 	subcs	r0, r0, r1, lsl #21
    8c20:	e1500a01 	cmp	r0, r1, lsl #20
    8c24:	e0a22002 	adc	r2, r2, r2
    8c28:	20400a01 	subcs	r0, r0, r1, lsl #20
    8c2c:	e1500981 	cmp	r0, r1, lsl #19
    8c30:	e0a22002 	adc	r2, r2, r2
    8c34:	20400981 	subcs	r0, r0, r1, lsl #19
    8c38:	e1500901 	cmp	r0, r1, lsl #18
    8c3c:	e0a22002 	adc	r2, r2, r2
    8c40:	20400901 	subcs	r0, r0, r1, lsl #18
    8c44:	e1500881 	cmp	r0, r1, lsl #17
    8c48:	e0a22002 	adc	r2, r2, r2
    8c4c:	20400881 	subcs	r0, r0, r1, lsl #17
    8c50:	e1500801 	cmp	r0, r1, lsl #16
    8c54:	e0a22002 	adc	r2, r2, r2
    8c58:	20400801 	subcs	r0, r0, r1, lsl #16
    8c5c:	e1500781 	cmp	r0, r1, lsl #15
    8c60:	e0a22002 	adc	r2, r2, r2
    8c64:	20400781 	subcs	r0, r0, r1, lsl #15
    8c68:	e1500701 	cmp	r0, r1, lsl #14
    8c6c:	e0a22002 	adc	r2, r2, r2
    8c70:	20400701 	subcs	r0, r0, r1, lsl #14
    8c74:	e1500681 	cmp	r0, r1, lsl #13
    8c78:	e0a22002 	adc	r2, r2, r2
    8c7c:	20400681 	subcs	r0, r0, r1, lsl #13
    8c80:	e1500601 	cmp	r0, r1, lsl #12
    8c84:	e0a22002 	adc	r2, r2, r2
    8c88:	20400601 	subcs	r0, r0, r1, lsl #12
    8c8c:	e1500581 	cmp	r0, r1, lsl #11
    8c90:	e0a22002 	adc	r2, r2, r2
    8c94:	20400581 	subcs	r0, r0, r1, lsl #11
    8c98:	e1500501 	cmp	r0, r1, lsl #10
    8c9c:	e0a22002 	adc	r2, r2, r2
    8ca0:	20400501 	subcs	r0, r0, r1, lsl #10
    8ca4:	e1500481 	cmp	r0, r1, lsl #9
    8ca8:	e0a22002 	adc	r2, r2, r2
    8cac:	20400481 	subcs	r0, r0, r1, lsl #9
    8cb0:	e1500401 	cmp	r0, r1, lsl #8
    8cb4:	e0a22002 	adc	r2, r2, r2
    8cb8:	20400401 	subcs	r0, r0, r1, lsl #8
    8cbc:	e1500381 	cmp	r0, r1, lsl #7
    8cc0:	e0a22002 	adc	r2, r2, r2
    8cc4:	20400381 	subcs	r0, r0, r1, lsl #7
    8cc8:	e1500301 	cmp	r0, r1, lsl #6
    8ccc:	e0a22002 	adc	r2, r2, r2
    8cd0:	20400301 	subcs	r0, r0, r1, lsl #6
    8cd4:	e1500281 	cmp	r0, r1, lsl #5
    8cd8:	e0a22002 	adc	r2, r2, r2
    8cdc:	20400281 	subcs	r0, r0, r1, lsl #5
    8ce0:	e1500201 	cmp	r0, r1, lsl #4
    8ce4:	e0a22002 	adc	r2, r2, r2
    8ce8:	20400201 	subcs	r0, r0, r1, lsl #4
    8cec:	e1500181 	cmp	r0, r1, lsl #3
    8cf0:	e0a22002 	adc	r2, r2, r2
    8cf4:	20400181 	subcs	r0, r0, r1, lsl #3
    8cf8:	e1500101 	cmp	r0, r1, lsl #2
    8cfc:	e0a22002 	adc	r2, r2, r2
    8d00:	20400101 	subcs	r0, r0, r1, lsl #2
    8d04:	e1500081 	cmp	r0, r1, lsl #1
    8d08:	e0a22002 	adc	r2, r2, r2
    8d0c:	20400081 	subcs	r0, r0, r1, lsl #1
    8d10:	e1500001 	cmp	r0, r1
    8d14:	e0a22002 	adc	r2, r2, r2
    8d18:	20400001 	subcs	r0, r0, r1
/build/gcc-arm-none-eabi-hYfgK4/gcc-arm-none-eabi-10.3-2021.07/build/arm-none-eabi/arm/v5te/hard/libgcc/../../../../../../libgcc/config/arm/lib1funcs.S:1115
    8d1c:	e1a00002 	mov	r0, r2
/build/gcc-arm-none-eabi-hYfgK4/gcc-arm-none-eabi-10.3-2021.07/build/arm-none-eabi/arm/v5te/hard/libgcc/../../../../../../libgcc/config/arm/lib1funcs.S:1116
    8d20:	e12fff1e 	bx	lr
/build/gcc-arm-none-eabi-hYfgK4/gcc-arm-none-eabi-10.3-2021.07/build/arm-none-eabi/arm/v5te/hard/libgcc/../../../../../../libgcc/config/arm/lib1funcs.S:1119
    8d24:	03a00001 	moveq	r0, #1
/build/gcc-arm-none-eabi-hYfgK4/gcc-arm-none-eabi-10.3-2021.07/build/arm-none-eabi/arm/v5te/hard/libgcc/../../../../../../libgcc/config/arm/lib1funcs.S:1120
    8d28:	13a00000 	movne	r0, #0
/build/gcc-arm-none-eabi-hYfgK4/gcc-arm-none-eabi-10.3-2021.07/build/arm-none-eabi/arm/v5te/hard/libgcc/../../../../../../libgcc/config/arm/lib1funcs.S:1121
    8d2c:	e12fff1e 	bx	lr
/build/gcc-arm-none-eabi-hYfgK4/gcc-arm-none-eabi-10.3-2021.07/build/arm-none-eabi/arm/v5te/hard/libgcc/../../../../../../libgcc/config/arm/lib1funcs.S:1123
    8d30:	e16f2f11 	clz	r2, r1
    8d34:	e262201f 	rsb	r2, r2, #31
/build/gcc-arm-none-eabi-hYfgK4/gcc-arm-none-eabi-10.3-2021.07/build/arm-none-eabi/arm/v5te/hard/libgcc/../../../../../../libgcc/config/arm/lib1funcs.S:1125
    8d38:	e1a00230 	lsr	r0, r0, r2
/build/gcc-arm-none-eabi-hYfgK4/gcc-arm-none-eabi-10.3-2021.07/build/arm-none-eabi/arm/v5te/hard/libgcc/../../../../../../libgcc/config/arm/lib1funcs.S:1126
    8d3c:	e12fff1e 	bx	lr
/build/gcc-arm-none-eabi-hYfgK4/gcc-arm-none-eabi-10.3-2021.07/build/arm-none-eabi/arm/v5te/hard/libgcc/../../../../../../libgcc/config/arm/lib1funcs.S:1130
    8d40:	e3500000 	cmp	r0, #0
    8d44:	13e00000 	mvnne	r0, #0
    8d48:	ea000007 	b	8d6c <__aeabi_idiv0>

00008d4c <__aeabi_uidivmod>:
__aeabi_uidivmod():
/build/gcc-arm-none-eabi-hYfgK4/gcc-arm-none-eabi-10.3-2021.07/build/arm-none-eabi/arm/v5te/hard/libgcc/../../../../../../libgcc/config/arm/lib1funcs.S:1161
    8d4c:	e3510000 	cmp	r1, #0
/build/gcc-arm-none-eabi-hYfgK4/gcc-arm-none-eabi-10.3-2021.07/build/arm-none-eabi/arm/v5te/hard/libgcc/../../../../../../libgcc/config/arm/lib1funcs.S:1162
    8d50:	0afffffa 	beq	8d40 <__udivsi3+0x1e0>
/build/gcc-arm-none-eabi-hYfgK4/gcc-arm-none-eabi-10.3-2021.07/build/arm-none-eabi/arm/v5te/hard/libgcc/../../../../../../libgcc/config/arm/lib1funcs.S:1163
    8d54:	e92d4003 	push	{r0, r1, lr}
/build/gcc-arm-none-eabi-hYfgK4/gcc-arm-none-eabi-10.3-2021.07/build/arm-none-eabi/arm/v5te/hard/libgcc/../../../../../../libgcc/config/arm/lib1funcs.S:1164
    8d58:	ebffff80 	bl	8b60 <__udivsi3>
/build/gcc-arm-none-eabi-hYfgK4/gcc-arm-none-eabi-10.3-2021.07/build/arm-none-eabi/arm/v5te/hard/libgcc/../../../../../../libgcc/config/arm/lib1funcs.S:1165
    8d5c:	e8bd4006 	pop	{r1, r2, lr}
/build/gcc-arm-none-eabi-hYfgK4/gcc-arm-none-eabi-10.3-2021.07/build/arm-none-eabi/arm/v5te/hard/libgcc/../../../../../../libgcc/config/arm/lib1funcs.S:1166
    8d60:	e0030092 	mul	r3, r2, r0
/build/gcc-arm-none-eabi-hYfgK4/gcc-arm-none-eabi-10.3-2021.07/build/arm-none-eabi/arm/v5te/hard/libgcc/../../../../../../libgcc/config/arm/lib1funcs.S:1167
    8d64:	e0411003 	sub	r1, r1, r3
/build/gcc-arm-none-eabi-hYfgK4/gcc-arm-none-eabi-10.3-2021.07/build/arm-none-eabi/arm/v5te/hard/libgcc/../../../../../../libgcc/config/arm/lib1funcs.S:1168
    8d68:	e12fff1e 	bx	lr

00008d6c <__aeabi_idiv0>:
__aeabi_ldiv0():
/build/gcc-arm-none-eabi-hYfgK4/gcc-arm-none-eabi-10.3-2021.07/build/arm-none-eabi/arm/v5te/hard/libgcc/../../../../../../libgcc/config/arm/lib1funcs.S:1466
    8d6c:	e12fff1e 	bx	lr
