
./oled_task:     file format elf32-littlearm


Disassembly of section .text:

00008000 <_start>:
_start():
/mnt/c/Users/Kuba/Documents/ZeroMate/examples/18-edf/userspace/crt0.s:10
;@ startovaci symbol - vstupni bod z jadra OS do uzivatelskeho programu
;@ v podstate jen ihned zavola nejakou C funkci, nepotrebujeme nic tak kritickeho, abychom to vsechno museli psal v ASM
;@ jen _start vlastne ani neni funkce, takze by tento vstupni bod mel byt psany takto; rovnez je treba se ujistit, ze
;@ je tento symbol relokovany spravne na 0x8000 (tam OS ocekava, ze se nachazi vstupni bod)
_start:
    bl __crt0_run
    8000:	eb000017 	bl	8064 <__crt0_run>

00008004 <_hang>:
_hang():
/mnt/c/Users/Kuba/Documents/ZeroMate/examples/18-edf/userspace/crt0.s:13
    ;@ z funkce __crt0_run by se nemel proces uz vratit, ale kdyby neco, tak se zacyklime
_hang:
    b _hang
    8004:	eafffffe 	b	8004 <_hang>

00008008 <__crt0_init_bss>:
__crt0_init_bss():
/mnt/c/Users/Kuba/Documents/ZeroMate/examples/18-edf/userspace/crt0.c:10

extern unsigned int __bss_start;
extern unsigned int __bss_end;

void __crt0_init_bss()
{
    8008:	e52db004 	push	{fp}		; (str fp, [sp, #-4]!)
    800c:	e28db000 	add	fp, sp, #0
    8010:	e24dd00c 	sub	sp, sp, #12
/mnt/c/Users/Kuba/Documents/ZeroMate/examples/18-edf/userspace/crt0.c:11
    unsigned int* begin = (unsigned int*)&__bss_start;
    8014:	e59f3040 	ldr	r3, [pc, #64]	; 805c <__crt0_init_bss+0x54>
    8018:	e50b3008 	str	r3, [fp, #-8]
/mnt/c/Users/Kuba/Documents/ZeroMate/examples/18-edf/userspace/crt0.c:12
    for (; begin < (unsigned int*)&__bss_end; begin++)
    801c:	ea000005 	b	8038 <__crt0_init_bss+0x30>
/mnt/c/Users/Kuba/Documents/ZeroMate/examples/18-edf/userspace/crt0.c:13 (discriminator 2)
        *begin = 0;
    8020:	e51b3008 	ldr	r3, [fp, #-8]
    8024:	e3a02000 	mov	r2, #0
    8028:	e5832000 	str	r2, [r3]
/mnt/c/Users/Kuba/Documents/ZeroMate/examples/18-edf/userspace/crt0.c:12 (discriminator 2)
    for (; begin < (unsigned int*)&__bss_end; begin++)
    802c:	e51b3008 	ldr	r3, [fp, #-8]
    8030:	e2833004 	add	r3, r3, #4
    8034:	e50b3008 	str	r3, [fp, #-8]
/mnt/c/Users/Kuba/Documents/ZeroMate/examples/18-edf/userspace/crt0.c:12 (discriminator 1)
    8038:	e51b3008 	ldr	r3, [fp, #-8]
    803c:	e59f201c 	ldr	r2, [pc, #28]	; 8060 <__crt0_init_bss+0x58>
    8040:	e1530002 	cmp	r3, r2
    8044:	3afffff5 	bcc	8020 <__crt0_init_bss+0x18>
/mnt/c/Users/Kuba/Documents/ZeroMate/examples/18-edf/userspace/crt0.c:14
}
    8048:	e320f000 	nop	{0}
    804c:	e320f000 	nop	{0}
    8050:	e28bd000 	add	sp, fp, #0
    8054:	e49db004 	pop	{fp}		; (ldr fp, [sp], #4)
    8058:	e12fff1e 	bx	lr
    805c:	00009728 	andeq	r9, r0, r8, lsr #14
    8060:	00009738 	andeq	r9, r0, r8, lsr r7

00008064 <__crt0_run>:
__crt0_run():
/mnt/c/Users/Kuba/Documents/ZeroMate/examples/18-edf/userspace/crt0.c:17

void __crt0_run()
{
    8064:	e92d4800 	push	{fp, lr}
    8068:	e28db004 	add	fp, sp, #4
    806c:	e24dd008 	sub	sp, sp, #8
/mnt/c/Users/Kuba/Documents/ZeroMate/examples/18-edf/userspace/crt0.c:19
    // inicializace .bss sekce (vynulovani)
    __crt0_init_bss();
    8070:	ebffffe4 	bl	8008 <__crt0_init_bss>
/mnt/c/Users/Kuba/Documents/ZeroMate/examples/18-edf/userspace/crt0.c:22

    // volani konstruktoru globalnich trid (C++)
    _cpp_startup();
    8074:	eb000040 	bl	817c <_cpp_startup>
/mnt/c/Users/Kuba/Documents/ZeroMate/examples/18-edf/userspace/crt0.c:27

    // volani funkce main
    // nebudeme se zde zabyvat predavanim parametru do funkce main
    // jinak by se mohly predavat napr. namapovane do virtualniho adr. prostoru a odkazem pres zasobnik (kam nam muze OS pushnout co chce)
    int result = main(0, 0);
    8078:	e3a01000 	mov	r1, #0
    807c:	e3a00000 	mov	r0, #0
    8080:	eb000069 	bl	822c <main>
    8084:	e50b0008 	str	r0, [fp, #-8]
/mnt/c/Users/Kuba/Documents/ZeroMate/examples/18-edf/userspace/crt0.c:30

    // volani destruktoru globalnich trid (C++)
    _cpp_shutdown();
    8088:	eb000051 	bl	81d4 <_cpp_shutdown>
/mnt/c/Users/Kuba/Documents/ZeroMate/examples/18-edf/userspace/crt0.c:33

    // volani terminate() syscallu s navratovym kodem funkce main
    asm volatile("mov r0, %0" : : "r" (result));
    808c:	e51b3008 	ldr	r3, [fp, #-8]
    8090:	e1a00003 	mov	r0, r3
/mnt/c/Users/Kuba/Documents/ZeroMate/examples/18-edf/userspace/crt0.c:34
    asm volatile("svc #1");
    8094:	ef000001 	svc	0x00000001
/mnt/c/Users/Kuba/Documents/ZeroMate/examples/18-edf/userspace/crt0.c:35
}
    8098:	e320f000 	nop	{0}
    809c:	e24bd004 	sub	sp, fp, #4
    80a0:	e8bd8800 	pop	{fp, pc}

000080a4 <__cxa_guard_acquire>:
__cxa_guard_acquire():
/mnt/c/Users/Kuba/Documents/ZeroMate/examples/18-edf/userspace/cxxabi.cpp:11
	extern "C" int __cxa_guard_acquire (__guard *);
	extern "C" void __cxa_guard_release (__guard *);
	extern "C" void __cxa_guard_abort (__guard *);

	extern "C" int __cxa_guard_acquire (__guard *g)
	{
    80a4:	e52db004 	push	{fp}		; (str fp, [sp, #-4]!)
    80a8:	e28db000 	add	fp, sp, #0
    80ac:	e24dd00c 	sub	sp, sp, #12
    80b0:	e50b0008 	str	r0, [fp, #-8]
/mnt/c/Users/Kuba/Documents/ZeroMate/examples/18-edf/userspace/cxxabi.cpp:12
		return !*(char *)(g);
    80b4:	e51b3008 	ldr	r3, [fp, #-8]
    80b8:	e5d33000 	ldrb	r3, [r3]
    80bc:	e3530000 	cmp	r3, #0
    80c0:	03a03001 	moveq	r3, #1
    80c4:	13a03000 	movne	r3, #0
    80c8:	e6ef3073 	uxtb	r3, r3
/mnt/c/Users/Kuba/Documents/ZeroMate/examples/18-edf/userspace/cxxabi.cpp:13
	}
    80cc:	e1a00003 	mov	r0, r3
    80d0:	e28bd000 	add	sp, fp, #0
    80d4:	e49db004 	pop	{fp}		; (ldr fp, [sp], #4)
    80d8:	e12fff1e 	bx	lr

000080dc <__cxa_guard_release>:
__cxa_guard_release():
/mnt/c/Users/Kuba/Documents/ZeroMate/examples/18-edf/userspace/cxxabi.cpp:16

	extern "C" void __cxa_guard_release (__guard *g)
	{
    80dc:	e52db004 	push	{fp}		; (str fp, [sp, #-4]!)
    80e0:	e28db000 	add	fp, sp, #0
    80e4:	e24dd00c 	sub	sp, sp, #12
    80e8:	e50b0008 	str	r0, [fp, #-8]
/mnt/c/Users/Kuba/Documents/ZeroMate/examples/18-edf/userspace/cxxabi.cpp:17
		*(char *)g = 1;
    80ec:	e51b3008 	ldr	r3, [fp, #-8]
    80f0:	e3a02001 	mov	r2, #1
    80f4:	e5c32000 	strb	r2, [r3]
/mnt/c/Users/Kuba/Documents/ZeroMate/examples/18-edf/userspace/cxxabi.cpp:18
	}
    80f8:	e320f000 	nop	{0}
    80fc:	e28bd000 	add	sp, fp, #0
    8100:	e49db004 	pop	{fp}		; (ldr fp, [sp], #4)
    8104:	e12fff1e 	bx	lr

00008108 <__cxa_guard_abort>:
__cxa_guard_abort():
/mnt/c/Users/Kuba/Documents/ZeroMate/examples/18-edf/userspace/cxxabi.cpp:21

	extern "C" void __cxa_guard_abort (__guard *)
	{
    8108:	e52db004 	push	{fp}		; (str fp, [sp, #-4]!)
    810c:	e28db000 	add	fp, sp, #0
    8110:	e24dd00c 	sub	sp, sp, #12
    8114:	e50b0008 	str	r0, [fp, #-8]
/mnt/c/Users/Kuba/Documents/ZeroMate/examples/18-edf/userspace/cxxabi.cpp:23

	}
    8118:	e320f000 	nop	{0}
    811c:	e28bd000 	add	sp, fp, #0
    8120:	e49db004 	pop	{fp}		; (ldr fp, [sp], #4)
    8124:	e12fff1e 	bx	lr

00008128 <__dso_handle>:
__dso_handle():
/mnt/c/Users/Kuba/Documents/ZeroMate/examples/18-edf/userspace/cxxabi.cpp:27
}

extern "C" void __dso_handle()
{
    8128:	e52db004 	push	{fp}		; (str fp, [sp, #-4]!)
    812c:	e28db000 	add	fp, sp, #0
/mnt/c/Users/Kuba/Documents/ZeroMate/examples/18-edf/userspace/cxxabi.cpp:29
    // ignore dtors for now
}
    8130:	e320f000 	nop	{0}
    8134:	e28bd000 	add	sp, fp, #0
    8138:	e49db004 	pop	{fp}		; (ldr fp, [sp], #4)
    813c:	e12fff1e 	bx	lr

00008140 <__cxa_atexit>:
__cxa_atexit():
/mnt/c/Users/Kuba/Documents/ZeroMate/examples/18-edf/userspace/cxxabi.cpp:32

extern "C" void __cxa_atexit()
{
    8140:	e52db004 	push	{fp}		; (str fp, [sp, #-4]!)
    8144:	e28db000 	add	fp, sp, #0
/mnt/c/Users/Kuba/Documents/ZeroMate/examples/18-edf/userspace/cxxabi.cpp:34
    // ignore dtors for now
}
    8148:	e320f000 	nop	{0}
    814c:	e28bd000 	add	sp, fp, #0
    8150:	e49db004 	pop	{fp}		; (ldr fp, [sp], #4)
    8154:	e12fff1e 	bx	lr

00008158 <__cxa_pure_virtual>:
__cxa_pure_virtual():
/mnt/c/Users/Kuba/Documents/ZeroMate/examples/18-edf/userspace/cxxabi.cpp:37

extern "C" void __cxa_pure_virtual()
{
    8158:	e52db004 	push	{fp}		; (str fp, [sp, #-4]!)
    815c:	e28db000 	add	fp, sp, #0
/mnt/c/Users/Kuba/Documents/ZeroMate/examples/18-edf/userspace/cxxabi.cpp:39
    // pure virtual method called
}
    8160:	e320f000 	nop	{0}
    8164:	e28bd000 	add	sp, fp, #0
    8168:	e49db004 	pop	{fp}		; (ldr fp, [sp], #4)
    816c:	e12fff1e 	bx	lr

00008170 <__aeabi_unwind_cpp_pr1>:
__aeabi_unwind_cpp_pr1():
/mnt/c/Users/Kuba/Documents/ZeroMate/examples/18-edf/userspace/cxxabi.cpp:42

extern "C" void __aeabi_unwind_cpp_pr1()
{
    8170:	e52db004 	push	{fp}		; (str fp, [sp, #-4]!)
    8174:	e28db000 	add	fp, sp, #0
/mnt/c/Users/Kuba/Documents/ZeroMate/examples/18-edf/userspace/cxxabi.cpp:43 (discriminator 1)
	while (true)
    8178:	eafffffe 	b	8178 <__aeabi_unwind_cpp_pr1+0x8>

0000817c <_cpp_startup>:
_cpp_startup():
/mnt/c/Users/Kuba/Documents/ZeroMate/examples/18-edf/userspace/cxxabi.cpp:61
extern "C" dtor_ptr __DTOR_LIST__[0];
// konec pole destruktoru
extern "C" dtor_ptr __DTOR_END__[0];

extern "C" int _cpp_startup(void)
{
    817c:	e92d4800 	push	{fp, lr}
    8180:	e28db004 	add	fp, sp, #4
    8184:	e24dd008 	sub	sp, sp, #8
/mnt/c/Users/Kuba/Documents/ZeroMate/examples/18-edf/userspace/cxxabi.cpp:66
	ctor_ptr* fnptr;
	
	// zavolame konstruktory globalnich C++ trid
	// v poli __CTOR_LIST__ jsou ukazatele na vygenerovane stuby volani konstruktoru
	for (fnptr = __CTOR_LIST__; fnptr < __CTOR_END__; fnptr++)
    8188:	e59f303c 	ldr	r3, [pc, #60]	; 81cc <_cpp_startup+0x50>
    818c:	e50b3008 	str	r3, [fp, #-8]
/mnt/c/Users/Kuba/Documents/ZeroMate/examples/18-edf/userspace/cxxabi.cpp:66 (discriminator 3)
    8190:	e51b3008 	ldr	r3, [fp, #-8]
    8194:	e59f2034 	ldr	r2, [pc, #52]	; 81d0 <_cpp_startup+0x54>
    8198:	e1530002 	cmp	r3, r2
    819c:	2a000006 	bcs	81bc <_cpp_startup+0x40>
/mnt/c/Users/Kuba/Documents/ZeroMate/examples/18-edf/userspace/cxxabi.cpp:67 (discriminator 2)
		(*fnptr)();
    81a0:	e51b3008 	ldr	r3, [fp, #-8]
    81a4:	e5933000 	ldr	r3, [r3]
    81a8:	e12fff33 	blx	r3
/mnt/c/Users/Kuba/Documents/ZeroMate/examples/18-edf/userspace/cxxabi.cpp:66 (discriminator 2)
	for (fnptr = __CTOR_LIST__; fnptr < __CTOR_END__; fnptr++)
    81ac:	e51b3008 	ldr	r3, [fp, #-8]
    81b0:	e2833004 	add	r3, r3, #4
    81b4:	e50b3008 	str	r3, [fp, #-8]
    81b8:	eafffff4 	b	8190 <_cpp_startup+0x14>
/mnt/c/Users/Kuba/Documents/ZeroMate/examples/18-edf/userspace/cxxabi.cpp:69
	
	return 0;
    81bc:	e3a03000 	mov	r3, #0
/mnt/c/Users/Kuba/Documents/ZeroMate/examples/18-edf/userspace/cxxabi.cpp:70
}
    81c0:	e1a00003 	mov	r0, r3
    81c4:	e24bd004 	sub	sp, fp, #4
    81c8:	e8bd8800 	pop	{fp, pc}
    81cc:	00009714 	andeq	r9, r0, r4, lsl r7
    81d0:	00009714 	andeq	r9, r0, r4, lsl r7

000081d4 <_cpp_shutdown>:
_cpp_shutdown():
/mnt/c/Users/Kuba/Documents/ZeroMate/examples/18-edf/userspace/cxxabi.cpp:73

extern "C" int _cpp_shutdown(void)
{
    81d4:	e92d4800 	push	{fp, lr}
    81d8:	e28db004 	add	fp, sp, #4
    81dc:	e24dd008 	sub	sp, sp, #8
/mnt/c/Users/Kuba/Documents/ZeroMate/examples/18-edf/userspace/cxxabi.cpp:77
	dtor_ptr* fnptr;
	
	// zavolame destruktory globalnich C++ trid
	for (fnptr = __DTOR_LIST__; fnptr < __DTOR_END__; fnptr++)
    81e0:	e59f303c 	ldr	r3, [pc, #60]	; 8224 <_cpp_shutdown+0x50>
    81e4:	e50b3008 	str	r3, [fp, #-8]
/mnt/c/Users/Kuba/Documents/ZeroMate/examples/18-edf/userspace/cxxabi.cpp:77 (discriminator 3)
    81e8:	e51b3008 	ldr	r3, [fp, #-8]
    81ec:	e59f2034 	ldr	r2, [pc, #52]	; 8228 <_cpp_shutdown+0x54>
    81f0:	e1530002 	cmp	r3, r2
    81f4:	2a000006 	bcs	8214 <_cpp_shutdown+0x40>
/mnt/c/Users/Kuba/Documents/ZeroMate/examples/18-edf/userspace/cxxabi.cpp:78 (discriminator 2)
		(*fnptr)();
    81f8:	e51b3008 	ldr	r3, [fp, #-8]
    81fc:	e5933000 	ldr	r3, [r3]
    8200:	e12fff33 	blx	r3
/mnt/c/Users/Kuba/Documents/ZeroMate/examples/18-edf/userspace/cxxabi.cpp:77 (discriminator 2)
	for (fnptr = __DTOR_LIST__; fnptr < __DTOR_END__; fnptr++)
    8204:	e51b3008 	ldr	r3, [fp, #-8]
    8208:	e2833004 	add	r3, r3, #4
    820c:	e50b3008 	str	r3, [fp, #-8]
    8210:	eafffff4 	b	81e8 <_cpp_shutdown+0x14>
/mnt/c/Users/Kuba/Documents/ZeroMate/examples/18-edf/userspace/cxxabi.cpp:80
	
	return 0;
    8214:	e3a03000 	mov	r3, #0
/mnt/c/Users/Kuba/Documents/ZeroMate/examples/18-edf/userspace/cxxabi.cpp:81
}
    8218:	e1a00003 	mov	r0, r3
    821c:	e24bd004 	sub	sp, fp, #4
    8220:	e8bd8800 	pop	{fp, pc}
    8224:	00009714 	andeq	r9, r0, r4, lsl r7
    8228:	00009714 	andeq	r9, r0, r4, lsl r7

0000822c <main>:
main():
/mnt/c/Users/Kuba/Documents/ZeroMate/examples/18-edf/userspace/oled_task/main.cpp:27
	"My favourite sport is ARM wrestling",
	"Old MacDonald had a farm, EIGRP",
};

int main(int argc, char** argv)
{
    822c:	e92d4800 	push	{fp, lr}
    8230:	e28db004 	add	fp, sp, #4
    8234:	e24dd020 	sub	sp, sp, #32
    8238:	e50b0020 	str	r0, [fp, #-32]	; 0xffffffe0
    823c:	e50b1024 	str	r1, [fp, #-36]	; 0xffffffdc
/mnt/c/Users/Kuba/Documents/ZeroMate/examples/18-edf/userspace/oled_task/main.cpp:28
	COLED_Display disp("DEV:oled");
    8240:	e24b3014 	sub	r3, fp, #20
    8244:	e59f10d8 	ldr	r1, [pc, #216]	; 8324 <main+0xf8>
    8248:	e1a00003 	mov	r0, r3
    824c:	eb00027e 	bl	8c4c <_ZN13COLED_DisplayC1EPKc>
/mnt/c/Users/Kuba/Documents/ZeroMate/examples/18-edf/userspace/oled_task/main.cpp:29
	disp.Clear(false);
    8250:	e24b3014 	sub	r3, fp, #20
    8254:	e3a01000 	mov	r1, #0
    8258:	e1a00003 	mov	r0, r3
    825c:	eb0002b1 	bl	8d28 <_ZN13COLED_Display5ClearEb>
/mnt/c/Users/Kuba/Documents/ZeroMate/examples/18-edf/userspace/oled_task/main.cpp:30
	disp.Put_String(10, 10, "KIV-RTOS init...");
    8260:	e24b0014 	sub	r0, fp, #20
    8264:	e59f30bc 	ldr	r3, [pc, #188]	; 8328 <main+0xfc>
    8268:	e3a0200a 	mov	r2, #10
    826c:	e3a0100a 	mov	r1, #10
    8270:	eb000376 	bl	9050 <_ZN13COLED_Display10Put_StringEttPKc>
/mnt/c/Users/Kuba/Documents/ZeroMate/examples/18-edf/userspace/oled_task/main.cpp:31
	disp.Flip();
    8274:	e24b3014 	sub	r3, fp, #20
    8278:	e1a00003 	mov	r0, r3
    827c:	eb00035d 	bl	8ff8 <_ZN13COLED_Display4FlipEv>
/mnt/c/Users/Kuba/Documents/ZeroMate/examples/18-edf/userspace/oled_task/main.cpp:33

	uint32_t trng_file = open("DEV:trng", NFile_Open_Mode::Read_Only);
    8280:	e3a01000 	mov	r1, #0
    8284:	e59f00a0 	ldr	r0, [pc, #160]	; 832c <main+0x100>
    8288:	eb000047 	bl	83ac <_Z4openPKc15NFile_Open_Mode>
    828c:	e50b0008 	str	r0, [fp, #-8]
/mnt/c/Users/Kuba/Documents/ZeroMate/examples/18-edf/userspace/oled_task/main.cpp:34
	uint32_t num = 0;
    8290:	e3a03000 	mov	r3, #0
    8294:	e50b3018 	str	r3, [fp, #-24]	; 0xffffffe8
/mnt/c/Users/Kuba/Documents/ZeroMate/examples/18-edf/userspace/oled_task/main.cpp:36

	sleep(0x800, 0x800);
    8298:	e3a01b02 	mov	r1, #2048	; 0x800
    829c:	e3a00b02 	mov	r0, #2048	; 0x800
    82a0:	eb0000be 	bl	85a0 <_Z5sleepjj>
/mnt/c/Users/Kuba/Documents/ZeroMate/examples/18-edf/userspace/oled_task/main.cpp:41 (discriminator 1)

	while (true)
	{
		// ziskame si nahodne cislo a vybereme podle toho zpravu
		read(trng_file, reinterpret_cast<char*>(&num), sizeof(num));
    82a4:	e24b3018 	sub	r3, fp, #24
    82a8:	e3a02004 	mov	r2, #4
    82ac:	e1a01003 	mov	r1, r3
    82b0:	e51b0008 	ldr	r0, [fp, #-8]
    82b4:	eb00004d 	bl	83f0 <_Z4readjPcj>
/mnt/c/Users/Kuba/Documents/ZeroMate/examples/18-edf/userspace/oled_task/main.cpp:42 (discriminator 1)
		const char* msg = messages[num % (sizeof(messages) / sizeof(const char*))];
    82b8:	e51b1018 	ldr	r1, [fp, #-24]	; 0xffffffe8
    82bc:	e59f306c 	ldr	r3, [pc, #108]	; 8330 <main+0x104>
    82c0:	e0832193 	umull	r2, r3, r3, r1
    82c4:	e1a02123 	lsr	r2, r3, #2
    82c8:	e1a03002 	mov	r3, r2
    82cc:	e1a03103 	lsl	r3, r3, #2
    82d0:	e0833002 	add	r3, r3, r2
    82d4:	e0412003 	sub	r2, r1, r3
    82d8:	e59f3054 	ldr	r3, [pc, #84]	; 8334 <main+0x108>
    82dc:	e7933102 	ldr	r3, [r3, r2, lsl #2]
    82e0:	e50b300c 	str	r3, [fp, #-12]
/mnt/c/Users/Kuba/Documents/ZeroMate/examples/18-edf/userspace/oled_task/main.cpp:44 (discriminator 1)

		disp.Clear(false);
    82e4:	e24b3014 	sub	r3, fp, #20
    82e8:	e3a01000 	mov	r1, #0
    82ec:	e1a00003 	mov	r0, r3
    82f0:	eb00028c 	bl	8d28 <_ZN13COLED_Display5ClearEb>
/mnt/c/Users/Kuba/Documents/ZeroMate/examples/18-edf/userspace/oled_task/main.cpp:45 (discriminator 1)
		disp.Put_String(0, 0, msg);
    82f4:	e24b0014 	sub	r0, fp, #20
    82f8:	e51b300c 	ldr	r3, [fp, #-12]
    82fc:	e3a02000 	mov	r2, #0
    8300:	e3a01000 	mov	r1, #0
    8304:	eb000351 	bl	9050 <_ZN13COLED_Display10Put_StringEttPKc>
/mnt/c/Users/Kuba/Documents/ZeroMate/examples/18-edf/userspace/oled_task/main.cpp:46 (discriminator 1)
		disp.Flip();
    8308:	e24b3014 	sub	r3, fp, #20
    830c:	e1a00003 	mov	r0, r3
    8310:	eb000338 	bl	8ff8 <_ZN13COLED_Display4FlipEv>
/mnt/c/Users/Kuba/Documents/ZeroMate/examples/18-edf/userspace/oled_task/main.cpp:48 (discriminator 1)

		sleep(0x4000, 0x800); // TODO: z tohohle bude casem cekani na podminkove promenne (na eventu) s timeoutem
    8314:	e3a01b02 	mov	r1, #2048	; 0x800
    8318:	e3a00901 	mov	r0, #16384	; 0x4000
    831c:	eb00009f 	bl	85a0 <_Z5sleepjj>
/mnt/c/Users/Kuba/Documents/ZeroMate/examples/18-edf/userspace/oled_task/main.cpp:49 (discriminator 1)
	}
    8320:	eaffffdf 	b	82a4 <main+0x78>
    8324:	000093f8 	strdeq	r9, [r0], -r8
    8328:	00009404 	andeq	r9, r0, r4, lsl #8
    832c:	00009418 	andeq	r9, r0, r8, lsl r4
    8330:	cccccccd 	stclgt	12, cr12, [ip], {205}	; 0xcd
    8334:	00009714 	andeq	r9, r0, r4, lsl r7

00008338 <_Z6getpidv>:
_Z6getpidv():
/mnt/c/Users/Kuba/Documents/ZeroMate/examples/18-edf/stdlib/src/stdfile.cpp:5
#include <stdfile.h>
#include <stdstring.h>

uint32_t getpid()
{
    8338:	e52db004 	push	{fp}		; (str fp, [sp, #-4]!)
    833c:	e28db000 	add	fp, sp, #0
    8340:	e24dd00c 	sub	sp, sp, #12
/mnt/c/Users/Kuba/Documents/ZeroMate/examples/18-edf/stdlib/src/stdfile.cpp:8
    uint32_t pid;

    asm volatile("swi 0");
    8344:	ef000000 	svc	0x00000000
/mnt/c/Users/Kuba/Documents/ZeroMate/examples/18-edf/stdlib/src/stdfile.cpp:9
    asm volatile("mov %0, r0" : "=r" (pid));
    8348:	e1a03000 	mov	r3, r0
    834c:	e50b3008 	str	r3, [fp, #-8]
/mnt/c/Users/Kuba/Documents/ZeroMate/examples/18-edf/stdlib/src/stdfile.cpp:11

    return pid;
    8350:	e51b3008 	ldr	r3, [fp, #-8]
/mnt/c/Users/Kuba/Documents/ZeroMate/examples/18-edf/stdlib/src/stdfile.cpp:12
}
    8354:	e1a00003 	mov	r0, r3
    8358:	e28bd000 	add	sp, fp, #0
    835c:	e49db004 	pop	{fp}		; (ldr fp, [sp], #4)
    8360:	e12fff1e 	bx	lr

00008364 <_Z9terminatei>:
_Z9terminatei():
/mnt/c/Users/Kuba/Documents/ZeroMate/examples/18-edf/stdlib/src/stdfile.cpp:15

void terminate(int exitcode)
{
    8364:	e52db004 	push	{fp}		; (str fp, [sp, #-4]!)
    8368:	e28db000 	add	fp, sp, #0
    836c:	e24dd00c 	sub	sp, sp, #12
    8370:	e50b0008 	str	r0, [fp, #-8]
/mnt/c/Users/Kuba/Documents/ZeroMate/examples/18-edf/stdlib/src/stdfile.cpp:16
    asm volatile("mov r0, %0" : : "r" (exitcode));
    8374:	e51b3008 	ldr	r3, [fp, #-8]
    8378:	e1a00003 	mov	r0, r3
/mnt/c/Users/Kuba/Documents/ZeroMate/examples/18-edf/stdlib/src/stdfile.cpp:17
    asm volatile("swi 1");
    837c:	ef000001 	svc	0x00000001
/mnt/c/Users/Kuba/Documents/ZeroMate/examples/18-edf/stdlib/src/stdfile.cpp:18
}
    8380:	e320f000 	nop	{0}
    8384:	e28bd000 	add	sp, fp, #0
    8388:	e49db004 	pop	{fp}		; (ldr fp, [sp], #4)
    838c:	e12fff1e 	bx	lr

00008390 <_Z11sched_yieldv>:
_Z11sched_yieldv():
/mnt/c/Users/Kuba/Documents/ZeroMate/examples/18-edf/stdlib/src/stdfile.cpp:21

void sched_yield()
{
    8390:	e52db004 	push	{fp}		; (str fp, [sp, #-4]!)
    8394:	e28db000 	add	fp, sp, #0
/mnt/c/Users/Kuba/Documents/ZeroMate/examples/18-edf/stdlib/src/stdfile.cpp:22
    asm volatile("swi 2");
    8398:	ef000002 	svc	0x00000002
/mnt/c/Users/Kuba/Documents/ZeroMate/examples/18-edf/stdlib/src/stdfile.cpp:23
}
    839c:	e320f000 	nop	{0}
    83a0:	e28bd000 	add	sp, fp, #0
    83a4:	e49db004 	pop	{fp}		; (ldr fp, [sp], #4)
    83a8:	e12fff1e 	bx	lr

000083ac <_Z4openPKc15NFile_Open_Mode>:
_Z4openPKc15NFile_Open_Mode():
/mnt/c/Users/Kuba/Documents/ZeroMate/examples/18-edf/stdlib/src/stdfile.cpp:26

uint32_t open(const char* filename, NFile_Open_Mode mode)
{
    83ac:	e52db004 	push	{fp}		; (str fp, [sp, #-4]!)
    83b0:	e28db000 	add	fp, sp, #0
    83b4:	e24dd014 	sub	sp, sp, #20
    83b8:	e50b0010 	str	r0, [fp, #-16]
    83bc:	e50b1014 	str	r1, [fp, #-20]	; 0xffffffec
/mnt/c/Users/Kuba/Documents/ZeroMate/examples/18-edf/stdlib/src/stdfile.cpp:29
    uint32_t file;

    asm volatile("mov r0, %0" : : "r" (filename));
    83c0:	e51b3010 	ldr	r3, [fp, #-16]
    83c4:	e1a00003 	mov	r0, r3
/mnt/c/Users/Kuba/Documents/ZeroMate/examples/18-edf/stdlib/src/stdfile.cpp:30
    asm volatile("mov r1, %0" : : "r" (mode));
    83c8:	e51b3014 	ldr	r3, [fp, #-20]	; 0xffffffec
    83cc:	e1a01003 	mov	r1, r3
/mnt/c/Users/Kuba/Documents/ZeroMate/examples/18-edf/stdlib/src/stdfile.cpp:31
    asm volatile("swi 64");
    83d0:	ef000040 	svc	0x00000040
/mnt/c/Users/Kuba/Documents/ZeroMate/examples/18-edf/stdlib/src/stdfile.cpp:32
    asm volatile("mov %0, r0" : "=r" (file));
    83d4:	e1a03000 	mov	r3, r0
    83d8:	e50b3008 	str	r3, [fp, #-8]
/mnt/c/Users/Kuba/Documents/ZeroMate/examples/18-edf/stdlib/src/stdfile.cpp:34

    return file;
    83dc:	e51b3008 	ldr	r3, [fp, #-8]
/mnt/c/Users/Kuba/Documents/ZeroMate/examples/18-edf/stdlib/src/stdfile.cpp:35
}
    83e0:	e1a00003 	mov	r0, r3
    83e4:	e28bd000 	add	sp, fp, #0
    83e8:	e49db004 	pop	{fp}		; (ldr fp, [sp], #4)
    83ec:	e12fff1e 	bx	lr

000083f0 <_Z4readjPcj>:
_Z4readjPcj():
/mnt/c/Users/Kuba/Documents/ZeroMate/examples/18-edf/stdlib/src/stdfile.cpp:38

uint32_t read(uint32_t file, char* const buffer, uint32_t size)
{
    83f0:	e52db004 	push	{fp}		; (str fp, [sp, #-4]!)
    83f4:	e28db000 	add	fp, sp, #0
    83f8:	e24dd01c 	sub	sp, sp, #28
    83fc:	e50b0010 	str	r0, [fp, #-16]
    8400:	e50b1014 	str	r1, [fp, #-20]	; 0xffffffec
    8404:	e50b2018 	str	r2, [fp, #-24]	; 0xffffffe8
/mnt/c/Users/Kuba/Documents/ZeroMate/examples/18-edf/stdlib/src/stdfile.cpp:41
    uint32_t rdnum;

    asm volatile("mov r0, %0" : : "r" (file));
    8408:	e51b3010 	ldr	r3, [fp, #-16]
    840c:	e1a00003 	mov	r0, r3
/mnt/c/Users/Kuba/Documents/ZeroMate/examples/18-edf/stdlib/src/stdfile.cpp:42
    asm volatile("mov r1, %0" : : "r" (buffer));
    8410:	e51b3014 	ldr	r3, [fp, #-20]	; 0xffffffec
    8414:	e1a01003 	mov	r1, r3
/mnt/c/Users/Kuba/Documents/ZeroMate/examples/18-edf/stdlib/src/stdfile.cpp:43
    asm volatile("mov r2, %0" : : "r" (size));
    8418:	e51b3018 	ldr	r3, [fp, #-24]	; 0xffffffe8
    841c:	e1a02003 	mov	r2, r3
/mnt/c/Users/Kuba/Documents/ZeroMate/examples/18-edf/stdlib/src/stdfile.cpp:44
    asm volatile("swi 65");
    8420:	ef000041 	svc	0x00000041
/mnt/c/Users/Kuba/Documents/ZeroMate/examples/18-edf/stdlib/src/stdfile.cpp:45
    asm volatile("mov %0, r0" : "=r" (rdnum));
    8424:	e1a03000 	mov	r3, r0
    8428:	e50b3008 	str	r3, [fp, #-8]
/mnt/c/Users/Kuba/Documents/ZeroMate/examples/18-edf/stdlib/src/stdfile.cpp:47

    return rdnum;
    842c:	e51b3008 	ldr	r3, [fp, #-8]
/mnt/c/Users/Kuba/Documents/ZeroMate/examples/18-edf/stdlib/src/stdfile.cpp:48
}
    8430:	e1a00003 	mov	r0, r3
    8434:	e28bd000 	add	sp, fp, #0
    8438:	e49db004 	pop	{fp}		; (ldr fp, [sp], #4)
    843c:	e12fff1e 	bx	lr

00008440 <_Z5writejPKcj>:
_Z5writejPKcj():
/mnt/c/Users/Kuba/Documents/ZeroMate/examples/18-edf/stdlib/src/stdfile.cpp:51

uint32_t write(uint32_t file, const char* buffer, uint32_t size)
{
    8440:	e52db004 	push	{fp}		; (str fp, [sp, #-4]!)
    8444:	e28db000 	add	fp, sp, #0
    8448:	e24dd01c 	sub	sp, sp, #28
    844c:	e50b0010 	str	r0, [fp, #-16]
    8450:	e50b1014 	str	r1, [fp, #-20]	; 0xffffffec
    8454:	e50b2018 	str	r2, [fp, #-24]	; 0xffffffe8
/mnt/c/Users/Kuba/Documents/ZeroMate/examples/18-edf/stdlib/src/stdfile.cpp:54
    uint32_t wrnum;

    asm volatile("mov r0, %0" : : "r" (file));
    8458:	e51b3010 	ldr	r3, [fp, #-16]
    845c:	e1a00003 	mov	r0, r3
/mnt/c/Users/Kuba/Documents/ZeroMate/examples/18-edf/stdlib/src/stdfile.cpp:55
    asm volatile("mov r1, %0" : : "r" (buffer));
    8460:	e51b3014 	ldr	r3, [fp, #-20]	; 0xffffffec
    8464:	e1a01003 	mov	r1, r3
/mnt/c/Users/Kuba/Documents/ZeroMate/examples/18-edf/stdlib/src/stdfile.cpp:56
    asm volatile("mov r2, %0" : : "r" (size));
    8468:	e51b3018 	ldr	r3, [fp, #-24]	; 0xffffffe8
    846c:	e1a02003 	mov	r2, r3
/mnt/c/Users/Kuba/Documents/ZeroMate/examples/18-edf/stdlib/src/stdfile.cpp:57
    asm volatile("swi 66");
    8470:	ef000042 	svc	0x00000042
/mnt/c/Users/Kuba/Documents/ZeroMate/examples/18-edf/stdlib/src/stdfile.cpp:58
    asm volatile("mov %0, r0" : "=r" (wrnum));
    8474:	e1a03000 	mov	r3, r0
    8478:	e50b3008 	str	r3, [fp, #-8]
/mnt/c/Users/Kuba/Documents/ZeroMate/examples/18-edf/stdlib/src/stdfile.cpp:60

    return wrnum;
    847c:	e51b3008 	ldr	r3, [fp, #-8]
/mnt/c/Users/Kuba/Documents/ZeroMate/examples/18-edf/stdlib/src/stdfile.cpp:61
}
    8480:	e1a00003 	mov	r0, r3
    8484:	e28bd000 	add	sp, fp, #0
    8488:	e49db004 	pop	{fp}		; (ldr fp, [sp], #4)
    848c:	e12fff1e 	bx	lr

00008490 <_Z5closej>:
_Z5closej():
/mnt/c/Users/Kuba/Documents/ZeroMate/examples/18-edf/stdlib/src/stdfile.cpp:64

void close(uint32_t file)
{
    8490:	e52db004 	push	{fp}		; (str fp, [sp, #-4]!)
    8494:	e28db000 	add	fp, sp, #0
    8498:	e24dd00c 	sub	sp, sp, #12
    849c:	e50b0008 	str	r0, [fp, #-8]
/mnt/c/Users/Kuba/Documents/ZeroMate/examples/18-edf/stdlib/src/stdfile.cpp:65
    asm volatile("mov r0, %0" : : "r" (file));
    84a0:	e51b3008 	ldr	r3, [fp, #-8]
    84a4:	e1a00003 	mov	r0, r3
/mnt/c/Users/Kuba/Documents/ZeroMate/examples/18-edf/stdlib/src/stdfile.cpp:66
    asm volatile("swi 67");
    84a8:	ef000043 	svc	0x00000043
/mnt/c/Users/Kuba/Documents/ZeroMate/examples/18-edf/stdlib/src/stdfile.cpp:67
}
    84ac:	e320f000 	nop	{0}
    84b0:	e28bd000 	add	sp, fp, #0
    84b4:	e49db004 	pop	{fp}		; (ldr fp, [sp], #4)
    84b8:	e12fff1e 	bx	lr

000084bc <_Z5ioctlj16NIOCtl_OperationPv>:
_Z5ioctlj16NIOCtl_OperationPv():
/mnt/c/Users/Kuba/Documents/ZeroMate/examples/18-edf/stdlib/src/stdfile.cpp:70

uint32_t ioctl(uint32_t file, NIOCtl_Operation operation, void* param)
{
    84bc:	e52db004 	push	{fp}		; (str fp, [sp, #-4]!)
    84c0:	e28db000 	add	fp, sp, #0
    84c4:	e24dd01c 	sub	sp, sp, #28
    84c8:	e50b0010 	str	r0, [fp, #-16]
    84cc:	e50b1014 	str	r1, [fp, #-20]	; 0xffffffec
    84d0:	e50b2018 	str	r2, [fp, #-24]	; 0xffffffe8
/mnt/c/Users/Kuba/Documents/ZeroMate/examples/18-edf/stdlib/src/stdfile.cpp:73
    uint32_t retcode;

    asm volatile("mov r0, %0" : : "r" (file));
    84d4:	e51b3010 	ldr	r3, [fp, #-16]
    84d8:	e1a00003 	mov	r0, r3
/mnt/c/Users/Kuba/Documents/ZeroMate/examples/18-edf/stdlib/src/stdfile.cpp:74
    asm volatile("mov r1, %0" : : "r" (operation));
    84dc:	e51b3014 	ldr	r3, [fp, #-20]	; 0xffffffec
    84e0:	e1a01003 	mov	r1, r3
/mnt/c/Users/Kuba/Documents/ZeroMate/examples/18-edf/stdlib/src/stdfile.cpp:75
    asm volatile("mov r2, %0" : : "r" (param));
    84e4:	e51b3018 	ldr	r3, [fp, #-24]	; 0xffffffe8
    84e8:	e1a02003 	mov	r2, r3
/mnt/c/Users/Kuba/Documents/ZeroMate/examples/18-edf/stdlib/src/stdfile.cpp:76
    asm volatile("swi 68");
    84ec:	ef000044 	svc	0x00000044
/mnt/c/Users/Kuba/Documents/ZeroMate/examples/18-edf/stdlib/src/stdfile.cpp:77
    asm volatile("mov %0, r0" : "=r" (retcode));
    84f0:	e1a03000 	mov	r3, r0
    84f4:	e50b3008 	str	r3, [fp, #-8]
/mnt/c/Users/Kuba/Documents/ZeroMate/examples/18-edf/stdlib/src/stdfile.cpp:79

    return retcode;
    84f8:	e51b3008 	ldr	r3, [fp, #-8]
/mnt/c/Users/Kuba/Documents/ZeroMate/examples/18-edf/stdlib/src/stdfile.cpp:80
}
    84fc:	e1a00003 	mov	r0, r3
    8500:	e28bd000 	add	sp, fp, #0
    8504:	e49db004 	pop	{fp}		; (ldr fp, [sp], #4)
    8508:	e12fff1e 	bx	lr

0000850c <_Z6notifyjj>:
_Z6notifyjj():
/mnt/c/Users/Kuba/Documents/ZeroMate/examples/18-edf/stdlib/src/stdfile.cpp:83

uint32_t notify(uint32_t file, uint32_t count)
{
    850c:	e52db004 	push	{fp}		; (str fp, [sp, #-4]!)
    8510:	e28db000 	add	fp, sp, #0
    8514:	e24dd014 	sub	sp, sp, #20
    8518:	e50b0010 	str	r0, [fp, #-16]
    851c:	e50b1014 	str	r1, [fp, #-20]	; 0xffffffec
/mnt/c/Users/Kuba/Documents/ZeroMate/examples/18-edf/stdlib/src/stdfile.cpp:86
    uint32_t retcnt;

    asm volatile("mov r0, %0" : : "r" (file));
    8520:	e51b3010 	ldr	r3, [fp, #-16]
    8524:	e1a00003 	mov	r0, r3
/mnt/c/Users/Kuba/Documents/ZeroMate/examples/18-edf/stdlib/src/stdfile.cpp:87
    asm volatile("mov r1, %0" : : "r" (count));
    8528:	e51b3014 	ldr	r3, [fp, #-20]	; 0xffffffec
    852c:	e1a01003 	mov	r1, r3
/mnt/c/Users/Kuba/Documents/ZeroMate/examples/18-edf/stdlib/src/stdfile.cpp:88
    asm volatile("swi 69");
    8530:	ef000045 	svc	0x00000045
/mnt/c/Users/Kuba/Documents/ZeroMate/examples/18-edf/stdlib/src/stdfile.cpp:89
    asm volatile("mov %0, r0" : "=r" (retcnt));
    8534:	e1a03000 	mov	r3, r0
    8538:	e50b3008 	str	r3, [fp, #-8]
/mnt/c/Users/Kuba/Documents/ZeroMate/examples/18-edf/stdlib/src/stdfile.cpp:91

    return retcnt;
    853c:	e51b3008 	ldr	r3, [fp, #-8]
/mnt/c/Users/Kuba/Documents/ZeroMate/examples/18-edf/stdlib/src/stdfile.cpp:92
}
    8540:	e1a00003 	mov	r0, r3
    8544:	e28bd000 	add	sp, fp, #0
    8548:	e49db004 	pop	{fp}		; (ldr fp, [sp], #4)
    854c:	e12fff1e 	bx	lr

00008550 <_Z4waitjjj>:
_Z4waitjjj():
/mnt/c/Users/Kuba/Documents/ZeroMate/examples/18-edf/stdlib/src/stdfile.cpp:95

NSWI_Result_Code wait(uint32_t file, uint32_t count, uint32_t notified_deadline)
{
    8550:	e52db004 	push	{fp}		; (str fp, [sp, #-4]!)
    8554:	e28db000 	add	fp, sp, #0
    8558:	e24dd01c 	sub	sp, sp, #28
    855c:	e50b0010 	str	r0, [fp, #-16]
    8560:	e50b1014 	str	r1, [fp, #-20]	; 0xffffffec
    8564:	e50b2018 	str	r2, [fp, #-24]	; 0xffffffe8
/mnt/c/Users/Kuba/Documents/ZeroMate/examples/18-edf/stdlib/src/stdfile.cpp:98
    NSWI_Result_Code retcode;

    asm volatile("mov r0, %0" : : "r" (file));
    8568:	e51b3010 	ldr	r3, [fp, #-16]
    856c:	e1a00003 	mov	r0, r3
/mnt/c/Users/Kuba/Documents/ZeroMate/examples/18-edf/stdlib/src/stdfile.cpp:99
    asm volatile("mov r1, %0" : : "r" (count));
    8570:	e51b3014 	ldr	r3, [fp, #-20]	; 0xffffffec
    8574:	e1a01003 	mov	r1, r3
/mnt/c/Users/Kuba/Documents/ZeroMate/examples/18-edf/stdlib/src/stdfile.cpp:100
    asm volatile("mov r2, %0" : : "r" (notified_deadline));
    8578:	e51b3018 	ldr	r3, [fp, #-24]	; 0xffffffe8
    857c:	e1a02003 	mov	r2, r3
/mnt/c/Users/Kuba/Documents/ZeroMate/examples/18-edf/stdlib/src/stdfile.cpp:101
    asm volatile("swi 70");
    8580:	ef000046 	svc	0x00000046
/mnt/c/Users/Kuba/Documents/ZeroMate/examples/18-edf/stdlib/src/stdfile.cpp:102
    asm volatile("mov %0, r0" : "=r" (retcode));
    8584:	e1a03000 	mov	r3, r0
    8588:	e50b3008 	str	r3, [fp, #-8]
/mnt/c/Users/Kuba/Documents/ZeroMate/examples/18-edf/stdlib/src/stdfile.cpp:104

    return retcode;
    858c:	e51b3008 	ldr	r3, [fp, #-8]
/mnt/c/Users/Kuba/Documents/ZeroMate/examples/18-edf/stdlib/src/stdfile.cpp:105
}
    8590:	e1a00003 	mov	r0, r3
    8594:	e28bd000 	add	sp, fp, #0
    8598:	e49db004 	pop	{fp}		; (ldr fp, [sp], #4)
    859c:	e12fff1e 	bx	lr

000085a0 <_Z5sleepjj>:
_Z5sleepjj():
/mnt/c/Users/Kuba/Documents/ZeroMate/examples/18-edf/stdlib/src/stdfile.cpp:108

bool sleep(uint32_t ticks, uint32_t notified_deadline)
{
    85a0:	e52db004 	push	{fp}		; (str fp, [sp, #-4]!)
    85a4:	e28db000 	add	fp, sp, #0
    85a8:	e24dd014 	sub	sp, sp, #20
    85ac:	e50b0010 	str	r0, [fp, #-16]
    85b0:	e50b1014 	str	r1, [fp, #-20]	; 0xffffffec
/mnt/c/Users/Kuba/Documents/ZeroMate/examples/18-edf/stdlib/src/stdfile.cpp:111
    uint32_t retcode;

    asm volatile("mov r0, %0" : : "r" (ticks));
    85b4:	e51b3010 	ldr	r3, [fp, #-16]
    85b8:	e1a00003 	mov	r0, r3
/mnt/c/Users/Kuba/Documents/ZeroMate/examples/18-edf/stdlib/src/stdfile.cpp:112
    asm volatile("mov r1, %0" : : "r" (notified_deadline));
    85bc:	e51b3014 	ldr	r3, [fp, #-20]	; 0xffffffec
    85c0:	e1a01003 	mov	r1, r3
/mnt/c/Users/Kuba/Documents/ZeroMate/examples/18-edf/stdlib/src/stdfile.cpp:113
    asm volatile("swi 3");
    85c4:	ef000003 	svc	0x00000003
/mnt/c/Users/Kuba/Documents/ZeroMate/examples/18-edf/stdlib/src/stdfile.cpp:114
    asm volatile("mov %0, r0" : "=r" (retcode));
    85c8:	e1a03000 	mov	r3, r0
    85cc:	e50b3008 	str	r3, [fp, #-8]
/mnt/c/Users/Kuba/Documents/ZeroMate/examples/18-edf/stdlib/src/stdfile.cpp:116

    return retcode;
    85d0:	e51b3008 	ldr	r3, [fp, #-8]
    85d4:	e3530000 	cmp	r3, #0
    85d8:	13a03001 	movne	r3, #1
    85dc:	03a03000 	moveq	r3, #0
    85e0:	e6ef3073 	uxtb	r3, r3
/mnt/c/Users/Kuba/Documents/ZeroMate/examples/18-edf/stdlib/src/stdfile.cpp:117
}
    85e4:	e1a00003 	mov	r0, r3
    85e8:	e28bd000 	add	sp, fp, #0
    85ec:	e49db004 	pop	{fp}		; (ldr fp, [sp], #4)
    85f0:	e12fff1e 	bx	lr

000085f4 <_Z24get_active_process_countv>:
_Z24get_active_process_countv():
/mnt/c/Users/Kuba/Documents/ZeroMate/examples/18-edf/stdlib/src/stdfile.cpp:120

uint32_t get_active_process_count()
{
    85f4:	e52db004 	push	{fp}		; (str fp, [sp, #-4]!)
    85f8:	e28db000 	add	fp, sp, #0
    85fc:	e24dd00c 	sub	sp, sp, #12
/mnt/c/Users/Kuba/Documents/ZeroMate/examples/18-edf/stdlib/src/stdfile.cpp:121
    const NGet_Sched_Info_Type req = NGet_Sched_Info_Type::Active_Process_Count;
    8600:	e3a03000 	mov	r3, #0
    8604:	e50b3008 	str	r3, [fp, #-8]
/mnt/c/Users/Kuba/Documents/ZeroMate/examples/18-edf/stdlib/src/stdfile.cpp:124
    uint32_t retval;

    asm volatile("mov r0, %0" : : "r" (req));
    8608:	e3a03000 	mov	r3, #0
    860c:	e1a00003 	mov	r0, r3
/mnt/c/Users/Kuba/Documents/ZeroMate/examples/18-edf/stdlib/src/stdfile.cpp:125
    asm volatile("mov r1, %0" : : "r" (&retval));
    8610:	e24b300c 	sub	r3, fp, #12
    8614:	e1a01003 	mov	r1, r3
/mnt/c/Users/Kuba/Documents/ZeroMate/examples/18-edf/stdlib/src/stdfile.cpp:126
    asm volatile("swi 4");
    8618:	ef000004 	svc	0x00000004
/mnt/c/Users/Kuba/Documents/ZeroMate/examples/18-edf/stdlib/src/stdfile.cpp:128

    return retval;
    861c:	e51b300c 	ldr	r3, [fp, #-12]
/mnt/c/Users/Kuba/Documents/ZeroMate/examples/18-edf/stdlib/src/stdfile.cpp:129
}
    8620:	e1a00003 	mov	r0, r3
    8624:	e28bd000 	add	sp, fp, #0
    8628:	e49db004 	pop	{fp}		; (ldr fp, [sp], #4)
    862c:	e12fff1e 	bx	lr

00008630 <_Z14get_tick_countv>:
_Z14get_tick_countv():
/mnt/c/Users/Kuba/Documents/ZeroMate/examples/18-edf/stdlib/src/stdfile.cpp:132

uint32_t get_tick_count()
{
    8630:	e52db004 	push	{fp}		; (str fp, [sp, #-4]!)
    8634:	e28db000 	add	fp, sp, #0
    8638:	e24dd00c 	sub	sp, sp, #12
/mnt/c/Users/Kuba/Documents/ZeroMate/examples/18-edf/stdlib/src/stdfile.cpp:133
    const NGet_Sched_Info_Type req = NGet_Sched_Info_Type::Tick_Count;
    863c:	e3a03001 	mov	r3, #1
    8640:	e50b3008 	str	r3, [fp, #-8]
/mnt/c/Users/Kuba/Documents/ZeroMate/examples/18-edf/stdlib/src/stdfile.cpp:136
    uint32_t retval;

    asm volatile("mov r0, %0" : : "r" (req));
    8644:	e3a03001 	mov	r3, #1
    8648:	e1a00003 	mov	r0, r3
/mnt/c/Users/Kuba/Documents/ZeroMate/examples/18-edf/stdlib/src/stdfile.cpp:137
    asm volatile("mov r1, %0" : : "r" (&retval));
    864c:	e24b300c 	sub	r3, fp, #12
    8650:	e1a01003 	mov	r1, r3
/mnt/c/Users/Kuba/Documents/ZeroMate/examples/18-edf/stdlib/src/stdfile.cpp:138
    asm volatile("swi 4");
    8654:	ef000004 	svc	0x00000004
/mnt/c/Users/Kuba/Documents/ZeroMate/examples/18-edf/stdlib/src/stdfile.cpp:140

    return retval;
    8658:	e51b300c 	ldr	r3, [fp, #-12]
/mnt/c/Users/Kuba/Documents/ZeroMate/examples/18-edf/stdlib/src/stdfile.cpp:141
}
    865c:	e1a00003 	mov	r0, r3
    8660:	e28bd000 	add	sp, fp, #0
    8664:	e49db004 	pop	{fp}		; (ldr fp, [sp], #4)
    8668:	e12fff1e 	bx	lr

0000866c <_Z17set_task_deadlinej>:
_Z17set_task_deadlinej():
/mnt/c/Users/Kuba/Documents/ZeroMate/examples/18-edf/stdlib/src/stdfile.cpp:144

void set_task_deadline(uint32_t tick_count_required)
{
    866c:	e52db004 	push	{fp}		; (str fp, [sp, #-4]!)
    8670:	e28db000 	add	fp, sp, #0
    8674:	e24dd014 	sub	sp, sp, #20
    8678:	e50b0010 	str	r0, [fp, #-16]
/mnt/c/Users/Kuba/Documents/ZeroMate/examples/18-edf/stdlib/src/stdfile.cpp:145
    const NDeadline_Subservice req = NDeadline_Subservice::Set_Relative;
    867c:	e3a03000 	mov	r3, #0
    8680:	e50b3008 	str	r3, [fp, #-8]
/mnt/c/Users/Kuba/Documents/ZeroMate/examples/18-edf/stdlib/src/stdfile.cpp:147

    asm volatile("mov r0, %0" : : "r" (req));
    8684:	e3a03000 	mov	r3, #0
    8688:	e1a00003 	mov	r0, r3
/mnt/c/Users/Kuba/Documents/ZeroMate/examples/18-edf/stdlib/src/stdfile.cpp:148
    asm volatile("mov r1, %0" : : "r" (&tick_count_required));
    868c:	e24b3010 	sub	r3, fp, #16
    8690:	e1a01003 	mov	r1, r3
/mnt/c/Users/Kuba/Documents/ZeroMate/examples/18-edf/stdlib/src/stdfile.cpp:149
    asm volatile("swi 5");
    8694:	ef000005 	svc	0x00000005
/mnt/c/Users/Kuba/Documents/ZeroMate/examples/18-edf/stdlib/src/stdfile.cpp:150
}
    8698:	e320f000 	nop	{0}
    869c:	e28bd000 	add	sp, fp, #0
    86a0:	e49db004 	pop	{fp}		; (ldr fp, [sp], #4)
    86a4:	e12fff1e 	bx	lr

000086a8 <_Z26get_task_ticks_to_deadlinev>:
_Z26get_task_ticks_to_deadlinev():
/mnt/c/Users/Kuba/Documents/ZeroMate/examples/18-edf/stdlib/src/stdfile.cpp:153

uint32_t get_task_ticks_to_deadline()
{
    86a8:	e52db004 	push	{fp}		; (str fp, [sp, #-4]!)
    86ac:	e28db000 	add	fp, sp, #0
    86b0:	e24dd00c 	sub	sp, sp, #12
/mnt/c/Users/Kuba/Documents/ZeroMate/examples/18-edf/stdlib/src/stdfile.cpp:154
    const NDeadline_Subservice req = NDeadline_Subservice::Get_Remaining;
    86b4:	e3a03001 	mov	r3, #1
    86b8:	e50b3008 	str	r3, [fp, #-8]
/mnt/c/Users/Kuba/Documents/ZeroMate/examples/18-edf/stdlib/src/stdfile.cpp:157
    uint32_t ticks;

    asm volatile("mov r0, %0" : : "r" (req));
    86bc:	e3a03001 	mov	r3, #1
    86c0:	e1a00003 	mov	r0, r3
/mnt/c/Users/Kuba/Documents/ZeroMate/examples/18-edf/stdlib/src/stdfile.cpp:158
    asm volatile("mov r1, %0" : : "r" (&ticks));
    86c4:	e24b300c 	sub	r3, fp, #12
    86c8:	e1a01003 	mov	r1, r3
/mnt/c/Users/Kuba/Documents/ZeroMate/examples/18-edf/stdlib/src/stdfile.cpp:159
    asm volatile("swi 5");
    86cc:	ef000005 	svc	0x00000005
/mnt/c/Users/Kuba/Documents/ZeroMate/examples/18-edf/stdlib/src/stdfile.cpp:161

    return ticks;
    86d0:	e51b300c 	ldr	r3, [fp, #-12]
/mnt/c/Users/Kuba/Documents/ZeroMate/examples/18-edf/stdlib/src/stdfile.cpp:162
}
    86d4:	e1a00003 	mov	r0, r3
    86d8:	e28bd000 	add	sp, fp, #0
    86dc:	e49db004 	pop	{fp}		; (ldr fp, [sp], #4)
    86e0:	e12fff1e 	bx	lr

000086e4 <_Z4pipePKcj>:
_Z4pipePKcj():
/mnt/c/Users/Kuba/Documents/ZeroMate/examples/18-edf/stdlib/src/stdfile.cpp:167

const char Pipe_File_Prefix[] = "SYS:pipe/";

uint32_t pipe(const char* name, uint32_t buf_size)
{
    86e4:	e92d4800 	push	{fp, lr}
    86e8:	e28db004 	add	fp, sp, #4
    86ec:	e24dd050 	sub	sp, sp, #80	; 0x50
    86f0:	e50b0050 	str	r0, [fp, #-80]	; 0xffffffb0
    86f4:	e50b1054 	str	r1, [fp, #-84]	; 0xffffffac
/mnt/c/Users/Kuba/Documents/ZeroMate/examples/18-edf/stdlib/src/stdfile.cpp:169
    char fname[64];
    strncpy(fname, Pipe_File_Prefix, sizeof(Pipe_File_Prefix));
    86f8:	e24b3048 	sub	r3, fp, #72	; 0x48
    86fc:	e3a0200a 	mov	r2, #10
    8700:	e59f1088 	ldr	r1, [pc, #136]	; 8790 <_Z4pipePKcj+0xac>
    8704:	e1a00003 	mov	r0, r3
    8708:	eb0000a5 	bl	89a4 <_Z7strncpyPcPKci>
/mnt/c/Users/Kuba/Documents/ZeroMate/examples/18-edf/stdlib/src/stdfile.cpp:170
    strncpy(fname + sizeof(Pipe_File_Prefix), name, sizeof(fname) - sizeof(Pipe_File_Prefix) - 1);
    870c:	e24b3048 	sub	r3, fp, #72	; 0x48
    8710:	e283300a 	add	r3, r3, #10
    8714:	e3a02035 	mov	r2, #53	; 0x35
    8718:	e51b1050 	ldr	r1, [fp, #-80]	; 0xffffffb0
    871c:	e1a00003 	mov	r0, r3
    8720:	eb00009f 	bl	89a4 <_Z7strncpyPcPKci>
/mnt/c/Users/Kuba/Documents/ZeroMate/examples/18-edf/stdlib/src/stdfile.cpp:172

    int ncur = sizeof(Pipe_File_Prefix) + strlen(name);
    8724:	e51b0050 	ldr	r0, [fp, #-80]	; 0xffffffb0
    8728:	eb0000f8 	bl	8b10 <_Z6strlenPKc>
    872c:	e1a03000 	mov	r3, r0
    8730:	e283300a 	add	r3, r3, #10
    8734:	e50b3008 	str	r3, [fp, #-8]
/mnt/c/Users/Kuba/Documents/ZeroMate/examples/18-edf/stdlib/src/stdfile.cpp:174

    fname[ncur++] = '#';
    8738:	e51b3008 	ldr	r3, [fp, #-8]
    873c:	e2832001 	add	r2, r3, #1
    8740:	e50b2008 	str	r2, [fp, #-8]
    8744:	e2433004 	sub	r3, r3, #4
    8748:	e083300b 	add	r3, r3, fp
    874c:	e3a02023 	mov	r2, #35	; 0x23
    8750:	e5432044 	strb	r2, [r3, #-68]	; 0xffffffbc
/mnt/c/Users/Kuba/Documents/ZeroMate/examples/18-edf/stdlib/src/stdfile.cpp:176

    itoa(buf_size, &fname[ncur], 10);
    8754:	e24b2048 	sub	r2, fp, #72	; 0x48
    8758:	e51b3008 	ldr	r3, [fp, #-8]
    875c:	e0823003 	add	r3, r2, r3
    8760:	e3a0200a 	mov	r2, #10
    8764:	e1a01003 	mov	r1, r3
    8768:	e51b0054 	ldr	r0, [fp, #-84]	; 0xffffffac
    876c:	eb000008 	bl	8794 <_Z4itoajPcj>
/mnt/c/Users/Kuba/Documents/ZeroMate/examples/18-edf/stdlib/src/stdfile.cpp:178

    return open(fname, NFile_Open_Mode::Read_Write);
    8770:	e24b3048 	sub	r3, fp, #72	; 0x48
    8774:	e3a01002 	mov	r1, #2
    8778:	e1a00003 	mov	r0, r3
    877c:	ebffff0a 	bl	83ac <_Z4openPKc15NFile_Open_Mode>
    8780:	e1a03000 	mov	r3, r0
/mnt/c/Users/Kuba/Documents/ZeroMate/examples/18-edf/stdlib/src/stdfile.cpp:179
}
    8784:	e1a00003 	mov	r0, r3
    8788:	e24bd004 	sub	sp, fp, #4
    878c:	e8bd8800 	pop	{fp, pc}
    8790:	00009450 	andeq	r9, r0, r0, asr r4

00008794 <_Z4itoajPcj>:
_Z4itoajPcj():
/mnt/c/Users/Kuba/Documents/ZeroMate/examples/18-edf/stdlib/src/stdstring.cpp:9
{
    const char CharConvArr[] = "0123456789ABCDEF";
}

void itoa(unsigned int input, char* output, unsigned int base)
{
    8794:	e92d4800 	push	{fp, lr}
    8798:	e28db004 	add	fp, sp, #4
    879c:	e24dd020 	sub	sp, sp, #32
    87a0:	e50b0018 	str	r0, [fp, #-24]	; 0xffffffe8
    87a4:	e50b101c 	str	r1, [fp, #-28]	; 0xffffffe4
    87a8:	e50b2020 	str	r2, [fp, #-32]	; 0xffffffe0
/mnt/c/Users/Kuba/Documents/ZeroMate/examples/18-edf/stdlib/src/stdstring.cpp:10
	int i = 0;
    87ac:	e3a03000 	mov	r3, #0
    87b0:	e50b3008 	str	r3, [fp, #-8]
/mnt/c/Users/Kuba/Documents/ZeroMate/examples/18-edf/stdlib/src/stdstring.cpp:12

	while (input > 0)
    87b4:	e51b3018 	ldr	r3, [fp, #-24]	; 0xffffffe8
    87b8:	e3530000 	cmp	r3, #0
    87bc:	0a000014 	beq	8814 <_Z4itoajPcj+0x80>
/mnt/c/Users/Kuba/Documents/ZeroMate/examples/18-edf/stdlib/src/stdstring.cpp:14
	{
		output[i] = CharConvArr[input % base];
    87c0:	e51b3018 	ldr	r3, [fp, #-24]	; 0xffffffe8
    87c4:	e51b1020 	ldr	r1, [fp, #-32]	; 0xffffffe0
    87c8:	e1a00003 	mov	r0, r3
    87cc:	eb0002c6 	bl	92ec <__aeabi_uidivmod>
    87d0:	e1a03001 	mov	r3, r1
    87d4:	e1a01003 	mov	r1, r3
    87d8:	e51b3008 	ldr	r3, [fp, #-8]
    87dc:	e51b201c 	ldr	r2, [fp, #-28]	; 0xffffffe4
    87e0:	e0823003 	add	r3, r2, r3
    87e4:	e59f2118 	ldr	r2, [pc, #280]	; 8904 <_Z4itoajPcj+0x170>
    87e8:	e7d22001 	ldrb	r2, [r2, r1]
    87ec:	e5c32000 	strb	r2, [r3]
/mnt/c/Users/Kuba/Documents/ZeroMate/examples/18-edf/stdlib/src/stdstring.cpp:15
		input /= base;
    87f0:	e51b1020 	ldr	r1, [fp, #-32]	; 0xffffffe0
    87f4:	e51b0018 	ldr	r0, [fp, #-24]	; 0xffffffe8
    87f8:	eb000240 	bl	9100 <__udivsi3>
    87fc:	e1a03000 	mov	r3, r0
    8800:	e50b3018 	str	r3, [fp, #-24]	; 0xffffffe8
/mnt/c/Users/Kuba/Documents/ZeroMate/examples/18-edf/stdlib/src/stdstring.cpp:16
		i++;
    8804:	e51b3008 	ldr	r3, [fp, #-8]
    8808:	e2833001 	add	r3, r3, #1
    880c:	e50b3008 	str	r3, [fp, #-8]
/mnt/c/Users/Kuba/Documents/ZeroMate/examples/18-edf/stdlib/src/stdstring.cpp:12
	while (input > 0)
    8810:	eaffffe7 	b	87b4 <_Z4itoajPcj+0x20>
/mnt/c/Users/Kuba/Documents/ZeroMate/examples/18-edf/stdlib/src/stdstring.cpp:19
	}

    if (i == 0)
    8814:	e51b3008 	ldr	r3, [fp, #-8]
    8818:	e3530000 	cmp	r3, #0
    881c:	1a000007 	bne	8840 <_Z4itoajPcj+0xac>
/mnt/c/Users/Kuba/Documents/ZeroMate/examples/18-edf/stdlib/src/stdstring.cpp:21
    {
        output[i] = CharConvArr[0];
    8820:	e51b3008 	ldr	r3, [fp, #-8]
    8824:	e51b201c 	ldr	r2, [fp, #-28]	; 0xffffffe4
    8828:	e0823003 	add	r3, r2, r3
    882c:	e3a02030 	mov	r2, #48	; 0x30
    8830:	e5c32000 	strb	r2, [r3]
/mnt/c/Users/Kuba/Documents/ZeroMate/examples/18-edf/stdlib/src/stdstring.cpp:22
        i++;
    8834:	e51b3008 	ldr	r3, [fp, #-8]
    8838:	e2833001 	add	r3, r3, #1
    883c:	e50b3008 	str	r3, [fp, #-8]
/mnt/c/Users/Kuba/Documents/ZeroMate/examples/18-edf/stdlib/src/stdstring.cpp:25
    }

	output[i] = '\0';
    8840:	e51b3008 	ldr	r3, [fp, #-8]
    8844:	e51b201c 	ldr	r2, [fp, #-28]	; 0xffffffe4
    8848:	e0823003 	add	r3, r2, r3
    884c:	e3a02000 	mov	r2, #0
    8850:	e5c32000 	strb	r2, [r3]
/mnt/c/Users/Kuba/Documents/ZeroMate/examples/18-edf/stdlib/src/stdstring.cpp:26
	i--;
    8854:	e51b3008 	ldr	r3, [fp, #-8]
    8858:	e2433001 	sub	r3, r3, #1
    885c:	e50b3008 	str	r3, [fp, #-8]
/mnt/c/Users/Kuba/Documents/ZeroMate/examples/18-edf/stdlib/src/stdstring.cpp:28

	for (int j = 0; j <= i/2; j++)
    8860:	e3a03000 	mov	r3, #0
    8864:	e50b300c 	str	r3, [fp, #-12]
/mnt/c/Users/Kuba/Documents/ZeroMate/examples/18-edf/stdlib/src/stdstring.cpp:28 (discriminator 3)
    8868:	e51b3008 	ldr	r3, [fp, #-8]
    886c:	e1a02fa3 	lsr	r2, r3, #31
    8870:	e0823003 	add	r3, r2, r3
    8874:	e1a030c3 	asr	r3, r3, #1
    8878:	e1a02003 	mov	r2, r3
    887c:	e51b300c 	ldr	r3, [fp, #-12]
    8880:	e1530002 	cmp	r3, r2
    8884:	ca00001b 	bgt	88f8 <_Z4itoajPcj+0x164>
/mnt/c/Users/Kuba/Documents/ZeroMate/examples/18-edf/stdlib/src/stdstring.cpp:30 (discriminator 2)
	{
		char c = output[i - j];
    8888:	e51b2008 	ldr	r2, [fp, #-8]
    888c:	e51b300c 	ldr	r3, [fp, #-12]
    8890:	e0423003 	sub	r3, r2, r3
    8894:	e1a02003 	mov	r2, r3
    8898:	e51b301c 	ldr	r3, [fp, #-28]	; 0xffffffe4
    889c:	e0833002 	add	r3, r3, r2
    88a0:	e5d33000 	ldrb	r3, [r3]
    88a4:	e54b300d 	strb	r3, [fp, #-13]
/mnt/c/Users/Kuba/Documents/ZeroMate/examples/18-edf/stdlib/src/stdstring.cpp:31 (discriminator 2)
		output[i - j] = output[j];
    88a8:	e51b300c 	ldr	r3, [fp, #-12]
    88ac:	e51b201c 	ldr	r2, [fp, #-28]	; 0xffffffe4
    88b0:	e0822003 	add	r2, r2, r3
    88b4:	e51b1008 	ldr	r1, [fp, #-8]
    88b8:	e51b300c 	ldr	r3, [fp, #-12]
    88bc:	e0413003 	sub	r3, r1, r3
    88c0:	e1a01003 	mov	r1, r3
    88c4:	e51b301c 	ldr	r3, [fp, #-28]	; 0xffffffe4
    88c8:	e0833001 	add	r3, r3, r1
    88cc:	e5d22000 	ldrb	r2, [r2]
    88d0:	e5c32000 	strb	r2, [r3]
/mnt/c/Users/Kuba/Documents/ZeroMate/examples/18-edf/stdlib/src/stdstring.cpp:32 (discriminator 2)
		output[j] = c;
    88d4:	e51b300c 	ldr	r3, [fp, #-12]
    88d8:	e51b201c 	ldr	r2, [fp, #-28]	; 0xffffffe4
    88dc:	e0823003 	add	r3, r2, r3
    88e0:	e55b200d 	ldrb	r2, [fp, #-13]
    88e4:	e5c32000 	strb	r2, [r3]
/mnt/c/Users/Kuba/Documents/ZeroMate/examples/18-edf/stdlib/src/stdstring.cpp:28 (discriminator 2)
	for (int j = 0; j <= i/2; j++)
    88e8:	e51b300c 	ldr	r3, [fp, #-12]
    88ec:	e2833001 	add	r3, r3, #1
    88f0:	e50b300c 	str	r3, [fp, #-12]
    88f4:	eaffffdb 	b	8868 <_Z4itoajPcj+0xd4>
/mnt/c/Users/Kuba/Documents/ZeroMate/examples/18-edf/stdlib/src/stdstring.cpp:34
	}
}
    88f8:	e320f000 	nop	{0}
    88fc:	e24bd004 	sub	sp, fp, #4
    8900:	e8bd8800 	pop	{fp, pc}
    8904:	0000945c 	andeq	r9, r0, ip, asr r4

00008908 <_Z4atoiPKc>:
_Z4atoiPKc():
/mnt/c/Users/Kuba/Documents/ZeroMate/examples/18-edf/stdlib/src/stdstring.cpp:37

int atoi(const char* input)
{
    8908:	e52db004 	push	{fp}		; (str fp, [sp, #-4]!)
    890c:	e28db000 	add	fp, sp, #0
    8910:	e24dd014 	sub	sp, sp, #20
    8914:	e50b0010 	str	r0, [fp, #-16]
/mnt/c/Users/Kuba/Documents/ZeroMate/examples/18-edf/stdlib/src/stdstring.cpp:38
	int output = 0;
    8918:	e3a03000 	mov	r3, #0
    891c:	e50b3008 	str	r3, [fp, #-8]
/mnt/c/Users/Kuba/Documents/ZeroMate/examples/18-edf/stdlib/src/stdstring.cpp:40

	while (*input != '\0')
    8920:	e51b3010 	ldr	r3, [fp, #-16]
    8924:	e5d33000 	ldrb	r3, [r3]
    8928:	e3530000 	cmp	r3, #0
    892c:	0a000017 	beq	8990 <_Z4atoiPKc+0x88>
/mnt/c/Users/Kuba/Documents/ZeroMate/examples/18-edf/stdlib/src/stdstring.cpp:42
	{
		output *= 10;
    8930:	e51b2008 	ldr	r2, [fp, #-8]
    8934:	e1a03002 	mov	r3, r2
    8938:	e1a03103 	lsl	r3, r3, #2
    893c:	e0833002 	add	r3, r3, r2
    8940:	e1a03083 	lsl	r3, r3, #1
    8944:	e50b3008 	str	r3, [fp, #-8]
/mnt/c/Users/Kuba/Documents/ZeroMate/examples/18-edf/stdlib/src/stdstring.cpp:43
		if (*input > '9' || *input < '0')
    8948:	e51b3010 	ldr	r3, [fp, #-16]
    894c:	e5d33000 	ldrb	r3, [r3]
    8950:	e3530039 	cmp	r3, #57	; 0x39
    8954:	8a00000d 	bhi	8990 <_Z4atoiPKc+0x88>
/mnt/c/Users/Kuba/Documents/ZeroMate/examples/18-edf/stdlib/src/stdstring.cpp:43 (discriminator 1)
    8958:	e51b3010 	ldr	r3, [fp, #-16]
    895c:	e5d33000 	ldrb	r3, [r3]
    8960:	e353002f 	cmp	r3, #47	; 0x2f
    8964:	9a000009 	bls	8990 <_Z4atoiPKc+0x88>
/mnt/c/Users/Kuba/Documents/ZeroMate/examples/18-edf/stdlib/src/stdstring.cpp:46
			break;

		output += *input - '0';
    8968:	e51b3010 	ldr	r3, [fp, #-16]
    896c:	e5d33000 	ldrb	r3, [r3]
    8970:	e2433030 	sub	r3, r3, #48	; 0x30
    8974:	e51b2008 	ldr	r2, [fp, #-8]
    8978:	e0823003 	add	r3, r2, r3
    897c:	e50b3008 	str	r3, [fp, #-8]
/mnt/c/Users/Kuba/Documents/ZeroMate/examples/18-edf/stdlib/src/stdstring.cpp:48

		input++;
    8980:	e51b3010 	ldr	r3, [fp, #-16]
    8984:	e2833001 	add	r3, r3, #1
    8988:	e50b3010 	str	r3, [fp, #-16]
/mnt/c/Users/Kuba/Documents/ZeroMate/examples/18-edf/stdlib/src/stdstring.cpp:40
	while (*input != '\0')
    898c:	eaffffe3 	b	8920 <_Z4atoiPKc+0x18>
/mnt/c/Users/Kuba/Documents/ZeroMate/examples/18-edf/stdlib/src/stdstring.cpp:51
	}

	return output;
    8990:	e51b3008 	ldr	r3, [fp, #-8]
/mnt/c/Users/Kuba/Documents/ZeroMate/examples/18-edf/stdlib/src/stdstring.cpp:52
}
    8994:	e1a00003 	mov	r0, r3
    8998:	e28bd000 	add	sp, fp, #0
    899c:	e49db004 	pop	{fp}		; (ldr fp, [sp], #4)
    89a0:	e12fff1e 	bx	lr

000089a4 <_Z7strncpyPcPKci>:
_Z7strncpyPcPKci():
/mnt/c/Users/Kuba/Documents/ZeroMate/examples/18-edf/stdlib/src/stdstring.cpp:55

char* strncpy(char* dest, const char *src, int num)
{
    89a4:	e52db004 	push	{fp}		; (str fp, [sp, #-4]!)
    89a8:	e28db000 	add	fp, sp, #0
    89ac:	e24dd01c 	sub	sp, sp, #28
    89b0:	e50b0010 	str	r0, [fp, #-16]
    89b4:	e50b1014 	str	r1, [fp, #-20]	; 0xffffffec
    89b8:	e50b2018 	str	r2, [fp, #-24]	; 0xffffffe8
/mnt/c/Users/Kuba/Documents/ZeroMate/examples/18-edf/stdlib/src/stdstring.cpp:58
	int i;

	for (i = 0; i < num && src[i] != '\0'; i++)
    89bc:	e3a03000 	mov	r3, #0
    89c0:	e50b3008 	str	r3, [fp, #-8]
/mnt/c/Users/Kuba/Documents/ZeroMate/examples/18-edf/stdlib/src/stdstring.cpp:58 (discriminator 4)
    89c4:	e51b2008 	ldr	r2, [fp, #-8]
    89c8:	e51b3018 	ldr	r3, [fp, #-24]	; 0xffffffe8
    89cc:	e1520003 	cmp	r2, r3
    89d0:	aa000011 	bge	8a1c <_Z7strncpyPcPKci+0x78>
/mnt/c/Users/Kuba/Documents/ZeroMate/examples/18-edf/stdlib/src/stdstring.cpp:58 (discriminator 2)
    89d4:	e51b3008 	ldr	r3, [fp, #-8]
    89d8:	e51b2014 	ldr	r2, [fp, #-20]	; 0xffffffec
    89dc:	e0823003 	add	r3, r2, r3
    89e0:	e5d33000 	ldrb	r3, [r3]
    89e4:	e3530000 	cmp	r3, #0
    89e8:	0a00000b 	beq	8a1c <_Z7strncpyPcPKci+0x78>
/mnt/c/Users/Kuba/Documents/ZeroMate/examples/18-edf/stdlib/src/stdstring.cpp:59 (discriminator 3)
		dest[i] = src[i];
    89ec:	e51b3008 	ldr	r3, [fp, #-8]
    89f0:	e51b2014 	ldr	r2, [fp, #-20]	; 0xffffffec
    89f4:	e0822003 	add	r2, r2, r3
    89f8:	e51b3008 	ldr	r3, [fp, #-8]
    89fc:	e51b1010 	ldr	r1, [fp, #-16]
    8a00:	e0813003 	add	r3, r1, r3
    8a04:	e5d22000 	ldrb	r2, [r2]
    8a08:	e5c32000 	strb	r2, [r3]
/mnt/c/Users/Kuba/Documents/ZeroMate/examples/18-edf/stdlib/src/stdstring.cpp:58 (discriminator 3)
	for (i = 0; i < num && src[i] != '\0'; i++)
    8a0c:	e51b3008 	ldr	r3, [fp, #-8]
    8a10:	e2833001 	add	r3, r3, #1
    8a14:	e50b3008 	str	r3, [fp, #-8]
    8a18:	eaffffe9 	b	89c4 <_Z7strncpyPcPKci+0x20>
/mnt/c/Users/Kuba/Documents/ZeroMate/examples/18-edf/stdlib/src/stdstring.cpp:60 (discriminator 2)
	for (; i < num; i++)
    8a1c:	e51b2008 	ldr	r2, [fp, #-8]
    8a20:	e51b3018 	ldr	r3, [fp, #-24]	; 0xffffffe8
    8a24:	e1520003 	cmp	r2, r3
    8a28:	aa000008 	bge	8a50 <_Z7strncpyPcPKci+0xac>
/mnt/c/Users/Kuba/Documents/ZeroMate/examples/18-edf/stdlib/src/stdstring.cpp:61 (discriminator 1)
		dest[i] = '\0';
    8a2c:	e51b3008 	ldr	r3, [fp, #-8]
    8a30:	e51b2010 	ldr	r2, [fp, #-16]
    8a34:	e0823003 	add	r3, r2, r3
    8a38:	e3a02000 	mov	r2, #0
    8a3c:	e5c32000 	strb	r2, [r3]
/mnt/c/Users/Kuba/Documents/ZeroMate/examples/18-edf/stdlib/src/stdstring.cpp:60 (discriminator 1)
	for (; i < num; i++)
    8a40:	e51b3008 	ldr	r3, [fp, #-8]
    8a44:	e2833001 	add	r3, r3, #1
    8a48:	e50b3008 	str	r3, [fp, #-8]
    8a4c:	eafffff2 	b	8a1c <_Z7strncpyPcPKci+0x78>
/mnt/c/Users/Kuba/Documents/ZeroMate/examples/18-edf/stdlib/src/stdstring.cpp:63

   return dest;
    8a50:	e51b3010 	ldr	r3, [fp, #-16]
/mnt/c/Users/Kuba/Documents/ZeroMate/examples/18-edf/stdlib/src/stdstring.cpp:64
}
    8a54:	e1a00003 	mov	r0, r3
    8a58:	e28bd000 	add	sp, fp, #0
    8a5c:	e49db004 	pop	{fp}		; (ldr fp, [sp], #4)
    8a60:	e12fff1e 	bx	lr

00008a64 <_Z7strncmpPKcS0_i>:
_Z7strncmpPKcS0_i():
/mnt/c/Users/Kuba/Documents/ZeroMate/examples/18-edf/stdlib/src/stdstring.cpp:67

int strncmp(const char *s1, const char *s2, int num)
{
    8a64:	e52db004 	push	{fp}		; (str fp, [sp, #-4]!)
    8a68:	e28db000 	add	fp, sp, #0
    8a6c:	e24dd01c 	sub	sp, sp, #28
    8a70:	e50b0010 	str	r0, [fp, #-16]
    8a74:	e50b1014 	str	r1, [fp, #-20]	; 0xffffffec
    8a78:	e50b2018 	str	r2, [fp, #-24]	; 0xffffffe8
/mnt/c/Users/Kuba/Documents/ZeroMate/examples/18-edf/stdlib/src/stdstring.cpp:69
	unsigned char u1, u2;
  	while (num-- > 0)
    8a7c:	e51b3018 	ldr	r3, [fp, #-24]	; 0xffffffe8
    8a80:	e2432001 	sub	r2, r3, #1
    8a84:	e50b2018 	str	r2, [fp, #-24]	; 0xffffffe8
    8a88:	e3530000 	cmp	r3, #0
    8a8c:	c3a03001 	movgt	r3, #1
    8a90:	d3a03000 	movle	r3, #0
    8a94:	e6ef3073 	uxtb	r3, r3
    8a98:	e3530000 	cmp	r3, #0
    8a9c:	0a000016 	beq	8afc <_Z7strncmpPKcS0_i+0x98>
/mnt/c/Users/Kuba/Documents/ZeroMate/examples/18-edf/stdlib/src/stdstring.cpp:71
    {
      	u1 = (unsigned char) *s1++;
    8aa0:	e51b3010 	ldr	r3, [fp, #-16]
    8aa4:	e2832001 	add	r2, r3, #1
    8aa8:	e50b2010 	str	r2, [fp, #-16]
    8aac:	e5d33000 	ldrb	r3, [r3]
    8ab0:	e54b3005 	strb	r3, [fp, #-5]
/mnt/c/Users/Kuba/Documents/ZeroMate/examples/18-edf/stdlib/src/stdstring.cpp:72
     	u2 = (unsigned char) *s2++;
    8ab4:	e51b3014 	ldr	r3, [fp, #-20]	; 0xffffffec
    8ab8:	e2832001 	add	r2, r3, #1
    8abc:	e50b2014 	str	r2, [fp, #-20]	; 0xffffffec
    8ac0:	e5d33000 	ldrb	r3, [r3]
    8ac4:	e54b3006 	strb	r3, [fp, #-6]
/mnt/c/Users/Kuba/Documents/ZeroMate/examples/18-edf/stdlib/src/stdstring.cpp:73
      	if (u1 != u2)
    8ac8:	e55b2005 	ldrb	r2, [fp, #-5]
    8acc:	e55b3006 	ldrb	r3, [fp, #-6]
    8ad0:	e1520003 	cmp	r2, r3
    8ad4:	0a000003 	beq	8ae8 <_Z7strncmpPKcS0_i+0x84>
/mnt/c/Users/Kuba/Documents/ZeroMate/examples/18-edf/stdlib/src/stdstring.cpp:74
        	return u1 - u2;
    8ad8:	e55b2005 	ldrb	r2, [fp, #-5]
    8adc:	e55b3006 	ldrb	r3, [fp, #-6]
    8ae0:	e0423003 	sub	r3, r2, r3
    8ae4:	ea000005 	b	8b00 <_Z7strncmpPKcS0_i+0x9c>
/mnt/c/Users/Kuba/Documents/ZeroMate/examples/18-edf/stdlib/src/stdstring.cpp:75
      	if (u1 == '\0')
    8ae8:	e55b3005 	ldrb	r3, [fp, #-5]
    8aec:	e3530000 	cmp	r3, #0
    8af0:	1affffe1 	bne	8a7c <_Z7strncmpPKcS0_i+0x18>
/mnt/c/Users/Kuba/Documents/ZeroMate/examples/18-edf/stdlib/src/stdstring.cpp:76
        	return 0;
    8af4:	e3a03000 	mov	r3, #0
    8af8:	ea000000 	b	8b00 <_Z7strncmpPKcS0_i+0x9c>
/mnt/c/Users/Kuba/Documents/ZeroMate/examples/18-edf/stdlib/src/stdstring.cpp:79
    }

  	return 0;
    8afc:	e3a03000 	mov	r3, #0
/mnt/c/Users/Kuba/Documents/ZeroMate/examples/18-edf/stdlib/src/stdstring.cpp:80
}
    8b00:	e1a00003 	mov	r0, r3
    8b04:	e28bd000 	add	sp, fp, #0
    8b08:	e49db004 	pop	{fp}		; (ldr fp, [sp], #4)
    8b0c:	e12fff1e 	bx	lr

00008b10 <_Z6strlenPKc>:
_Z6strlenPKc():
/mnt/c/Users/Kuba/Documents/ZeroMate/examples/18-edf/stdlib/src/stdstring.cpp:83

int strlen(const char* s)
{
    8b10:	e52db004 	push	{fp}		; (str fp, [sp, #-4]!)
    8b14:	e28db000 	add	fp, sp, #0
    8b18:	e24dd014 	sub	sp, sp, #20
    8b1c:	e50b0010 	str	r0, [fp, #-16]
/mnt/c/Users/Kuba/Documents/ZeroMate/examples/18-edf/stdlib/src/stdstring.cpp:84
	int i = 0;
    8b20:	e3a03000 	mov	r3, #0
    8b24:	e50b3008 	str	r3, [fp, #-8]
/mnt/c/Users/Kuba/Documents/ZeroMate/examples/18-edf/stdlib/src/stdstring.cpp:86

	while (s[i] != '\0')
    8b28:	e51b3008 	ldr	r3, [fp, #-8]
    8b2c:	e51b2010 	ldr	r2, [fp, #-16]
    8b30:	e0823003 	add	r3, r2, r3
    8b34:	e5d33000 	ldrb	r3, [r3]
    8b38:	e3530000 	cmp	r3, #0
    8b3c:	0a000003 	beq	8b50 <_Z6strlenPKc+0x40>
/mnt/c/Users/Kuba/Documents/ZeroMate/examples/18-edf/stdlib/src/stdstring.cpp:87
		i++;
    8b40:	e51b3008 	ldr	r3, [fp, #-8]
    8b44:	e2833001 	add	r3, r3, #1
    8b48:	e50b3008 	str	r3, [fp, #-8]
/mnt/c/Users/Kuba/Documents/ZeroMate/examples/18-edf/stdlib/src/stdstring.cpp:86
	while (s[i] != '\0')
    8b4c:	eafffff5 	b	8b28 <_Z6strlenPKc+0x18>
/mnt/c/Users/Kuba/Documents/ZeroMate/examples/18-edf/stdlib/src/stdstring.cpp:89

	return i;
    8b50:	e51b3008 	ldr	r3, [fp, #-8]
/mnt/c/Users/Kuba/Documents/ZeroMate/examples/18-edf/stdlib/src/stdstring.cpp:90
}
    8b54:	e1a00003 	mov	r0, r3
    8b58:	e28bd000 	add	sp, fp, #0
    8b5c:	e49db004 	pop	{fp}		; (ldr fp, [sp], #4)
    8b60:	e12fff1e 	bx	lr

00008b64 <_Z5bzeroPvi>:
_Z5bzeroPvi():
/mnt/c/Users/Kuba/Documents/ZeroMate/examples/18-edf/stdlib/src/stdstring.cpp:93

void bzero(void* memory, int length)
{
    8b64:	e52db004 	push	{fp}		; (str fp, [sp, #-4]!)
    8b68:	e28db000 	add	fp, sp, #0
    8b6c:	e24dd014 	sub	sp, sp, #20
    8b70:	e50b0010 	str	r0, [fp, #-16]
    8b74:	e50b1014 	str	r1, [fp, #-20]	; 0xffffffec
/mnt/c/Users/Kuba/Documents/ZeroMate/examples/18-edf/stdlib/src/stdstring.cpp:94
	char* mem = reinterpret_cast<char*>(memory);
    8b78:	e51b3010 	ldr	r3, [fp, #-16]
    8b7c:	e50b300c 	str	r3, [fp, #-12]
/mnt/c/Users/Kuba/Documents/ZeroMate/examples/18-edf/stdlib/src/stdstring.cpp:96

	for (int i = 0; i < length; i++)
    8b80:	e3a03000 	mov	r3, #0
    8b84:	e50b3008 	str	r3, [fp, #-8]
/mnt/c/Users/Kuba/Documents/ZeroMate/examples/18-edf/stdlib/src/stdstring.cpp:96 (discriminator 3)
    8b88:	e51b2008 	ldr	r2, [fp, #-8]
    8b8c:	e51b3014 	ldr	r3, [fp, #-20]	; 0xffffffec
    8b90:	e1520003 	cmp	r2, r3
    8b94:	aa000008 	bge	8bbc <_Z5bzeroPvi+0x58>
/mnt/c/Users/Kuba/Documents/ZeroMate/examples/18-edf/stdlib/src/stdstring.cpp:97 (discriminator 2)
		mem[i] = 0;
    8b98:	e51b3008 	ldr	r3, [fp, #-8]
    8b9c:	e51b200c 	ldr	r2, [fp, #-12]
    8ba0:	e0823003 	add	r3, r2, r3
    8ba4:	e3a02000 	mov	r2, #0
    8ba8:	e5c32000 	strb	r2, [r3]
/mnt/c/Users/Kuba/Documents/ZeroMate/examples/18-edf/stdlib/src/stdstring.cpp:96 (discriminator 2)
	for (int i = 0; i < length; i++)
    8bac:	e51b3008 	ldr	r3, [fp, #-8]
    8bb0:	e2833001 	add	r3, r3, #1
    8bb4:	e50b3008 	str	r3, [fp, #-8]
    8bb8:	eafffff2 	b	8b88 <_Z5bzeroPvi+0x24>
/mnt/c/Users/Kuba/Documents/ZeroMate/examples/18-edf/stdlib/src/stdstring.cpp:98
}
    8bbc:	e320f000 	nop	{0}
    8bc0:	e28bd000 	add	sp, fp, #0
    8bc4:	e49db004 	pop	{fp}		; (ldr fp, [sp], #4)
    8bc8:	e12fff1e 	bx	lr

00008bcc <_Z6memcpyPKvPvi>:
_Z6memcpyPKvPvi():
/mnt/c/Users/Kuba/Documents/ZeroMate/examples/18-edf/stdlib/src/stdstring.cpp:101

void memcpy(const void* src, void* dst, int num)
{
    8bcc:	e52db004 	push	{fp}		; (str fp, [sp, #-4]!)
    8bd0:	e28db000 	add	fp, sp, #0
    8bd4:	e24dd024 	sub	sp, sp, #36	; 0x24
    8bd8:	e50b0018 	str	r0, [fp, #-24]	; 0xffffffe8
    8bdc:	e50b101c 	str	r1, [fp, #-28]	; 0xffffffe4
    8be0:	e50b2020 	str	r2, [fp, #-32]	; 0xffffffe0
/mnt/c/Users/Kuba/Documents/ZeroMate/examples/18-edf/stdlib/src/stdstring.cpp:102
	const char* memsrc = reinterpret_cast<const char*>(src);
    8be4:	e51b3018 	ldr	r3, [fp, #-24]	; 0xffffffe8
    8be8:	e50b300c 	str	r3, [fp, #-12]
/mnt/c/Users/Kuba/Documents/ZeroMate/examples/18-edf/stdlib/src/stdstring.cpp:103
	char* memdst = reinterpret_cast<char*>(dst);
    8bec:	e51b301c 	ldr	r3, [fp, #-28]	; 0xffffffe4
    8bf0:	e50b3010 	str	r3, [fp, #-16]
/mnt/c/Users/Kuba/Documents/ZeroMate/examples/18-edf/stdlib/src/stdstring.cpp:105

	for (int i = 0; i < num; i++)
    8bf4:	e3a03000 	mov	r3, #0
    8bf8:	e50b3008 	str	r3, [fp, #-8]
/mnt/c/Users/Kuba/Documents/ZeroMate/examples/18-edf/stdlib/src/stdstring.cpp:105 (discriminator 3)
    8bfc:	e51b2008 	ldr	r2, [fp, #-8]
    8c00:	e51b3020 	ldr	r3, [fp, #-32]	; 0xffffffe0
    8c04:	e1520003 	cmp	r2, r3
    8c08:	aa00000b 	bge	8c3c <_Z6memcpyPKvPvi+0x70>
/mnt/c/Users/Kuba/Documents/ZeroMate/examples/18-edf/stdlib/src/stdstring.cpp:106 (discriminator 2)
		memdst[i] = memsrc[i];
    8c0c:	e51b3008 	ldr	r3, [fp, #-8]
    8c10:	e51b200c 	ldr	r2, [fp, #-12]
    8c14:	e0822003 	add	r2, r2, r3
    8c18:	e51b3008 	ldr	r3, [fp, #-8]
    8c1c:	e51b1010 	ldr	r1, [fp, #-16]
    8c20:	e0813003 	add	r3, r1, r3
    8c24:	e5d22000 	ldrb	r2, [r2]
    8c28:	e5c32000 	strb	r2, [r3]
/mnt/c/Users/Kuba/Documents/ZeroMate/examples/18-edf/stdlib/src/stdstring.cpp:105 (discriminator 2)
	for (int i = 0; i < num; i++)
    8c2c:	e51b3008 	ldr	r3, [fp, #-8]
    8c30:	e2833001 	add	r3, r3, #1
    8c34:	e50b3008 	str	r3, [fp, #-8]
    8c38:	eaffffef 	b	8bfc <_Z6memcpyPKvPvi+0x30>
/mnt/c/Users/Kuba/Documents/ZeroMate/examples/18-edf/stdlib/src/stdstring.cpp:107
}
    8c3c:	e320f000 	nop	{0}
    8c40:	e28bd000 	add	sp, fp, #0
    8c44:	e49db004 	pop	{fp}		; (ldr fp, [sp], #4)
    8c48:	e12fff1e 	bx	lr

00008c4c <_ZN13COLED_DisplayC1EPKc>:
_ZN13COLED_DisplayC2EPKc():
/mnt/c/Users/Kuba/Documents/ZeroMate/examples/18-edf/stdutils/src/oled.cpp:10
#include <drivers/bridges/display_protocol.h>

// tento soubor includujeme jen odtud
#include "oled_font.h"

COLED_Display::COLED_Display(const char* path)
    8c4c:	e92d4800 	push	{fp, lr}
    8c50:	e28db004 	add	fp, sp, #4
    8c54:	e24dd008 	sub	sp, sp, #8
    8c58:	e50b0008 	str	r0, [fp, #-8]
    8c5c:	e50b100c 	str	r1, [fp, #-12]
/mnt/c/Users/Kuba/Documents/ZeroMate/examples/18-edf/stdutils/src/oled.cpp:11
    : mHandle{ open(path, NFile_Open_Mode::Write_Only) }, mOpened(false)
    8c60:	e3a01001 	mov	r1, #1
    8c64:	e51b000c 	ldr	r0, [fp, #-12]
    8c68:	ebfffdcf 	bl	83ac <_Z4openPKc15NFile_Open_Mode>
    8c6c:	e1a02000 	mov	r2, r0
    8c70:	e51b3008 	ldr	r3, [fp, #-8]
    8c74:	e5832000 	str	r2, [r3]
    8c78:	e51b3008 	ldr	r3, [fp, #-8]
    8c7c:	e3a02000 	mov	r2, #0
    8c80:	e5c32004 	strb	r2, [r3, #4]
/mnt/c/Users/Kuba/Documents/ZeroMate/examples/18-edf/stdutils/src/oled.cpp:14
{
    // nastavime priznak dle toho, co vrati open
    mOpened = (mHandle != static_cast<uint32_t>(-1));
    8c84:	e51b3008 	ldr	r3, [fp, #-8]
    8c88:	e5933000 	ldr	r3, [r3]
    8c8c:	e3730001 	cmn	r3, #1
    8c90:	13a03001 	movne	r3, #1
    8c94:	03a03000 	moveq	r3, #0
    8c98:	e6ef2073 	uxtb	r2, r3
    8c9c:	e51b3008 	ldr	r3, [fp, #-8]
    8ca0:	e5c32004 	strb	r2, [r3, #4]
/mnt/c/Users/Kuba/Documents/ZeroMate/examples/18-edf/stdutils/src/oled.cpp:15
}
    8ca4:	e51b3008 	ldr	r3, [fp, #-8]
    8ca8:	e1a00003 	mov	r0, r3
    8cac:	e24bd004 	sub	sp, fp, #4
    8cb0:	e8bd8800 	pop	{fp, pc}

00008cb4 <_ZN13COLED_DisplayD1Ev>:
_ZN13COLED_DisplayD2Ev():
/mnt/c/Users/Kuba/Documents/ZeroMate/examples/18-edf/stdutils/src/oled.cpp:17

COLED_Display::~COLED_Display()
    8cb4:	e92d4800 	push	{fp, lr}
    8cb8:	e28db004 	add	fp, sp, #4
    8cbc:	e24dd008 	sub	sp, sp, #8
    8cc0:	e50b0008 	str	r0, [fp, #-8]
/mnt/c/Users/Kuba/Documents/ZeroMate/examples/18-edf/stdutils/src/oled.cpp:20
{
    // pokud byl displej otevreny, zavreme
    if (mOpened)
    8cc4:	e51b3008 	ldr	r3, [fp, #-8]
    8cc8:	e5d33004 	ldrb	r3, [r3, #4]
    8ccc:	e3530000 	cmp	r3, #0
    8cd0:	0a000006 	beq	8cf0 <_ZN13COLED_DisplayD1Ev+0x3c>
/mnt/c/Users/Kuba/Documents/ZeroMate/examples/18-edf/stdutils/src/oled.cpp:22
    {
        mOpened = false;
    8cd4:	e51b3008 	ldr	r3, [fp, #-8]
    8cd8:	e3a02000 	mov	r2, #0
    8cdc:	e5c32004 	strb	r2, [r3, #4]
/mnt/c/Users/Kuba/Documents/ZeroMate/examples/18-edf/stdutils/src/oled.cpp:23
        close(mHandle);
    8ce0:	e51b3008 	ldr	r3, [fp, #-8]
    8ce4:	e5933000 	ldr	r3, [r3]
    8ce8:	e1a00003 	mov	r0, r3
    8cec:	ebfffde7 	bl	8490 <_Z5closej>
/mnt/c/Users/Kuba/Documents/ZeroMate/examples/18-edf/stdutils/src/oled.cpp:25
    }
}
    8cf0:	e51b3008 	ldr	r3, [fp, #-8]
    8cf4:	e1a00003 	mov	r0, r3
    8cf8:	e24bd004 	sub	sp, fp, #4
    8cfc:	e8bd8800 	pop	{fp, pc}

00008d00 <_ZNK13COLED_Display9Is_OpenedEv>:
_ZNK13COLED_Display9Is_OpenedEv():
/mnt/c/Users/Kuba/Documents/ZeroMate/examples/18-edf/stdutils/src/oled.cpp:28

bool COLED_Display::Is_Opened() const
{
    8d00:	e52db004 	push	{fp}		; (str fp, [sp, #-4]!)
    8d04:	e28db000 	add	fp, sp, #0
    8d08:	e24dd00c 	sub	sp, sp, #12
    8d0c:	e50b0008 	str	r0, [fp, #-8]
/mnt/c/Users/Kuba/Documents/ZeroMate/examples/18-edf/stdutils/src/oled.cpp:29
    return mOpened;
    8d10:	e51b3008 	ldr	r3, [fp, #-8]
    8d14:	e5d33004 	ldrb	r3, [r3, #4]
/mnt/c/Users/Kuba/Documents/ZeroMate/examples/18-edf/stdutils/src/oled.cpp:30
}
    8d18:	e1a00003 	mov	r0, r3
    8d1c:	e28bd000 	add	sp, fp, #0
    8d20:	e49db004 	pop	{fp}		; (ldr fp, [sp], #4)
    8d24:	e12fff1e 	bx	lr

00008d28 <_ZN13COLED_Display5ClearEb>:
_ZN13COLED_Display5ClearEb():
/mnt/c/Users/Kuba/Documents/ZeroMate/examples/18-edf/stdutils/src/oled.cpp:33

void COLED_Display::Clear(bool clearSet)
{
    8d28:	e92d4800 	push	{fp, lr}
    8d2c:	e28db004 	add	fp, sp, #4
    8d30:	e24dd010 	sub	sp, sp, #16
    8d34:	e50b0010 	str	r0, [fp, #-16]
    8d38:	e1a03001 	mov	r3, r1
    8d3c:	e54b3011 	strb	r3, [fp, #-17]	; 0xffffffef
/mnt/c/Users/Kuba/Documents/ZeroMate/examples/18-edf/stdutils/src/oled.cpp:34
    if (!mOpened)
    8d40:	e51b3010 	ldr	r3, [fp, #-16]
    8d44:	e5d33004 	ldrb	r3, [r3, #4]
    8d48:	e2233001 	eor	r3, r3, #1
    8d4c:	e6ef3073 	uxtb	r3, r3
    8d50:	e3530000 	cmp	r3, #0
    8d54:	1a00000f 	bne	8d98 <_ZN13COLED_Display5ClearEb+0x70>
/mnt/c/Users/Kuba/Documents/ZeroMate/examples/18-edf/stdutils/src/oled.cpp:38
        return;

    TDisplay_Clear_Packet pkt;
	pkt.header.cmd = NDisplay_Command::Clear;
    8d58:	e3a03002 	mov	r3, #2
    8d5c:	e54b3008 	strb	r3, [fp, #-8]
/mnt/c/Users/Kuba/Documents/ZeroMate/examples/18-edf/stdutils/src/oled.cpp:39
	pkt.clearSet = clearSet ? 1 : 0;
    8d60:	e55b3011 	ldrb	r3, [fp, #-17]	; 0xffffffef
    8d64:	e3530000 	cmp	r3, #0
    8d68:	0a000001 	beq	8d74 <_ZN13COLED_Display5ClearEb+0x4c>
/mnt/c/Users/Kuba/Documents/ZeroMate/examples/18-edf/stdutils/src/oled.cpp:39 (discriminator 1)
    8d6c:	e3a03001 	mov	r3, #1
    8d70:	ea000000 	b	8d78 <_ZN13COLED_Display5ClearEb+0x50>
/mnt/c/Users/Kuba/Documents/ZeroMate/examples/18-edf/stdutils/src/oled.cpp:39 (discriminator 2)
    8d74:	e3a03000 	mov	r3, #0
/mnt/c/Users/Kuba/Documents/ZeroMate/examples/18-edf/stdutils/src/oled.cpp:39 (discriminator 4)
    8d78:	e54b3007 	strb	r3, [fp, #-7]
/mnt/c/Users/Kuba/Documents/ZeroMate/examples/18-edf/stdutils/src/oled.cpp:40 (discriminator 4)
	write(mHandle, reinterpret_cast<char*>(&pkt), sizeof(pkt));
    8d7c:	e51b3010 	ldr	r3, [fp, #-16]
    8d80:	e5933000 	ldr	r3, [r3]
    8d84:	e24b1008 	sub	r1, fp, #8
    8d88:	e3a02002 	mov	r2, #2
    8d8c:	e1a00003 	mov	r0, r3
    8d90:	ebfffdaa 	bl	8440 <_Z5writejPKcj>
    8d94:	ea000000 	b	8d9c <_ZN13COLED_Display5ClearEb+0x74>
/mnt/c/Users/Kuba/Documents/ZeroMate/examples/18-edf/stdutils/src/oled.cpp:35
        return;
    8d98:	e320f000 	nop	{0}
/mnt/c/Users/Kuba/Documents/ZeroMate/examples/18-edf/stdutils/src/oled.cpp:41
}
    8d9c:	e24bd004 	sub	sp, fp, #4
    8da0:	e8bd8800 	pop	{fp, pc}

00008da4 <_ZN13COLED_Display9Set_PixelEttb>:
_ZN13COLED_Display9Set_PixelEttb():
/mnt/c/Users/Kuba/Documents/ZeroMate/examples/18-edf/stdutils/src/oled.cpp:44

void COLED_Display::Set_Pixel(uint16_t x, uint16_t y, bool set)
{
    8da4:	e92d4800 	push	{fp, lr}
    8da8:	e28db004 	add	fp, sp, #4
    8dac:	e24dd018 	sub	sp, sp, #24
    8db0:	e50b0010 	str	r0, [fp, #-16]
    8db4:	e1a00001 	mov	r0, r1
    8db8:	e1a01002 	mov	r1, r2
    8dbc:	e1a02003 	mov	r2, r3
    8dc0:	e1a03000 	mov	r3, r0
    8dc4:	e14b31b2 	strh	r3, [fp, #-18]	; 0xffffffee
    8dc8:	e1a03001 	mov	r3, r1
    8dcc:	e14b31b4 	strh	r3, [fp, #-20]	; 0xffffffec
    8dd0:	e1a03002 	mov	r3, r2
    8dd4:	e54b3015 	strb	r3, [fp, #-21]	; 0xffffffeb
/mnt/c/Users/Kuba/Documents/ZeroMate/examples/18-edf/stdutils/src/oled.cpp:45
    if (!mOpened)
    8dd8:	e51b3010 	ldr	r3, [fp, #-16]
    8ddc:	e5d33004 	ldrb	r3, [r3, #4]
    8de0:	e2233001 	eor	r3, r3, #1
    8de4:	e6ef3073 	uxtb	r3, r3
    8de8:	e3530000 	cmp	r3, #0
    8dec:	1a000024 	bne	8e84 <_ZN13COLED_Display9Set_PixelEttb+0xe0>
/mnt/c/Users/Kuba/Documents/ZeroMate/examples/18-edf/stdutils/src/oled.cpp:50
        return;

    // nehospodarny zpusob, jak nastavit pixely, ale pro ted staci
    TDisplay_Draw_Pixel_Array_Packet pkt;
    pkt.header.cmd = NDisplay_Command::Draw_Pixel_Array;
    8df0:	e3a03003 	mov	r3, #3
    8df4:	e54b300c 	strb	r3, [fp, #-12]
/mnt/c/Users/Kuba/Documents/ZeroMate/examples/18-edf/stdutils/src/oled.cpp:51
    pkt.count = 1;
    8df8:	e3a03000 	mov	r3, #0
    8dfc:	e3833001 	orr	r3, r3, #1
    8e00:	e54b300b 	strb	r3, [fp, #-11]
    8e04:	e3a03000 	mov	r3, #0
    8e08:	e54b300a 	strb	r3, [fp, #-10]
/mnt/c/Users/Kuba/Documents/ZeroMate/examples/18-edf/stdutils/src/oled.cpp:52
    pkt.first.x = x;
    8e0c:	e55b3012 	ldrb	r3, [fp, #-18]	; 0xffffffee
    8e10:	e3a02000 	mov	r2, #0
    8e14:	e1823003 	orr	r3, r2, r3
    8e18:	e54b3009 	strb	r3, [fp, #-9]
    8e1c:	e55b3011 	ldrb	r3, [fp, #-17]	; 0xffffffef
    8e20:	e3a02000 	mov	r2, #0
    8e24:	e1823003 	orr	r3, r2, r3
    8e28:	e54b3008 	strb	r3, [fp, #-8]
/mnt/c/Users/Kuba/Documents/ZeroMate/examples/18-edf/stdutils/src/oled.cpp:53
    pkt.first.y = y;
    8e2c:	e55b3014 	ldrb	r3, [fp, #-20]	; 0xffffffec
    8e30:	e3a02000 	mov	r2, #0
    8e34:	e1823003 	orr	r3, r2, r3
    8e38:	e54b3007 	strb	r3, [fp, #-7]
    8e3c:	e55b3013 	ldrb	r3, [fp, #-19]	; 0xffffffed
    8e40:	e3a02000 	mov	r2, #0
    8e44:	e1823003 	orr	r3, r2, r3
    8e48:	e54b3006 	strb	r3, [fp, #-6]
/mnt/c/Users/Kuba/Documents/ZeroMate/examples/18-edf/stdutils/src/oled.cpp:54
    pkt.first.set = set ? 1 : 0;
    8e4c:	e55b3015 	ldrb	r3, [fp, #-21]	; 0xffffffeb
    8e50:	e3530000 	cmp	r3, #0
    8e54:	0a000001 	beq	8e60 <_ZN13COLED_Display9Set_PixelEttb+0xbc>
/mnt/c/Users/Kuba/Documents/ZeroMate/examples/18-edf/stdutils/src/oled.cpp:54 (discriminator 1)
    8e58:	e3a03001 	mov	r3, #1
    8e5c:	ea000000 	b	8e64 <_ZN13COLED_Display9Set_PixelEttb+0xc0>
/mnt/c/Users/Kuba/Documents/ZeroMate/examples/18-edf/stdutils/src/oled.cpp:54 (discriminator 2)
    8e60:	e3a03000 	mov	r3, #0
/mnt/c/Users/Kuba/Documents/ZeroMate/examples/18-edf/stdutils/src/oled.cpp:54 (discriminator 4)
    8e64:	e54b3005 	strb	r3, [fp, #-5]
/mnt/c/Users/Kuba/Documents/ZeroMate/examples/18-edf/stdutils/src/oled.cpp:55 (discriminator 4)
    write(mHandle, reinterpret_cast<char*>(&pkt), sizeof(pkt));
    8e68:	e51b3010 	ldr	r3, [fp, #-16]
    8e6c:	e5933000 	ldr	r3, [r3]
    8e70:	e24b100c 	sub	r1, fp, #12
    8e74:	e3a02008 	mov	r2, #8
    8e78:	e1a00003 	mov	r0, r3
    8e7c:	ebfffd6f 	bl	8440 <_Z5writejPKcj>
    8e80:	ea000000 	b	8e88 <_ZN13COLED_Display9Set_PixelEttb+0xe4>
/mnt/c/Users/Kuba/Documents/ZeroMate/examples/18-edf/stdutils/src/oled.cpp:46
        return;
    8e84:	e320f000 	nop	{0}
/mnt/c/Users/Kuba/Documents/ZeroMate/examples/18-edf/stdutils/src/oled.cpp:56
}
    8e88:	e24bd004 	sub	sp, fp, #4
    8e8c:	e8bd8800 	pop	{fp, pc}

00008e90 <_ZN13COLED_Display8Put_CharEttc>:
_ZN13COLED_Display8Put_CharEttc():
/mnt/c/Users/Kuba/Documents/ZeroMate/examples/18-edf/stdutils/src/oled.cpp:59

void COLED_Display::Put_Char(uint16_t x, uint16_t y, char c)
{
    8e90:	e92d4800 	push	{fp, lr}
    8e94:	e28db004 	add	fp, sp, #4
    8e98:	e24dd028 	sub	sp, sp, #40	; 0x28
    8e9c:	e50b0020 	str	r0, [fp, #-32]	; 0xffffffe0
    8ea0:	e1a00001 	mov	r0, r1
    8ea4:	e1a01002 	mov	r1, r2
    8ea8:	e1a02003 	mov	r2, r3
    8eac:	e1a03000 	mov	r3, r0
    8eb0:	e14b32b2 	strh	r3, [fp, #-34]	; 0xffffffde
    8eb4:	e1a03001 	mov	r3, r1
    8eb8:	e14b32b4 	strh	r3, [fp, #-36]	; 0xffffffdc
    8ebc:	e1a03002 	mov	r3, r2
    8ec0:	e54b3025 	strb	r3, [fp, #-37]	; 0xffffffdb
/mnt/c/Users/Kuba/Documents/ZeroMate/examples/18-edf/stdutils/src/oled.cpp:60
    if (!mOpened)
    8ec4:	e51b3020 	ldr	r3, [fp, #-32]	; 0xffffffe0
    8ec8:	e5d33004 	ldrb	r3, [r3, #4]
    8ecc:	e2233001 	eor	r3, r3, #1
    8ed0:	e6ef3073 	uxtb	r3, r3
    8ed4:	e3530000 	cmp	r3, #0
    8ed8:	1a000040 	bne	8fe0 <_ZN13COLED_Display8Put_CharEttc+0x150>
/mnt/c/Users/Kuba/Documents/ZeroMate/examples/18-edf/stdutils/src/oled.cpp:64
        return;

    // umime jen nektere znaky
    if (c < OLED_Font::Char_Begin || c >= OLED_Font::Char_End)
    8edc:	e55b3025 	ldrb	r3, [fp, #-37]	; 0xffffffdb
    8ee0:	e353001f 	cmp	r3, #31
    8ee4:	9a00003f 	bls	8fe8 <_ZN13COLED_Display8Put_CharEttc+0x158>
/mnt/c/Users/Kuba/Documents/ZeroMate/examples/18-edf/stdutils/src/oled.cpp:64 (discriminator 1)
    8ee8:	e15b32d5 	ldrsb	r3, [fp, #-37]	; 0xffffffdb
    8eec:	e3530000 	cmp	r3, #0
    8ef0:	ba00003c 	blt	8fe8 <_ZN13COLED_Display8Put_CharEttc+0x158>
/mnt/c/Users/Kuba/Documents/ZeroMate/examples/18-edf/stdutils/src/oled.cpp:69
        return;

    char buf[sizeof(TDisplay_Pixels_To_Rect) + OLED_Font::Char_Width];

    TDisplay_Pixels_To_Rect* ptr = reinterpret_cast<TDisplay_Pixels_To_Rect*>(buf);
    8ef4:	e24b301c 	sub	r3, fp, #28
    8ef8:	e50b3008 	str	r3, [fp, #-8]
/mnt/c/Users/Kuba/Documents/ZeroMate/examples/18-edf/stdutils/src/oled.cpp:70
    ptr->header.cmd = NDisplay_Command::Draw_Pixel_Array_To_Rect;
    8efc:	e51b3008 	ldr	r3, [fp, #-8]
    8f00:	e3a02004 	mov	r2, #4
    8f04:	e5c32000 	strb	r2, [r3]
/mnt/c/Users/Kuba/Documents/ZeroMate/examples/18-edf/stdutils/src/oled.cpp:71
    ptr->w = OLED_Font::Char_Width;
    8f08:	e51b3008 	ldr	r3, [fp, #-8]
    8f0c:	e3a02000 	mov	r2, #0
    8f10:	e3822006 	orr	r2, r2, #6
    8f14:	e5c32005 	strb	r2, [r3, #5]
    8f18:	e3a02000 	mov	r2, #0
    8f1c:	e5c32006 	strb	r2, [r3, #6]
/mnt/c/Users/Kuba/Documents/ZeroMate/examples/18-edf/stdutils/src/oled.cpp:72
    ptr->h = OLED_Font::Char_Height;
    8f20:	e51b3008 	ldr	r3, [fp, #-8]
    8f24:	e3a02000 	mov	r2, #0
    8f28:	e3822008 	orr	r2, r2, #8
    8f2c:	e5c32007 	strb	r2, [r3, #7]
    8f30:	e3a02000 	mov	r2, #0
    8f34:	e5c32008 	strb	r2, [r3, #8]
/mnt/c/Users/Kuba/Documents/ZeroMate/examples/18-edf/stdutils/src/oled.cpp:73
    ptr->x1 = x;
    8f38:	e51b3008 	ldr	r3, [fp, #-8]
    8f3c:	e55b2022 	ldrb	r2, [fp, #-34]	; 0xffffffde
    8f40:	e3a01000 	mov	r1, #0
    8f44:	e1812002 	orr	r2, r1, r2
    8f48:	e5c32001 	strb	r2, [r3, #1]
    8f4c:	e55b2021 	ldrb	r2, [fp, #-33]	; 0xffffffdf
    8f50:	e3a01000 	mov	r1, #0
    8f54:	e1812002 	orr	r2, r1, r2
    8f58:	e5c32002 	strb	r2, [r3, #2]
/mnt/c/Users/Kuba/Documents/ZeroMate/examples/18-edf/stdutils/src/oled.cpp:74
    ptr->y1 = y;
    8f5c:	e51b3008 	ldr	r3, [fp, #-8]
    8f60:	e55b2024 	ldrb	r2, [fp, #-36]	; 0xffffffdc
    8f64:	e3a01000 	mov	r1, #0
    8f68:	e1812002 	orr	r2, r1, r2
    8f6c:	e5c32003 	strb	r2, [r3, #3]
    8f70:	e55b2023 	ldrb	r2, [fp, #-35]	; 0xffffffdd
    8f74:	e3a01000 	mov	r1, #0
    8f78:	e1812002 	orr	r2, r1, r2
    8f7c:	e5c32004 	strb	r2, [r3, #4]
/mnt/c/Users/Kuba/Documents/ZeroMate/examples/18-edf/stdutils/src/oled.cpp:75
    ptr->vflip = OLED_Font::Flip_Chars ? 1 : 0;
    8f80:	e51b3008 	ldr	r3, [fp, #-8]
    8f84:	e3a02001 	mov	r2, #1
    8f88:	e5c32009 	strb	r2, [r3, #9]
/mnt/c/Users/Kuba/Documents/ZeroMate/examples/18-edf/stdutils/src/oled.cpp:77
    
    memcpy(&OLED_Font::OLED_Font_Default[OLED_Font::Char_Width * (((uint16_t)c) - OLED_Font::Char_Begin)], &ptr->first, OLED_Font::Char_Width);
    8f8c:	e55b3025 	ldrb	r3, [fp, #-37]	; 0xffffffdb
    8f90:	e2432020 	sub	r2, r3, #32
    8f94:	e1a03002 	mov	r3, r2
    8f98:	e1a03083 	lsl	r3, r3, #1
    8f9c:	e0833002 	add	r3, r3, r2
    8fa0:	e1a03083 	lsl	r3, r3, #1
    8fa4:	e1a02003 	mov	r2, r3
    8fa8:	e59f3044 	ldr	r3, [pc, #68]	; 8ff4 <_ZN13COLED_Display8Put_CharEttc+0x164>
    8fac:	e0820003 	add	r0, r2, r3
    8fb0:	e51b3008 	ldr	r3, [fp, #-8]
    8fb4:	e283300a 	add	r3, r3, #10
    8fb8:	e3a02006 	mov	r2, #6
    8fbc:	e1a01003 	mov	r1, r3
    8fc0:	ebffff01 	bl	8bcc <_Z6memcpyPKvPvi>
/mnt/c/Users/Kuba/Documents/ZeroMate/examples/18-edf/stdutils/src/oled.cpp:79

    write(mHandle, buf, sizeof(buf));
    8fc4:	e51b3020 	ldr	r3, [fp, #-32]	; 0xffffffe0
    8fc8:	e5933000 	ldr	r3, [r3]
    8fcc:	e24b101c 	sub	r1, fp, #28
    8fd0:	e3a02011 	mov	r2, #17
    8fd4:	e1a00003 	mov	r0, r3
    8fd8:	ebfffd18 	bl	8440 <_Z5writejPKcj>
    8fdc:	ea000002 	b	8fec <_ZN13COLED_Display8Put_CharEttc+0x15c>
/mnt/c/Users/Kuba/Documents/ZeroMate/examples/18-edf/stdutils/src/oled.cpp:61
        return;
    8fe0:	e320f000 	nop	{0}
    8fe4:	ea000000 	b	8fec <_ZN13COLED_Display8Put_CharEttc+0x15c>
/mnt/c/Users/Kuba/Documents/ZeroMate/examples/18-edf/stdutils/src/oled.cpp:65
        return;
    8fe8:	e320f000 	nop	{0}
/mnt/c/Users/Kuba/Documents/ZeroMate/examples/18-edf/stdutils/src/oled.cpp:80
}
    8fec:	e24bd004 	sub	sp, fp, #4
    8ff0:	e8bd8800 	pop	{fp, pc}
    8ff4:	000094d4 	ldrdeq	r9, [r0], -r4

00008ff8 <_ZN13COLED_Display4FlipEv>:
_ZN13COLED_Display4FlipEv():
/mnt/c/Users/Kuba/Documents/ZeroMate/examples/18-edf/stdutils/src/oled.cpp:83

void COLED_Display::Flip()
{
    8ff8:	e92d4800 	push	{fp, lr}
    8ffc:	e28db004 	add	fp, sp, #4
    9000:	e24dd010 	sub	sp, sp, #16
    9004:	e50b0010 	str	r0, [fp, #-16]
/mnt/c/Users/Kuba/Documents/ZeroMate/examples/18-edf/stdutils/src/oled.cpp:84
    if (!mOpened)
    9008:	e51b3010 	ldr	r3, [fp, #-16]
    900c:	e5d33004 	ldrb	r3, [r3, #4]
    9010:	e2233001 	eor	r3, r3, #1
    9014:	e6ef3073 	uxtb	r3, r3
    9018:	e3530000 	cmp	r3, #0
    901c:	1a000008 	bne	9044 <_ZN13COLED_Display4FlipEv+0x4c>
/mnt/c/Users/Kuba/Documents/ZeroMate/examples/18-edf/stdutils/src/oled.cpp:88
        return;

    TDisplay_NonParametric_Packet pkt;
    pkt.header.cmd = NDisplay_Command::Flip;
    9020:	e3a03001 	mov	r3, #1
    9024:	e54b3008 	strb	r3, [fp, #-8]
/mnt/c/Users/Kuba/Documents/ZeroMate/examples/18-edf/stdutils/src/oled.cpp:90

    write(mHandle, reinterpret_cast<char*>(&pkt), sizeof(pkt));
    9028:	e51b3010 	ldr	r3, [fp, #-16]
    902c:	e5933000 	ldr	r3, [r3]
    9030:	e24b1008 	sub	r1, fp, #8
    9034:	e3a02001 	mov	r2, #1
    9038:	e1a00003 	mov	r0, r3
    903c:	ebfffcff 	bl	8440 <_Z5writejPKcj>
    9040:	ea000000 	b	9048 <_ZN13COLED_Display4FlipEv+0x50>
/mnt/c/Users/Kuba/Documents/ZeroMate/examples/18-edf/stdutils/src/oled.cpp:85
        return;
    9044:	e320f000 	nop	{0}
/mnt/c/Users/Kuba/Documents/ZeroMate/examples/18-edf/stdutils/src/oled.cpp:91
}
    9048:	e24bd004 	sub	sp, fp, #4
    904c:	e8bd8800 	pop	{fp, pc}

00009050 <_ZN13COLED_Display10Put_StringEttPKc>:
_ZN13COLED_Display10Put_StringEttPKc():
/mnt/c/Users/Kuba/Documents/ZeroMate/examples/18-edf/stdutils/src/oled.cpp:94

void COLED_Display::Put_String(uint16_t x, uint16_t y, const char* str)
{
    9050:	e92d4800 	push	{fp, lr}
    9054:	e28db004 	add	fp, sp, #4
    9058:	e24dd018 	sub	sp, sp, #24
    905c:	e50b0010 	str	r0, [fp, #-16]
    9060:	e50b3018 	str	r3, [fp, #-24]	; 0xffffffe8
    9064:	e1a03001 	mov	r3, r1
    9068:	e14b31b2 	strh	r3, [fp, #-18]	; 0xffffffee
    906c:	e1a03002 	mov	r3, r2
    9070:	e14b31b4 	strh	r3, [fp, #-20]	; 0xffffffec
/mnt/c/Users/Kuba/Documents/ZeroMate/examples/18-edf/stdutils/src/oled.cpp:95
    if (!mOpened)
    9074:	e51b3010 	ldr	r3, [fp, #-16]
    9078:	e5d33004 	ldrb	r3, [r3, #4]
    907c:	e2233001 	eor	r3, r3, #1
    9080:	e6ef3073 	uxtb	r3, r3
    9084:	e3530000 	cmp	r3, #0
    9088:	1a000019 	bne	90f4 <_ZN13COLED_Display10Put_StringEttPKc+0xa4>
/mnt/c/Users/Kuba/Documents/ZeroMate/examples/18-edf/stdutils/src/oled.cpp:98
        return;

    uint16_t xi = x;
    908c:	e15b31b2 	ldrh	r3, [fp, #-18]	; 0xffffffee
    9090:	e14b30b6 	strh	r3, [fp, #-6]
/mnt/c/Users/Kuba/Documents/ZeroMate/examples/18-edf/stdutils/src/oled.cpp:99
    const char* ptr = str;
    9094:	e51b3018 	ldr	r3, [fp, #-24]	; 0xffffffe8
    9098:	e50b300c 	str	r3, [fp, #-12]
/mnt/c/Users/Kuba/Documents/ZeroMate/examples/18-edf/stdutils/src/oled.cpp:101
    // dokud nedojdeme na konec retezce nebo dokud nejsme 64 znaku daleko (limit, kdyby nahodou se neco pokazilo)
    while (*ptr != '\0' && ptr - str < 64)
    909c:	e51b300c 	ldr	r3, [fp, #-12]
    90a0:	e5d33000 	ldrb	r3, [r3]
    90a4:	e3530000 	cmp	r3, #0
    90a8:	0a000012 	beq	90f8 <_ZN13COLED_Display10Put_StringEttPKc+0xa8>
/mnt/c/Users/Kuba/Documents/ZeroMate/examples/18-edf/stdutils/src/oled.cpp:101 (discriminator 1)
    90ac:	e51b200c 	ldr	r2, [fp, #-12]
    90b0:	e51b3018 	ldr	r3, [fp, #-24]	; 0xffffffe8
    90b4:	e0423003 	sub	r3, r2, r3
    90b8:	e353003f 	cmp	r3, #63	; 0x3f
    90bc:	ca00000d 	bgt	90f8 <_ZN13COLED_Display10Put_StringEttPKc+0xa8>
/mnt/c/Users/Kuba/Documents/ZeroMate/examples/18-edf/stdutils/src/oled.cpp:103
    {
        Put_Char(xi, y, *ptr);
    90c0:	e51b300c 	ldr	r3, [fp, #-12]
    90c4:	e5d33000 	ldrb	r3, [r3]
    90c8:	e15b21b4 	ldrh	r2, [fp, #-20]	; 0xffffffec
    90cc:	e15b10b6 	ldrh	r1, [fp, #-6]
    90d0:	e51b0010 	ldr	r0, [fp, #-16]
    90d4:	ebffff6d 	bl	8e90 <_ZN13COLED_Display8Put_CharEttc>
/mnt/c/Users/Kuba/Documents/ZeroMate/examples/18-edf/stdutils/src/oled.cpp:104
        xi += OLED_Font::Char_Width;
    90d8:	e15b30b6 	ldrh	r3, [fp, #-6]
    90dc:	e2833006 	add	r3, r3, #6
    90e0:	e14b30b6 	strh	r3, [fp, #-6]
/mnt/c/Users/Kuba/Documents/ZeroMate/examples/18-edf/stdutils/src/oled.cpp:105
        ptr++;
    90e4:	e51b300c 	ldr	r3, [fp, #-12]
    90e8:	e2833001 	add	r3, r3, #1
    90ec:	e50b300c 	str	r3, [fp, #-12]
/mnt/c/Users/Kuba/Documents/ZeroMate/examples/18-edf/stdutils/src/oled.cpp:101
    while (*ptr != '\0' && ptr - str < 64)
    90f0:	eaffffe9 	b	909c <_ZN13COLED_Display10Put_StringEttPKc+0x4c>
/mnt/c/Users/Kuba/Documents/ZeroMate/examples/18-edf/stdutils/src/oled.cpp:96
        return;
    90f4:	e320f000 	nop	{0}
/mnt/c/Users/Kuba/Documents/ZeroMate/examples/18-edf/stdutils/src/oled.cpp:107
    }
}
    90f8:	e24bd004 	sub	sp, fp, #4
    90fc:	e8bd8800 	pop	{fp, pc}

00009100 <__udivsi3>:
__udivsi3():
/build/gcc-arm-none-eabi-hYfgK4/gcc-arm-none-eabi-10.3-2021.07/build/arm-none-eabi/arm/v5te/hard/libgcc/../../../../../../libgcc/config/arm/lib1funcs.S:1104
    9100:	e2512001 	subs	r2, r1, #1
/build/gcc-arm-none-eabi-hYfgK4/gcc-arm-none-eabi-10.3-2021.07/build/arm-none-eabi/arm/v5te/hard/libgcc/../../../../../../libgcc/config/arm/lib1funcs.S:1106
    9104:	012fff1e 	bxeq	lr
/build/gcc-arm-none-eabi-hYfgK4/gcc-arm-none-eabi-10.3-2021.07/build/arm-none-eabi/arm/v5te/hard/libgcc/../../../../../../libgcc/config/arm/lib1funcs.S:1107
    9108:	3a000074 	bcc	92e0 <__udivsi3+0x1e0>
/build/gcc-arm-none-eabi-hYfgK4/gcc-arm-none-eabi-10.3-2021.07/build/arm-none-eabi/arm/v5te/hard/libgcc/../../../../../../libgcc/config/arm/lib1funcs.S:1108
    910c:	e1500001 	cmp	r0, r1
/build/gcc-arm-none-eabi-hYfgK4/gcc-arm-none-eabi-10.3-2021.07/build/arm-none-eabi/arm/v5te/hard/libgcc/../../../../../../libgcc/config/arm/lib1funcs.S:1109
    9110:	9a00006b 	bls	92c4 <__udivsi3+0x1c4>
/build/gcc-arm-none-eabi-hYfgK4/gcc-arm-none-eabi-10.3-2021.07/build/arm-none-eabi/arm/v5te/hard/libgcc/../../../../../../libgcc/config/arm/lib1funcs.S:1110
    9114:	e1110002 	tst	r1, r2
/build/gcc-arm-none-eabi-hYfgK4/gcc-arm-none-eabi-10.3-2021.07/build/arm-none-eabi/arm/v5te/hard/libgcc/../../../../../../libgcc/config/arm/lib1funcs.S:1111
    9118:	0a00006c 	beq	92d0 <__udivsi3+0x1d0>
/build/gcc-arm-none-eabi-hYfgK4/gcc-arm-none-eabi-10.3-2021.07/build/arm-none-eabi/arm/v5te/hard/libgcc/../../../../../../libgcc/config/arm/lib1funcs.S:1113
    911c:	e16f3f10 	clz	r3, r0
    9120:	e16f2f11 	clz	r2, r1
    9124:	e0423003 	sub	r3, r2, r3
    9128:	e273301f 	rsbs	r3, r3, #31
    912c:	10833083 	addne	r3, r3, r3, lsl #1
    9130:	e3a02000 	mov	r2, #0
    9134:	108ff103 	addne	pc, pc, r3, lsl #2
    9138:	e1a00000 	nop			; (mov r0, r0)
    913c:	e1500f81 	cmp	r0, r1, lsl #31
    9140:	e0a22002 	adc	r2, r2, r2
    9144:	20400f81 	subcs	r0, r0, r1, lsl #31
    9148:	e1500f01 	cmp	r0, r1, lsl #30
    914c:	e0a22002 	adc	r2, r2, r2
    9150:	20400f01 	subcs	r0, r0, r1, lsl #30
    9154:	e1500e81 	cmp	r0, r1, lsl #29
    9158:	e0a22002 	adc	r2, r2, r2
    915c:	20400e81 	subcs	r0, r0, r1, lsl #29
    9160:	e1500e01 	cmp	r0, r1, lsl #28
    9164:	e0a22002 	adc	r2, r2, r2
    9168:	20400e01 	subcs	r0, r0, r1, lsl #28
    916c:	e1500d81 	cmp	r0, r1, lsl #27
    9170:	e0a22002 	adc	r2, r2, r2
    9174:	20400d81 	subcs	r0, r0, r1, lsl #27
    9178:	e1500d01 	cmp	r0, r1, lsl #26
    917c:	e0a22002 	adc	r2, r2, r2
    9180:	20400d01 	subcs	r0, r0, r1, lsl #26
    9184:	e1500c81 	cmp	r0, r1, lsl #25
    9188:	e0a22002 	adc	r2, r2, r2
    918c:	20400c81 	subcs	r0, r0, r1, lsl #25
    9190:	e1500c01 	cmp	r0, r1, lsl #24
    9194:	e0a22002 	adc	r2, r2, r2
    9198:	20400c01 	subcs	r0, r0, r1, lsl #24
    919c:	e1500b81 	cmp	r0, r1, lsl #23
    91a0:	e0a22002 	adc	r2, r2, r2
    91a4:	20400b81 	subcs	r0, r0, r1, lsl #23
    91a8:	e1500b01 	cmp	r0, r1, lsl #22
    91ac:	e0a22002 	adc	r2, r2, r2
    91b0:	20400b01 	subcs	r0, r0, r1, lsl #22
    91b4:	e1500a81 	cmp	r0, r1, lsl #21
    91b8:	e0a22002 	adc	r2, r2, r2
    91bc:	20400a81 	subcs	r0, r0, r1, lsl #21
    91c0:	e1500a01 	cmp	r0, r1, lsl #20
    91c4:	e0a22002 	adc	r2, r2, r2
    91c8:	20400a01 	subcs	r0, r0, r1, lsl #20
    91cc:	e1500981 	cmp	r0, r1, lsl #19
    91d0:	e0a22002 	adc	r2, r2, r2
    91d4:	20400981 	subcs	r0, r0, r1, lsl #19
    91d8:	e1500901 	cmp	r0, r1, lsl #18
    91dc:	e0a22002 	adc	r2, r2, r2
    91e0:	20400901 	subcs	r0, r0, r1, lsl #18
    91e4:	e1500881 	cmp	r0, r1, lsl #17
    91e8:	e0a22002 	adc	r2, r2, r2
    91ec:	20400881 	subcs	r0, r0, r1, lsl #17
    91f0:	e1500801 	cmp	r0, r1, lsl #16
    91f4:	e0a22002 	adc	r2, r2, r2
    91f8:	20400801 	subcs	r0, r0, r1, lsl #16
    91fc:	e1500781 	cmp	r0, r1, lsl #15
    9200:	e0a22002 	adc	r2, r2, r2
    9204:	20400781 	subcs	r0, r0, r1, lsl #15
    9208:	e1500701 	cmp	r0, r1, lsl #14
    920c:	e0a22002 	adc	r2, r2, r2
    9210:	20400701 	subcs	r0, r0, r1, lsl #14
    9214:	e1500681 	cmp	r0, r1, lsl #13
    9218:	e0a22002 	adc	r2, r2, r2
    921c:	20400681 	subcs	r0, r0, r1, lsl #13
    9220:	e1500601 	cmp	r0, r1, lsl #12
    9224:	e0a22002 	adc	r2, r2, r2
    9228:	20400601 	subcs	r0, r0, r1, lsl #12
    922c:	e1500581 	cmp	r0, r1, lsl #11
    9230:	e0a22002 	adc	r2, r2, r2
    9234:	20400581 	subcs	r0, r0, r1, lsl #11
    9238:	e1500501 	cmp	r0, r1, lsl #10
    923c:	e0a22002 	adc	r2, r2, r2
    9240:	20400501 	subcs	r0, r0, r1, lsl #10
    9244:	e1500481 	cmp	r0, r1, lsl #9
    9248:	e0a22002 	adc	r2, r2, r2
    924c:	20400481 	subcs	r0, r0, r1, lsl #9
    9250:	e1500401 	cmp	r0, r1, lsl #8
    9254:	e0a22002 	adc	r2, r2, r2
    9258:	20400401 	subcs	r0, r0, r1, lsl #8
    925c:	e1500381 	cmp	r0, r1, lsl #7
    9260:	e0a22002 	adc	r2, r2, r2
    9264:	20400381 	subcs	r0, r0, r1, lsl #7
    9268:	e1500301 	cmp	r0, r1, lsl #6
    926c:	e0a22002 	adc	r2, r2, r2
    9270:	20400301 	subcs	r0, r0, r1, lsl #6
    9274:	e1500281 	cmp	r0, r1, lsl #5
    9278:	e0a22002 	adc	r2, r2, r2
    927c:	20400281 	subcs	r0, r0, r1, lsl #5
    9280:	e1500201 	cmp	r0, r1, lsl #4
    9284:	e0a22002 	adc	r2, r2, r2
    9288:	20400201 	subcs	r0, r0, r1, lsl #4
    928c:	e1500181 	cmp	r0, r1, lsl #3
    9290:	e0a22002 	adc	r2, r2, r2
    9294:	20400181 	subcs	r0, r0, r1, lsl #3
    9298:	e1500101 	cmp	r0, r1, lsl #2
    929c:	e0a22002 	adc	r2, r2, r2
    92a0:	20400101 	subcs	r0, r0, r1, lsl #2
    92a4:	e1500081 	cmp	r0, r1, lsl #1
    92a8:	e0a22002 	adc	r2, r2, r2
    92ac:	20400081 	subcs	r0, r0, r1, lsl #1
    92b0:	e1500001 	cmp	r0, r1
    92b4:	e0a22002 	adc	r2, r2, r2
    92b8:	20400001 	subcs	r0, r0, r1
/build/gcc-arm-none-eabi-hYfgK4/gcc-arm-none-eabi-10.3-2021.07/build/arm-none-eabi/arm/v5te/hard/libgcc/../../../../../../libgcc/config/arm/lib1funcs.S:1115
    92bc:	e1a00002 	mov	r0, r2
/build/gcc-arm-none-eabi-hYfgK4/gcc-arm-none-eabi-10.3-2021.07/build/arm-none-eabi/arm/v5te/hard/libgcc/../../../../../../libgcc/config/arm/lib1funcs.S:1116
    92c0:	e12fff1e 	bx	lr
/build/gcc-arm-none-eabi-hYfgK4/gcc-arm-none-eabi-10.3-2021.07/build/arm-none-eabi/arm/v5te/hard/libgcc/../../../../../../libgcc/config/arm/lib1funcs.S:1119
    92c4:	03a00001 	moveq	r0, #1
/build/gcc-arm-none-eabi-hYfgK4/gcc-arm-none-eabi-10.3-2021.07/build/arm-none-eabi/arm/v5te/hard/libgcc/../../../../../../libgcc/config/arm/lib1funcs.S:1120
    92c8:	13a00000 	movne	r0, #0
/build/gcc-arm-none-eabi-hYfgK4/gcc-arm-none-eabi-10.3-2021.07/build/arm-none-eabi/arm/v5te/hard/libgcc/../../../../../../libgcc/config/arm/lib1funcs.S:1121
    92cc:	e12fff1e 	bx	lr
/build/gcc-arm-none-eabi-hYfgK4/gcc-arm-none-eabi-10.3-2021.07/build/arm-none-eabi/arm/v5te/hard/libgcc/../../../../../../libgcc/config/arm/lib1funcs.S:1123
    92d0:	e16f2f11 	clz	r2, r1
    92d4:	e262201f 	rsb	r2, r2, #31
/build/gcc-arm-none-eabi-hYfgK4/gcc-arm-none-eabi-10.3-2021.07/build/arm-none-eabi/arm/v5te/hard/libgcc/../../../../../../libgcc/config/arm/lib1funcs.S:1125
    92d8:	e1a00230 	lsr	r0, r0, r2
/build/gcc-arm-none-eabi-hYfgK4/gcc-arm-none-eabi-10.3-2021.07/build/arm-none-eabi/arm/v5te/hard/libgcc/../../../../../../libgcc/config/arm/lib1funcs.S:1126
    92dc:	e12fff1e 	bx	lr
/build/gcc-arm-none-eabi-hYfgK4/gcc-arm-none-eabi-10.3-2021.07/build/arm-none-eabi/arm/v5te/hard/libgcc/../../../../../../libgcc/config/arm/lib1funcs.S:1130
    92e0:	e3500000 	cmp	r0, #0
    92e4:	13e00000 	mvnne	r0, #0
    92e8:	ea000007 	b	930c <__aeabi_idiv0>

000092ec <__aeabi_uidivmod>:
__aeabi_uidivmod():
/build/gcc-arm-none-eabi-hYfgK4/gcc-arm-none-eabi-10.3-2021.07/build/arm-none-eabi/arm/v5te/hard/libgcc/../../../../../../libgcc/config/arm/lib1funcs.S:1161
    92ec:	e3510000 	cmp	r1, #0
/build/gcc-arm-none-eabi-hYfgK4/gcc-arm-none-eabi-10.3-2021.07/build/arm-none-eabi/arm/v5te/hard/libgcc/../../../../../../libgcc/config/arm/lib1funcs.S:1162
    92f0:	0afffffa 	beq	92e0 <__udivsi3+0x1e0>
/build/gcc-arm-none-eabi-hYfgK4/gcc-arm-none-eabi-10.3-2021.07/build/arm-none-eabi/arm/v5te/hard/libgcc/../../../../../../libgcc/config/arm/lib1funcs.S:1163
    92f4:	e92d4003 	push	{r0, r1, lr}
/build/gcc-arm-none-eabi-hYfgK4/gcc-arm-none-eabi-10.3-2021.07/build/arm-none-eabi/arm/v5te/hard/libgcc/../../../../../../libgcc/config/arm/lib1funcs.S:1164
    92f8:	ebffff80 	bl	9100 <__udivsi3>
/build/gcc-arm-none-eabi-hYfgK4/gcc-arm-none-eabi-10.3-2021.07/build/arm-none-eabi/arm/v5te/hard/libgcc/../../../../../../libgcc/config/arm/lib1funcs.S:1165
    92fc:	e8bd4006 	pop	{r1, r2, lr}
/build/gcc-arm-none-eabi-hYfgK4/gcc-arm-none-eabi-10.3-2021.07/build/arm-none-eabi/arm/v5te/hard/libgcc/../../../../../../libgcc/config/arm/lib1funcs.S:1166
    9300:	e0030092 	mul	r3, r2, r0
/build/gcc-arm-none-eabi-hYfgK4/gcc-arm-none-eabi-10.3-2021.07/build/arm-none-eabi/arm/v5te/hard/libgcc/../../../../../../libgcc/config/arm/lib1funcs.S:1167
    9304:	e0411003 	sub	r1, r1, r3
/build/gcc-arm-none-eabi-hYfgK4/gcc-arm-none-eabi-10.3-2021.07/build/arm-none-eabi/arm/v5te/hard/libgcc/../../../../../../libgcc/config/arm/lib1funcs.S:1168
    9308:	e12fff1e 	bx	lr

0000930c <__aeabi_idiv0>:
__aeabi_ldiv0():
/build/gcc-arm-none-eabi-hYfgK4/gcc-arm-none-eabi-10.3-2021.07/build/arm-none-eabi/arm/v5te/hard/libgcc/../../../../../../libgcc/config/arm/lib1funcs.S:1466
    930c:	e12fff1e 	bx	lr
